(dp1
S'output'
p2
S"<type 'exceptions.NameError'> name 'submenu_info' is not defined"
p3
sS'layer'
p4
S'/home/marco/flisol2012/web2py/applications/flisol2012/models/menu.py'
p5
sS'code'
p6
S"# coding: utf8\n\nsession.manager=(auth.user and auth.user.email in MANAGERS)\n\nresponse.menu=[[T('Main'),False,URL(r=request,c='default',f='index')]]\n\nif not auth.user:\n    response.menu.append([T('Register'),False,URL(r=request,c='default',f='registrar')])\n\nif CONFERENCE_URL:\n    response.menu.append([T('Conference'),False,CONFERENCE_URL])\nelse:\n    submenu_conf=[\n        [T('About'),True,URL(r=request,c='conference',f='about')],\n        [T('Venue'),True,URL(r=request,c='conference',f='venue')],\n        [T('Software'),True,URL(r=request,c='conference',f='software')],\n        [T('Schedule'),True,URL(r=request,c='conference',f='schedule')],\n        #[T('Communities'),True,URL(r=request,c='conference',f='communities')],\n        [T('Talk Proposals'),True,URL(r=request,c='conference',f='proposals')],\n        [T('Staff'),True,URL(r=request,c='conference',f='staff')],\n    ]\n    response.menu.append([T('Conference'),False,'#',submenu_conf])\n\n#submenu_info=[\n#        [T('Companies'),False,URL(r=request,c='default',f='companies')],\n#        [T('Attendees'),False,URL(r=request,c='default',f='attendees')],\n#        [T('Charts'),False,URL(r=request,c='default',f='charts')],\n#        [T('Maps'),False,URL(r=request,c='default',f='maps')],\n#]\n#if ENABLE_TALKS:\n#   submenu_info.append([T('Accepted Talks'),False,URL(r=request,c='default',f='accepted_talks')])\n#   submenu_info.append([T('Proposed Talks'),False,URL(r=request,c='default',f='proposed_talks')])\n\nresponse.menu.append([T('Stats'),False,'#',submenu_info])\nresponse.menu.append([T('About'),False,URL(r=request,c='default',f='about')])\n\nif auth.user:\n    response.menu.append([T('Expenses'),True,URL(r=request,c='expenses',f='index')])\n    response.menu.append([T('Profile'),False,URL(r=request,c='default',f='profile')])\n    response.menu.append([T('Logout'),False,URL(r=request,c='default',f='logout')])\nelse:\n    response.menu.append([T('Login'),False,URL(r=request,c='default',f='login')])\n\n#############################################\n# Insert Manage sub-menu item\n#############################################    \n\nif auth.user and session.manager:\n    submenu=[\n        [T('Financials'),False,URL(r=request,c='default',f='financials')],\n        [T('Payments'),False,URL(r=request,c='default',f='payments')],\n        # [T('CSV for Badges'),False,URL(r=request,c='default',f='badges')],\n        [T('Attendee Mail-List'),False, URL(r=request,c='default',f='maillist')],\n        [T('Badges'),False,URL(r=request,c='default',f='badge',args='auth_user')],\n        [T('Tutorials'),False,URL(r=request,c='default',f='list_by_tutorial')],\n        # [T('Tutorials+food'),False,URL(r=request,c='default',f='by_tutorial_csv')],\n        [T('FA-CSV'),False,URL(r=request,c='default',f='fa_csv')],\n        [T('FA-(email all)'),False,URL(r=request,c='default',f='fa_email_all')]\n    ]\n    submenu+=[['[%s]' % (table if not table[:3]=='t2_' else table[3:]),\n               False,t2.action('create',table)] for table in db.tables]\n    response.menu.append([T('Manage'),False,'#',submenu])\n\n#############################################\n# Insert Login and Logout menu items\n#############################################\n\nresponse.sidebar=[]\nif auth.user and ENABLE_TALKS:\n    talks=[(t.title,t2.action('display_talk',t.id)) \\\n           for t in db(db.talk.created_by==auth.user.id).select()]\n    talks.append((T('Propose talk'),URL(r=request,c='default',f='propose_talk')))\n    response.sidebar.append([T('Your Talks'),talks])\n"
p7
sS'snapshot'
p8
(dp9
S'exception'
p10
(dp11
S'__hash__'
p12
S"<method-wrapper '__hash__' of exceptions.NameError object>"
p13
sS'__setattr__'
p14
S"<method-wrapper '__setattr__' of exceptions.NameError object>"
p15
sS'__reduce_ex__'
p16
S'<built-in method __reduce_ex__ of exceptions.NameError object>'
p17
sS'__getslice__'
p18
S"<method-wrapper '__getslice__' of exceptions.NameError object>"
p19
sS'__getitem__'
p20
S"<method-wrapper '__getitem__' of exceptions.NameError object>"
p21
sS'__setstate__'
p22
S'<built-in method __setstate__ of exceptions.NameError object>'
p23
sS'args'
p24
S'("name \'submenu_info\' is not defined",)'
p25
sS'__reduce__'
p26
S'<built-in method __reduce__ of exceptions.NameError object>'
p27
sS'__str__'
p28
S"<method-wrapper '__str__' of exceptions.NameError object>"
p29
sS'__format__'
p30
S'<built-in method __format__ of exceptions.NameError object>'
p31
sS'__getattribute__'
p32
S"<method-wrapper '__getattribute__' of exceptions.NameError object>"
p33
sS'__class__'
p34
S"<type 'exceptions.NameError'>"
p35
sS'__unicode__'
p36
S'<built-in method __unicode__ of exceptions.NameError object>'
p37
sS'__delattr__'
p38
S"<method-wrapper '__delattr__' of exceptions.NameError object>"
p39
sS'__subclasshook__'
p40
S'<built-in method __subclasshook__ of type object>'
p41
sS'__repr__'
p42
S"<method-wrapper '__repr__' of exceptions.NameError object>"
p43
sS'__dict__'
p44
S'{}'
p45
sS'__sizeof__'
p46
S'<built-in method __sizeof__ of exceptions.NameError object>'
p47
sS'__doc__'
p48
S"'Name not found globally.'"
p49
sS'__init__'
p50
S"<method-wrapper '__init__' of exceptions.NameError object>"
p51
sS'__new__'
p52
S'<built-in method __new__ of type object>'
p53
ssS'evalue'
p54
S"name 'submenu_info' is not defined"
p55
sS'request'
p56
ccopy_reg
_reconstructor
p57
(cgluon.html
BEAUTIFY
p58
c__builtin__
object
p59
NtRp60
(dp61
S'attributes'
p62
(dp63
sS'components'
p64
(lp65
g57
(cgluon.html
TABLE
p66
g59
NtRp67
(dp68
g62
(dp69
S'level'
p70
I5
ssS'parent'
p71
Nsg64
(lp72
g57
(cgluon.html
TR
p73
g59
NtRp74
(dp75
g62
(dp76
sg71
g67
sg64
(lp77
g57
(cgluon.html
TD
p78
g59
NtRp79
(dp80
g62
(dp81
S'_style'
p82
S'font-weight:bold;vertical-align:top'
p83
ssg71
g74
sg64
(lp84
S'ajax'
p85
asbag57
(g78
g59
NtRp86
(dp87
g62
(dp88
S'_valign'
p89
S'top'
p90
ssg71
g74
sg64
(lp91
S':'
asbag57
(g78
g59
NtRp92
(dp93
g62
(dp94
sg71
g74
sg64
(lp95
g57
(g58
g59
NtRp96
(dp97
g62
(dp98
g70
I5
ssg71
g92
sg64
(lp99
S'False'
p100
asbasbasbag57
(g73
g59
NtRp101
(dp102
g62
(dp103
sg71
g67
sg64
(lp104
g57
(g78
g59
NtRp105
(dp106
g62
(dp107
g82
g83
ssg71
g101
sg64
(lp108
S'application'
p109
asbag57
(g78
g59
NtRp110
(dp111
g62
(dp112
g89
g90
ssg71
g101
sg64
(lp113
S':'
asbag57
(g78
g59
NtRp114
(dp115
g62
(dp116
sg71
g101
sg64
(lp117
g57
(g58
g59
NtRp118
(dp119
g62
(dp120
g70
I5
ssg71
g114
sg64
(lp121
S'flisol2012'
p122
asbasbasbag57
(g73
g59
NtRp123
(dp124
g62
(dp125
sg71
g67
sg64
(lp126
g57
(g78
g59
NtRp127
(dp128
g62
(dp129
g82
g83
ssg71
g123
sg64
(lp130
g24
asbag57
(g78
g59
NtRp131
(dp132
g62
(dp133
g89
g90
ssg71
g123
sg64
(lp134
S':'
asbag57
(g78
g59
NtRp135
(dp136
g62
(dp137
sg71
g123
sg64
(lp138
g57
(g58
g59
NtRp139
(dp140
g62
(dp141
g70
I5
ssg71
g135
sg64
(lp142
g57
(g66
g59
NtRp143
(dp144
g62
(dp145
g70
I4
ssg71
Nsg64
(lp146
sbasbasbasbag57
(g73
g59
NtRp147
(dp148
g62
(dp149
sg71
g67
sg64
(lp150
g57
(g78
g59
NtRp151
(dp152
g62
(dp153
g82
g83
ssg71
g147
sg64
(lp154
S'body'
p155
asbag57
(g78
g59
NtRp156
(dp157
g62
(dp158
g89
g90
ssg71
g147
sg64
(lp159
S':'
asbag57
(g78
g59
NtRp160
(dp161
g62
(dp162
sg71
g147
sg64
(lp163
g57
(g58
g59
NtRp164
(dp165
g62
(dp166
g70
I5
ssg71
g160
sg64
(lp167
S"<open file '<fdopen>', mode 'w+b' at 0x40c96f0>"
p168
asbasbasbag57
(g73
g59
NtRp169
(dp170
g62
(dp171
sg71
g67
sg64
(lp172
g57
(g78
g59
NtRp173
(dp174
g62
(dp175
g82
g83
ssg71
g169
sg64
(lp176
S'client'
p177
asbag57
(g78
g59
NtRp178
(dp179
g62
(dp180
g89
g90
ssg71
g169
sg64
(lp181
S':'
asbag57
(g78
g59
NtRp182
(dp183
g62
(dp184
sg71
g169
sg64
(lp185
g57
(g58
g59
NtRp186
(dp187
g62
(dp188
g70
I5
ssg71
g182
sg64
(lp189
S'127.0.0.1'
p190
asbasbasbag57
(g73
g59
NtRp191
(dp192
g62
(dp193
sg71
g67
sg64
(lp194
g57
(g78
g59
NtRp195
(dp196
g62
(dp197
g82
g83
ssg71
g191
sg64
(lp198
S'controller'
p199
asbag57
(g78
g59
NtRp200
(dp201
g62
(dp202
g89
g90
ssg71
g191
sg64
(lp203
S':'
asbag57
(g78
g59
NtRp204
(dp205
g62
(dp206
sg71
g191
sg64
(lp207
g57
(g58
g59
NtRp208
(dp209
g62
(dp210
g70
I5
ssg71
g204
sg64
(lp211
S'default'
p212
asbasbasbag57
(g73
g59
NtRp213
(dp214
g62
(dp215
sg71
g67
sg64
(lp216
g57
(g78
g59
NtRp217
(dp218
g62
(dp219
g82
g83
ssg71
g213
sg64
(lp220
S'cookies'
p221
asbag57
(g78
g59
NtRp222
(dp223
g62
(dp224
g89
g90
ssg71
g213
sg64
(lp225
S':'
asbag57
(g78
g59
NtRp226
(dp227
g62
(dp228
sg71
g213
sg64
(lp229
g57
(g58
g59
NtRp230
(dp231
g62
(dp232
g70
I5
ssg71
g226
sg64
(lp233
g57
(g66
g59
NtRp234
(dp235
g62
(dp236
g70
I4
ssg71
Nsg64
(lp237
g57
(g73
g59
NtRp238
(dp239
g62
(dp240
sg71
g234
sg64
(lp241
g57
(g78
g59
NtRp242
(dp243
g62
(dp244
g82
g83
ssg71
g238
sg64
(lp245
S'session_id_admin'
p246
asbag57
(g78
g59
NtRp247
(dp248
g62
(dp249
g89
g90
ssg71
g238
sg64
(lp250
S':'
asbag57
(g78
g59
NtRp251
(dp252
g62
(dp253
sg71
g238
sg64
(lp254
g57
(g58
g59
NtRp255
(dp256
g62
(dp257
g70
I4
ssg71
g251
sg64
(lp258
g57
(g66
g59
NtRp259
(dp260
g62
(dp261
g70
I3
ssg71
Nsg64
(lp262
g57
(g73
g59
NtRp263
(dp264
g62
(dp265
sg71
g259
sg64
(lp266
g57
(g78
g59
NtRp267
(dp268
g62
(dp269
g82
g83
ssg71
g263
sg64
(lp270
S'comment'
p271
asbag57
(g78
g59
NtRp272
(dp273
g62
(dp274
g89
g90
ssg71
g263
sg64
(lp275
S':'
asbag57
(g78
g59
NtRp276
(dp277
g62
(dp278
sg71
g263
sg64
(lp279
g57
(g58
g59
NtRp280
(dp281
g62
(dp282
g70
I3
ssg71
g276
sg64
(lp283
S''
asbasbasbag57
(g73
g59
NtRp284
(dp285
g62
(dp286
sg71
g259
sg64
(lp287
g57
(g78
g59
NtRp288
(dp289
g62
(dp290
g82
g83
ssg71
g284
sg64
(lp291
S'domain'
p292
asbag57
(g78
g59
NtRp293
(dp294
g62
(dp295
g89
g90
ssg71
g284
sg64
(lp296
S':'
asbag57
(g78
g59
NtRp297
(dp298
g62
(dp299
sg71
g284
sg64
(lp300
g57
(g58
g59
NtRp301
(dp302
g62
(dp303
g70
I3
ssg71
g297
sg64
(lp304
S''
asbasbasbag57
(g73
g59
NtRp305
(dp306
g62
(dp307
sg71
g259
sg64
(lp308
g57
(g78
g59
NtRp309
(dp310
g62
(dp311
g82
g83
ssg71
g305
sg64
(lp312
S'expires'
p313
asbag57
(g78
g59
NtRp314
(dp315
g62
(dp316
g89
g90
ssg71
g305
sg64
(lp317
S':'
asbag57
(g78
g59
NtRp318
(dp319
g62
(dp320
sg71
g305
sg64
(lp321
g57
(g58
g59
NtRp322
(dp323
g62
(dp324
g70
I3
ssg71
g318
sg64
(lp325
S''
asbasbasbag57
(g73
g59
NtRp326
(dp327
g62
(dp328
sg71
g259
sg64
(lp329
g57
(g78
g59
NtRp330
(dp331
g62
(dp332
g82
g83
ssg71
g326
sg64
(lp333
S'httponly'
p334
asbag57
(g78
g59
NtRp335
(dp336
g62
(dp337
g89
g90
ssg71
g326
sg64
(lp338
S':'
asbag57
(g78
g59
NtRp339
(dp340
g62
(dp341
sg71
g326
sg64
(lp342
g57
(g58
g59
NtRp343
(dp344
g62
(dp345
g70
I3
ssg71
g339
sg64
(lp346
S''
asbasbasbag57
(g73
g59
NtRp347
(dp348
g62
(dp349
sg71
g259
sg64
(lp350
g57
(g78
g59
NtRp351
(dp352
g62
(dp353
g82
g83
ssg71
g347
sg64
(lp354
S'max-age'
p355
asbag57
(g78
g59
NtRp356
(dp357
g62
(dp358
g89
g90
ssg71
g347
sg64
(lp359
S':'
asbag57
(g78
g59
NtRp360
(dp361
g62
(dp362
sg71
g347
sg64
(lp363
g57
(g58
g59
NtRp364
(dp365
g62
(dp366
g70
I3
ssg71
g360
sg64
(lp367
S''
asbasbasbag57
(g73
g59
NtRp368
(dp369
g62
(dp370
sg71
g259
sg64
(lp371
g57
(g78
g59
NtRp372
(dp373
g62
(dp374
g82
g83
ssg71
g368
sg64
(lp375
S'path'
p376
asbag57
(g78
g59
NtRp377
(dp378
g62
(dp379
g89
g90
ssg71
g368
sg64
(lp380
S':'
asbag57
(g78
g59
NtRp381
(dp382
g62
(dp383
sg71
g368
sg64
(lp384
g57
(g58
g59
NtRp385
(dp386
g62
(dp387
g70
I3
ssg71
g381
sg64
(lp388
S''
asbasbasbag57
(g73
g59
NtRp389
(dp390
g62
(dp391
sg71
g259
sg64
(lp392
g57
(g78
g59
NtRp393
(dp394
g62
(dp395
g82
g83
ssg71
g389
sg64
(lp396
S'secure'
p397
asbag57
(g78
g59
NtRp398
(dp399
g62
(dp400
g89
g90
ssg71
g389
sg64
(lp401
S':'
asbag57
(g78
g59
NtRp402
(dp403
g62
(dp404
sg71
g389
sg64
(lp405
g57
(g58
g59
NtRp406
(dp407
g62
(dp408
g70
I3
ssg71
g402
sg64
(lp409
S''
asbasbasbag57
(g73
g59
NtRp410
(dp411
g62
(dp412
sg71
g259
sg64
(lp413
g57
(g78
g59
NtRp414
(dp415
g62
(dp416
g82
g83
ssg71
g410
sg64
(lp417
S'version'
p418
asbag57
(g78
g59
NtRp419
(dp420
g62
(dp421
g89
g90
ssg71
g410
sg64
(lp422
S':'
asbag57
(g78
g59
NtRp423
(dp424
g62
(dp425
sg71
g410
sg64
(lp426
g57
(g58
g59
NtRp427
(dp428
g62
(dp429
g70
I3
ssg71
g423
sg64
(lp430
S''
asbasbasbasbasbasbasbag57
(g73
g59
NtRp431
(dp432
g62
(dp433
sg71
g234
sg64
(lp434
g57
(g78
g59
NtRp435
(dp436
g62
(dp437
g82
g83
ssg71
g431
sg64
(lp438
S'session_id_flisol2012'
p439
asbag57
(g78
g59
NtRp440
(dp441
g62
(dp442
g89
g90
ssg71
g431
sg64
(lp443
S':'
asbag57
(g78
g59
NtRp444
(dp445
g62
(dp446
sg71
g431
sg64
(lp447
g57
(g58
g59
NtRp448
(dp449
g62
(dp450
g70
I4
ssg71
g444
sg64
(lp451
g57
(g66
g59
NtRp452
(dp453
g62
(dp454
g70
I3
ssg71
Nsg64
(lp455
g57
(g73
g59
NtRp456
(dp457
g62
(dp458
sg71
g452
sg64
(lp459
g57
(g78
g59
NtRp460
(dp461
g62
(dp462
g82
g83
ssg71
g456
sg64
(lp463
g271
asbag57
(g78
g59
NtRp464
(dp465
g62
(dp466
g89
g90
ssg71
g456
sg64
(lp467
S':'
asbag57
(g78
g59
NtRp468
(dp469
g62
(dp470
sg71
g456
sg64
(lp471
g57
(g58
g59
NtRp472
(dp473
g62
(dp474
g70
I3
ssg71
g468
sg64
(lp475
S''
asbasbasbag57
(g73
g59
NtRp476
(dp477
g62
(dp478
sg71
g452
sg64
(lp479
g57
(g78
g59
NtRp480
(dp481
g62
(dp482
g82
g83
ssg71
g476
sg64
(lp483
g292
asbag57
(g78
g59
NtRp484
(dp485
g62
(dp486
g89
g90
ssg71
g476
sg64
(lp487
S':'
asbag57
(g78
g59
NtRp488
(dp489
g62
(dp490
sg71
g476
sg64
(lp491
g57
(g58
g59
NtRp492
(dp493
g62
(dp494
g70
I3
ssg71
g488
sg64
(lp495
S''
asbasbasbag57
(g73
g59
NtRp496
(dp497
g62
(dp498
sg71
g452
sg64
(lp499
g57
(g78
g59
NtRp500
(dp501
g62
(dp502
g82
g83
ssg71
g496
sg64
(lp503
g313
asbag57
(g78
g59
NtRp504
(dp505
g62
(dp506
g89
g90
ssg71
g496
sg64
(lp507
S':'
asbag57
(g78
g59
NtRp508
(dp509
g62
(dp510
sg71
g496
sg64
(lp511
g57
(g58
g59
NtRp512
(dp513
g62
(dp514
g70
I3
ssg71
g508
sg64
(lp515
S''
asbasbasbag57
(g73
g59
NtRp516
(dp517
g62
(dp518
sg71
g452
sg64
(lp519
g57
(g78
g59
NtRp520
(dp521
g62
(dp522
g82
g83
ssg71
g516
sg64
(lp523
g334
asbag57
(g78
g59
NtRp524
(dp525
g62
(dp526
g89
g90
ssg71
g516
sg64
(lp527
S':'
asbag57
(g78
g59
NtRp528
(dp529
g62
(dp530
sg71
g516
sg64
(lp531
g57
(g58
g59
NtRp532
(dp533
g62
(dp534
g70
I3
ssg71
g528
sg64
(lp535
S''
asbasbasbag57
(g73
g59
NtRp536
(dp537
g62
(dp538
sg71
g452
sg64
(lp539
g57
(g78
g59
NtRp540
(dp541
g62
(dp542
g82
g83
ssg71
g536
sg64
(lp543
g355
asbag57
(g78
g59
NtRp544
(dp545
g62
(dp546
g89
g90
ssg71
g536
sg64
(lp547
S':'
asbag57
(g78
g59
NtRp548
(dp549
g62
(dp550
sg71
g536
sg64
(lp551
g57
(g58
g59
NtRp552
(dp553
g62
(dp554
g70
I3
ssg71
g548
sg64
(lp555
S''
asbasbasbag57
(g73
g59
NtRp556
(dp557
g62
(dp558
sg71
g452
sg64
(lp559
g57
(g78
g59
NtRp560
(dp561
g62
(dp562
g82
g83
ssg71
g556
sg64
(lp563
g376
asbag57
(g78
g59
NtRp564
(dp565
g62
(dp566
g89
g90
ssg71
g556
sg64
(lp567
S':'
asbag57
(g78
g59
NtRp568
(dp569
g62
(dp570
sg71
g556
sg64
(lp571
g57
(g58
g59
NtRp572
(dp573
g62
(dp574
g70
I3
ssg71
g568
sg64
(lp575
S''
asbasbasbag57
(g73
g59
NtRp576
(dp577
g62
(dp578
sg71
g452
sg64
(lp579
g57
(g78
g59
NtRp580
(dp581
g62
(dp582
g82
g83
ssg71
g576
sg64
(lp583
g397
asbag57
(g78
g59
NtRp584
(dp585
g62
(dp586
g89
g90
ssg71
g576
sg64
(lp587
S':'
asbag57
(g78
g59
NtRp588
(dp589
g62
(dp590
sg71
g576
sg64
(lp591
g57
(g58
g59
NtRp592
(dp593
g62
(dp594
g70
I3
ssg71
g588
sg64
(lp595
S''
asbasbasbag57
(g73
g59
NtRp596
(dp597
g62
(dp598
sg71
g452
sg64
(lp599
g57
(g78
g59
NtRp600
(dp601
g62
(dp602
g82
g83
ssg71
g596
sg64
(lp603
g418
asbag57
(g78
g59
NtRp604
(dp605
g62
(dp606
g89
g90
ssg71
g596
sg64
(lp607
S':'
asbag57
(g78
g59
NtRp608
(dp609
g62
(dp610
sg71
g596
sg64
(lp611
g57
(g58
g59
NtRp612
(dp613
g62
(dp614
g70
I3
ssg71
g608
sg64
(lp615
S''
asbasbasbasbasbasbasbag57
(g73
g59
NtRp616
(dp617
g62
(dp618
sg71
g234
sg64
(lp619
g57
(g78
g59
NtRp620
(dp621
g62
(dp622
g82
g83
ssg71
g616
sg64
(lp623
S'session_id_reingart'
p624
asbag57
(g78
g59
NtRp625
(dp626
g62
(dp627
g89
g90
ssg71
g616
sg64
(lp628
S':'
asbag57
(g78
g59
NtRp629
(dp630
g62
(dp631
sg71
g616
sg64
(lp632
g57
(g58
g59
NtRp633
(dp634
g62
(dp635
g70
I4
ssg71
g629
sg64
(lp636
g57
(g66
g59
NtRp637
(dp638
g62
(dp639
g70
I3
ssg71
Nsg64
(lp640
g57
(g73
g59
NtRp641
(dp642
g62
(dp643
sg71
g637
sg64
(lp644
g57
(g78
g59
NtRp645
(dp646
g62
(dp647
g82
g83
ssg71
g641
sg64
(lp648
g271
asbag57
(g78
g59
NtRp649
(dp650
g62
(dp651
g89
g90
ssg71
g641
sg64
(lp652
S':'
asbag57
(g78
g59
NtRp653
(dp654
g62
(dp655
sg71
g641
sg64
(lp656
g57
(g58
g59
NtRp657
(dp658
g62
(dp659
g70
I3
ssg71
g653
sg64
(lp660
S''
asbasbasbag57
(g73
g59
NtRp661
(dp662
g62
(dp663
sg71
g637
sg64
(lp664
g57
(g78
g59
NtRp665
(dp666
g62
(dp667
g82
g83
ssg71
g661
sg64
(lp668
g292
asbag57
(g78
g59
NtRp669
(dp670
g62
(dp671
g89
g90
ssg71
g661
sg64
(lp672
S':'
asbag57
(g78
g59
NtRp673
(dp674
g62
(dp675
sg71
g661
sg64
(lp676
g57
(g58
g59
NtRp677
(dp678
g62
(dp679
g70
I3
ssg71
g673
sg64
(lp680
S''
asbasbasbag57
(g73
g59
NtRp681
(dp682
g62
(dp683
sg71
g637
sg64
(lp684
g57
(g78
g59
NtRp685
(dp686
g62
(dp687
g82
g83
ssg71
g681
sg64
(lp688
g313
asbag57
(g78
g59
NtRp689
(dp690
g62
(dp691
g89
g90
ssg71
g681
sg64
(lp692
S':'
asbag57
(g78
g59
NtRp693
(dp694
g62
(dp695
sg71
g681
sg64
(lp696
g57
(g58
g59
NtRp697
(dp698
g62
(dp699
g70
I3
ssg71
g693
sg64
(lp700
S''
asbasbasbag57
(g73
g59
NtRp701
(dp702
g62
(dp703
sg71
g637
sg64
(lp704
g57
(g78
g59
NtRp705
(dp706
g62
(dp707
g82
g83
ssg71
g701
sg64
(lp708
g334
asbag57
(g78
g59
NtRp709
(dp710
g62
(dp711
g89
g90
ssg71
g701
sg64
(lp712
S':'
asbag57
(g78
g59
NtRp713
(dp714
g62
(dp715
sg71
g701
sg64
(lp716
g57
(g58
g59
NtRp717
(dp718
g62
(dp719
g70
I3
ssg71
g713
sg64
(lp720
S''
asbasbasbag57
(g73
g59
NtRp721
(dp722
g62
(dp723
sg71
g637
sg64
(lp724
g57
(g78
g59
NtRp725
(dp726
g62
(dp727
g82
g83
ssg71
g721
sg64
(lp728
g355
asbag57
(g78
g59
NtRp729
(dp730
g62
(dp731
g89
g90
ssg71
g721
sg64
(lp732
S':'
asbag57
(g78
g59
NtRp733
(dp734
g62
(dp735
sg71
g721
sg64
(lp736
g57
(g58
g59
NtRp737
(dp738
g62
(dp739
g70
I3
ssg71
g733
sg64
(lp740
S''
asbasbasbag57
(g73
g59
NtRp741
(dp742
g62
(dp743
sg71
g637
sg64
(lp744
g57
(g78
g59
NtRp745
(dp746
g62
(dp747
g82
g83
ssg71
g741
sg64
(lp748
g376
asbag57
(g78
g59
NtRp749
(dp750
g62
(dp751
g89
g90
ssg71
g741
sg64
(lp752
S':'
asbag57
(g78
g59
NtRp753
(dp754
g62
(dp755
sg71
g741
sg64
(lp756
g57
(g58
g59
NtRp757
(dp758
g62
(dp759
g70
I3
ssg71
g753
sg64
(lp760
S''
asbasbasbag57
(g73
g59
NtRp761
(dp762
g62
(dp763
sg71
g637
sg64
(lp764
g57
(g78
g59
NtRp765
(dp766
g62
(dp767
g82
g83
ssg71
g761
sg64
(lp768
g397
asbag57
(g78
g59
NtRp769
(dp770
g62
(dp771
g89
g90
ssg71
g761
sg64
(lp772
S':'
asbag57
(g78
g59
NtRp773
(dp774
g62
(dp775
sg71
g761
sg64
(lp776
g57
(g58
g59
NtRp777
(dp778
g62
(dp779
g70
I3
ssg71
g773
sg64
(lp780
S''
asbasbasbag57
(g73
g59
NtRp781
(dp782
g62
(dp783
sg71
g637
sg64
(lp784
g57
(g78
g59
NtRp785
(dp786
g62
(dp787
g82
g83
ssg71
g781
sg64
(lp788
g418
asbag57
(g78
g59
NtRp789
(dp790
g62
(dp791
g89
g90
ssg71
g781
sg64
(lp792
S':'
asbag57
(g78
g59
NtRp793
(dp794
g62
(dp795
sg71
g781
sg64
(lp796
g57
(g58
g59
NtRp797
(dp798
g62
(dp799
g70
I3
ssg71
g793
sg64
(lp800
S''
asbasbasbasbasbasbasbag57
(g73
g59
NtRp801
(dp802
g62
(dp803
sg71
g234
sg64
(lp804
g57
(g78
g59
NtRp805
(dp806
g62
(dp807
g82
g83
ssg71
g801
sg64
(lp808
S'session_id_welcome'
p809
asbag57
(g78
g59
NtRp810
(dp811
g62
(dp812
g89
g90
ssg71
g801
sg64
(lp813
S':'
asbag57
(g78
g59
NtRp814
(dp815
g62
(dp816
sg71
g801
sg64
(lp817
g57
(g58
g59
NtRp818
(dp819
g62
(dp820
g70
I4
ssg71
g814
sg64
(lp821
g57
(g66
g59
NtRp822
(dp823
g62
(dp824
g70
I3
ssg71
Nsg64
(lp825
g57
(g73
g59
NtRp826
(dp827
g62
(dp828
sg71
g822
sg64
(lp829
g57
(g78
g59
NtRp830
(dp831
g62
(dp832
g82
g83
ssg71
g826
sg64
(lp833
g271
asbag57
(g78
g59
NtRp834
(dp835
g62
(dp836
g89
g90
ssg71
g826
sg64
(lp837
S':'
asbag57
(g78
g59
NtRp838
(dp839
g62
(dp840
sg71
g826
sg64
(lp841
g57
(g58
g59
NtRp842
(dp843
g62
(dp844
g70
I3
ssg71
g838
sg64
(lp845
S''
asbasbasbag57
(g73
g59
NtRp846
(dp847
g62
(dp848
sg71
g822
sg64
(lp849
g57
(g78
g59
NtRp850
(dp851
g62
(dp852
g82
g83
ssg71
g846
sg64
(lp853
g292
asbag57
(g78
g59
NtRp854
(dp855
g62
(dp856
g89
g90
ssg71
g846
sg64
(lp857
S':'
asbag57
(g78
g59
NtRp858
(dp859
g62
(dp860
sg71
g846
sg64
(lp861
g57
(g58
g59
NtRp862
(dp863
g62
(dp864
g70
I3
ssg71
g858
sg64
(lp865
S''
asbasbasbag57
(g73
g59
NtRp866
(dp867
g62
(dp868
sg71
g822
sg64
(lp869
g57
(g78
g59
NtRp870
(dp871
g62
(dp872
g82
g83
ssg71
g866
sg64
(lp873
g313
asbag57
(g78
g59
NtRp874
(dp875
g62
(dp876
g89
g90
ssg71
g866
sg64
(lp877
S':'
asbag57
(g78
g59
NtRp878
(dp879
g62
(dp880
sg71
g866
sg64
(lp881
g57
(g58
g59
NtRp882
(dp883
g62
(dp884
g70
I3
ssg71
g878
sg64
(lp885
S''
asbasbasbag57
(g73
g59
NtRp886
(dp887
g62
(dp888
sg71
g822
sg64
(lp889
g57
(g78
g59
NtRp890
(dp891
g62
(dp892
g82
g83
ssg71
g886
sg64
(lp893
g334
asbag57
(g78
g59
NtRp894
(dp895
g62
(dp896
g89
g90
ssg71
g886
sg64
(lp897
S':'
asbag57
(g78
g59
NtRp898
(dp899
g62
(dp900
sg71
g886
sg64
(lp901
g57
(g58
g59
NtRp902
(dp903
g62
(dp904
g70
I3
ssg71
g898
sg64
(lp905
S''
asbasbasbag57
(g73
g59
NtRp906
(dp907
g62
(dp908
sg71
g822
sg64
(lp909
g57
(g78
g59
NtRp910
(dp911
g62
(dp912
g82
g83
ssg71
g906
sg64
(lp913
g355
asbag57
(g78
g59
NtRp914
(dp915
g62
(dp916
g89
g90
ssg71
g906
sg64
(lp917
S':'
asbag57
(g78
g59
NtRp918
(dp919
g62
(dp920
sg71
g906
sg64
(lp921
g57
(g58
g59
NtRp922
(dp923
g62
(dp924
g70
I3
ssg71
g918
sg64
(lp925
S''
asbasbasbag57
(g73
g59
NtRp926
(dp927
g62
(dp928
sg71
g822
sg64
(lp929
g57
(g78
g59
NtRp930
(dp931
g62
(dp932
g82
g83
ssg71
g926
sg64
(lp933
g376
asbag57
(g78
g59
NtRp934
(dp935
g62
(dp936
g89
g90
ssg71
g926
sg64
(lp937
S':'
asbag57
(g78
g59
NtRp938
(dp939
g62
(dp940
sg71
g926
sg64
(lp941
g57
(g58
g59
NtRp942
(dp943
g62
(dp944
g70
I3
ssg71
g938
sg64
(lp945
S''
asbasbasbag57
(g73
g59
NtRp946
(dp947
g62
(dp948
sg71
g822
sg64
(lp949
g57
(g78
g59
NtRp950
(dp951
g62
(dp952
g82
g83
ssg71
g946
sg64
(lp953
g397
asbag57
(g78
g59
NtRp954
(dp955
g62
(dp956
g89
g90
ssg71
g946
sg64
(lp957
S':'
asbag57
(g78
g59
NtRp958
(dp959
g62
(dp960
sg71
g946
sg64
(lp961
g57
(g58
g59
NtRp962
(dp963
g62
(dp964
g70
I3
ssg71
g958
sg64
(lp965
S''
asbasbasbag57
(g73
g59
NtRp966
(dp967
g62
(dp968
sg71
g822
sg64
(lp969
g57
(g78
g59
NtRp970
(dp971
g62
(dp972
g82
g83
ssg71
g966
sg64
(lp973
g418
asbag57
(g78
g59
NtRp974
(dp975
g62
(dp976
g89
g90
ssg71
g966
sg64
(lp977
S':'
asbag57
(g78
g59
NtRp978
(dp979
g62
(dp980
sg71
g966
sg64
(lp981
g57
(g58
g59
NtRp982
(dp983
g62
(dp984
g70
I3
ssg71
g978
sg64
(lp985
S''
asbasbasbasbasbasbasbasbasbasbasbag57
(g73
g59
NtRp986
(dp987
g62
(dp988
sg71
g67
sg64
(lp989
g57
(g78
g59
NtRp990
(dp991
g62
(dp992
g82
g83
ssg71
g986
sg64
(lp993
S'env'
p994
asbag57
(g78
g59
NtRp995
(dp996
g62
(dp997
g89
g90
ssg71
g986
sg64
(lp998
S':'
asbag57
(g78
g59
NtRp999
(dp1000
g62
(dp1001
sg71
g986
sg64
(lp1002
g57
(g58
g59
NtRp1003
(dp1004
g62
(dp1005
g70
I5
ssg71
g999
sg64
(lp1006
g57
(g66
g59
NtRp1007
(dp1008
g62
(dp1009
g70
I4
ssg71
Nsg64
(lp1010
g57
(g73
g59
NtRp1011
(dp1012
g62
(dp1013
sg71
g1007
sg64
(lp1014
g57
(g78
g59
NtRp1015
(dp1016
g62
(dp1017
g82
g83
ssg71
g1011
sg64
(lp1018
S'app_folders'
p1019
asbag57
(g78
g59
NtRp1020
(dp1021
g62
(dp1022
g89
g90
ssg71
g1011
sg64
(lp1023
S':'
asbag57
(g78
g59
NtRp1024
(dp1025
g62
(dp1026
sg71
g1011
sg64
(lp1027
g57
(g58
g59
NtRp1028
(dp1029
g62
(dp1030
g70
I4
ssg71
g1024
sg64
(lp1031
S"set(['/home/marco/flisol2012/web2py/applications/welcome/', '/home/marco/flisol2012/web2py/applications/flisol2012/', '/home/marco/flisol2012/web2py/applications/admin/'])"
p1032
asbasbasbag57
(g73
g59
NtRp1033
(dp1034
g62
(dp1035
sg71
g1007
sg64
(lp1036
g57
(g78
g59
NtRp1037
(dp1038
g62
(dp1039
g82
g83
ssg71
g1033
sg64
(lp1040
S'applications_parent'
p1041
asbag57
(g78
g59
NtRp1042
(dp1043
g62
(dp1044
g89
g90
ssg71
g1033
sg64
(lp1045
S':'
asbag57
(g78
g59
NtRp1046
(dp1047
g62
(dp1048
sg71
g1033
sg64
(lp1049
g57
(g58
g59
NtRp1050
(dp1051
g62
(dp1052
g70
I4
ssg71
g1046
sg64
(lp1053
S'/home/marco/flisol2012/web2py'
p1054
asbasbasbag57
(g73
g59
NtRp1055
(dp1056
g62
(dp1057
sg71
g1007
sg64
(lp1058
g57
(g78
g59
NtRp1059
(dp1060
g62
(dp1061
g82
g83
ssg71
g1055
sg64
(lp1062
S'cmd_args'
p1063
asbag57
(g78
g59
NtRp1064
(dp1065
g62
(dp1066
g89
g90
ssg71
g1055
sg64
(lp1067
S':'
asbag57
(g78
g59
NtRp1068
(dp1069
g62
(dp1070
sg71
g1055
sg64
(lp1071
g57
(g58
g59
NtRp1072
(dp1073
g62
(dp1074
g70
I4
ssg71
g1068
sg64
(lp1075
g57
(g66
g59
NtRp1076
(dp1077
g62
(dp1078
g70
I3
ssg71
Nsg64
(lp1079
sbasbasbasbag57
(g73
g59
NtRp1080
(dp1081
g62
(dp1082
sg71
g1007
sg64
(lp1083
g57
(g78
g59
NtRp1084
(dp1085
g62
(dp1086
g82
g83
ssg71
g1080
sg64
(lp1087
S'cmd_options'
p1088
asbag57
(g78
g59
NtRp1089
(dp1090
g62
(dp1091
g89
g90
ssg71
g1080
sg64
(lp1092
S':'
asbag57
(g78
g59
NtRp1093
(dp1094
g62
(dp1095
sg71
g1080
sg64
(lp1096
g57
(g58
g59
NtRp1097
(dp1098
g62
(dp1099
g70
I4
ssg71
g1093
sg64
(lp1100
S"<Values at 0x1bd6908: {'verbose': False, 'ip': '127.0.0.1', 'shutdown_timeout': 5, 'taskbar': False, 'nocron': False, 'pid_filename': 'httpserver.pid', 'maxthreads': None, 'softcron': False, 'server_name': 'malena', 'bpython': False, 'nogui': False, 'port': 8000, 'extcron': False, 'debuglevel': 30, 'test': None, 'folder': '/home/marco/flisol2012/web2py', 'config': '', 'import_models': False, 'winservice': '', 'shell': None, 'run': '', 'log_filename': 'httpserver.log', 'args': [''], 'socket_timeout': 5, 'ssl_ca_certificate': None, 'scheduler': None, 'profiler_filename': None, 'ssl_private_key': '', 'password': 'asd', 'request_queue_size': 5, 'ssl_certificate': '', 'cronjob': False, 'numthreads': None, 'quiet': False, 'interfaces': None, 'minthreads': None, 'timeout': 10, 'plain': False, 'nobanner': False}>"
p1101
asbasbasbag57
(g73
g59
NtRp1102
(dp1103
g62
(dp1104
sg71
g1007
sg64
(lp1105
g57
(g78
g59
NtRp1106
(dp1107
g62
(dp1108
g82
g83
ssg71
g1102
sg64
(lp1109
S'content_length'
p1110
asbag57
(g78
g59
NtRp1111
(dp1112
g62
(dp1113
g89
g90
ssg71
g1102
sg64
(lp1114
S':'
asbag57
(g78
g59
NtRp1115
(dp1116
g62
(dp1117
sg71
g1102
sg64
(lp1118
g57
(g58
g59
NtRp1119
(dp1120
g62
(dp1121
g70
I4
ssg71
g1115
sg64
(lp1122
S'175'
p1123
asbasbasbag57
(g73
g59
NtRp1124
(dp1125
g62
(dp1126
sg71
g1007
sg64
(lp1127
g57
(g78
g59
NtRp1128
(dp1129
g62
(dp1130
g82
g83
ssg71
g1124
sg64
(lp1131
S'content_type'
p1132
asbag57
(g78
g59
NtRp1133
(dp1134
g62
(dp1135
g89
g90
ssg71
g1124
sg64
(lp1136
S':'
asbag57
(g78
g59
NtRp1137
(dp1138
g62
(dp1139
sg71
g1124
sg64
(lp1140
g57
(g58
g59
NtRp1141
(dp1142
g62
(dp1143
g70
I4
ssg71
g1137
sg64
(lp1144
S'multipart/form-data; boundary=---------------------------9080686971422318609248868733'
p1145
asbasbasbag57
(g73
g59
NtRp1146
(dp1147
g62
(dp1148
sg71
g1007
sg64
(lp1149
g57
(g78
g59
NtRp1150
(dp1151
g62
(dp1152
g82
g83
ssg71
g1146
sg64
(lp1153
S'db_sessions'
p1154
asbag57
(g78
g59
NtRp1155
(dp1156
g62
(dp1157
g89
g90
ssg71
g1146
sg64
(lp1158
S':'
asbag57
(g78
g59
NtRp1159
(dp1160
g62
(dp1161
sg71
g1146
sg64
(lp1162
g57
(g58
g59
NtRp1163
(dp1164
g62
(dp1165
g70
I4
ssg71
g1159
sg64
(lp1166
S'set([])'
p1167
asbasbasbag57
(g73
g59
NtRp1168
(dp1169
g62
(dp1170
sg71
g1007
sg64
(lp1171
g57
(g78
g59
NtRp1172
(dp1173
g62
(dp1174
g82
g83
ssg71
g1168
sg64
(lp1175
S'debugging'
p1176
asbag57
(g78
g59
NtRp1177
(dp1178
g62
(dp1179
g89
g90
ssg71
g1168
sg64
(lp1180
S':'
asbag57
(g78
g59
NtRp1181
(dp1182
g62
(dp1183
sg71
g1168
sg64
(lp1184
g57
(g58
g59
NtRp1185
(dp1186
g62
(dp1187
g70
I4
ssg71
g1181
sg64
(lp1188
g100
asbasbasbag57
(g73
g59
NtRp1189
(dp1190
g62
(dp1191
sg71
g1007
sg64
(lp1192
g57
(g78
g59
NtRp1193
(dp1194
g62
(dp1195
g82
g83
ssg71
g1189
sg64
(lp1196
S'gluon_parent'
p1197
asbag57
(g78
g59
NtRp1198
(dp1199
g62
(dp1200
g89
g90
ssg71
g1189
sg64
(lp1201
S':'
asbag57
(g78
g59
NtRp1202
(dp1203
g62
(dp1204
sg71
g1189
sg64
(lp1205
g57
(g58
g59
NtRp1206
(dp1207
g62
(dp1208
g70
I4
ssg71
g1202
sg64
(lp1209
S'/home/marco/flisol2012/web2py'
p1210
asbasbasbag57
(g73
g59
NtRp1211
(dp1212
g62
(dp1213
sg71
g1007
sg64
(lp1214
g57
(g78
g59
NtRp1215
(dp1216
g62
(dp1217
g82
g83
ssg71
g1211
sg64
(lp1218
S'http_accept'
p1219
asbag57
(g78
g59
NtRp1220
(dp1221
g62
(dp1222
g89
g90
ssg71
g1211
sg64
(lp1223
S':'
asbag57
(g78
g59
NtRp1224
(dp1225
g62
(dp1226
sg71
g1211
sg64
(lp1227
g57
(g58
g59
NtRp1228
(dp1229
g62
(dp1230
g70
I4
ssg71
g1224
sg64
(lp1231
S'text/html,application/xhtml+xml,application/xml;q=0.9,*/*;q=0.8'
p1232
asbasbasbag57
(g73
g59
NtRp1233
(dp1234
g62
(dp1235
sg71
g1007
sg64
(lp1236
g57
(g78
g59
NtRp1237
(dp1238
g62
(dp1239
g82
g83
ssg71
g1233
sg64
(lp1240
S'http_accept_encoding'
p1241
asbag57
(g78
g59
NtRp1242
(dp1243
g62
(dp1244
g89
g90
ssg71
g1233
sg64
(lp1245
S':'
asbag57
(g78
g59
NtRp1246
(dp1247
g62
(dp1248
sg71
g1233
sg64
(lp1249
g57
(g58
g59
NtRp1250
(dp1251
g62
(dp1252
g70
I4
ssg71
g1246
sg64
(lp1253
S'gzip, deflate'
p1254
asbasbasbag57
(g73
g59
NtRp1255
(dp1256
g62
(dp1257
sg71
g1007
sg64
(lp1258
g57
(g78
g59
NtRp1259
(dp1260
g62
(dp1261
g82
g83
ssg71
g1255
sg64
(lp1262
S'http_accept_language'
p1263
asbag57
(g78
g59
NtRp1264
(dp1265
g62
(dp1266
g89
g90
ssg71
g1255
sg64
(lp1267
S':'
asbag57
(g78
g59
NtRp1268
(dp1269
g62
(dp1270
sg71
g1255
sg64
(lp1271
g57
(g58
g59
NtRp1272
(dp1273
g62
(dp1274
g70
I4
ssg71
g1268
sg64
(lp1275
S'es-ar,es;q=0.8,en-us;q=0.5,en;q=0.3'
p1276
asbasbasbag57
(g73
g59
NtRp1277
(dp1278
g62
(dp1279
sg71
g1007
sg64
(lp1280
g57
(g78
g59
NtRp1281
(dp1282
g62
(dp1283
g82
g83
ssg71
g1277
sg64
(lp1284
S'http_cache_control'
p1285
asbag57
(g78
g59
NtRp1286
(dp1287
g62
(dp1288
g89
g90
ssg71
g1277
sg64
(lp1289
S':'
asbag57
(g78
g59
NtRp1290
(dp1291
g62
(dp1292
sg71
g1277
sg64
(lp1293
g57
(g58
g59
NtRp1294
(dp1295
g62
(dp1296
g70
I4
ssg71
g1290
sg64
(lp1297
S'max-age=0'
p1298
asbasbasbag57
(g73
g59
NtRp1299
(dp1300
g62
(dp1301
sg71
g1007
sg64
(lp1302
g57
(g78
g59
NtRp1303
(dp1304
g62
(dp1305
g82
g83
ssg71
g1299
sg64
(lp1306
S'http_connection'
p1307
asbag57
(g78
g59
NtRp1308
(dp1309
g62
(dp1310
g89
g90
ssg71
g1299
sg64
(lp1311
S':'
asbag57
(g78
g59
NtRp1312
(dp1313
g62
(dp1314
sg71
g1299
sg64
(lp1315
g57
(g58
g59
NtRp1316
(dp1317
g62
(dp1318
g70
I4
ssg71
g1312
sg64
(lp1319
S'keep-alive'
p1320
asbasbasbag57
(g73
g59
NtRp1321
(dp1322
g62
(dp1323
sg71
g1007
sg64
(lp1324
g57
(g78
g59
NtRp1325
(dp1326
g62
(dp1327
g82
g83
ssg71
g1321
sg64
(lp1328
S'http_content_length'
p1329
asbag57
(g78
g59
NtRp1330
(dp1331
g62
(dp1332
g89
g90
ssg71
g1321
sg64
(lp1333
S':'
asbag57
(g78
g59
NtRp1334
(dp1335
g62
(dp1336
sg71
g1321
sg64
(lp1337
g57
(g58
g59
NtRp1338
(dp1339
g62
(dp1340
g70
I4
ssg71
g1334
sg64
(lp1341
g1123
asbasbasbag57
(g73
g59
NtRp1342
(dp1343
g62
(dp1344
sg71
g1007
sg64
(lp1345
g57
(g78
g59
NtRp1346
(dp1347
g62
(dp1348
g82
g83
ssg71
g1342
sg64
(lp1349
S'http_content_type'
p1350
asbag57
(g78
g59
NtRp1351
(dp1352
g62
(dp1353
g89
g90
ssg71
g1342
sg64
(lp1354
S':'
asbag57
(g78
g59
NtRp1355
(dp1356
g62
(dp1357
sg71
g1342
sg64
(lp1358
g57
(g58
g59
NtRp1359
(dp1360
g62
(dp1361
g70
I4
ssg71
g1355
sg64
(lp1362
g1145
asbasbasbag57
(g73
g59
NtRp1363
(dp1364
g62
(dp1365
sg71
g1007
sg64
(lp1366
g57
(g78
g59
NtRp1367
(dp1368
g62
(dp1369
g82
g83
ssg71
g1363
sg64
(lp1370
S'http_cookie'
p1371
asbag57
(g78
g59
NtRp1372
(dp1373
g62
(dp1374
g89
g90
ssg71
g1363
sg64
(lp1375
S':'
asbag57
(g78
g59
NtRp1376
(dp1377
g62
(dp1378
sg71
g1363
sg64
(lp1379
g57
(g58
g59
NtRp1380
(dp1381
g62
(dp1382
g70
I4
ssg71
g1376
sg64
(lp1383
S'__utma=96992031.1881515701.1331265087.1331309329.1331316385.4; __utmc=96992031; __utmz=96992031.1331265087.1.1.utmcsr=(direct)|utmccn=(direct)|utmcmd=(none); session_id_admin=127.0.0.1-9f819232-d34d-431b-a66d-efef7821a17b; session_id_reingart=127.0.0.1-c638efce-62e3-46b3-bb1a-e04405c01702; session_id_flisol2012=127.0.0.1-2ede3a58-f97e-48e1-8d0e-90e5ecfe16bf; __utmb=96992031.98.10.1331316385; session_id_welcome=127.0.0.1-d9714dec-041d-4a2a-a113-75a39351e0db'
p1384
asbasbasbag57
(g73
g59
NtRp1385
(dp1386
g62
(dp1387
sg71
g1007
sg64
(lp1388
g57
(g78
g59
NtRp1389
(dp1390
g62
(dp1391
g82
g83
ssg71
g1385
sg64
(lp1392
S'http_host'
p1393
asbag57
(g78
g59
NtRp1394
(dp1395
g62
(dp1396
g89
g90
ssg71
g1385
sg64
(lp1397
S':'
asbag57
(g78
g59
NtRp1398
(dp1399
g62
(dp1400
sg71
g1385
sg64
(lp1401
g57
(g58
g59
NtRp1402
(dp1403
g62
(dp1404
g70
I4
ssg71
g1398
sg64
(lp1405
S'127.0.0.1:8000'
p1406
asbasbasbag57
(g73
g59
NtRp1407
(dp1408
g62
(dp1409
sg71
g1007
sg64
(lp1410
g57
(g78
g59
NtRp1411
(dp1412
g62
(dp1413
g82
g83
ssg71
g1407
sg64
(lp1414
S'http_referer'
p1415
asbag57
(g78
g59
NtRp1416
(dp1417
g62
(dp1418
g89
g90
ssg71
g1407
sg64
(lp1419
S':'
asbag57
(g78
g59
NtRp1420
(dp1421
g62
(dp1422
sg71
g1407
sg64
(lp1423
g57
(g58
g59
NtRp1424
(dp1425
g62
(dp1426
g70
I4
ssg71
g1420
sg64
(lp1427
S'http://127.0.0.1:8000/flisol2012/default/index'
p1428
asbasbasbag57
(g73
g59
NtRp1429
(dp1430
g62
(dp1431
sg71
g1007
sg64
(lp1432
g57
(g78
g59
NtRp1433
(dp1434
g62
(dp1435
g82
g83
ssg71
g1429
sg64
(lp1436
S'http_user_agent'
p1437
asbag57
(g78
g59
NtRp1438
(dp1439
g62
(dp1440
g89
g90
ssg71
g1429
sg64
(lp1441
S':'
asbag57
(g78
g59
NtRp1442
(dp1443
g62
(dp1444
sg71
g1429
sg64
(lp1445
g57
(g58
g59
NtRp1446
(dp1447
g62
(dp1448
g70
I4
ssg71
g1442
sg64
(lp1449
S'Mozilla/5.0 (X11; Linux x86_64; rv:11.0) Gecko/20100101 Firefox/11.0 Iceweasel/11.0'
p1450
asbasbasbag57
(g73
g59
NtRp1451
(dp1452
g62
(dp1453
sg71
g1007
sg64
(lp1454
g57
(g78
g59
NtRp1455
(dp1456
g62
(dp1457
g82
g83
ssg71
g1451
sg64
(lp1458
S'is_jython'
p1459
asbag57
(g78
g59
NtRp1460
(dp1461
g62
(dp1462
g89
g90
ssg71
g1451
sg64
(lp1463
S':'
asbag57
(g78
g59
NtRp1464
(dp1465
g62
(dp1466
sg71
g1451
sg64
(lp1467
g57
(g58
g59
NtRp1468
(dp1469
g62
(dp1470
g70
I4
ssg71
g1464
sg64
(lp1471
g100
asbasbasbag57
(g73
g59
NtRp1472
(dp1473
g62
(dp1474
sg71
g1007
sg64
(lp1475
g57
(g78
g59
NtRp1476
(dp1477
g62
(dp1478
g82
g83
ssg71
g1472
sg64
(lp1479
S'is_pypy'
p1480
asbag57
(g78
g59
NtRp1481
(dp1482
g62
(dp1483
g89
g90
ssg71
g1472
sg64
(lp1484
S':'
asbag57
(g78
g59
NtRp1485
(dp1486
g62
(dp1487
sg71
g1472
sg64
(lp1488
g57
(g58
g59
NtRp1489
(dp1490
g62
(dp1491
g70
I4
ssg71
g1485
sg64
(lp1492
g100
asbasbasbag57
(g73
g59
NtRp1493
(dp1494
g62
(dp1495
sg71
g1007
sg64
(lp1496
g57
(g78
g59
NtRp1497
(dp1498
g62
(dp1499
g82
g83
ssg71
g1493
sg64
(lp1500
S'path_info'
p1501
asbag57
(g78
g59
NtRp1502
(dp1503
g62
(dp1504
g89
g90
ssg71
g1493
sg64
(lp1505
S':'
asbag57
(g78
g59
NtRp1506
(dp1507
g62
(dp1508
sg71
g1493
sg64
(lp1509
g57
(g58
g59
NtRp1510
(dp1511
g62
(dp1512
g70
I4
ssg71
g1506
sg64
(lp1513
S'/flisol2012/default/index'
p1514
asbasbasbag57
(g73
g59
NtRp1515
(dp1516
g62
(dp1517
sg71
g1007
sg64
(lp1518
g57
(g78
g59
NtRp1519
(dp1520
g62
(dp1521
g82
g83
ssg71
g1515
sg64
(lp1522
S'query_string'
p1523
asbag57
(g78
g59
NtRp1524
(dp1525
g62
(dp1526
g89
g90
ssg71
g1515
sg64
(lp1527
S':'
asbag57
(g78
g59
NtRp1528
(dp1529
g62
(dp1530
sg71
g1515
sg64
(lp1531
g57
(g58
g59
NtRp1532
(dp1533
g62
(dp1534
g70
I4
ssg71
g1528
sg64
(lp1535
S''
asbasbasbag57
(g73
g59
NtRp1536
(dp1537
g62
(dp1538
sg71
g1007
sg64
(lp1539
g57
(g78
g59
NtRp1540
(dp1541
g62
(dp1542
g82
g83
ssg71
g1536
sg64
(lp1543
S'remote_addr'
p1544
asbag57
(g78
g59
NtRp1545
(dp1546
g62
(dp1547
g89
g90
ssg71
g1536
sg64
(lp1548
S':'
asbag57
(g78
g59
NtRp1549
(dp1550
g62
(dp1551
sg71
g1536
sg64
(lp1552
g57
(g58
g59
NtRp1553
(dp1554
g62
(dp1555
g70
I4
ssg71
g1549
sg64
(lp1556
g190
asbasbasbag57
(g73
g59
NtRp1557
(dp1558
g62
(dp1559
sg71
g1007
sg64
(lp1560
g57
(g78
g59
NtRp1561
(dp1562
g62
(dp1563
g82
g83
ssg71
g1557
sg64
(lp1564
S'remote_port'
p1565
asbag57
(g78
g59
NtRp1566
(dp1567
g62
(dp1568
g89
g90
ssg71
g1557
sg64
(lp1569
S':'
asbag57
(g78
g59
NtRp1570
(dp1571
g62
(dp1572
sg71
g1557
sg64
(lp1573
g57
(g58
g59
NtRp1574
(dp1575
g62
(dp1576
g70
I4
ssg71
g1570
sg64
(lp1577
S'40682'
p1578
asbasbasbag57
(g73
g59
NtRp1579
(dp1580
g62
(dp1581
sg71
g1007
sg64
(lp1582
g57
(g78
g59
NtRp1583
(dp1584
g62
(dp1585
g82
g83
ssg71
g1579
sg64
(lp1586
S'request_method'
p1587
asbag57
(g78
g59
NtRp1588
(dp1589
g62
(dp1590
g89
g90
ssg71
g1579
sg64
(lp1591
S':'
asbag57
(g78
g59
NtRp1592
(dp1593
g62
(dp1594
sg71
g1579
sg64
(lp1595
g57
(g58
g59
NtRp1596
(dp1597
g62
(dp1598
g70
I4
ssg71
g1592
sg64
(lp1599
S'POST'
p1600
asbasbasbag57
(g73
g59
NtRp1601
(dp1602
g62
(dp1603
sg71
g1007
sg64
(lp1604
g57
(g78
g59
NtRp1605
(dp1606
g62
(dp1607
g82
g83
ssg71
g1601
sg64
(lp1608
S'script_name'
p1609
asbag57
(g78
g59
NtRp1610
(dp1611
g62
(dp1612
g89
g90
ssg71
g1601
sg64
(lp1613
S':'
asbag57
(g78
g59
NtRp1614
(dp1615
g62
(dp1616
sg71
g1601
sg64
(lp1617
g57
(g58
g59
NtRp1618
(dp1619
g62
(dp1620
g70
I4
ssg71
g1614
sg64
(lp1621
S''
asbasbasbag57
(g73
g59
NtRp1622
(dp1623
g62
(dp1624
sg71
g1007
sg64
(lp1625
g57
(g78
g59
NtRp1626
(dp1627
g62
(dp1628
g82
g83
ssg71
g1622
sg64
(lp1629
S'server_name'
p1630
asbag57
(g78
g59
NtRp1631
(dp1632
g62
(dp1633
g89
g90
ssg71
g1622
sg64
(lp1634
S':'
asbag57
(g78
g59
NtRp1635
(dp1636
g62
(dp1637
sg71
g1622
sg64
(lp1638
g57
(g58
g59
NtRp1639
(dp1640
g62
(dp1641
g70
I4
ssg71
g1635
sg64
(lp1642
S'malena'
p1643
asbasbasbag57
(g73
g59
NtRp1644
(dp1645
g62
(dp1646
sg71
g1007
sg64
(lp1647
g57
(g78
g59
NtRp1648
(dp1649
g62
(dp1650
g82
g83
ssg71
g1644
sg64
(lp1651
S'server_port'
p1652
asbag57
(g78
g59
NtRp1653
(dp1654
g62
(dp1655
g89
g90
ssg71
g1644
sg64
(lp1656
S':'
asbag57
(g78
g59
NtRp1657
(dp1658
g62
(dp1659
sg71
g1644
sg64
(lp1660
g57
(g58
g59
NtRp1661
(dp1662
g62
(dp1663
g70
I4
ssg71
g1657
sg64
(lp1664
S'8000'
p1665
asbasbasbag57
(g73
g59
NtRp1666
(dp1667
g62
(dp1668
sg71
g1007
sg64
(lp1669
g57
(g78
g59
NtRp1670
(dp1671
g62
(dp1672
g82
g83
ssg71
g1666
sg64
(lp1673
S'server_protocol'
p1674
asbag57
(g78
g59
NtRp1675
(dp1676
g62
(dp1677
g89
g90
ssg71
g1666
sg64
(lp1678
S':'
asbag57
(g78
g59
NtRp1679
(dp1680
g62
(dp1681
sg71
g1666
sg64
(lp1682
g57
(g58
g59
NtRp1683
(dp1684
g62
(dp1685
g70
I4
ssg71
g1679
sg64
(lp1686
S'HTTP/1.1'
p1687
asbasbasbag57
(g73
g59
NtRp1688
(dp1689
g62
(dp1690
sg71
g1007
sg64
(lp1691
g57
(g78
g59
NtRp1692
(dp1693
g62
(dp1694
g82
g83
ssg71
g1688
sg64
(lp1695
S'server_software'
p1696
asbag57
(g78
g59
NtRp1697
(dp1698
g62
(dp1699
g89
g90
ssg71
g1688
sg64
(lp1700
S':'
asbag57
(g78
g59
NtRp1701
(dp1702
g62
(dp1703
sg71
g1688
sg64
(lp1704
g57
(g58
g59
NtRp1705
(dp1706
g62
(dp1707
g70
I4
ssg71
g1701
sg64
(lp1708
S'Rocket 1.2.4'
p1709
asbasbasbag57
(g73
g59
NtRp1710
(dp1711
g62
(dp1712
sg71
g1007
sg64
(lp1713
g57
(g78
g59
NtRp1714
(dp1715
g62
(dp1716
g82
g83
ssg71
g1710
sg64
(lp1717
S'web2py_crontype'
p1718
asbag57
(g78
g59
NtRp1719
(dp1720
g62
(dp1721
g89
g90
ssg71
g1710
sg64
(lp1722
S':'
asbag57
(g78
g59
NtRp1723
(dp1724
g62
(dp1725
sg71
g1710
sg64
(lp1726
g57
(g58
g59
NtRp1727
(dp1728
g62
(dp1729
g70
I4
ssg71
g1723
sg64
(lp1730
S'hard'
p1731
asbasbasbag57
(g73
g59
NtRp1732
(dp1733
g62
(dp1734
sg71
g1007
sg64
(lp1735
g57
(g78
g59
NtRp1736
(dp1737
g62
(dp1738
g82
g83
ssg71
g1732
sg64
(lp1739
S'web2py_path'
p1740
asbag57
(g78
g59
NtRp1741
(dp1742
g62
(dp1743
g89
g90
ssg71
g1732
sg64
(lp1744
S':'
asbag57
(g78
g59
NtRp1745
(dp1746
g62
(dp1747
sg71
g1732
sg64
(lp1748
g57
(g58
g59
NtRp1749
(dp1750
g62
(dp1751
g70
I4
ssg71
g1745
sg64
(lp1752
g1054
asbasbasbag57
(g73
g59
NtRp1753
(dp1754
g62
(dp1755
sg71
g1007
sg64
(lp1756
g57
(g78
g59
NtRp1757
(dp1758
g62
(dp1759
g82
g83
ssg71
g1753
sg64
(lp1760
S'web2py_version'
p1761
asbag57
(g78
g59
NtRp1762
(dp1763
g62
(dp1764
g89
g90
ssg71
g1753
sg64
(lp1765
S':'
asbag57
(g78
g59
NtRp1766
(dp1767
g62
(dp1768
sg71
g1753
sg64
(lp1769
g57
(g58
g59
NtRp1770
(dp1771
g62
(dp1772
g70
I4
ssg71
g1766
sg64
(lp1773
g57
(g66
g59
NtRp1774
(dp1775
g62
(dp1776
g70
I3
ssg71
Nsg64
(lp1777
g57
(g73
g59
NtRp1778
(dp1779
g62
(dp1780
sg71
g1774
sg64
(lp1781
g57
(g78
g59
NtRp1782
(dp1783
g62
(dp1784
sg71
g1778
sg64
(lp1785
g57
(g58
g59
NtRp1786
(dp1787
g62
(dp1788
g70
I3
ssg71
g1782
sg64
(lp1789
S'1'
asbasbasbag57
(g73
g59
NtRp1790
(dp1791
g62
(dp1792
sg71
g1774
sg64
(lp1793
g57
(g78
g59
NtRp1794
(dp1795
g62
(dp1796
sg71
g1790
sg64
(lp1797
g57
(g58
g59
NtRp1798
(dp1799
g62
(dp1800
g70
I3
ssg71
g1794
sg64
(lp1801
S'99'
p1802
asbasbasbag57
(g73
g59
NtRp1803
(dp1804
g62
(dp1805
sg71
g1774
sg64
(lp1806
g57
(g78
g59
NtRp1807
(dp1808
g62
(dp1809
sg71
g1803
sg64
(lp1810
g57
(g58
g59
NtRp1811
(dp1812
g62
(dp1813
g70
I3
ssg71
g1807
sg64
(lp1814
S'7'
asbasbasbag57
(g73
g59
NtRp1815
(dp1816
g62
(dp1817
sg71
g1774
sg64
(lp1818
g57
(g78
g59
NtRp1819
(dp1820
g62
(dp1821
sg71
g1815
sg64
(lp1822
g57
(g58
g59
NtRp1823
(dp1824
g62
(dp1825
g70
I3
ssg71
g1819
sg64
(lp1826
S'datetime.datetime(2012, 3, 4, 22, 12, 8)'
p1827
asbasbasbag57
(g73
g59
NtRp1828
(dp1829
g62
(dp1830
sg71
g1774
sg64
(lp1831
g57
(g78
g59
NtRp1832
(dp1833
g62
(dp1834
sg71
g1828
sg64
(lp1835
g57
(g58
g59
NtRp1836
(dp1837
g62
(dp1838
g70
I3
ssg71
g1832
sg64
(lp1839
S'stable'
p1840
asbasbasbasbasbasbasbag57
(g73
g59
NtRp1841
(dp1842
g62
(dp1843
sg71
g1007
sg64
(lp1844
g57
(g78
g59
NtRp1845
(dp1846
g62
(dp1847
g82
g83
ssg71
g1841
sg64
(lp1848
S'wsgi_errors'
p1849
asbag57
(g78
g59
NtRp1850
(dp1851
g62
(dp1852
g89
g90
ssg71
g1841
sg64
(lp1853
S':'
asbag57
(g78
g59
NtRp1854
(dp1855
g62
(dp1856
sg71
g1841
sg64
(lp1857
g57
(g58
g59
NtRp1858
(dp1859
g62
(dp1860
g70
I4
ssg71
g1854
sg64
(lp1861
S"<open file '<stderr>', mode 'w' at 0x7f4f2366f270>"
p1862
asbasbasbag57
(g73
g59
NtRp1863
(dp1864
g62
(dp1865
sg71
g1007
sg64
(lp1866
g57
(g78
g59
NtRp1867
(dp1868
g62
(dp1869
g82
g83
ssg71
g1863
sg64
(lp1870
S'wsgi_file_wrapper'
p1871
asbag57
(g78
g59
NtRp1872
(dp1873
g62
(dp1874
g89
g90
ssg71
g1863
sg64
(lp1875
S':'
asbag57
(g78
g59
NtRp1876
(dp1877
g62
(dp1878
sg71
g1863
sg64
(lp1879
g57
(g58
g59
NtRp1880
(dp1881
g62
(dp1882
g70
I4
ssg71
g1876
sg64
(lp1883
S'<class wsgiref.util.FileWrapper at 0x1abc460>'
p1884
asbasbasbag57
(g73
g59
NtRp1885
(dp1886
g62
(dp1887
sg71
g1007
sg64
(lp1888
g57
(g78
g59
NtRp1889
(dp1890
g62
(dp1891
g82
g83
ssg71
g1885
sg64
(lp1892
S'wsgi_input'
p1893
asbag57
(g78
g59
NtRp1894
(dp1895
g62
(dp1896
g89
g90
ssg71
g1885
sg64
(lp1897
S':'
asbag57
(g78
g59
NtRp1898
(dp1899
g62
(dp1900
sg71
g1885
sg64
(lp1901
g57
(g58
g59
NtRp1902
(dp1903
g62
(dp1904
g70
I4
ssg71
g1898
sg64
(lp1905
S'<socket._fileobject object at 0x2674dd0>'
p1906
asbasbasbag57
(g73
g59
NtRp1907
(dp1908
g62
(dp1909
sg71
g1007
sg64
(lp1910
g57
(g78
g59
NtRp1911
(dp1912
g62
(dp1913
g82
g83
ssg71
g1907
sg64
(lp1914
S'wsgi_multiprocess'
p1915
asbag57
(g78
g59
NtRp1916
(dp1917
g62
(dp1918
g89
g90
ssg71
g1907
sg64
(lp1919
S':'
asbag57
(g78
g59
NtRp1920
(dp1921
g62
(dp1922
sg71
g1907
sg64
(lp1923
g57
(g58
g59
NtRp1924
(dp1925
g62
(dp1926
g70
I4
ssg71
g1920
sg64
(lp1927
g100
asbasbasbag57
(g73
g59
NtRp1928
(dp1929
g62
(dp1930
sg71
g1007
sg64
(lp1931
g57
(g78
g59
NtRp1932
(dp1933
g62
(dp1934
g82
g83
ssg71
g1928
sg64
(lp1935
S'wsgi_multithread'
p1936
asbag57
(g78
g59
NtRp1937
(dp1938
g62
(dp1939
g89
g90
ssg71
g1928
sg64
(lp1940
S':'
asbag57
(g78
g59
NtRp1941
(dp1942
g62
(dp1943
sg71
g1928
sg64
(lp1944
g57
(g58
g59
NtRp1945
(dp1946
g62
(dp1947
g70
I4
ssg71
g1941
sg64
(lp1948
S'True'
p1949
asbasbasbag57
(g73
g59
NtRp1950
(dp1951
g62
(dp1952
sg71
g1007
sg64
(lp1953
g57
(g78
g59
NtRp1954
(dp1955
g62
(dp1956
g82
g83
ssg71
g1950
sg64
(lp1957
S'wsgi_run_once'
p1958
asbag57
(g78
g59
NtRp1959
(dp1960
g62
(dp1961
g89
g90
ssg71
g1950
sg64
(lp1962
S':'
asbag57
(g78
g59
NtRp1963
(dp1964
g62
(dp1965
sg71
g1950
sg64
(lp1966
g57
(g58
g59
NtRp1967
(dp1968
g62
(dp1969
g70
I4
ssg71
g1963
sg64
(lp1970
g100
asbasbasbag57
(g73
g59
NtRp1971
(dp1972
g62
(dp1973
sg71
g1007
sg64
(lp1974
g57
(g78
g59
NtRp1975
(dp1976
g62
(dp1977
g82
g83
ssg71
g1971
sg64
(lp1978
S'wsgi_url_scheme'
p1979
asbag57
(g78
g59
NtRp1980
(dp1981
g62
(dp1982
g89
g90
ssg71
g1971
sg64
(lp1983
S':'
asbag57
(g78
g59
NtRp1984
(dp1985
g62
(dp1986
sg71
g1971
sg64
(lp1987
g57
(g58
g59
NtRp1988
(dp1989
g62
(dp1990
g70
I4
ssg71
g1984
sg64
(lp1991
S'http'
p1992
asbasbasbag57
(g73
g59
NtRp1993
(dp1994
g62
(dp1995
sg71
g1007
sg64
(lp1996
g57
(g78
g59
NtRp1997
(dp1998
g62
(dp1999
g82
g83
ssg71
g1993
sg64
(lp2000
S'wsgi_version'
p2001
asbag57
(g78
g59
NtRp2002
(dp2003
g62
(dp2004
g89
g90
ssg71
g1993
sg64
(lp2005
S':'
asbag57
(g78
g59
NtRp2006
(dp2007
g62
(dp2008
sg71
g1993
sg64
(lp2009
g57
(g58
g59
NtRp2010
(dp2011
g62
(dp2012
g70
I4
ssg71
g2006
sg64
(lp2013
g57
(g66
g59
NtRp2014
(dp2015
g62
(dp2016
g70
I3
ssg71
Nsg64
(lp2017
g57
(g73
g59
NtRp2018
(dp2019
g62
(dp2020
sg71
g2014
sg64
(lp2021
g57
(g78
g59
NtRp2022
(dp2023
g62
(dp2024
sg71
g2018
sg64
(lp2025
g57
(g58
g59
NtRp2026
(dp2027
g62
(dp2028
g70
I3
ssg71
g2022
sg64
(lp2029
S'1'
asbasbasbag57
(g73
g59
NtRp2030
(dp2031
g62
(dp2032
sg71
g2014
sg64
(lp2033
g57
(g78
g59
NtRp2034
(dp2035
g62
(dp2036
sg71
g2030
sg64
(lp2037
g57
(g58
g59
NtRp2038
(dp2039
g62
(dp2040
g70
I3
ssg71
g2034
sg64
(lp2041
S'0'
asbasbasbasbasbasbasbasbasbasbasbag57
(g73
g59
NtRp2042
(dp2043
g62
(dp2044
sg71
g67
sg64
(lp2045
g57
(g78
g59
NtRp2046
(dp2047
g62
(dp2048
g82
g83
ssg71
g2042
sg64
(lp2049
S'extension'
p2050
asbag57
(g78
g59
NtRp2051
(dp2052
g62
(dp2053
g89
g90
ssg71
g2042
sg64
(lp2054
S':'
asbag57
(g78
g59
NtRp2055
(dp2056
g62
(dp2057
sg71
g2042
sg64
(lp2058
g57
(g58
g59
NtRp2059
(dp2060
g62
(dp2061
g70
I5
ssg71
g2055
sg64
(lp2062
S'html'
p2063
asbasbasbag57
(g73
g59
NtRp2064
(dp2065
g62
(dp2066
sg71
g67
sg64
(lp2067
g57
(g78
g59
NtRp2068
(dp2069
g62
(dp2070
g82
g83
ssg71
g2064
sg64
(lp2071
S'folder'
p2072
asbag57
(g78
g59
NtRp2073
(dp2074
g62
(dp2075
g89
g90
ssg71
g2064
sg64
(lp2076
S':'
asbag57
(g78
g59
NtRp2077
(dp2078
g62
(dp2079
sg71
g2064
sg64
(lp2080
g57
(g58
g59
NtRp2081
(dp2082
g62
(dp2083
g70
I5
ssg71
g2077
sg64
(lp2084
S'/home/marco/flisol2012/web2py/applications/flisol2012/'
p2085
asbasbasbag57
(g73
g59
NtRp2086
(dp2087
g62
(dp2088
sg71
g67
sg64
(lp2089
g57
(g78
g59
NtRp2090
(dp2091
g62
(dp2092
g82
g83
ssg71
g2086
sg64
(lp2093
S'function'
p2094
asbag57
(g78
g59
NtRp2095
(dp2096
g62
(dp2097
g89
g90
ssg71
g2086
sg64
(lp2098
S':'
asbag57
(g78
g59
NtRp2099
(dp2100
g62
(dp2101
sg71
g2086
sg64
(lp2102
g57
(g58
g59
NtRp2103
(dp2104
g62
(dp2105
g70
I5
ssg71
g2099
sg64
(lp2106
S'index'
p2107
asbasbasbag57
(g73
g59
NtRp2108
(dp2109
g62
(dp2110
sg71
g67
sg64
(lp2111
g57
(g78
g59
NtRp2112
(dp2113
g62
(dp2114
g82
g83
ssg71
g2108
sg64
(lp2115
S'get_vars'
p2116
asbag57
(g78
g59
NtRp2117
(dp2118
g62
(dp2119
g89
g90
ssg71
g2108
sg64
(lp2120
S':'
asbag57
(g78
g59
NtRp2121
(dp2122
g62
(dp2123
sg71
g2108
sg64
(lp2124
g57
(g58
g59
NtRp2125
(dp2126
g62
(dp2127
g70
I5
ssg71
g2121
sg64
(lp2128
g57
(g66
g59
NtRp2129
(dp2130
g62
(dp2131
g70
I4
ssg71
Nsg64
(lp2132
sbasbasbasbag57
(g73
g59
NtRp2133
(dp2134
g62
(dp2135
sg71
g67
sg64
(lp2136
g57
(g78
g59
NtRp2137
(dp2138
g62
(dp2139
g82
g83
ssg71
g2133
sg64
(lp2140
S'global_settings'
p2141
asbag57
(g78
g59
NtRp2142
(dp2143
g62
(dp2144
g89
g90
ssg71
g2133
sg64
(lp2145
S':'
asbag57
(g78
g59
NtRp2146
(dp2147
g62
(dp2148
sg71
g2133
sg64
(lp2149
g57
(g58
g59
NtRp2150
(dp2151
g62
(dp2152
g70
I5
ssg71
g2146
sg64
(lp2153
g57
(g66
g59
NtRp2154
(dp2155
g62
(dp2156
g70
I4
ssg71
Nsg64
(lp2157
g57
(g73
g59
NtRp2158
(dp2159
g62
(dp2160
sg71
g2154
sg64
(lp2161
g57
(g78
g59
NtRp2162
(dp2163
g62
(dp2164
g82
g83
ssg71
g2158
sg64
(lp2165
g1019
asbag57
(g78
g59
NtRp2166
(dp2167
g62
(dp2168
g89
g90
ssg71
g2158
sg64
(lp2169
S':'
asbag57
(g78
g59
NtRp2170
(dp2171
g62
(dp2172
sg71
g2158
sg64
(lp2173
g57
(g58
g59
NtRp2174
(dp2175
g62
(dp2176
g70
I4
ssg71
g2170
sg64
(lp2177
S"set(['/home/marco/flisol2012/web2py/applications/welcome/', '/home/marco/flisol2012/web2py/applications/flisol2012/', '/home/marco/flisol2012/web2py/applications/admin/'])"
p2178
asbasbasbag57
(g73
g59
NtRp2179
(dp2180
g62
(dp2181
sg71
g2154
sg64
(lp2182
g57
(g78
g59
NtRp2183
(dp2184
g62
(dp2185
g82
g83
ssg71
g2179
sg64
(lp2186
g1041
asbag57
(g78
g59
NtRp2187
(dp2188
g62
(dp2189
g89
g90
ssg71
g2179
sg64
(lp2190
S':'
asbag57
(g78
g59
NtRp2191
(dp2192
g62
(dp2193
sg71
g2179
sg64
(lp2194
g57
(g58
g59
NtRp2195
(dp2196
g62
(dp2197
g70
I4
ssg71
g2191
sg64
(lp2198
g1054
asbasbasbag57
(g73
g59
NtRp2199
(dp2200
g62
(dp2201
sg71
g2154
sg64
(lp2202
g57
(g78
g59
NtRp2203
(dp2204
g62
(dp2205
g82
g83
ssg71
g2199
sg64
(lp2206
g1063
asbag57
(g78
g59
NtRp2207
(dp2208
g62
(dp2209
g89
g90
ssg71
g2199
sg64
(lp2210
S':'
asbag57
(g78
g59
NtRp2211
(dp2212
g62
(dp2213
sg71
g2199
sg64
(lp2214
g57
(g58
g59
NtRp2215
(dp2216
g62
(dp2217
g70
I4
ssg71
g2211
sg64
(lp2218
g57
(g66
g59
NtRp2219
(dp2220
g62
(dp2221
g70
I3
ssg71
Nsg64
(lp2222
sbasbasbasbag57
(g73
g59
NtRp2223
(dp2224
g62
(dp2225
sg71
g2154
sg64
(lp2226
g57
(g78
g59
NtRp2227
(dp2228
g62
(dp2229
g82
g83
ssg71
g2223
sg64
(lp2230
g1088
asbag57
(g78
g59
NtRp2231
(dp2232
g62
(dp2233
g89
g90
ssg71
g2223
sg64
(lp2234
S':'
asbag57
(g78
g59
NtRp2235
(dp2236
g62
(dp2237
sg71
g2223
sg64
(lp2238
g57
(g58
g59
NtRp2239
(dp2240
g62
(dp2241
g70
I4
ssg71
g2235
sg64
(lp2242
S"<Values at 0x1bd6908: {'verbose': False, 'ip': '127.0.0.1', 'shutdown_timeout': 5, 'taskbar': False, 'nocron': False, 'pid_filename': 'httpserver.pid', 'maxthreads': None, 'softcron': False, 'server_name': 'malena', 'bpython': False, 'nogui': False, 'port': 8000, 'extcron': False, 'debuglevel': 30, 'test': None, 'folder': '/home/marco/flisol2012/web2py', 'config': '', 'import_models': False, 'winservice': '', 'shell': None, 'run': '', 'log_filename': 'httpserver.log', 'args': [''], 'socket_timeout': 5, 'ssl_ca_certificate': None, 'scheduler': None, 'profiler_filename': None, 'ssl_private_key': '', 'password': 'asd', 'request_queue_size': 5, 'ssl_certificate': '', 'cronjob': False, 'numthreads': None, 'quiet': False, 'interfaces': None, 'minthreads': None, 'timeout': 10, 'plain': False, 'nobanner': False}>"
p2243
asbasbasbag57
(g73
g59
NtRp2244
(dp2245
g62
(dp2246
sg71
g2154
sg64
(lp2247
g57
(g78
g59
NtRp2248
(dp2249
g62
(dp2250
g82
g83
ssg71
g2244
sg64
(lp2251
g1154
asbag57
(g78
g59
NtRp2252
(dp2253
g62
(dp2254
g89
g90
ssg71
g2244
sg64
(lp2255
S':'
asbag57
(g78
g59
NtRp2256
(dp2257
g62
(dp2258
sg71
g2244
sg64
(lp2259
g57
(g58
g59
NtRp2260
(dp2261
g62
(dp2262
g70
I4
ssg71
g2256
sg64
(lp2263
S'set([])'
p2264
asbasbasbag57
(g73
g59
NtRp2265
(dp2266
g62
(dp2267
sg71
g2154
sg64
(lp2268
g57
(g78
g59
NtRp2269
(dp2270
g62
(dp2271
g82
g83
ssg71
g2265
sg64
(lp2272
g1176
asbag57
(g78
g59
NtRp2273
(dp2274
g62
(dp2275
g89
g90
ssg71
g2265
sg64
(lp2276
S':'
asbag57
(g78
g59
NtRp2277
(dp2278
g62
(dp2279
sg71
g2265
sg64
(lp2280
g57
(g58
g59
NtRp2281
(dp2282
g62
(dp2283
g70
I4
ssg71
g2277
sg64
(lp2284
g100
asbasbasbag57
(g73
g59
NtRp2285
(dp2286
g62
(dp2287
sg71
g2154
sg64
(lp2288
g57
(g78
g59
NtRp2289
(dp2290
g62
(dp2291
g82
g83
ssg71
g2285
sg64
(lp2292
g1197
asbag57
(g78
g59
NtRp2293
(dp2294
g62
(dp2295
g89
g90
ssg71
g2285
sg64
(lp2296
S':'
asbag57
(g78
g59
NtRp2297
(dp2298
g62
(dp2299
sg71
g2285
sg64
(lp2300
g57
(g58
g59
NtRp2301
(dp2302
g62
(dp2303
g70
I4
ssg71
g2297
sg64
(lp2304
g1210
asbasbasbag57
(g73
g59
NtRp2305
(dp2306
g62
(dp2307
sg71
g2154
sg64
(lp2308
g57
(g78
g59
NtRp2309
(dp2310
g62
(dp2311
g82
g83
ssg71
g2305
sg64
(lp2312
g1459
asbag57
(g78
g59
NtRp2313
(dp2314
g62
(dp2315
g89
g90
ssg71
g2305
sg64
(lp2316
S':'
asbag57
(g78
g59
NtRp2317
(dp2318
g62
(dp2319
sg71
g2305
sg64
(lp2320
g57
(g58
g59
NtRp2321
(dp2322
g62
(dp2323
g70
I4
ssg71
g2317
sg64
(lp2324
g100
asbasbasbag57
(g73
g59
NtRp2325
(dp2326
g62
(dp2327
sg71
g2154
sg64
(lp2328
g57
(g78
g59
NtRp2329
(dp2330
g62
(dp2331
g82
g83
ssg71
g2325
sg64
(lp2332
g1480
asbag57
(g78
g59
NtRp2333
(dp2334
g62
(dp2335
g89
g90
ssg71
g2325
sg64
(lp2336
S':'
asbag57
(g78
g59
NtRp2337
(dp2338
g62
(dp2339
sg71
g2325
sg64
(lp2340
g57
(g58
g59
NtRp2341
(dp2342
g62
(dp2343
g70
I4
ssg71
g2337
sg64
(lp2344
g100
asbasbasbag57
(g73
g59
NtRp2345
(dp2346
g62
(dp2347
sg71
g2154
sg64
(lp2348
g57
(g78
g59
NtRp2349
(dp2350
g62
(dp2351
g82
g83
ssg71
g2345
sg64
(lp2352
g1718
asbag57
(g78
g59
NtRp2353
(dp2354
g62
(dp2355
g89
g90
ssg71
g2345
sg64
(lp2356
S':'
asbag57
(g78
g59
NtRp2357
(dp2358
g62
(dp2359
sg71
g2345
sg64
(lp2360
g57
(g58
g59
NtRp2361
(dp2362
g62
(dp2363
g70
I4
ssg71
g2357
sg64
(lp2364
g1731
asbasbasbag57
(g73
g59
NtRp2365
(dp2366
g62
(dp2367
sg71
g2154
sg64
(lp2368
g57
(g78
g59
NtRp2369
(dp2370
g62
(dp2371
g82
g83
ssg71
g2365
sg64
(lp2372
g1761
asbag57
(g78
g59
NtRp2373
(dp2374
g62
(dp2375
g89
g90
ssg71
g2365
sg64
(lp2376
S':'
asbag57
(g78
g59
NtRp2377
(dp2378
g62
(dp2379
sg71
g2365
sg64
(lp2380
g57
(g58
g59
NtRp2381
(dp2382
g62
(dp2383
g70
I4
ssg71
g2377
sg64
(lp2384
g57
(g66
g59
NtRp2385
(dp2386
g62
(dp2387
g70
I3
ssg71
Nsg64
(lp2388
g57
(g73
g59
NtRp2389
(dp2390
g62
(dp2391
sg71
g2385
sg64
(lp2392
g57
(g78
g59
NtRp2393
(dp2394
g62
(dp2395
sg71
g2389
sg64
(lp2396
g57
(g58
g59
NtRp2397
(dp2398
g62
(dp2399
g70
I3
ssg71
g2393
sg64
(lp2400
S'1'
asbasbasbag57
(g73
g59
NtRp2401
(dp2402
g62
(dp2403
sg71
g2385
sg64
(lp2404
g57
(g78
g59
NtRp2405
(dp2406
g62
(dp2407
sg71
g2401
sg64
(lp2408
g57
(g58
g59
NtRp2409
(dp2410
g62
(dp2411
g70
I3
ssg71
g2405
sg64
(lp2412
S'99'
p2413
asbasbasbag57
(g73
g59
NtRp2414
(dp2415
g62
(dp2416
sg71
g2385
sg64
(lp2417
g57
(g78
g59
NtRp2418
(dp2419
g62
(dp2420
sg71
g2414
sg64
(lp2421
g57
(g58
g59
NtRp2422
(dp2423
g62
(dp2424
g70
I3
ssg71
g2418
sg64
(lp2425
S'7'
asbasbasbag57
(g73
g59
NtRp2426
(dp2427
g62
(dp2428
sg71
g2385
sg64
(lp2429
g57
(g78
g59
NtRp2430
(dp2431
g62
(dp2432
sg71
g2426
sg64
(lp2433
g57
(g58
g59
NtRp2434
(dp2435
g62
(dp2436
g70
I3
ssg71
g2430
sg64
(lp2437
S'datetime.datetime(2012, 3, 4, 22, 12, 8)'
p2438
asbasbasbag57
(g73
g59
NtRp2439
(dp2440
g62
(dp2441
sg71
g2385
sg64
(lp2442
g57
(g78
g59
NtRp2443
(dp2444
g62
(dp2445
sg71
g2439
sg64
(lp2446
g57
(g58
g59
NtRp2447
(dp2448
g62
(dp2449
g70
I3
ssg71
g2443
sg64
(lp2450
g1840
asbasbasbasbasbasbasbasbasbasbasbag57
(g73
g59
NtRp2451
(dp2452
g62
(dp2453
sg71
g67
sg64
(lp2454
g57
(g78
g59
NtRp2455
(dp2456
g62
(dp2457
g82
g83
ssg71
g2451
sg64
(lp2458
S'is_https'
p2459
asbag57
(g78
g59
NtRp2460
(dp2461
g62
(dp2462
g89
g90
ssg71
g2451
sg64
(lp2463
S':'
asbag57
(g78
g59
NtRp2464
(dp2465
g62
(dp2466
sg71
g2451
sg64
(lp2467
g57
(g58
g59
NtRp2468
(dp2469
g62
(dp2470
g70
I5
ssg71
g2464
sg64
(lp2471
g100
asbasbasbag57
(g73
g59
NtRp2472
(dp2473
g62
(dp2474
sg71
g67
sg64
(lp2475
g57
(g78
g59
NtRp2476
(dp2477
g62
(dp2478
g82
g83
ssg71
g2472
sg64
(lp2479
S'is_local'
p2480
asbag57
(g78
g59
NtRp2481
(dp2482
g62
(dp2483
g89
g90
ssg71
g2472
sg64
(lp2484
S':'
asbag57
(g78
g59
NtRp2485
(dp2486
g62
(dp2487
sg71
g2472
sg64
(lp2488
g57
(g58
g59
NtRp2489
(dp2490
g62
(dp2491
g70
I5
ssg71
g2485
sg64
(lp2492
g1949
asbasbasbag57
(g73
g59
NtRp2493
(dp2494
g62
(dp2495
sg71
g67
sg64
(lp2496
g57
(g78
g59
NtRp2497
(dp2498
g62
(dp2499
g82
g83
ssg71
g2493
sg64
(lp2500
S'is_restful'
p2501
asbag57
(g78
g59
NtRp2502
(dp2503
g62
(dp2504
g89
g90
ssg71
g2493
sg64
(lp2505
S':'
asbag57
(g78
g59
NtRp2506
(dp2507
g62
(dp2508
sg71
g2493
sg64
(lp2509
g57
(g58
g59
NtRp2510
(dp2511
g62
(dp2512
g70
I5
ssg71
g2506
sg64
(lp2513
g100
asbasbasbag57
(g73
g59
NtRp2514
(dp2515
g62
(dp2516
sg71
g67
sg64
(lp2517
g57
(g78
g59
NtRp2518
(dp2519
g62
(dp2520
g82
g83
ssg71
g2514
sg64
(lp2521
S'now'
p2522
asbag57
(g78
g59
NtRp2523
(dp2524
g62
(dp2525
g89
g90
ssg71
g2514
sg64
(lp2526
S':'
asbag57
(g78
g59
NtRp2527
(dp2528
g62
(dp2529
sg71
g2514
sg64
(lp2530
g57
(g58
g59
NtRp2531
(dp2532
g62
(dp2533
g70
I5
ssg71
g2527
sg64
(lp2534
S'datetime.datetime(2012, 3, 9, 18, 39, 5, 802005)'
p2535
asbasbasbag57
(g73
g59
NtRp2536
(dp2537
g62
(dp2538
sg71
g67
sg64
(lp2539
g57
(g78
g59
NtRp2540
(dp2541
g62
(dp2542
g82
g83
ssg71
g2536
sg64
(lp2543
S'post_vars'
p2544
asbag57
(g78
g59
NtRp2545
(dp2546
g62
(dp2547
g89
g90
ssg71
g2536
sg64
(lp2548
S':'
asbag57
(g78
g59
NtRp2549
(dp2550
g62
(dp2551
sg71
g2536
sg64
(lp2552
g57
(g58
g59
NtRp2553
(dp2554
g62
(dp2555
g70
I5
ssg71
g2549
sg64
(lp2556
g57
(g66
g59
NtRp2557
(dp2558
g62
(dp2559
g70
I4
ssg71
Nsg64
(lp2560
g57
(g73
g59
NtRp2561
(dp2562
g62
(dp2563
sg71
g2557
sg64
(lp2564
g57
(g78
g59
NtRp2565
(dp2566
g62
(dp2567
g82
g83
ssg71
g2561
sg64
(lp2568
S'action'
p2569
asbag57
(g78
g59
NtRp2570
(dp2571
g62
(dp2572
g89
g90
ssg71
g2561
sg64
(lp2573
S':'
asbag57
(g78
g59
NtRp2574
(dp2575
g62
(dp2576
sg71
g2561
sg64
(lp2577
g57
(g58
g59
NtRp2578
(dp2579
g62
(dp2580
g70
I4
ssg71
g2574
sg64
(lp2581
S'edit'
p2582
asbasbasbasbasbasbasbag57
(g73
g59
NtRp2583
(dp2584
g62
(dp2585
sg71
g67
sg64
(lp2586
g57
(g78
g59
NtRp2587
(dp2588
g62
(dp2589
g82
g83
ssg71
g2583
sg64
(lp2590
S'url'
p2591
asbag57
(g78
g59
NtRp2592
(dp2593
g62
(dp2594
g89
g90
ssg71
g2583
sg64
(lp2595
S':'
asbag57
(g78
g59
NtRp2596
(dp2597
g62
(dp2598
sg71
g2583
sg64
(lp2599
g57
(g58
g59
NtRp2600
(dp2601
g62
(dp2602
g70
I5
ssg71
g2596
sg64
(lp2603
S'/flisol2012/default/index'
p2604
asbasbasbag57
(g73
g59
NtRp2605
(dp2606
g62
(dp2607
sg71
g67
sg64
(lp2608
g57
(g78
g59
NtRp2609
(dp2610
g62
(dp2611
g82
g83
ssg71
g2605
sg64
(lp2612
S'utcnow'
p2613
asbag57
(g78
g59
NtRp2614
(dp2615
g62
(dp2616
g89
g90
ssg71
g2605
sg64
(lp2617
S':'
asbag57
(g78
g59
NtRp2618
(dp2619
g62
(dp2620
sg71
g2605
sg64
(lp2621
g57
(g58
g59
NtRp2622
(dp2623
g62
(dp2624
g70
I5
ssg71
g2618
sg64
(lp2625
S'datetime.datetime(2012, 3, 9, 21, 39, 5, 802047)'
p2626
asbasbasbag57
(g73
g59
NtRp2627
(dp2628
g62
(dp2629
sg71
g67
sg64
(lp2630
g57
(g78
g59
NtRp2631
(dp2632
g62
(dp2633
g82
g83
ssg71
g2627
sg64
(lp2634
S'uuid'
p2635
asbag57
(g78
g59
NtRp2636
(dp2637
g62
(dp2638
g89
g90
ssg71
g2627
sg64
(lp2639
S':'
asbag57
(g78
g59
NtRp2640
(dp2641
g62
(dp2642
sg71
g2627
sg64
(lp2643
g57
(g58
g59
NtRp2644
(dp2645
g62
(dp2646
g70
I5
ssg71
g2640
sg64
(lp2647
S'flisol2012/127.0.0.1.2012-03-09.18-39-05.45b271a9-ab66-4e86-bb8e-2752e9e7f691'
p2648
asbasbasbag57
(g73
g59
NtRp2649
(dp2650
g62
(dp2651
sg71
g67
sg64
(lp2652
g57
(g78
g59
NtRp2653
(dp2654
g62
(dp2655
g82
g83
ssg71
g2649
sg64
(lp2656
S'vars'
p2657
asbag57
(g78
g59
NtRp2658
(dp2659
g62
(dp2660
g89
g90
ssg71
g2649
sg64
(lp2661
S':'
asbag57
(g78
g59
NtRp2662
(dp2663
g62
(dp2664
sg71
g2649
sg64
(lp2665
g57
(g58
g59
NtRp2666
(dp2667
g62
(dp2668
g70
I5
ssg71
g2662
sg64
(lp2669
g57
(g66
g59
NtRp2670
(dp2671
g62
(dp2672
g70
I4
ssg71
Nsg64
(lp2673
g57
(g73
g59
NtRp2674
(dp2675
g62
(dp2676
sg71
g2670
sg64
(lp2677
g57
(g78
g59
NtRp2678
(dp2679
g62
(dp2680
g82
g83
ssg71
g2674
sg64
(lp2681
g2569
asbag57
(g78
g59
NtRp2682
(dp2683
g62
(dp2684
g89
g90
ssg71
g2674
sg64
(lp2685
S':'
asbag57
(g78
g59
NtRp2686
(dp2687
g62
(dp2688
sg71
g2674
sg64
(lp2689
g57
(g58
g59
NtRp2690
(dp2691
g62
(dp2692
g70
I4
ssg71
g2686
sg64
(lp2693
g2582
asbasbasbasbasbasbasbag57
(g73
g59
NtRp2694
(dp2695
g62
(dp2696
sg71
g67
sg64
(lp2697
g57
(g78
g59
NtRp2698
(dp2699
g62
(dp2700
g82
g83
ssg71
g2694
sg64
(lp2701
S'wsgi'
p2702
asbag57
(g78
g59
NtRp2703
(dp2704
g62
(dp2705
g89
g90
ssg71
g2694
sg64
(lp2706
S':'
asbag57
(g78
g59
NtRp2707
(dp2708
g62
(dp2709
sg71
g2694
sg64
(lp2710
g57
(g58
g59
NtRp2711
(dp2712
g62
(dp2713
g70
I5
ssg71
g2707
sg64
(lp2714
g57
(g66
g59
NtRp2715
(dp2716
g62
(dp2717
g70
I4
ssg71
Nsg64
(lp2718
g57
(g73
g59
NtRp2719
(dp2720
g62
(dp2721
sg71
g2715
sg64
(lp2722
g57
(g78
g59
NtRp2723
(dp2724
g62
(dp2725
g82
g83
ssg71
g2719
sg64
(lp2726
S'environ'
p2727
asbag57
(g78
g59
NtRp2728
(dp2729
g62
(dp2730
g89
g90
ssg71
g2719
sg64
(lp2731
S':'
asbag57
(g78
g59
NtRp2732
(dp2733
g62
(dp2734
sg71
g2719
sg64
(lp2735
g57
(g58
g59
NtRp2736
(dp2737
g62
(dp2738
g70
I4
ssg71
g2732
sg64
(lp2739
g57
(g66
g59
NtRp2740
(dp2741
g62
(dp2742
g70
I3
ssg71
Nsg64
(lp2743
g57
(g73
g59
NtRp2744
(dp2745
g62
(dp2746
sg71
g2740
sg64
(lp2747
g57
(g78
g59
NtRp2748
(dp2749
g62
(dp2750
g82
g83
ssg71
g2744
sg64
(lp2751
S'CONTENT_LENGTH'
p2752
asbag57
(g78
g59
NtRp2753
(dp2754
g62
(dp2755
g89
g90
ssg71
g2744
sg64
(lp2756
S':'
asbag57
(g78
g59
NtRp2757
(dp2758
g62
(dp2759
sg71
g2744
sg64
(lp2760
g57
(g58
g59
NtRp2761
(dp2762
g62
(dp2763
g70
I3
ssg71
g2757
sg64
(lp2764
g1123
asbasbasbag57
(g73
g59
NtRp2765
(dp2766
g62
(dp2767
sg71
g2740
sg64
(lp2768
g57
(g78
g59
NtRp2769
(dp2770
g62
(dp2771
g82
g83
ssg71
g2765
sg64
(lp2772
S'CONTENT_TYPE'
p2773
asbag57
(g78
g59
NtRp2774
(dp2775
g62
(dp2776
g89
g90
ssg71
g2765
sg64
(lp2777
S':'
asbag57
(g78
g59
NtRp2778
(dp2779
g62
(dp2780
sg71
g2765
sg64
(lp2781
g57
(g58
g59
NtRp2782
(dp2783
g62
(dp2784
g70
I3
ssg71
g2778
sg64
(lp2785
g1145
asbasbasbag57
(g73
g59
NtRp2786
(dp2787
g62
(dp2788
sg71
g2740
sg64
(lp2789
g57
(g78
g59
NtRp2790
(dp2791
g62
(dp2792
g82
g83
ssg71
g2786
sg64
(lp2793
S'HTTP_ACCEPT'
p2794
asbag57
(g78
g59
NtRp2795
(dp2796
g62
(dp2797
g89
g90
ssg71
g2786
sg64
(lp2798
S':'
asbag57
(g78
g59
NtRp2799
(dp2800
g62
(dp2801
sg71
g2786
sg64
(lp2802
g57
(g58
g59
NtRp2803
(dp2804
g62
(dp2805
g70
I3
ssg71
g2799
sg64
(lp2806
g1232
asbasbasbag57
(g73
g59
NtRp2807
(dp2808
g62
(dp2809
sg71
g2740
sg64
(lp2810
g57
(g78
g59
NtRp2811
(dp2812
g62
(dp2813
g82
g83
ssg71
g2807
sg64
(lp2814
S'HTTP_ACCEPT_ENCODING'
p2815
asbag57
(g78
g59
NtRp2816
(dp2817
g62
(dp2818
g89
g90
ssg71
g2807
sg64
(lp2819
S':'
asbag57
(g78
g59
NtRp2820
(dp2821
g62
(dp2822
sg71
g2807
sg64
(lp2823
g57
(g58
g59
NtRp2824
(dp2825
g62
(dp2826
g70
I3
ssg71
g2820
sg64
(lp2827
g1254
asbasbasbag57
(g73
g59
NtRp2828
(dp2829
g62
(dp2830
sg71
g2740
sg64
(lp2831
g57
(g78
g59
NtRp2832
(dp2833
g62
(dp2834
g82
g83
ssg71
g2828
sg64
(lp2835
S'HTTP_ACCEPT_LANGUAGE'
p2836
asbag57
(g78
g59
NtRp2837
(dp2838
g62
(dp2839
g89
g90
ssg71
g2828
sg64
(lp2840
S':'
asbag57
(g78
g59
NtRp2841
(dp2842
g62
(dp2843
sg71
g2828
sg64
(lp2844
g57
(g58
g59
NtRp2845
(dp2846
g62
(dp2847
g70
I3
ssg71
g2841
sg64
(lp2848
g1276
asbasbasbag57
(g73
g59
NtRp2849
(dp2850
g62
(dp2851
sg71
g2740
sg64
(lp2852
g57
(g78
g59
NtRp2853
(dp2854
g62
(dp2855
g82
g83
ssg71
g2849
sg64
(lp2856
S'HTTP_CACHE_CONTROL'
p2857
asbag57
(g78
g59
NtRp2858
(dp2859
g62
(dp2860
g89
g90
ssg71
g2849
sg64
(lp2861
S':'
asbag57
(g78
g59
NtRp2862
(dp2863
g62
(dp2864
sg71
g2849
sg64
(lp2865
g57
(g58
g59
NtRp2866
(dp2867
g62
(dp2868
g70
I3
ssg71
g2862
sg64
(lp2869
g1298
asbasbasbag57
(g73
g59
NtRp2870
(dp2871
g62
(dp2872
sg71
g2740
sg64
(lp2873
g57
(g78
g59
NtRp2874
(dp2875
g62
(dp2876
g82
g83
ssg71
g2870
sg64
(lp2877
S'HTTP_CONNECTION'
p2878
asbag57
(g78
g59
NtRp2879
(dp2880
g62
(dp2881
g89
g90
ssg71
g2870
sg64
(lp2882
S':'
asbag57
(g78
g59
NtRp2883
(dp2884
g62
(dp2885
sg71
g2870
sg64
(lp2886
g57
(g58
g59
NtRp2887
(dp2888
g62
(dp2889
g70
I3
ssg71
g2883
sg64
(lp2890
g1320
asbasbasbag57
(g73
g59
NtRp2891
(dp2892
g62
(dp2893
sg71
g2740
sg64
(lp2894
g57
(g78
g59
NtRp2895
(dp2896
g62
(dp2897
g82
g83
ssg71
g2891
sg64
(lp2898
S'HTTP_CONTENT_LENGTH'
p2899
asbag57
(g78
g59
NtRp2900
(dp2901
g62
(dp2902
g89
g90
ssg71
g2891
sg64
(lp2903
S':'
asbag57
(g78
g59
NtRp2904
(dp2905
g62
(dp2906
sg71
g2891
sg64
(lp2907
g57
(g58
g59
NtRp2908
(dp2909
g62
(dp2910
g70
I3
ssg71
g2904
sg64
(lp2911
g1123
asbasbasbag57
(g73
g59
NtRp2912
(dp2913
g62
(dp2914
sg71
g2740
sg64
(lp2915
g57
(g78
g59
NtRp2916
(dp2917
g62
(dp2918
g82
g83
ssg71
g2912
sg64
(lp2919
S'HTTP_CONTENT_TYPE'
p2920
asbag57
(g78
g59
NtRp2921
(dp2922
g62
(dp2923
g89
g90
ssg71
g2912
sg64
(lp2924
S':'
asbag57
(g78
g59
NtRp2925
(dp2926
g62
(dp2927
sg71
g2912
sg64
(lp2928
g57
(g58
g59
NtRp2929
(dp2930
g62
(dp2931
g70
I3
ssg71
g2925
sg64
(lp2932
g1145
asbasbasbag57
(g73
g59
NtRp2933
(dp2934
g62
(dp2935
sg71
g2740
sg64
(lp2936
g57
(g78
g59
NtRp2937
(dp2938
g62
(dp2939
g82
g83
ssg71
g2933
sg64
(lp2940
S'HTTP_COOKIE'
p2941
asbag57
(g78
g59
NtRp2942
(dp2943
g62
(dp2944
g89
g90
ssg71
g2933
sg64
(lp2945
S':'
asbag57
(g78
g59
NtRp2946
(dp2947
g62
(dp2948
sg71
g2933
sg64
(lp2949
g57
(g58
g59
NtRp2950
(dp2951
g62
(dp2952
g70
I3
ssg71
g2946
sg64
(lp2953
g1384
asbasbasbag57
(g73
g59
NtRp2954
(dp2955
g62
(dp2956
sg71
g2740
sg64
(lp2957
g57
(g78
g59
NtRp2958
(dp2959
g62
(dp2960
g82
g83
ssg71
g2954
sg64
(lp2961
S'HTTP_HOST'
p2962
asbag57
(g78
g59
NtRp2963
(dp2964
g62
(dp2965
g89
g90
ssg71
g2954
sg64
(lp2966
S':'
asbag57
(g78
g59
NtRp2967
(dp2968
g62
(dp2969
sg71
g2954
sg64
(lp2970
g57
(g58
g59
NtRp2971
(dp2972
g62
(dp2973
g70
I3
ssg71
g2967
sg64
(lp2974
g1406
asbasbasbag57
(g73
g59
NtRp2975
(dp2976
g62
(dp2977
sg71
g2740
sg64
(lp2978
g57
(g78
g59
NtRp2979
(dp2980
g62
(dp2981
g82
g83
ssg71
g2975
sg64
(lp2982
S'HTTP_REFERER'
p2983
asbag57
(g78
g59
NtRp2984
(dp2985
g62
(dp2986
g89
g90
ssg71
g2975
sg64
(lp2987
S':'
asbag57
(g78
g59
NtRp2988
(dp2989
g62
(dp2990
sg71
g2975
sg64
(lp2991
g57
(g58
g59
NtRp2992
(dp2993
g62
(dp2994
g70
I3
ssg71
g2988
sg64
(lp2995
g1428
asbasbasbag57
(g73
g59
NtRp2996
(dp2997
g62
(dp2998
sg71
g2740
sg64
(lp2999
g57
(g78
g59
NtRp3000
(dp3001
g62
(dp3002
g82
g83
ssg71
g2996
sg64
(lp3003
S'HTTP_USER_AGENT'
p3004
asbag57
(g78
g59
NtRp3005
(dp3006
g62
(dp3007
g89
g90
ssg71
g2996
sg64
(lp3008
S':'
asbag57
(g78
g59
NtRp3009
(dp3010
g62
(dp3011
sg71
g2996
sg64
(lp3012
g57
(g58
g59
NtRp3013
(dp3014
g62
(dp3015
g70
I3
ssg71
g3009
sg64
(lp3016
g1450
asbasbasbag57
(g73
g59
NtRp3017
(dp3018
g62
(dp3019
sg71
g2740
sg64
(lp3020
g57
(g78
g59
NtRp3021
(dp3022
g62
(dp3023
g82
g83
ssg71
g3017
sg64
(lp3024
S'PATH_INFO'
p3025
asbag57
(g78
g59
NtRp3026
(dp3027
g62
(dp3028
g89
g90
ssg71
g3017
sg64
(lp3029
S':'
asbag57
(g78
g59
NtRp3030
(dp3031
g62
(dp3032
sg71
g3017
sg64
(lp3033
g57
(g58
g59
NtRp3034
(dp3035
g62
(dp3036
g70
I3
ssg71
g3030
sg64
(lp3037
g1514
asbasbasbag57
(g73
g59
NtRp3038
(dp3039
g62
(dp3040
sg71
g2740
sg64
(lp3041
g57
(g78
g59
NtRp3042
(dp3043
g62
(dp3044
g82
g83
ssg71
g3038
sg64
(lp3045
S'QUERY_STRING'
p3046
asbag57
(g78
g59
NtRp3047
(dp3048
g62
(dp3049
g89
g90
ssg71
g3038
sg64
(lp3050
S':'
asbag57
(g78
g59
NtRp3051
(dp3052
g62
(dp3053
sg71
g3038
sg64
(lp3054
g57
(g58
g59
NtRp3055
(dp3056
g62
(dp3057
g70
I3
ssg71
g3051
sg64
(lp3058
S''
asbasbasbag57
(g73
g59
NtRp3059
(dp3060
g62
(dp3061
sg71
g2740
sg64
(lp3062
g57
(g78
g59
NtRp3063
(dp3064
g62
(dp3065
g82
g83
ssg71
g3059
sg64
(lp3066
S'REMOTE_ADDR'
p3067
asbag57
(g78
g59
NtRp3068
(dp3069
g62
(dp3070
g89
g90
ssg71
g3059
sg64
(lp3071
S':'
asbag57
(g78
g59
NtRp3072
(dp3073
g62
(dp3074
sg71
g3059
sg64
(lp3075
g57
(g58
g59
NtRp3076
(dp3077
g62
(dp3078
g70
I3
ssg71
g3072
sg64
(lp3079
g190
asbasbasbag57
(g73
g59
NtRp3080
(dp3081
g62
(dp3082
sg71
g2740
sg64
(lp3083
g57
(g78
g59
NtRp3084
(dp3085
g62
(dp3086
g82
g83
ssg71
g3080
sg64
(lp3087
S'REMOTE_PORT'
p3088
asbag57
(g78
g59
NtRp3089
(dp3090
g62
(dp3091
g89
g90
ssg71
g3080
sg64
(lp3092
S':'
asbag57
(g78
g59
NtRp3093
(dp3094
g62
(dp3095
sg71
g3080
sg64
(lp3096
g57
(g58
g59
NtRp3097
(dp3098
g62
(dp3099
g70
I3
ssg71
g3093
sg64
(lp3100
g1578
asbasbasbag57
(g73
g59
NtRp3101
(dp3102
g62
(dp3103
sg71
g2740
sg64
(lp3104
g57
(g78
g59
NtRp3105
(dp3106
g62
(dp3107
g82
g83
ssg71
g3101
sg64
(lp3108
S'REQUEST_METHOD'
p3109
asbag57
(g78
g59
NtRp3110
(dp3111
g62
(dp3112
g89
g90
ssg71
g3101
sg64
(lp3113
S':'
asbag57
(g78
g59
NtRp3114
(dp3115
g62
(dp3116
sg71
g3101
sg64
(lp3117
g57
(g58
g59
NtRp3118
(dp3119
g62
(dp3120
g70
I3
ssg71
g3114
sg64
(lp3121
g1600
asbasbasbag57
(g73
g59
NtRp3122
(dp3123
g62
(dp3124
sg71
g2740
sg64
(lp3125
g57
(g78
g59
NtRp3126
(dp3127
g62
(dp3128
g82
g83
ssg71
g3122
sg64
(lp3129
S'SCRIPT_NAME'
p3130
asbag57
(g78
g59
NtRp3131
(dp3132
g62
(dp3133
g89
g90
ssg71
g3122
sg64
(lp3134
S':'
asbag57
(g78
g59
NtRp3135
(dp3136
g62
(dp3137
sg71
g3122
sg64
(lp3138
g57
(g58
g59
NtRp3139
(dp3140
g62
(dp3141
g70
I3
ssg71
g3135
sg64
(lp3142
S''
asbasbasbag57
(g73
g59
NtRp3143
(dp3144
g62
(dp3145
sg71
g2740
sg64
(lp3146
g57
(g78
g59
NtRp3147
(dp3148
g62
(dp3149
g82
g83
ssg71
g3143
sg64
(lp3150
S'SERVER_NAME'
p3151
asbag57
(g78
g59
NtRp3152
(dp3153
g62
(dp3154
g89
g90
ssg71
g3143
sg64
(lp3155
S':'
asbag57
(g78
g59
NtRp3156
(dp3157
g62
(dp3158
sg71
g3143
sg64
(lp3159
g57
(g58
g59
NtRp3160
(dp3161
g62
(dp3162
g70
I3
ssg71
g3156
sg64
(lp3163
g1643
asbasbasbag57
(g73
g59
NtRp3164
(dp3165
g62
(dp3166
sg71
g2740
sg64
(lp3167
g57
(g78
g59
NtRp3168
(dp3169
g62
(dp3170
g82
g83
ssg71
g3164
sg64
(lp3171
S'SERVER_PORT'
p3172
asbag57
(g78
g59
NtRp3173
(dp3174
g62
(dp3175
g89
g90
ssg71
g3164
sg64
(lp3176
S':'
asbag57
(g78
g59
NtRp3177
(dp3178
g62
(dp3179
sg71
g3164
sg64
(lp3180
g57
(g58
g59
NtRp3181
(dp3182
g62
(dp3183
g70
I3
ssg71
g3177
sg64
(lp3184
g1665
asbasbasbag57
(g73
g59
NtRp3185
(dp3186
g62
(dp3187
sg71
g2740
sg64
(lp3188
g57
(g78
g59
NtRp3189
(dp3190
g62
(dp3191
g82
g83
ssg71
g3185
sg64
(lp3192
S'SERVER_PROTOCOL'
p3193
asbag57
(g78
g59
NtRp3194
(dp3195
g62
(dp3196
g89
g90
ssg71
g3185
sg64
(lp3197
S':'
asbag57
(g78
g59
NtRp3198
(dp3199
g62
(dp3200
sg71
g3185
sg64
(lp3201
g57
(g58
g59
NtRp3202
(dp3203
g62
(dp3204
g70
I3
ssg71
g3198
sg64
(lp3205
g1687
asbasbasbag57
(g73
g59
NtRp3206
(dp3207
g62
(dp3208
sg71
g2740
sg64
(lp3209
g57
(g78
g59
NtRp3210
(dp3211
g62
(dp3212
g82
g83
ssg71
g3206
sg64
(lp3213
S'SERVER_SOFTWARE'
p3214
asbag57
(g78
g59
NtRp3215
(dp3216
g62
(dp3217
g89
g90
ssg71
g3206
sg64
(lp3218
S':'
asbag57
(g78
g59
NtRp3219
(dp3220
g62
(dp3221
sg71
g3206
sg64
(lp3222
g57
(g58
g59
NtRp3223
(dp3224
g62
(dp3225
g70
I3
ssg71
g3219
sg64
(lp3226
g1709
asbasbasbag57
(g73
g59
NtRp3227
(dp3228
g62
(dp3229
sg71
g2740
sg64
(lp3230
g57
(g78
g59
NtRp3231
(dp3232
g62
(dp3233
g82
g83
ssg71
g3227
sg64
(lp3234
S'wsgi.errors'
p3235
asbag57
(g78
g59
NtRp3236
(dp3237
g62
(dp3238
g89
g90
ssg71
g3227
sg64
(lp3239
S':'
asbag57
(g78
g59
NtRp3240
(dp3241
g62
(dp3242
sg71
g3227
sg64
(lp3243
g57
(g58
g59
NtRp3244
(dp3245
g62
(dp3246
g70
I3
ssg71
g3240
sg64
(lp3247
S"<open file '<stderr>', mode 'w' at 0x7f4f2366f270>"
p3248
asbasbasbag57
(g73
g59
NtRp3249
(dp3250
g62
(dp3251
sg71
g2740
sg64
(lp3252
g57
(g78
g59
NtRp3253
(dp3254
g62
(dp3255
g82
g83
ssg71
g3249
sg64
(lp3256
S'wsgi.file_wrapper'
p3257
asbag57
(g78
g59
NtRp3258
(dp3259
g62
(dp3260
g89
g90
ssg71
g3249
sg64
(lp3261
S':'
asbag57
(g78
g59
NtRp3262
(dp3263
g62
(dp3264
sg71
g3249
sg64
(lp3265
g57
(g58
g59
NtRp3266
(dp3267
g62
(dp3268
g70
I3
ssg71
g3262
sg64
(lp3269
S'<class wsgiref.util.FileWrapper at 0x1abc460>'
p3270
asbasbasbag57
(g73
g59
NtRp3271
(dp3272
g62
(dp3273
sg71
g2740
sg64
(lp3274
g57
(g78
g59
NtRp3275
(dp3276
g62
(dp3277
g82
g83
ssg71
g3271
sg64
(lp3278
S'wsgi.input'
p3279
asbag57
(g78
g59
NtRp3280
(dp3281
g62
(dp3282
g89
g90
ssg71
g3271
sg64
(lp3283
S':'
asbag57
(g78
g59
NtRp3284
(dp3285
g62
(dp3286
sg71
g3271
sg64
(lp3287
g57
(g58
g59
NtRp3288
(dp3289
g62
(dp3290
g70
I3
ssg71
g3284
sg64
(lp3291
S"<open file '<fdopen>', mode 'w+b' at 0x40c96f0>"
p3292
asbasbasbag57
(g73
g59
NtRp3293
(dp3294
g62
(dp3295
sg71
g2740
sg64
(lp3296
g57
(g78
g59
NtRp3297
(dp3298
g62
(dp3299
g82
g83
ssg71
g3293
sg64
(lp3300
S'wsgi.multiprocess'
p3301
asbag57
(g78
g59
NtRp3302
(dp3303
g62
(dp3304
g89
g90
ssg71
g3293
sg64
(lp3305
S':'
asbag57
(g78
g59
NtRp3306
(dp3307
g62
(dp3308
sg71
g3293
sg64
(lp3309
g57
(g58
g59
NtRp3310
(dp3311
g62
(dp3312
g70
I3
ssg71
g3306
sg64
(lp3313
g100
asbasbasbag57
(g73
g59
NtRp3314
(dp3315
g62
(dp3316
sg71
g2740
sg64
(lp3317
g57
(g78
g59
NtRp3318
(dp3319
g62
(dp3320
g82
g83
ssg71
g3314
sg64
(lp3321
S'wsgi.multithread'
p3322
asbag57
(g78
g59
NtRp3323
(dp3324
g62
(dp3325
g89
g90
ssg71
g3314
sg64
(lp3326
S':'
asbag57
(g78
g59
NtRp3327
(dp3328
g62
(dp3329
sg71
g3314
sg64
(lp3330
g57
(g58
g59
NtRp3331
(dp3332
g62
(dp3333
g70
I3
ssg71
g3327
sg64
(lp3334
g1949
asbasbasbag57
(g73
g59
NtRp3335
(dp3336
g62
(dp3337
sg71
g2740
sg64
(lp3338
g57
(g78
g59
NtRp3339
(dp3340
g62
(dp3341
g82
g83
ssg71
g3335
sg64
(lp3342
S'wsgi.run_once'
p3343
asbag57
(g78
g59
NtRp3344
(dp3345
g62
(dp3346
g89
g90
ssg71
g3335
sg64
(lp3347
S':'
asbag57
(g78
g59
NtRp3348
(dp3349
g62
(dp3350
sg71
g3335
sg64
(lp3351
g57
(g58
g59
NtRp3352
(dp3353
g62
(dp3354
g70
I3
ssg71
g3348
sg64
(lp3355
g100
asbasbasbag57
(g73
g59
NtRp3356
(dp3357
g62
(dp3358
sg71
g2740
sg64
(lp3359
g57
(g78
g59
NtRp3360
(dp3361
g62
(dp3362
g82
g83
ssg71
g3356
sg64
(lp3363
S'wsgi.url_scheme'
p3364
asbag57
(g78
g59
NtRp3365
(dp3366
g62
(dp3367
g89
g90
ssg71
g3356
sg64
(lp3368
S':'
asbag57
(g78
g59
NtRp3369
(dp3370
g62
(dp3371
sg71
g3356
sg64
(lp3372
g57
(g58
g59
NtRp3373
(dp3374
g62
(dp3375
g70
I3
ssg71
g3369
sg64
(lp3376
g1992
asbasbasbag57
(g73
g59
NtRp3377
(dp3378
g62
(dp3379
sg71
g2740
sg64
(lp3380
g57
(g78
g59
NtRp3381
(dp3382
g62
(dp3383
g82
g83
ssg71
g3377
sg64
(lp3384
S'wsgi.version'
p3385
asbag57
(g78
g59
NtRp3386
(dp3387
g62
(dp3388
g89
g90
ssg71
g3377
sg64
(lp3389
S':'
asbag57
(g78
g59
NtRp3390
(dp3391
g62
(dp3392
sg71
g3377
sg64
(lp3393
g57
(g58
g59
NtRp3394
(dp3395
g62
(dp3396
g70
I3
ssg71
g3390
sg64
(lp3397
S'1'
asbasbasbasbasbasbasbasbasbasbasbasbasbsS'frames'
p3398
(lp3399
(dp3400
S'file'
p3401
S'/home/marco/flisol2012/web2py/gluon/restricted.py'
p3402
sS'dump'
p3403
(dp3404
S'environment'
p3405
S"{'A': <class 'gluon.html.A'>, 'ATTENDEE_TYPES': (('gratis', <lazyT 'Gratuito, $0'>),), 'ATTENDEE_TYPE_COST': {None: 0.0, 'gratis': 0.0}, 'Auth': <class 'gluon.tools.Auth'>, 'B': <class 'gluon.html.B'>, 'BEAUTIFY': <class 'gluon.html.BEAUTIFY'>, 'BODY': <class 'gluon.html.BODY'>, 'BR': <class 'gluon.html.BR'>, 'BUTTON': <class 'gluon.html.BUTTON'>, 'CAT': <class 'gluon.html.CAT'>, ...}"
p3406
sS'ccode'
p3407
S'<code object <module> at 0x220ec30, file "/home/.../applications/flisol2012/models/menu.py", line 3>'
p3408
ssS'lnum'
p3409
I205
sS'lines'
p3410
(dp3411
I200
S'    try:'
p3412
sI201
S'        if type(code) == types.CodeType:'
p3413
sI202
S'            ccode = code'
p3414
sI203
S'        else:'
p3415
sI204
S'            ccode = compile2(code,layer)'
p3416
sI205
S'        exec ccode in environment'
p3417
sI206
S'    except HTTP:'
p3418
sI207
S'        raise'
p3419
sI208
S'    except RestrictedError:'
p3420
sI209
S'        # do not encapsulate (obfuscate) the original RestrictedError'
p3421
ssS'call'
p3422
S'(code="# coding: utf8\\n\\nsession.manager=(auth.user and a...response.sidebar.append([T(\'Your Talks\'),talks])\\n", environment={\'A\': <class \'gluon.html.A\'>, \'ATTENDEE_TYPES\': ((\'gratis\', <lazyT \'Gratuito, $0\'>),), \'ATTENDEE_TYPE_COST\': {None: 0.0, \'gratis\': 0.0}, \'Auth\': <class \'gluon.tools.Auth\'>, \'B\': <class \'gluon.html.B\'>, \'BEAUTIFY\': <class \'gluon.html.BEAUTIFY\'>, \'BODY\': <class \'gluon.html.BODY\'>, \'BR\': <class \'gluon.html.BR\'>, \'BUTTON\': <class \'gluon.html.BUTTON\'>, \'CAT\': <class \'gluon.html.CAT\'>, ...}, layer=\'/home/marco/flisol2012/web2py/applications/flisol2012/models/menu.py\')'
p3423
sS'func'
p3424
S'restricted'
p3425
sa(dp3426
g3401
S'/home/marco/flisol2012/web2py/applications/flisol2012/models/menu.py'
p3427
sg3403
(dp3428
S'response.menu'
p3429
S"[[<lazyT 'Main'>, False, '/flisol2012/default/index'], [<lazyT 'Conference'>, False, '#', [[<lazyT 'About'>, True, '/flisol2012/conference/about'], [<lazyT 'Venue'>, True, '/flisol2012/conference/venue'], [<lazyT 'Software'>, True, '/flisol2012/conference/software'], [<lazyT 'Schedule'>, True, '/flisol2012/conference/schedule'], [<lazyT 'Talk Proposals'>, True, '/flisol2012/conference/proposals'], [<lazyT 'Staff'>, True, '/flisol2012/conference/staff']]]]"
p3430
sS'builtinFalse'
p3431
g100
sS'T'
S'<gluon.languages.translator object>'
p3432
sS'submenu_info'
p3433
S'undefined'
p3434
sS'response.menu.append'
p3435
S'<built-in method append of list object>'
p3436
sS'response'
p3437
S"<Storage {'body': <cStringIO.StringO object at 0...da> at 0x209b2a8>, 'view': 'default/index.html'}>"
p3438
ssg3409
I34
sg3410
(dp3439
I32
S"#   submenu_info.append([T('Proposed Talks'),False,URL(r=request,c='default',f='proposed_talks')])"
p3440
sI33
S''
sI34
S"response.menu.append([T('Stats'),False,'#',submenu_info])"
p3441
sI35
S"response.menu.append([T('About'),False,URL(r=request,c='default',f='about')])"
p3442
sI36
S''
sI37
S'if auth.user:'
p3443
sI38
S"    response.menu.append([T('Expenses'),True,URL(r=request,c='expenses',f='index')])"
p3444
sI29
S'#]'
p3445
sI30
S'#if ENABLE_TALKS:'
p3446
sI31
S"#   submenu_info.append([T('Accepted Talks'),False,URL(r=request,c='default',f='accepted_talks')])"
p3447
ssg3422
S'()'
p3448
sg3424
S'<module>'
p3449
sasS'pyver'
p3450
S'Python 2.7.2+: /usr/bin/python'
p3451
sS'session'
p3452
g57
(g58
g59
NtRp3453
(dp3454
g62
(dp3455
sg64
(lp3456
g57
(g66
g59
NtRp3457
(dp3458
g62
(dp3459
g70
I5
ssg71
Nsg64
(lp3460
g57
(g73
g59
NtRp3461
(dp3462
g62
(dp3463
sg71
g3457
sg64
(lp3464
g57
(g78
g59
NtRp3465
(dp3466
g62
(dp3467
g82
g83
ssg71
g3461
sg64
(lp3468
S'amount_added'
p3469
asbag57
(g78
g59
NtRp3470
(dp3471
g62
(dp3472
g89
g90
ssg71
g3461
sg64
(lp3473
S':'
asbag57
(g78
g59
NtRp3474
(dp3475
g62
(dp3476
sg71
g3461
sg64
(lp3477
g57
(g58
g59
NtRp3478
(dp3479
g62
(dp3480
g70
I5
ssg71
g3474
sg64
(lp3481
S'0.0'
p3482
asbasbasbag57
(g73
g59
NtRp3483
(dp3484
g62
(dp3485
sg71
g3457
sg64
(lp3486
g57
(g78
g59
NtRp3487
(dp3488
g62
(dp3489
g82
g83
ssg71
g3483
sg64
(lp3490
S'amount_billed'
p3491
asbag57
(g78
g59
NtRp3492
(dp3493
g62
(dp3494
g89
g90
ssg71
g3483
sg64
(lp3495
S':'
asbag57
(g78
g59
NtRp3496
(dp3497
g62
(dp3498
sg71
g3483
sg64
(lp3499
g57
(g58
g59
NtRp3500
(dp3501
g62
(dp3502
g70
I5
ssg71
g3496
sg64
(lp3503
S'0.0'
p3504
asbasbasbag57
(g73
g59
NtRp3505
(dp3506
g62
(dp3507
sg71
g3457
sg64
(lp3508
g57
(g78
g59
NtRp3509
(dp3510
g62
(dp3511
g82
g83
ssg71
g3505
sg64
(lp3512
S'amount_paid'
p3513
asbag57
(g78
g59
NtRp3514
(dp3515
g62
(dp3516
g89
g90
ssg71
g3505
sg64
(lp3517
S':'
asbag57
(g78
g59
NtRp3518
(dp3519
g62
(dp3520
sg71
g3505
sg64
(lp3521
g57
(g58
g59
NtRp3522
(dp3523
g62
(dp3524
g70
I5
ssg71
g3518
sg64
(lp3525
S'0.0'
p3526
asbasbasbag57
(g73
g59
NtRp3527
(dp3528
g62
(dp3529
sg71
g3457
sg64
(lp3530
g57
(g78
g59
NtRp3531
(dp3532
g62
(dp3533
g82
g83
ssg71
g3527
sg64
(lp3534
S'amount_subtracted'
p3535
asbag57
(g78
g59
NtRp3536
(dp3537
g62
(dp3538
g89
g90
ssg71
g3527
sg64
(lp3539
S':'
asbag57
(g78
g59
NtRp3540
(dp3541
g62
(dp3542
sg71
g3527
sg64
(lp3543
g57
(g58
g59
NtRp3544
(dp3545
g62
(dp3546
g70
I5
ssg71
g3540
sg64
(lp3547
S'0.0'
p3548
asbasbasbag57
(g73
g59
NtRp3549
(dp3550
g62
(dp3551
sg71
g3457
sg64
(lp3552
g57
(g78
g59
NtRp3553
(dp3554
g62
(dp3555
g82
g83
ssg71
g3549
sg64
(lp3556
S'auth'
p3557
asbag57
(g78
g59
NtRp3558
(dp3559
g62
(dp3560
g89
g90
ssg71
g3549
sg64
(lp3561
S':'
asbag57
(g78
g59
NtRp3562
(dp3563
g62
(dp3564
sg71
g3549
sg64
(lp3565
g57
(g58
g59
NtRp3566
(dp3567
g62
(dp3568
g70
I5
ssg71
g3562
sg64
(lp3569
g57
(g66
g59
NtRp3570
(dp3571
g62
(dp3572
g70
I4
ssg71
Nsg64
(lp3573
g57
(g73
g59
NtRp3574
(dp3575
g62
(dp3576
sg71
g3570
sg64
(lp3577
g57
(g78
g59
NtRp3578
(dp3579
g62
(dp3580
g82
g83
ssg71
g3574
sg64
(lp3581
S'expiration'
p3582
asbag57
(g78
g59
NtRp3583
(dp3584
g62
(dp3585
g89
g90
ssg71
g3574
sg64
(lp3586
S':'
asbag57
(g78
g59
NtRp3587
(dp3588
g62
(dp3589
sg71
g3574
sg64
(lp3590
g57
(g58
g59
NtRp3591
(dp3592
g62
(dp3593
g70
I4
ssg71
g3587
sg64
(lp3594
S'3600'
p3595
asbasbasbag57
(g73
g59
NtRp3596
(dp3597
g62
(dp3598
sg71
g3570
sg64
(lp3599
g57
(g78
g59
NtRp3600
(dp3601
g62
(dp3602
g82
g83
ssg71
g3596
sg64
(lp3603
S'hmac_key'
p3604
asbag57
(g78
g59
NtRp3605
(dp3606
g62
(dp3607
g89
g90
ssg71
g3596
sg64
(lp3608
S':'
asbag57
(g78
g59
NtRp3609
(dp3610
g62
(dp3611
sg71
g3596
sg64
(lp3612
g57
(g58
g59
NtRp3613
(dp3614
g62
(dp3615
g70
I4
ssg71
g3609
sg64
(lp3616
S'045d0b9c-7347-403d-bb13-cdac39166793'
p3617
asbasbasbag57
(g73
g59
NtRp3618
(dp3619
g62
(dp3620
sg71
g3570
sg64
(lp3621
g57
(g78
g59
NtRp3622
(dp3623
g62
(dp3624
g82
g83
ssg71
g3618
sg64
(lp3625
S'last_visit'
p3626
asbag57
(g78
g59
NtRp3627
(dp3628
g62
(dp3629
g89
g90
ssg71
g3618
sg64
(lp3630
S':'
asbag57
(g78
g59
NtRp3631
(dp3632
g62
(dp3633
sg71
g3618
sg64
(lp3634
g57
(g58
g59
NtRp3635
(dp3636
g62
(dp3637
g70
I4
ssg71
g3631
sg64
(lp3638
S'datetime.datetime(2012, 3, 9, 18, 39, 5, 802005)'
p3639
asbasbasbag57
(g73
g59
NtRp3640
(dp3641
g62
(dp3642
sg71
g3570
sg64
(lp3643
g57
(g78
g59
NtRp3644
(dp3645
g62
(dp3646
g82
g83
ssg71
g3640
sg64
(lp3647
S'remember'
p3648
asbag57
(g78
g59
NtRp3649
(dp3650
g62
(dp3651
g89
g90
ssg71
g3640
sg64
(lp3652
S':'
asbag57
(g78
g59
NtRp3653
(dp3654
g62
(dp3655
sg71
g3640
sg64
(lp3656
g57
(g58
g59
NtRp3657
(dp3658
g62
(dp3659
g70
I4
ssg71
g3653
sg64
(lp3660
g100
asbasbasbag57
(g73
g59
NtRp3661
(dp3662
g62
(dp3663
sg71
g3570
sg64
(lp3664
g57
(g78
g59
NtRp3665
(dp3666
g62
(dp3667
g82
g83
ssg71
g3661
sg64
(lp3668
S'user'
p3669
asbag57
(g78
g59
NtRp3670
(dp3671
g62
(dp3672
g89
g90
ssg71
g3661
sg64
(lp3673
S':'
asbag57
(g78
g59
NtRp3674
(dp3675
g62
(dp3676
sg71
g3661
sg64
(lp3677
g57
(g58
g59
NtRp3678
(dp3679
g62
(dp3680
g70
I4
ssg71
g3674
sg64
(lp3681
g57
(g66
g59
NtRp3682
(dp3683
g62
(dp3684
g70
I3
ssg71
Nsg64
(lp3685
g57
(g73
g59
NtRp3686
(dp3687
g62
(dp3688
sg71
g3682
sg64
(lp3689
g57
(g78
g59
NtRp3690
(dp3691
g62
(dp3692
g82
g83
ssg71
g3686
sg64
(lp3693
S'address'
p3694
asbag57
(g78
g59
NtRp3695
(dp3696
g62
(dp3697
g89
g90
ssg71
g3686
sg64
(lp3698
S':'
asbag57
(g78
g59
NtRp3699
(dp3700
g62
(dp3701
sg71
g3686
sg64
(lp3702
g57
(g58
g59
NtRp3703
(dp3704
g62
(dp3705
g70
I3
ssg71
g3699
sg64
(lp3706
S'Santa Lucia S/N'
p3707
asbasbasbag57
(g73
g59
NtRp3708
(dp3709
g62
(dp3710
sg71
g3682
sg64
(lp3711
g57
(g78
g59
NtRp3712
(dp3713
g62
(dp3714
g82
g83
ssg71
g3708
sg64
(lp3715
S'amount_added'
p3716
asbag57
(g78
g59
NtRp3717
(dp3718
g62
(dp3719
g89
g90
ssg71
g3708
sg64
(lp3720
S':'
asbag57
(g78
g59
NtRp3721
(dp3722
g62
(dp3723
sg71
g3708
sg64
(lp3724
g57
(g58
g59
NtRp3725
(dp3726
g62
(dp3727
g70
I3
ssg71
g3721
sg64
(lp3728
S'0.0'
p3729
asbasbasbag57
(g73
g59
NtRp3730
(dp3731
g62
(dp3732
sg71
g3682
sg64
(lp3733
g57
(g78
g59
NtRp3734
(dp3735
g62
(dp3736
g82
g83
ssg71
g3730
sg64
(lp3737
S'amount_billed'
p3738
asbag57
(g78
g59
NtRp3739
(dp3740
g62
(dp3741
g89
g90
ssg71
g3730
sg64
(lp3742
S':'
asbag57
(g78
g59
NtRp3743
(dp3744
g62
(dp3745
sg71
g3730
sg64
(lp3746
g57
(g58
g59
NtRp3747
(dp3748
g62
(dp3749
g70
I3
ssg71
g3743
sg64
(lp3750
S'0.0'
p3751
asbasbasbag57
(g73
g59
NtRp3752
(dp3753
g62
(dp3754
sg71
g3682
sg64
(lp3755
g57
(g78
g59
NtRp3756
(dp3757
g62
(dp3758
g82
g83
ssg71
g3752
sg64
(lp3759
S'amount_due'
p3760
asbag57
(g78
g59
NtRp3761
(dp3762
g62
(dp3763
g89
g90
ssg71
g3752
sg64
(lp3764
S':'
asbag57
(g78
g59
NtRp3765
(dp3766
g62
(dp3767
sg71
g3752
sg64
(lp3768
g57
(g58
g59
NtRp3769
(dp3770
g62
(dp3771
g70
I3
ssg71
g3765
sg64
(lp3772
S'0.0'
p3773
asbasbasbag57
(g73
g59
NtRp3774
(dp3775
g62
(dp3776
sg71
g3682
sg64
(lp3777
g57
(g78
g59
NtRp3778
(dp3779
g62
(dp3780
g82
g83
ssg71
g3774
sg64
(lp3781
S'amount_paid'
p3782
asbag57
(g78
g59
NtRp3783
(dp3784
g62
(dp3785
g89
g90
ssg71
g3774
sg64
(lp3786
S':'
asbag57
(g78
g59
NtRp3787
(dp3788
g62
(dp3789
sg71
g3774
sg64
(lp3790
g57
(g58
g59
NtRp3791
(dp3792
g62
(dp3793
g70
I3
ssg71
g3787
sg64
(lp3794
S'0.0'
p3795
asbasbasbag57
(g73
g59
NtRp3796
(dp3797
g62
(dp3798
sg71
g3682
sg64
(lp3799
g57
(g78
g59
NtRp3800
(dp3801
g62
(dp3802
g82
g83
ssg71
g3796
sg64
(lp3803
S'amount_subtracted'
p3804
asbag57
(g78
g59
NtRp3805
(dp3806
g62
(dp3807
g89
g90
ssg71
g3796
sg64
(lp3808
S':'
asbag57
(g78
g59
NtRp3809
(dp3810
g62
(dp3811
sg71
g3796
sg64
(lp3812
g57
(g58
g59
NtRp3813
(dp3814
g62
(dp3815
g70
I3
ssg71
g3809
sg64
(lp3816
S'0.0'
p3817
asbasbasbag57
(g73
g59
NtRp3818
(dp3819
g62
(dp3820
sg71
g3682
sg64
(lp3821
g57
(g78
g59
NtRp3822
(dp3823
g62
(dp3824
g82
g83
ssg71
g3818
sg64
(lp3825
S'attendee_type'
p3826
asbag57
(g78
g59
NtRp3827
(dp3828
g62
(dp3829
g89
g90
ssg71
g3818
sg64
(lp3830
S':'
asbag57
(g78
g59
NtRp3831
(dp3832
g62
(dp3833
sg71
g3818
sg64
(lp3834
g57
(g58
g59
NtRp3835
(dp3836
g62
(dp3837
g70
I3
ssg71
g3831
sg64
(lp3838
S'gratis'
p3839
asbasbasbag57
(g73
g59
NtRp3840
(dp3841
g62
(dp3842
sg71
g3682
sg64
(lp3843
g57
(g78
g59
NtRp3844
(dp3845
g62
(dp3846
g82
g83
ssg71
g3840
sg64
(lp3847
S'city'
p3848
asbag57
(g78
g59
NtRp3849
(dp3850
g62
(dp3851
g89
g90
ssg71
g3840
sg64
(lp3852
S':'
asbag57
(g78
g59
NtRp3853
(dp3854
g62
(dp3855
sg71
g3840
sg64
(lp3856
g57
(g58
g59
NtRp3857
(dp3858
g62
(dp3859
g70
I3
ssg71
g3853
sg64
(lp3860
S'Salta'
p3861
asbasbasbag57
(g73
g59
NtRp3862
(dp3863
g62
(dp3864
sg71
g3682
sg64
(lp3865
g57
(g78
g59
NtRp3866
(dp3867
g62
(dp3868
g82
g83
ssg71
g3862
sg64
(lp3869
S'company_home_page'
p3870
asbag57
(g78
g59
NtRp3871
(dp3872
g62
(dp3873
g89
g90
ssg71
g3862
sg64
(lp3874
S':'
asbag57
(g78
g59
NtRp3875
(dp3876
g62
(dp3877
sg71
g3862
sg64
(lp3878
g57
(g58
g59
NtRp3879
(dp3880
g62
(dp3881
g70
I3
ssg71
g3875
sg64
(lp3882
S'http://www.esdebian.org'
p3883
asbasbasbag57
(g73
g59
NtRp3884
(dp3885
g62
(dp3886
sg71
g3682
sg64
(lp3887
g57
(g78
g59
NtRp3888
(dp3889
g62
(dp3890
g82
g83
ssg71
g3884
sg64
(lp3891
S'company_name'
p3892
asbag57
(g78
g59
NtRp3893
(dp3894
g62
(dp3895
g89
g90
ssg71
g3884
sg64
(lp3896
S':'
asbag57
(g78
g59
NtRp3897
(dp3898
g62
(dp3899
sg71
g3884
sg64
(lp3900
g57
(g58
g59
NtRp3901
(dp3902
g62
(dp3903
g70
I3
ssg71
g3897
sg64
(lp3904
S'Debian OS'
p3905
asbasbasbag57
(g73
g59
NtRp3906
(dp3907
g62
(dp3908
sg71
g3682
sg64
(lp3909
g57
(g78
g59
NtRp3910
(dp3911
g62
(dp3912
g82
g83
ssg71
g3906
sg64
(lp3913
S'country'
p3914
asbag57
(g78
g59
NtRp3915
(dp3916
g62
(dp3917
g89
g90
ssg71
g3906
sg64
(lp3918
S':'
asbag57
(g78
g59
NtRp3919
(dp3920
g62
(dp3921
sg71
g3906
sg64
(lp3922
g57
(g58
g59
NtRp3923
(dp3924
g62
(dp3925
g70
I3
ssg71
g3919
sg64
(lp3926
S'Argentina'
p3927
asbasbasbag57
(g73
g59
NtRp3928
(dp3929
g62
(dp3930
sg71
g3682
sg64
(lp3931
g57
(g78
g59
NtRp3932
(dp3933
g62
(dp3934
g82
g83
ssg71
g3928
sg64
(lp3935
S'created_by_ip'
p3936
asbag57
(g78
g59
NtRp3937
(dp3938
g62
(dp3939
g89
g90
ssg71
g3928
sg64
(lp3940
S':'
asbag57
(g78
g59
NtRp3941
(dp3942
g62
(dp3943
sg71
g3928
sg64
(lp3944
g57
(g58
g59
NtRp3945
(dp3946
g62
(dp3947
g70
I3
ssg71
g3941
sg64
(lp3948
S'127.0.0.1'
p3949
asbasbasbag57
(g73
g59
NtRp3950
(dp3951
g62
(dp3952
sg71
g3682
sg64
(lp3953
g57
(g78
g59
NtRp3954
(dp3955
g62
(dp3956
g82
g83
ssg71
g3950
sg64
(lp3957
S'created_on'
p3958
asbag57
(g78
g59
NtRp3959
(dp3960
g62
(dp3961
g89
g90
ssg71
g3950
sg64
(lp3962
S':'
asbag57
(g78
g59
NtRp3963
(dp3964
g62
(dp3965
sg71
g3950
sg64
(lp3966
g57
(g58
g59
NtRp3967
(dp3968
g62
(dp3969
g70
I3
ssg71
g3963
sg64
(lp3970
S'datetime.datetime(2012, 3, 9, 2, 56, 49)'
p3971
asbasbasbag57
(g73
g59
NtRp3972
(dp3973
g62
(dp3974
sg71
g3682
sg64
(lp3975
g57
(g78
g59
NtRp3976
(dp3977
g62
(dp3978
g82
g83
ssg71
g3972
sg64
(lp3979
S'discount_coupon'
p3980
asbag57
(g78
g59
NtRp3981
(dp3982
g62
(dp3983
g89
g90
ssg71
g3972
sg64
(lp3984
S':'
asbag57
(g78
g59
NtRp3985
(dp3986
g62
(dp3987
sg71
g3972
sg64
(lp3988
g57
(g58
g59
NtRp3989
(dp3990
g62
(dp3991
g70
I3
ssg71
g3985
sg64
(lp3992
S'None'
p3993
asbasbasbag57
(g73
g59
NtRp3994
(dp3995
g62
(dp3996
sg71
g3682
sg64
(lp3997
g57
(g78
g59
NtRp3998
(dp3999
g62
(dp4000
g82
g83
ssg71
g3994
sg64
(lp4001
S'donation'
p4002
asbag57
(g78
g59
NtRp4003
(dp4004
g62
(dp4005
g89
g90
ssg71
g3994
sg64
(lp4006
S':'
asbag57
(g78
g59
NtRp4007
(dp4008
g62
(dp4009
sg71
g3994
sg64
(lp4010
g57
(g58
g59
NtRp4011
(dp4012
g62
(dp4013
g70
I3
ssg71
g4007
sg64
(lp4014
S'0.0'
p4015
asbasbasbag57
(g73
g59
NtRp4016
(dp4017
g62
(dp4018
sg71
g3682
sg64
(lp4019
g57
(g78
g59
NtRp4020
(dp4021
g62
(dp4022
g82
g83
ssg71
g4016
sg64
(lp4023
S'email'
p4024
asbag57
(g78
g59
NtRp4025
(dp4026
g62
(dp4027
g89
g90
ssg71
g4016
sg64
(lp4028
S':'
asbag57
(g78
g59
NtRp4029
(dp4030
g62
(dp4031
sg71
g4016
sg64
(lp4032
g57
(g58
g59
NtRp4033
(dp4034
g62
(dp4035
g70
I3
ssg71
g4029
sg64
(lp4036
S'marco@saltalug.org.ar'
p4037
asbasbasbag57
(g73
g59
NtRp4038
(dp4039
g62
(dp4040
sg71
g3682
sg64
(lp4041
g57
(g78
g59
NtRp4042
(dp4043
g62
(dp4044
g82
g83
ssg71
g4038
sg64
(lp4045
S'first_name'
p4046
asbag57
(g78
g59
NtRp4047
(dp4048
g62
(dp4049
g89
g90
ssg71
g4038
sg64
(lp4050
S':'
asbag57
(g78
g59
NtRp4051
(dp4052
g62
(dp4053
sg71
g4038
sg64
(lp4054
g57
(g58
g59
NtRp4055
(dp4056
g62
(dp4057
g70
I3
ssg71
g4051
sg64
(lp4058
S'Marco'
p4059
asbasbasbag57
(g73
g59
NtRp4060
(dp4061
g62
(dp4062
sg71
g3682
sg64
(lp4063
g57
(g78
g59
NtRp4064
(dp4065
g62
(dp4066
g82
g83
ssg71
g4060
sg64
(lp4067
S'id'
p4068
asbag57
(g78
g59
NtRp4069
(dp4070
g62
(dp4071
g89
g90
ssg71
g4060
sg64
(lp4072
S':'
asbag57
(g78
g59
NtRp4073
(dp4074
g62
(dp4075
sg71
g4060
sg64
(lp4076
g57
(g58
g59
NtRp4077
(dp4078
g62
(dp4079
g70
I3
ssg71
g4073
sg64
(lp4080
S'55'
p4081
asbasbasbag57
(g73
g59
NtRp4082
(dp4083
g62
(dp4084
sg71
g3682
sg64
(lp4085
g57
(g78
g59
NtRp4086
(dp4087
g62
(dp4088
g82
g83
ssg71
g4082
sg64
(lp4089
S'include_in_delegate_listing'
p4090
asbag57
(g78
g59
NtRp4091
(dp4092
g62
(dp4093
g89
g90
ssg71
g4082
sg64
(lp4094
S':'
asbag57
(g78
g59
NtRp4095
(dp4096
g62
(dp4097
sg71
g4082
sg64
(lp4098
g57
(g58
g59
NtRp4099
(dp4100
g62
(dp4101
g70
I3
ssg71
g4095
sg64
(lp4102
g1949
asbasbasbag57
(g73
g59
NtRp4103
(dp4104
g62
(dp4105
sg71
g3682
sg64
(lp4106
g57
(g78
g59
NtRp4107
(dp4108
g62
(dp4109
g82
g83
ssg71
g4103
sg64
(lp4110
S'installfest_hardware'
p4111
asbag57
(g78
g59
NtRp4112
(dp4113
g62
(dp4114
g89
g90
ssg71
g4103
sg64
(lp4115
S':'
asbag57
(g78
g59
NtRp4116
(dp4117
g62
(dp4118
sg71
g4103
sg64
(lp4119
g57
(g58
g59
NtRp4120
(dp4121
g62
(dp4122
g70
I3
ssg71
g4116
sg64
(lp4123
S'kakafono'
p4124
asbasbasbag57
(g73
g59
NtRp4125
(dp4126
g62
(dp4127
sg71
g3682
sg64
(lp4128
g57
(g78
g59
NtRp4129
(dp4130
g62
(dp4131
g82
g83
ssg71
g4125
sg64
(lp4132
S'installfest_os'
p4133
asbag57
(g78
g59
NtRp4134
(dp4135
g62
(dp4136
g89
g90
ssg71
g4125
sg64
(lp4137
S':'
asbag57
(g78
g59
NtRp4138
(dp4139
g62
(dp4140
sg71
g4125
sg64
(lp4141
g57
(g58
g59
NtRp4142
(dp4143
g62
(dp4144
g70
I3
ssg71
g4138
sg64
(lp4145
S'Debian'
p4146
asbasbasbag57
(g73
g59
NtRp4147
(dp4148
g62
(dp4149
sg71
g3682
sg64
(lp4150
g57
(g78
g59
NtRp4151
(dp4152
g62
(dp4153
g82
g83
ssg71
g4147
sg64
(lp4154
S'last_name'
p4155
asbag57
(g78
g59
NtRp4156
(dp4157
g62
(dp4158
g89
g90
ssg71
g4147
sg64
(lp4159
S':'
asbag57
(g78
g59
NtRp4160
(dp4161
g62
(dp4162
sg71
g4147
sg64
(lp4163
g57
(g58
g59
NtRp4164
(dp4165
g62
(dp4166
g70
I3
ssg71
g4160
sg64
(lp4167
S'Mansilla'
p4168
asbasbasbag57
(g73
g59
NtRp4169
(dp4170
g62
(dp4171
sg71
g3682
sg64
(lp4172
g57
(g78
g59
NtRp4173
(dp4174
g62
(dp4175
g82
g83
ssg71
g4169
sg64
(lp4176
S'latitude'
p4177
asbag57
(g78
g59
NtRp4178
(dp4179
g62
(dp4180
g89
g90
ssg71
g4169
sg64
(lp4181
S':'
asbag57
(g78
g59
NtRp4182
(dp4183
g62
(dp4184
sg71
g4169
sg64
(lp4185
g57
(g58
g59
NtRp4186
(dp4187
g62
(dp4188
g70
I3
ssg71
g4182
sg64
(lp4189
S'-24.8442777'
p4190
asbasbasbag57
(g73
g59
NtRp4191
(dp4192
g62
(dp4193
sg71
g3682
sg64
(lp4194
g57
(g78
g59
NtRp4195
(dp4196
g62
(dp4197
g82
g83
ssg71
g4191
sg64
(lp4198
S'longitude'
p4199
asbag57
(g78
g59
NtRp4200
(dp4201
g62
(dp4202
g89
g90
ssg71
g4191
sg64
(lp4203
S':'
asbag57
(g78
g59
NtRp4204
(dp4205
g62
(dp4206
sg71
g4191
sg64
(lp4207
g57
(g58
g59
NtRp4208
(dp4209
g62
(dp4210
g70
I3
ssg71
g4204
sg64
(lp4211
S'-65.4787676'
p4212
asbasbasbag57
(g73
g59
NtRp4213
(dp4214
g62
(dp4215
sg71
g3682
sg64
(lp4216
g57
(g78
g59
NtRp4217
(dp4218
g62
(dp4219
g82
g83
ssg71
g4213
sg64
(lp4220
S'manager'
p4221
asbag57
(g78
g59
NtRp4222
(dp4223
g62
(dp4224
g89
g90
ssg71
g4213
sg64
(lp4225
S':'
asbag57
(g78
g59
NtRp4226
(dp4227
g62
(dp4228
sg71
g4213
sg64
(lp4229
g57
(g58
g59
NtRp4230
(dp4231
g62
(dp4232
g70
I3
ssg71
g4226
sg64
(lp4233
g1949
asbasbasbag57
(g73
g59
NtRp4234
(dp4235
g62
(dp4236
sg71
g3682
sg64
(lp4237
g57
(g78
g59
NtRp4238
(dp4239
g62
(dp4240
g82
g83
ssg71
g4234
sg64
(lp4241
S'password'
p4242
asbag57
(g78
g59
NtRp4243
(dp4244
g62
(dp4245
g89
g90
ssg71
g4234
sg64
(lp4246
S':'
asbag57
(g78
g59
NtRp4247
(dp4248
g62
(dp4249
sg71
g4234
sg64
(lp4250
g57
(g58
g59
NtRp4251
(dp4252
g62
(dp4253
g70
I3
ssg71
g4247
sg64
(lp4254
S'121c120f6831e94b12b41d853c3f672b'
p4255
asbasbasbag57
(g73
g59
NtRp4256
(dp4257
g62
(dp4258
sg71
g3682
sg64
(lp4259
g57
(g78
g59
NtRp4260
(dp4261
g62
(dp4262
g82
g83
ssg71
g4256
sg64
(lp4263
S'personal_home_page'
p4264
asbag57
(g78
g59
NtRp4265
(dp4266
g62
(dp4267
g89
g90
ssg71
g4256
sg64
(lp4268
S':'
asbag57
(g78
g59
NtRp4269
(dp4270
g62
(dp4271
sg71
g4256
sg64
(lp4272
g57
(g58
g59
NtRp4273
(dp4274
g62
(dp4275
g70
I3
ssg71
g4269
sg64
(lp4276
S'http://www.esdebian.org'
p4277
asbasbasbag57
(g73
g59
NtRp4278
(dp4279
g62
(dp4280
sg71
g3682
sg64
(lp4281
g57
(g78
g59
NtRp4282
(dp4283
g62
(dp4284
g82
g83
ssg71
g4278
sg64
(lp4285
S'phone_number'
p4286
asbag57
(g78
g59
NtRp4287
(dp4288
g62
(dp4289
g89
g90
ssg71
g4278
sg64
(lp4290
S':'
asbag57
(g78
g59
NtRp4291
(dp4292
g62
(dp4293
sg71
g4278
sg64
(lp4294
g57
(g58
g59
NtRp4295
(dp4296
g62
(dp4297
g70
I3
ssg71
g4291
sg64
(lp4298
S'76543456789'
p4299
asbasbasbag57
(g73
g59
NtRp4300
(dp4301
g62
(dp4302
sg71
g3682
sg64
(lp4303
g57
(g78
g59
NtRp4304
(dp4305
g62
(dp4306
g82
g83
ssg71
g4300
sg64
(lp4307
S'registration_key'
p4308
asbag57
(g78
g59
NtRp4309
(dp4310
g62
(dp4311
g89
g90
ssg71
g4300
sg64
(lp4312
S':'
asbag57
(g78
g59
NtRp4313
(dp4314
g62
(dp4315
sg71
g4300
sg64
(lp4316
g57
(g58
g59
NtRp4317
(dp4318
g62
(dp4319
g70
I3
ssg71
g4313
sg64
(lp4320
S''
asbasbasbag57
(g73
g59
NtRp4321
(dp4322
g62
(dp4323
sg71
g3682
sg64
(lp4324
g57
(g78
g59
NtRp4325
(dp4326
g62
(dp4327
g82
g83
ssg71
g4321
sg64
(lp4328
S'resume'
p4329
asbag57
(g78
g59
NtRp4330
(dp4331
g62
(dp4332
g89
g90
ssg71
g4321
sg64
(lp4333
S':'
asbag57
(g78
g59
NtRp4334
(dp4335
g62
(dp4336
sg71
g4321
sg64
(lp4337
g57
(g58
g59
NtRp4338
(dp4339
g62
(dp4340
g70
I3
ssg71
g4334
sg64
(lp4341
S'None'
p4342
asbasbasbag57
(g73
g59
NtRp4343
(dp4344
g62
(dp4345
sg71
g3682
sg64
(lp4346
g57
(g78
g59
NtRp4347
(dp4348
g62
(dp4349
g82
g83
ssg71
g4343
sg64
(lp4350
S'reviewer'
p4351
asbag57
(g78
g59
NtRp4352
(dp4353
g62
(dp4354
g89
g90
ssg71
g4343
sg64
(lp4355
S':'
asbag57
(g78
g59
NtRp4356
(dp4357
g62
(dp4358
sg71
g4343
sg64
(lp4359
g57
(g58
g59
NtRp4360
(dp4361
g62
(dp4362
g70
I3
ssg71
g4356
sg64
(lp4363
g1949
asbasbasbag57
(g73
g59
NtRp4364
(dp4365
g62
(dp4366
sg71
g3682
sg64
(lp4367
g57
(g78
g59
NtRp4368
(dp4369
g62
(dp4370
g82
g83
ssg71
g4364
sg64
(lp4371
S'session_chair'
p4372
asbag57
(g78
g59
NtRp4373
(dp4374
g62
(dp4375
g89
g90
ssg71
g4364
sg64
(lp4376
S':'
asbag57
(g78
g59
NtRp4377
(dp4378
g62
(dp4379
sg71
g4364
sg64
(lp4380
g57
(g58
g59
NtRp4381
(dp4382
g62
(dp4383
g70
I3
ssg71
g4377
sg64
(lp4384
g100
asbasbasbag57
(g73
g59
NtRp4385
(dp4386
g62
(dp4387
sg71
g3682
sg64
(lp4388
g57
(g78
g59
NtRp4389
(dp4390
g62
(dp4391
g82
g83
ssg71
g4385
sg64
(lp4392
S'speaker'
p4393
asbag57
(g78
g59
NtRp4394
(dp4395
g62
(dp4396
g89
g90
ssg71
g4385
sg64
(lp4397
S':'
asbag57
(g78
g59
NtRp4398
(dp4399
g62
(dp4400
sg71
g4385
sg64
(lp4401
g57
(g58
g59
NtRp4402
(dp4403
g62
(dp4404
g70
I3
ssg71
g4398
sg64
(lp4405
g100
asbasbasbag57
(g73
g59
NtRp4406
(dp4407
g62
(dp4408
sg71
g3682
sg64
(lp4409
g57
(g78
g59
NtRp4410
(dp4411
g62
(dp4412
g82
g83
ssg71
g4406
sg64
(lp4413
S'state'
p4414
asbag57
(g78
g59
NtRp4415
(dp4416
g62
(dp4417
g89
g90
ssg71
g4406
sg64
(lp4418
S':'
asbag57
(g78
g59
NtRp4419
(dp4420
g62
(dp4421
sg71
g4406
sg64
(lp4422
g57
(g58
g59
NtRp4423
(dp4424
g62
(dp4425
g70
I3
ssg71
g4419
sg64
(lp4426
S'Salta'
p4427
asbasbasbag57
(g73
g59
NtRp4428
(dp4429
g62
(dp4430
sg71
g3682
sg64
(lp4431
g57
(g78
g59
NtRp4432
(dp4433
g62
(dp4434
g82
g83
ssg71
g4428
sg64
(lp4435
S'tutorials'
p4436
asbag57
(g78
g59
NtRp4437
(dp4438
g62
(dp4439
g89
g90
ssg71
g4428
sg64
(lp4440
S':'
asbag57
(g78
g59
NtRp4441
(dp4442
g62
(dp4443
sg71
g4428
sg64
(lp4444
g57
(g58
g59
NtRp4445
(dp4446
g62
(dp4447
g70
I3
ssg71
g4441
sg64
(lp4448
S'None'
p4449
asbasbasbag57
(g73
g59
NtRp4450
(dp4451
g62
(dp4452
sg71
g3682
sg64
(lp4453
g57
(g78
g59
NtRp4454
(dp4455
g62
(dp4456
g82
g83
ssg71
g4450
sg64
(lp4457
S'zip_code'
p4458
asbag57
(g78
g59
NtRp4459
(dp4460
g62
(dp4461
g89
g90
ssg71
g4450
sg64
(lp4462
S':'
asbag57
(g78
g59
NtRp4463
(dp4464
g62
(dp4465
sg71
g4450
sg64
(lp4466
g57
(g58
g59
NtRp4467
(dp4468
g62
(dp4469
g70
I3
ssg71
g4463
sg64
(lp4470
S'4400'
p4471
asbasbasbasbasbasbasbag57
(g73
g59
NtRp4472
(dp4473
g62
(dp4474
sg71
g3570
sg64
(lp4475
g57
(g78
g59
NtRp4476
(dp4477
g62
(dp4478
g82
g83
ssg71
g4472
sg64
(lp4479
S'user_groups'
p4480
asbag57
(g78
g59
NtRp4481
(dp4482
g62
(dp4483
g89
g90
ssg71
g4472
sg64
(lp4484
S':'
asbag57
(g78
g59
NtRp4485
(dp4486
g62
(dp4487
sg71
g4472
sg64
(lp4488
g57
(g58
g59
NtRp4489
(dp4490
g62
(dp4491
g70
I4
ssg71
g4485
sg64
(lp4492
g57
(g66
g59
NtRp4493
(dp4494
g62
(dp4495
g70
I3
ssg71
Nsg64
(lp4496
g57
(g73
g59
NtRp4497
(dp4498
g62
(dp4499
sg71
g4493
sg64
(lp4500
g57
(g78
g59
NtRp4501
(dp4502
g62
(dp4503
g82
g83
ssg71
g4497
sg64
(lp4504
S'15'
p4505
asbag57
(g78
g59
NtRp4506
(dp4507
g62
(dp4508
g89
g90
ssg71
g4497
sg64
(lp4509
S':'
asbag57
(g78
g59
NtRp4510
(dp4511
g62
(dp4512
sg71
g4497
sg64
(lp4513
g57
(g58
g59
NtRp4514
(dp4515
g62
(dp4516
g70
I3
ssg71
g4510
sg64
(lp4517
S'plugin_flatpages'
p4518
asbasbasbasbasbasbasbasbasbasbasbag57
(g73
g59
NtRp4519
(dp4520
g62
(dp4521
sg71
g3457
sg64
(lp4522
g57
(g78
g59
NtRp4523
(dp4524
g62
(dp4525
g82
g83
ssg71
g4519
sg64
(lp4526
S'balance'
p4527
asbag57
(g78
g59
NtRp4528
(dp4529
g62
(dp4530
g89
g90
ssg71
g4519
sg64
(lp4531
S':'
asbag57
(g78
g59
NtRp4532
(dp4533
g62
(dp4534
sg71
g4519
sg64
(lp4535
g57
(g58
g59
NtRp4536
(dp4537
g62
(dp4538
g70
I5
ssg71
g4532
sg64
(lp4539
S'0.0'
p4540
asbasbasbag57
(g73
g59
NtRp4541
(dp4542
g62
(dp4543
sg71
g3457
sg64
(lp4544
g57
(g78
g59
NtRp4545
(dp4546
g62
(dp4547
g82
g83
ssg71
g4541
sg64
(lp4548
S'manager'
p4549
asbag57
(g78
g59
NtRp4550
(dp4551
g62
(dp4552
g89
g90
ssg71
g4541
sg64
(lp4553
S':'
asbag57
(g78
g59
NtRp4554
(dp4555
g62
(dp4556
sg71
g4541
sg64
(lp4557
g57
(g58
g59
NtRp4558
(dp4559
g62
(dp4560
g70
I5
ssg71
g4554
sg64
(lp4561
g1949
asbasbasbag57
(g73
g59
NtRp4562
(dp4563
g62
(dp4564
sg71
g3457
sg64
(lp4565
g57
(g78
g59
NtRp4566
(dp4567
g62
(dp4568
g82
g83
ssg71
g4562
sg64
(lp4569
S't2'
p4570
asbag57
(g78
g59
NtRp4571
(dp4572
g62
(dp4573
g89
g90
ssg71
g4562
sg64
(lp4574
S':'
asbag57
(g78
g59
NtRp4575
(dp4576
g62
(dp4577
sg71
g4562
sg64
(lp4578
g57
(g58
g59
NtRp4579
(dp4580
g62
(dp4581
g70
I5
ssg71
g4575
sg64
(lp4582
g57
(g66
g59
NtRp4583
(dp4584
g62
(dp4585
g70
I4
ssg71
Nsg64
(lp4586
g57
(g73
g59
NtRp4587
(dp4588
g62
(dp4589
sg71
g4583
sg64
(lp4590
g57
(g78
g59
NtRp4591
(dp4592
g62
(dp4593
g82
g83
ssg71
g4587
sg64
(lp4594
S'my_groups_id'
p4595
asbag57
(g78
g59
NtRp4596
(dp4597
g62
(dp4598
g89
g90
ssg71
g4587
sg64
(lp4599
S':'
asbag57
(g78
g59
NtRp4600
(dp4601
g62
(dp4602
sg71
g4587
sg64
(lp4603
g57
(g58
g59
NtRp4604
(dp4605
g62
(dp4606
g70
I4
ssg71
g4600
sg64
(lp4607
g57
(g66
g59
NtRp4608
(dp4609
g62
(dp4610
g70
I3
ssg71
Nsg64
(lp4611
sbasbasbasbasbasbasbasbasbasbsS'etype'
p4612
S"<type 'exceptions.NameError'>"
p4613
sS'date'
p4614
S'Fri Mar  9 18:39:05 2012'
p4615
sS'response'
p4616
g57
(g58
g59
NtRp4617
(dp4618
g62
(dp4619
sg64
(lp4620
g57
(g66
g59
NtRp4621
(dp4622
g62
(dp4623
g70
I5
ssg71
Nsg64
(lp4624
g57
(g73
g59
NtRp4625
(dp4626
g62
(dp4627
sg71
g4621
sg64
(lp4628
g57
(g78
g59
NtRp4629
(dp4630
g62
(dp4631
g82
g83
ssg71
g4625
sg64
(lp4632
g155
asbag57
(g78
g59
NtRp4633
(dp4634
g62
(dp4635
g89
g90
ssg71
g4625
sg64
(lp4636
S':'
asbag57
(g78
g59
NtRp4637
(dp4638
g62
(dp4639
sg71
g4625
sg64
(lp4640
g57
(g58
g59
NtRp4641
(dp4642
g62
(dp4643
g70
I5
ssg71
g4637
sg64
(lp4644
S'<cStringIO.StringO object at 0x7f4f101c4e30>'
p4645
asbasbasbag57
(g73
g59
NtRp4646
(dp4647
g62
(dp4648
sg71
g4621
sg64
(lp4649
g57
(g78
g59
NtRp4650
(dp4651
g62
(dp4652
g82
g83
ssg71
g4646
sg64
(lp4653
g221
asbag57
(g78
g59
NtRp4654
(dp4655
g62
(dp4656
g89
g90
ssg71
g4646
sg64
(lp4657
S':'
asbag57
(g78
g59
NtRp4658
(dp4659
g62
(dp4660
sg71
g4646
sg64
(lp4661
g57
(g58
g59
NtRp4662
(dp4663
g62
(dp4664
g70
I5
ssg71
g4658
sg64
(lp4665
g57
(g66
g59
NtRp4666
(dp4667
g62
(dp4668
g70
I4
ssg71
Nsg64
(lp4669
g57
(g73
g59
NtRp4670
(dp4671
g62
(dp4672
sg71
g4666
sg64
(lp4673
g57
(g78
g59
NtRp4674
(dp4675
g62
(dp4676
g82
g83
ssg71
g4670
sg64
(lp4677
S'session_id_flisol2012'
p4678
asbag57
(g78
g59
NtRp4679
(dp4680
g62
(dp4681
g89
g90
ssg71
g4670
sg64
(lp4682
S':'
asbag57
(g78
g59
NtRp4683
(dp4684
g62
(dp4685
sg71
g4670
sg64
(lp4686
g57
(g58
g59
NtRp4687
(dp4688
g62
(dp4689
g70
I4
ssg71
g4683
sg64
(lp4690
g57
(g66
g59
NtRp4691
(dp4692
g62
(dp4693
g70
I3
ssg71
Nsg64
(lp4694
g57
(g73
g59
NtRp4695
(dp4696
g62
(dp4697
sg71
g4691
sg64
(lp4698
g57
(g78
g59
NtRp4699
(dp4700
g62
(dp4701
g82
g83
ssg71
g4695
sg64
(lp4702
g271
asbag57
(g78
g59
NtRp4703
(dp4704
g62
(dp4705
g89
g90
ssg71
g4695
sg64
(lp4706
S':'
asbag57
(g78
g59
NtRp4707
(dp4708
g62
(dp4709
sg71
g4695
sg64
(lp4710
g57
(g58
g59
NtRp4711
(dp4712
g62
(dp4713
g70
I3
ssg71
g4707
sg64
(lp4714
S''
asbasbasbag57
(g73
g59
NtRp4715
(dp4716
g62
(dp4717
sg71
g4691
sg64
(lp4718
g57
(g78
g59
NtRp4719
(dp4720
g62
(dp4721
g82
g83
ssg71
g4715
sg64
(lp4722
g292
asbag57
(g78
g59
NtRp4723
(dp4724
g62
(dp4725
g89
g90
ssg71
g4715
sg64
(lp4726
S':'
asbag57
(g78
g59
NtRp4727
(dp4728
g62
(dp4729
sg71
g4715
sg64
(lp4730
g57
(g58
g59
NtRp4731
(dp4732
g62
(dp4733
g70
I3
ssg71
g4727
sg64
(lp4734
S''
asbasbasbag57
(g73
g59
NtRp4735
(dp4736
g62
(dp4737
sg71
g4691
sg64
(lp4738
g57
(g78
g59
NtRp4739
(dp4740
g62
(dp4741
g82
g83
ssg71
g4735
sg64
(lp4742
g313
asbag57
(g78
g59
NtRp4743
(dp4744
g62
(dp4745
g89
g90
ssg71
g4735
sg64
(lp4746
S':'
asbag57
(g78
g59
NtRp4747
(dp4748
g62
(dp4749
sg71
g4735
sg64
(lp4750
g57
(g58
g59
NtRp4751
(dp4752
g62
(dp4753
g70
I3
ssg71
g4747
sg64
(lp4754
S''
asbasbasbag57
(g73
g59
NtRp4755
(dp4756
g62
(dp4757
sg71
g4691
sg64
(lp4758
g57
(g78
g59
NtRp4759
(dp4760
g62
(dp4761
g82
g83
ssg71
g4755
sg64
(lp4762
g334
asbag57
(g78
g59
NtRp4763
(dp4764
g62
(dp4765
g89
g90
ssg71
g4755
sg64
(lp4766
S':'
asbag57
(g78
g59
NtRp4767
(dp4768
g62
(dp4769
sg71
g4755
sg64
(lp4770
g57
(g58
g59
NtRp4771
(dp4772
g62
(dp4773
g70
I3
ssg71
g4767
sg64
(lp4774
S''
asbasbasbag57
(g73
g59
NtRp4775
(dp4776
g62
(dp4777
sg71
g4691
sg64
(lp4778
g57
(g78
g59
NtRp4779
(dp4780
g62
(dp4781
g82
g83
ssg71
g4775
sg64
(lp4782
g355
asbag57
(g78
g59
NtRp4783
(dp4784
g62
(dp4785
g89
g90
ssg71
g4775
sg64
(lp4786
S':'
asbag57
(g78
g59
NtRp4787
(dp4788
g62
(dp4789
sg71
g4775
sg64
(lp4790
g57
(g58
g59
NtRp4791
(dp4792
g62
(dp4793
g70
I3
ssg71
g4787
sg64
(lp4794
S''
asbasbasbag57
(g73
g59
NtRp4795
(dp4796
g62
(dp4797
sg71
g4691
sg64
(lp4798
g57
(g78
g59
NtRp4799
(dp4800
g62
(dp4801
g82
g83
ssg71
g4795
sg64
(lp4802
g376
asbag57
(g78
g59
NtRp4803
(dp4804
g62
(dp4805
g89
g90
ssg71
g4795
sg64
(lp4806
S':'
asbag57
(g78
g59
NtRp4807
(dp4808
g62
(dp4809
sg71
g4795
sg64
(lp4810
g57
(g58
g59
NtRp4811
(dp4812
g62
(dp4813
g70
I3
ssg71
g4807
sg64
(lp4814
S'/'
asbasbasbag57
(g73
g59
NtRp4815
(dp4816
g62
(dp4817
sg71
g4691
sg64
(lp4818
g57
(g78
g59
NtRp4819
(dp4820
g62
(dp4821
g82
g83
ssg71
g4815
sg64
(lp4822
g397
asbag57
(g78
g59
NtRp4823
(dp4824
g62
(dp4825
g89
g90
ssg71
g4815
sg64
(lp4826
S':'
asbag57
(g78
g59
NtRp4827
(dp4828
g62
(dp4829
sg71
g4815
sg64
(lp4830
g57
(g58
g59
NtRp4831
(dp4832
g62
(dp4833
g70
I3
ssg71
g4827
sg64
(lp4834
S''
asbasbasbag57
(g73
g59
NtRp4835
(dp4836
g62
(dp4837
sg71
g4691
sg64
(lp4838
g57
(g78
g59
NtRp4839
(dp4840
g62
(dp4841
g82
g83
ssg71
g4835
sg64
(lp4842
g418
asbag57
(g78
g59
NtRp4843
(dp4844
g62
(dp4845
g89
g90
ssg71
g4835
sg64
(lp4846
S':'
asbag57
(g78
g59
NtRp4847
(dp4848
g62
(dp4849
sg71
g4835
sg64
(lp4850
g57
(g58
g59
NtRp4851
(dp4852
g62
(dp4853
g70
I3
ssg71
g4847
sg64
(lp4854
S''
asbasbasbasbasbasbasbasbasbasbasbag57
(g73
g59
NtRp4855
(dp4856
g62
(dp4857
sg71
g4621
sg64
(lp4858
g57
(g78
g59
NtRp4859
(dp4860
g62
(dp4861
g82
g83
ssg71
g4855
sg64
(lp4862
S'delimiters'
p4863
asbag57
(g78
g59
NtRp4864
(dp4865
g62
(dp4866
g89
g90
ssg71
g4855
sg64
(lp4867
S':'
asbag57
(g78
g59
NtRp4868
(dp4869
g62
(dp4870
sg71
g4855
sg64
(lp4871
g57
(g58
g59
NtRp4872
(dp4873
g62
(dp4874
g70
I5
ssg71
g4868
sg64
(lp4875
g57
(g66
g59
NtRp4876
(dp4877
g62
(dp4878
g70
I4
ssg71
Nsg64
(lp4879
g57
(g73
g59
NtRp4880
(dp4881
g62
(dp4882
sg71
g4876
sg64
(lp4883
g57
(g78
g59
NtRp4884
(dp4885
g62
(dp4886
sg71
g4880
sg64
(lp4887
g57
(g58
g59
NtRp4888
(dp4889
g62
(dp4890
g70
I4
ssg71
g4884
sg64
(lp4891
S'{{'
p4892
asbasbasbag57
(g73
g59
NtRp4893
(dp4894
g62
(dp4895
sg71
g4876
sg64
(lp4896
g57
(g78
g59
NtRp4897
(dp4898
g62
(dp4899
sg71
g4893
sg64
(lp4900
g57
(g58
g59
NtRp4901
(dp4902
g62
(dp4903
g70
I4
ssg71
g4897
sg64
(lp4904
S'}}'
p4905
asbasbasbasbasbasbasbag57
(g73
g59
NtRp4906
(dp4907
g62
(dp4908
sg71
g4621
sg64
(lp4909
g57
(g78
g59
NtRp4910
(dp4911
g62
(dp4912
g82
g83
ssg71
g4906
sg64
(lp4913
S'description'
p4914
asbag57
(g78
g59
NtRp4915
(dp4916
g62
(dp4917
g89
g90
ssg71
g4906
sg64
(lp4918
S':'
asbag57
(g78
g59
NtRp4919
(dp4920
g62
(dp4921
sg71
g4906
sg64
(lp4922
g57
(g58
g59
NtRp4923
(dp4924
g62
(dp4925
g70
I5
ssg71
g4919
sg64
(lp4926
S'Hecho con web2py'
p4927
asbasbasbag57
(g73
g59
NtRp4928
(dp4929
g62
(dp4930
sg71
g4621
sg64
(lp4931
g57
(g78
g59
NtRp4932
(dp4933
g62
(dp4934
g82
g83
ssg71
g4928
sg64
(lp4935
S'files'
p4936
asbag57
(g78
g59
NtRp4937
(dp4938
g62
(dp4939
g89
g90
ssg71
g4928
sg64
(lp4940
S':'
asbag57
(g78
g59
NtRp4941
(dp4942
g62
(dp4943
sg71
g4928
sg64
(lp4944
g57
(g58
g59
NtRp4945
(dp4946
g62
(dp4947
g70
I5
ssg71
g4941
sg64
(lp4948
g57
(g66
g59
NtRp4949
(dp4950
g62
(dp4951
g70
I4
ssg71
Nsg64
(lp4952
g57
(g73
g59
NtRp4953
(dp4954
g62
(dp4955
sg71
g4949
sg64
(lp4956
g57
(g78
g59
NtRp4957
(dp4958
g62
(dp4959
sg71
g4953
sg64
(lp4960
g57
(g58
g59
NtRp4961
(dp4962
g62
(dp4963
g70
I4
ssg71
g4957
sg64
(lp4964
S'/plugin_t2/static/t2/scripts/jquery.js'
p4965
asbasbasbag57
(g73
g59
NtRp4966
(dp4967
g62
(dp4968
sg71
g4949
sg64
(lp4969
g57
(g78
g59
NtRp4970
(dp4971
g62
(dp4972
sg71
g4966
sg64
(lp4973
g57
(g58
g59
NtRp4974
(dp4975
g62
(dp4976
g70
I4
ssg71
g4970
sg64
(lp4977
S'/plugin_t2/static/t2/styles/calendar.css'
p4978
asbasbasbag57
(g73
g59
NtRp4979
(dp4980
g62
(dp4981
sg71
g4949
sg64
(lp4982
g57
(g78
g59
NtRp4983
(dp4984
g62
(dp4985
sg71
g4979
sg64
(lp4986
g57
(g58
g59
NtRp4987
(dp4988
g62
(dp4989
g70
I4
ssg71
g4983
sg64
(lp4990
S'/plugin_t2/static/t2/scripts/calendar.js'
p4991
asbasbasbag57
(g73
g59
NtRp4992
(dp4993
g62
(dp4994
sg71
g4949
sg64
(lp4995
g57
(g78
g59
NtRp4996
(dp4997
g62
(dp4998
sg71
g4992
sg64
(lp4999
g57
(g58
g59
NtRp5000
(dp5001
g62
(dp5002
g70
I4
ssg71
g4996
sg64
(lp5003
S'/plugin_t2/static/t2/styles/sfmenu.css'
p5004
asbasbasbag57
(g73
g59
NtRp5005
(dp5006
g62
(dp5007
sg71
g4949
sg64
(lp5008
g57
(g78
g59
NtRp5009
(dp5010
g62
(dp5011
sg71
g5005
sg64
(lp5012
g57
(g58
g59
NtRp5013
(dp5014
g62
(dp5015
g70
I4
ssg71
g5009
sg64
(lp5016
S'/plugin_t2/static/t2/scripts/sfmenu.js'
p5017
asbasbasbag57
(g73
g59
NtRp5018
(dp5019
g62
(dp5020
sg71
g4949
sg64
(lp5021
g57
(g78
g59
NtRp5022
(dp5023
g62
(dp5024
sg71
g5018
sg64
(lp5025
g57
(g58
g59
NtRp5026
(dp5027
g62
(dp5028
g70
I4
ssg71
g5022
sg64
(lp5029
S'/plugin_t2/static/t2/scripts/fancyzoom.min.js'
p5030
asbasbasbag57
(g73
g59
NtRp5031
(dp5032
g62
(dp5033
sg71
g4949
sg64
(lp5034
g57
(g78
g59
NtRp5035
(dp5036
g62
(dp5037
sg71
g5031
sg64
(lp5038
g57
(g58
g59
NtRp5039
(dp5040
g62
(dp5041
g70
I4
ssg71
g5035
sg64
(lp5042
S'/plugin_t2/static/t2/styles/rating.css'
p5043
asbasbasbag57
(g73
g59
NtRp5044
(dp5045
g62
(dp5046
sg71
g4949
sg64
(lp5047
g57
(g78
g59
NtRp5048
(dp5049
g62
(dp5050
sg71
g5044
sg64
(lp5051
g57
(g58
g59
NtRp5052
(dp5053
g62
(dp5054
g70
I4
ssg71
g5048
sg64
(lp5055
S'/plugin_t2/static/t2/scripts/rating.js'
p5056
asbasbasbag57
(g73
g59
NtRp5057
(dp5058
g62
(dp5059
sg71
g4949
sg64
(lp5060
g57
(g78
g59
NtRp5061
(dp5062
g62
(dp5063
sg71
g5057
sg64
(lp5064
g57
(g58
g59
NtRp5065
(dp5066
g62
(dp5067
g70
I4
ssg71
g5061
sg64
(lp5068
S'/plugin_t2/static/t2/scripts/web2py.js'
p5069
asbasbasbasbasbasbasbag57
(g73
g59
NtRp5070
(dp5071
g62
(dp5072
sg71
g4621
sg64
(lp5073
g57
(g78
g59
NtRp5074
(dp5075
g62
(dp5076
g82
g83
ssg71
g5070
sg64
(lp5077
S'flash'
p5078
asbag57
(g78
g59
NtRp5079
(dp5080
g62
(dp5081
g89
g90
ssg71
g5070
sg64
(lp5082
S':'
asbag57
(g78
g59
NtRp5083
(dp5084
g62
(dp5085
sg71
g5070
sg64
(lp5086
g57
(g58
g59
NtRp5087
(dp5088
g62
(dp5089
g70
I5
ssg71
g5083
sg64
(lp5090
S''
asbasbasbag57
(g73
g59
NtRp5091
(dp5092
g62
(dp5093
sg71
g4621
sg64
(lp5094
g57
(g78
g59
NtRp5095
(dp5096
g62
(dp5097
g82
g83
ssg71
g5091
sg64
(lp5098
S'footer'
p5099
asbag57
(g78
g59
NtRp5100
(dp5101
g62
(dp5102
g89
g90
ssg71
g5091
sg64
(lp5103
S':'
asbag57
(g78
g59
NtRp5104
(dp5105
g62
(dp5106
sg71
g5091
sg64
(lp5107
g57
(g58
g59
NtRp5108
(dp5109
g62
(dp5110
g70
I5
ssg71
g5104
sg64
(lp5111
S'<p>InstallFest <a href="http://www.flisol.info/">FLISOL</a> <b>28 de abril de 2012</b> - <a href="http://www.unsa.edu.ar/">Universidad Nacional de Salta</a><br/>\n<a href="http://www.flisol.info/FLISOL2012/Argentina/Salta">http://www.flisol.info/FLISOL2012/Argentina/Salta</a> - organizacion@saltalug.org.ar</p>'
p5112
asbasbasbag57
(g73
g59
NtRp5113
(dp5114
g62
(dp5115
sg71
g4621
sg64
(lp5116
g57
(g78
g59
NtRp5117
(dp5118
g62
(dp5119
g82
g83
ssg71
g5113
sg64
(lp5120
S'generic_patterns'
p5121
asbag57
(g78
g59
NtRp5122
(dp5123
g62
(dp5124
g89
g90
ssg71
g5113
sg64
(lp5125
S':'
asbag57
(g78
g59
NtRp5126
(dp5127
g62
(dp5128
sg71
g5113
sg64
(lp5129
g57
(g58
g59
NtRp5130
(dp5131
g62
(dp5132
g70
I5
ssg71
g5126
sg64
(lp5133
g57
(g66
g59
NtRp5134
(dp5135
g62
(dp5136
g70
I4
ssg71
Nsg64
(lp5137
sbasbasbasbag57
(g73
g59
NtRp5138
(dp5139
g62
(dp5140
sg71
g4621
sg64
(lp5141
g57
(g78
g59
NtRp5142
(dp5143
g62
(dp5144
g82
g83
ssg71
g5138
sg64
(lp5145
S'headers'
p5146
asbag57
(g78
g59
NtRp5147
(dp5148
g62
(dp5149
g89
g90
ssg71
g5138
sg64
(lp5150
S':'
asbag57
(g78
g59
NtRp5151
(dp5152
g62
(dp5153
sg71
g5138
sg64
(lp5154
g57
(g58
g59
NtRp5155
(dp5156
g62
(dp5157
g70
I5
ssg71
g5151
sg64
(lp5158
g57
(g66
g59
NtRp5159
(dp5160
g62
(dp5161
g70
I4
ssg71
Nsg64
(lp5162
g57
(g73
g59
NtRp5163
(dp5164
g62
(dp5165
sg71
g5159
sg64
(lp5166
g57
(g78
g59
NtRp5167
(dp5168
g62
(dp5169
g82
g83
ssg71
g5163
sg64
(lp5170
S'Cache-Control'
p5171
asbag57
(g78
g59
NtRp5172
(dp5173
g62
(dp5174
g89
g90
ssg71
g5163
sg64
(lp5175
S':'
asbag57
(g78
g59
NtRp5176
(dp5177
g62
(dp5178
sg71
g5163
sg64
(lp5179
g57
(g58
g59
NtRp5180
(dp5181
g62
(dp5182
g70
I4
ssg71
g5176
sg64
(lp5183
S'no-store, no-cache, must-revalidate, post-check=0, pre-check=0'
p5184
asbasbasbag57
(g73
g59
NtRp5185
(dp5186
g62
(dp5187
sg71
g5159
sg64
(lp5188
g57
(g78
g59
NtRp5189
(dp5190
g62
(dp5191
g82
g83
ssg71
g5185
sg64
(lp5192
S'Content-Type'
p5193
asbag57
(g78
g59
NtRp5194
(dp5195
g62
(dp5196
g89
g90
ssg71
g5185
sg64
(lp5197
S':'
asbag57
(g78
g59
NtRp5198
(dp5199
g62
(dp5200
sg71
g5185
sg64
(lp5201
g57
(g58
g59
NtRp5202
(dp5203
g62
(dp5204
g70
I4
ssg71
g5198
sg64
(lp5205
S'text/html; charset=utf-8'
p5206
asbasbasbag57
(g73
g59
NtRp5207
(dp5208
g62
(dp5209
sg71
g5159
sg64
(lp5210
g57
(g78
g59
NtRp5211
(dp5212
g62
(dp5213
g82
g83
ssg71
g5207
sg64
(lp5214
S'Expires'
p5215
asbag57
(g78
g59
NtRp5216
(dp5217
g62
(dp5218
g89
g90
ssg71
g5207
sg64
(lp5219
S':'
asbag57
(g78
g59
NtRp5220
(dp5221
g62
(dp5222
sg71
g5207
sg64
(lp5223
g57
(g58
g59
NtRp5224
(dp5225
g62
(dp5226
g70
I4
ssg71
g5220
sg64
(lp5227
S'Fri, 09 Mar 2012 21:39:05 GMT'
p5228
asbasbasbag57
(g73
g59
NtRp5229
(dp5230
g62
(dp5231
sg71
g5159
sg64
(lp5232
g57
(g78
g59
NtRp5233
(dp5234
g62
(dp5235
g82
g83
ssg71
g5229
sg64
(lp5236
S'Pragma'
p5237
asbag57
(g78
g59
NtRp5238
(dp5239
g62
(dp5240
g89
g90
ssg71
g5229
sg64
(lp5241
S':'
asbag57
(g78
g59
NtRp5242
(dp5243
g62
(dp5244
sg71
g5229
sg64
(lp5245
g57
(g58
g59
NtRp5246
(dp5247
g62
(dp5248
g70
I4
ssg71
g5242
sg64
(lp5249
S'no-cache'
p5250
asbasbasbag57
(g73
g59
NtRp5251
(dp5252
g62
(dp5253
sg71
g5159
sg64
(lp5254
g57
(g78
g59
NtRp5255
(dp5256
g62
(dp5257
g82
g83
ssg71
g5251
sg64
(lp5258
S'X-Powered-By'
p5259
asbag57
(g78
g59
NtRp5260
(dp5261
g62
(dp5262
g89
g90
ssg71
g5251
sg64
(lp5263
S':'
asbag57
(g78
g59
NtRp5264
(dp5265
g62
(dp5266
sg71
g5251
sg64
(lp5267
g57
(g58
g59
NtRp5268
(dp5269
g62
(dp5270
g70
I4
ssg71
g5264
sg64
(lp5271
S'web2py'
p5272
asbasbasbasbasbasbasbag57
(g73
g59
NtRp5273
(dp5274
g62
(dp5275
sg71
g4621
sg64
(lp5276
g57
(g78
g59
NtRp5277
(dp5278
g62
(dp5279
g82
g83
ssg71
g5273
sg64
(lp5280
S'keywords'
p5281
asbag57
(g78
g59
NtRp5282
(dp5283
g62
(dp5284
g89
g90
ssg71
g5273
sg64
(lp5285
S':'
asbag57
(g78
g59
NtRp5286
(dp5287
g62
(dp5288
sg71
g5273
sg64
(lp5289
g57
(g58
g59
NtRp5290
(dp5291
g62
(dp5292
g70
I5
ssg71
g5286
sg64
(lp5293
S'festival, instalaci\xc3\xb3n, software libre, salta, argentina, flisol'
p5294
asbasbasbag57
(g73
g59
NtRp5295
(dp5296
g62
(dp5297
sg71
g4621
sg64
(lp5298
g57
(g78
g59
NtRp5299
(dp5300
g62
(dp5301
g82
g83
ssg71
g5295
sg64
(lp5302
S'menu'
p5303
asbag57
(g78
g59
NtRp5304
(dp5305
g62
(dp5306
g89
g90
ssg71
g5295
sg64
(lp5307
S':'
asbag57
(g78
g59
NtRp5308
(dp5309
g62
(dp5310
sg71
g5295
sg64
(lp5311
g57
(g58
g59
NtRp5312
(dp5313
g62
(dp5314
g70
I5
ssg71
g5308
sg64
(lp5315
g57
(g66
g59
NtRp5316
(dp5317
g62
(dp5318
g70
I4
ssg71
Nsg64
(lp5319
g57
(g73
g59
NtRp5320
(dp5321
g62
(dp5322
sg71
g5316
sg64
(lp5323
g57
(g78
g59
NtRp5324
(dp5325
g62
(dp5326
sg71
g5320
sg64
(lp5327
g57
(g58
g59
NtRp5328
(dp5329
g62
(dp5330
g70
I4
ssg71
g5324
sg64
(lp5331
g57
(g66
g59
NtRp5332
(dp5333
g62
(dp5334
g70
I3
ssg71
Nsg64
(lp5335
g57
(g73
g59
NtRp5336
(dp5337
g62
(dp5338
sg71
g5332
sg64
(lp5339
g57
(g78
g59
NtRp5340
(dp5341
g62
(dp5342
sg71
g5336
sg64
(lp5343
g57
(g58
g59
NtRp5344
(dp5345
g62
(dp5346
g70
I3
ssg71
g5340
sg64
(lp5347
cgluon.languages
lazyT_unpickle
p5348
(S't\t\x00\x00\x00Principal'
tRp5349
asbasbasbag57
(g73
g59
NtRp5350
(dp5351
g62
(dp5352
sg71
g5332
sg64
(lp5353
g57
(g78
g59
NtRp5354
(dp5355
g62
(dp5356
sg71
g5350
sg64
(lp5357
g57
(g58
g59
NtRp5358
(dp5359
g62
(dp5360
g70
I3
ssg71
g5354
sg64
(lp5361
g100
asbasbasbag57
(g73
g59
NtRp5362
(dp5363
g62
(dp5364
sg71
g5332
sg64
(lp5365
g57
(g78
g59
NtRp5366
(dp5367
g62
(dp5368
sg71
g5362
sg64
(lp5369
g57
(g58
g59
NtRp5370
(dp5371
g62
(dp5372
g70
I3
ssg71
g5366
sg64
(lp5373
S'/flisol2012/default/index'
p5374
asbasbasbasbasbasbasbag57
(g73
g59
NtRp5375
(dp5376
g62
(dp5377
sg71
g5316
sg64
(lp5378
g57
(g78
g59
NtRp5379
(dp5380
g62
(dp5381
sg71
g5375
sg64
(lp5382
g57
(g58
g59
NtRp5383
(dp5384
g62
(dp5385
g70
I4
ssg71
g5379
sg64
(lp5386
g57
(g66
g59
NtRp5387
(dp5388
g62
(dp5389
g70
I3
ssg71
Nsg64
(lp5390
g57
(g73
g59
NtRp5391
(dp5392
g62
(dp5393
sg71
g5387
sg64
(lp5394
g57
(g78
g59
NtRp5395
(dp5396
g62
(dp5397
sg71
g5391
sg64
(lp5398
g57
(g58
g59
NtRp5399
(dp5400
g62
(dp5401
g70
I3
ssg71
g5395
sg64
(lp5402
g5348
(S't\x0b\x00\x00\x00Conferencia'
tRp5403
asbasbasbag57
(g73
g59
NtRp5404
(dp5405
g62
(dp5406
sg71
g5387
sg64
(lp5407
g57
(g78
g59
NtRp5408
(dp5409
g62
(dp5410
sg71
g5404
sg64
(lp5411
g57
(g58
g59
NtRp5412
(dp5413
g62
(dp5414
g70
I3
ssg71
g5408
sg64
(lp5415
g100
asbasbasbag57
(g73
g59
NtRp5416
(dp5417
g62
(dp5418
sg71
g5387
sg64
(lp5419
g57
(g78
g59
NtRp5420
(dp5421
g62
(dp5422
sg71
g5416
sg64
(lp5423
g57
(g58
g59
NtRp5424
(dp5425
g62
(dp5426
g70
I3
ssg71
g5420
sg64
(lp5427
S'#'
asbasbasbag57
(g73
g59
NtRp5428
(dp5429
g62
(dp5430
sg71
g5387
sg64
(lp5431
g57
(g78
g59
NtRp5432
(dp5433
g62
(dp5434
sg71
g5428
sg64
(lp5435
g57
(g58
g59
NtRp5436
(dp5437
g62
(dp5438
g70
I3
ssg71
g5432
sg64
(lp5439
g57
(g66
g59
NtRp5440
(dp5441
g62
(dp5442
g70
I2
ssg71
Nsg64
(lp5443
g57
(g73
g59
NtRp5444
(dp5445
g62
(dp5446
sg71
g5440
sg64
(lp5447
g57
(g78
g59
NtRp5448
(dp5449
g62
(dp5450
sg71
g5444
sg64
(lp5451
g57
(g58
g59
NtRp5452
(dp5453
g62
(dp5454
g70
I2
ssg71
g5448
sg64
(lp5455
g57
(g66
g59
NtRp5456
(dp5457
g62
(dp5458
g70
I1
ssg71
Nsg64
(lp5459
g57
(g73
g59
NtRp5460
(dp5461
g62
(dp5462
sg71
g5456
sg64
(lp5463
g57
(g78
g59
NtRp5464
(dp5465
g62
(dp5466
sg71
g5460
sg64
(lp5467
g57
(g58
g59
NtRp5468
(dp5469
g62
(dp5470
g70
I1
ssg71
g5464
sg64
(lp5471
g5348
(S's\t\x00\x00\x00Acerca de'
tRp5472
asbasbasbag57
(g73
g59
NtRp5473
(dp5474
g62
(dp5475
sg71
g5456
sg64
(lp5476
g57
(g78
g59
NtRp5477
(dp5478
g62
(dp5479
sg71
g5473
sg64
(lp5480
g57
(g58
g59
NtRp5481
(dp5482
g62
(dp5483
g70
I1
ssg71
g5477
sg64
(lp5484
I01
asbasbasbag57
(g73
g59
NtRp5485
(dp5486
g62
(dp5487
sg71
g5456
sg64
(lp5488
g57
(g78
g59
NtRp5489
(dp5490
g62
(dp5491
sg71
g5485
sg64
(lp5492
g57
(g58
g59
NtRp5493
(dp5494
g62
(dp5495
g70
I1
ssg71
g5489
sg64
(lp5496
S'/flisol2012/conference/about'
p5497
asbasbasbasbasbasbasbag57
(g73
g59
NtRp5498
(dp5499
g62
(dp5500
sg71
g5440
sg64
(lp5501
g57
(g78
g59
NtRp5502
(dp5503
g62
(dp5504
sg71
g5498
sg64
(lp5505
g57
(g58
g59
NtRp5506
(dp5507
g62
(dp5508
g70
I2
ssg71
g5502
sg64
(lp5509
g57
(g66
g59
NtRp5510
(dp5511
g62
(dp5512
g70
I1
ssg71
Nsg64
(lp5513
g57
(g73
g59
NtRp5514
(dp5515
g62
(dp5516
sg71
g5510
sg64
(lp5517
g57
(g78
g59
NtRp5518
(dp5519
g62
(dp5520
sg71
g5514
sg64
(lp5521
g57
(g58
g59
NtRp5522
(dp5523
g62
(dp5524
g70
I1
ssg71
g5518
sg64
(lp5525
g5348
(S't\x05\x00\x00\x00Lugar'
tRp5526
asbasbasbag57
(g73
g59
NtRp5527
(dp5528
g62
(dp5529
sg71
g5510
sg64
(lp5530
g57
(g78
g59
NtRp5531
(dp5532
g62
(dp5533
sg71
g5527
sg64
(lp5534
g57
(g58
g59
NtRp5535
(dp5536
g62
(dp5537
g70
I1
ssg71
g5531
sg64
(lp5538
I01
asbasbasbag57
(g73
g59
NtRp5539
(dp5540
g62
(dp5541
sg71
g5510
sg64
(lp5542
g57
(g78
g59
NtRp5543
(dp5544
g62
(dp5545
sg71
g5539
sg64
(lp5546
g57
(g58
g59
NtRp5547
(dp5548
g62
(dp5549
g70
I1
ssg71
g5543
sg64
(lp5550
S'/flisol2012/conference/venue'
p5551
asbasbasbasbasbasbasbag57
(g73
g59
NtRp5552
(dp5553
g62
(dp5554
sg71
g5440
sg64
(lp5555
g57
(g78
g59
NtRp5556
(dp5557
g62
(dp5558
sg71
g5552
sg64
(lp5559
g57
(g58
g59
NtRp5560
(dp5561
g62
(dp5562
g70
I2
ssg71
g5556
sg64
(lp5563
g57
(g66
g59
NtRp5564
(dp5565
g62
(dp5566
g70
I1
ssg71
Nsg64
(lp5567
g57
(g73
g59
NtRp5568
(dp5569
g62
(dp5570
sg71
g5564
sg64
(lp5571
g57
(g78
g59
NtRp5572
(dp5573
g62
(dp5574
sg71
g5568
sg64
(lp5575
g57
(g58
g59
NtRp5576
(dp5577
g62
(dp5578
g70
I1
ssg71
g5572
sg64
(lp5579
g5348
(S't\x08\x00\x00\x00Software'
tRp5580
asbasbasbag57
(g73
g59
NtRp5581
(dp5582
g62
(dp5583
sg71
g5564
sg64
(lp5584
g57
(g78
g59
NtRp5585
(dp5586
g62
(dp5587
sg71
g5581
sg64
(lp5588
g57
(g58
g59
NtRp5589
(dp5590
g62
(dp5591
g70
I1
ssg71
g5585
sg64
(lp5592
I01
asbasbasbag57
(g73
g59
NtRp5593
(dp5594
g62
(dp5595
sg71
g5564
sg64
(lp5596
g57
(g78
g59
NtRp5597
(dp5598
g62
(dp5599
sg71
g5593
sg64
(lp5600
g57
(g58
g59
NtRp5601
(dp5602
g62
(dp5603
g70
I1
ssg71
g5597
sg64
(lp5604
S'/flisol2012/conference/software'
p5605
asbasbasbasbasbasbasbag57
(g73
g59
NtRp5606
(dp5607
g62
(dp5608
sg71
g5440
sg64
(lp5609
g57
(g78
g59
NtRp5610
(dp5611
g62
(dp5612
sg71
g5606
sg64
(lp5613
g57
(g58
g59
NtRp5614
(dp5615
g62
(dp5616
g70
I2
ssg71
g5610
sg64
(lp5617
g57
(g66
g59
NtRp5618
(dp5619
g62
(dp5620
g70
I1
ssg71
Nsg64
(lp5621
g57
(g73
g59
NtRp5622
(dp5623
g62
(dp5624
sg71
g5618
sg64
(lp5625
g57
(g78
g59
NtRp5626
(dp5627
g62
(dp5628
sg71
g5622
sg64
(lp5629
g57
(g58
g59
NtRp5630
(dp5631
g62
(dp5632
g70
I1
ssg71
g5626
sg64
(lp5633
g5348
(S't\x06\x00\x00\x00Agenda'
tRp5634
asbasbasbag57
(g73
g59
NtRp5635
(dp5636
g62
(dp5637
sg71
g5618
sg64
(lp5638
g57
(g78
g59
NtRp5639
(dp5640
g62
(dp5641
sg71
g5635
sg64
(lp5642
g57
(g58
g59
NtRp5643
(dp5644
g62
(dp5645
g70
I1
ssg71
g5639
sg64
(lp5646
I01
asbasbasbag57
(g73
g59
NtRp5647
(dp5648
g62
(dp5649
sg71
g5618
sg64
(lp5650
g57
(g78
g59
NtRp5651
(dp5652
g62
(dp5653
sg71
g5647
sg64
(lp5654
g57
(g58
g59
NtRp5655
(dp5656
g62
(dp5657
g70
I1
ssg71
g5651
sg64
(lp5658
S'/flisol2012/conference/schedule'
p5659
asbasbasbasbasbasbasbag57
(g73
g59
NtRp5660
(dp5661
g62
(dp5662
sg71
g5440
sg64
(lp5663
g57
(g78
g59
NtRp5664
(dp5665
g62
(dp5666
sg71
g5660
sg64
(lp5667
g57
(g58
g59
NtRp5668
(dp5669
g62
(dp5670
g70
I2
ssg71
g5664
sg64
(lp5671
g57
(g66
g59
NtRp5672
(dp5673
g62
(dp5674
g70
I1
ssg71
Nsg64
(lp5675
g57
(g73
g59
NtRp5676
(dp5677
g62
(dp5678
sg71
g5672
sg64
(lp5679
g57
(g78
g59
NtRp5680
(dp5681
g62
(dp5682
sg71
g5676
sg64
(lp5683
g57
(g58
g59
NtRp5684
(dp5685
g62
(dp5686
g70
I1
ssg71
g5680
sg64
(lp5687
g5348
(S's\x15\x00\x00\x00Propuestas de charlas'
tRp5688
asbasbasbag57
(g73
g59
NtRp5689
(dp5690
g62
(dp5691
sg71
g5672
sg64
(lp5692
g57
(g78
g59
NtRp5693
(dp5694
g62
(dp5695
sg71
g5689
sg64
(lp5696
g57
(g58
g59
NtRp5697
(dp5698
g62
(dp5699
g70
I1
ssg71
g5693
sg64
(lp5700
I01
asbasbasbag57
(g73
g59
NtRp5701
(dp5702
g62
(dp5703
sg71
g5672
sg64
(lp5704
g57
(g78
g59
NtRp5705
(dp5706
g62
(dp5707
sg71
g5701
sg64
(lp5708
g57
(g58
g59
NtRp5709
(dp5710
g62
(dp5711
g70
I1
ssg71
g5705
sg64
(lp5712
S'/flisol2012/conference/proposals'
p5713
asbasbasbasbasbasbasbag57
(g73
g59
NtRp5714
(dp5715
g62
(dp5716
sg71
g5440
sg64
(lp5717
g57
(g78
g59
NtRp5718
(dp5719
g62
(dp5720
sg71
g5714
sg64
(lp5721
g57
(g58
g59
NtRp5722
(dp5723
g62
(dp5724
g70
I2
ssg71
g5718
sg64
(lp5725
g57
(g66
g59
NtRp5726
(dp5727
g62
(dp5728
g70
I1
ssg71
Nsg64
(lp5729
g57
(g73
g59
NtRp5730
(dp5731
g62
(dp5732
sg71
g5726
sg64
(lp5733
g57
(g78
g59
NtRp5734
(dp5735
g62
(dp5736
sg71
g5730
sg64
(lp5737
g57
(g58
g59
NtRp5738
(dp5739
g62
(dp5740
g70
I1
ssg71
g5734
sg64
(lp5741
g5348
(S't\r\x00\x00\x00Organizadores'
tRp5742
asbasbasbag57
(g73
g59
NtRp5743
(dp5744
g62
(dp5745
sg71
g5726
sg64
(lp5746
g57
(g78
g59
NtRp5747
(dp5748
g62
(dp5749
sg71
g5743
sg64
(lp5750
g57
(g58
g59
NtRp5751
(dp5752
g62
(dp5753
g70
I1
ssg71
g5747
sg64
(lp5754
I01
asbasbasbag57
(g73
g59
NtRp5755
(dp5756
g62
(dp5757
sg71
g5726
sg64
(lp5758
g57
(g78
g59
NtRp5759
(dp5760
g62
(dp5761
sg71
g5755
sg64
(lp5762
g57
(g58
g59
NtRp5763
(dp5764
g62
(dp5765
g70
I1
ssg71
g5759
sg64
(lp5766
S'/flisol2012/conference/staff'
p5767
asbasbasbasbasbasbasbasbasbasbasbasbasbasbasbasbasbasbasbag57
(g73
g59
NtRp5768
(dp5769
g62
(dp5770
sg71
g4621
sg64
(lp5771
g57
(g78
g59
NtRp5772
(dp5773
g62
(dp5774
g82
g83
ssg71
g5768
sg64
(lp5775
S'meta'
p5776
asbag57
(g78
g59
NtRp5777
(dp5778
g62
(dp5779
g89
g90
ssg71
g5768
sg64
(lp5780
S':'
asbag57
(g78
g59
NtRp5781
(dp5782
g62
(dp5783
sg71
g5768
sg64
(lp5784
g57
(g58
g59
NtRp5785
(dp5786
g62
(dp5787
g70
I5
ssg71
g5781
sg64
(lp5788
g57
(g66
g59
NtRp5789
(dp5790
g62
(dp5791
g70
I4
ssg71
Nsg64
(lp5792
sbasbasbasbag57
(g73
g59
NtRp5793
(dp5794
g62
(dp5795
sg71
g4621
sg64
(lp5796
g57
(g78
g59
NtRp5797
(dp5798
g62
(dp5799
g82
g83
ssg71
g5793
sg64
(lp5800
S'postprocessing'
p5801
asbag57
(g78
g59
NtRp5802
(dp5803
g62
(dp5804
g89
g90
ssg71
g5793
sg64
(lp5805
S':'
asbag57
(g78
g59
NtRp5806
(dp5807
g62
(dp5808
sg71
g5793
sg64
(lp5809
g57
(g58
g59
NtRp5810
(dp5811
g62
(dp5812
g70
I5
ssg71
g5806
sg64
(lp5813
g57
(g66
g59
NtRp5814
(dp5815
g62
(dp5816
g70
I4
ssg71
Nsg64
(lp5817
sbasbasbasbag57
(g73
g59
NtRp5818
(dp5819
g62
(dp5820
sg71
g4621
sg64
(lp5821
g57
(g78
g59
NtRp5822
(dp5823
g62
(dp5824
g82
g83
ssg71
g5818
sg64
(lp5825
S'session_file'
p5826
asbag57
(g78
g59
NtRp5827
(dp5828
g62
(dp5829
g89
g90
ssg71
g5818
sg64
(lp5830
S':'
asbag57
(g78
g59
NtRp5831
(dp5832
g62
(dp5833
sg71
g5818
sg64
(lp5834
g57
(g58
g59
NtRp5835
(dp5836
g62
(dp5837
g70
I5
ssg71
g5831
sg64
(lp5838
S"<open file '/home/marco/flisol2012/web2py/applications/flisol2012/sessions/127.0.0.1-2ede3a58-f97e-48e1-8d0e-90e5ecfe16bf', mode 'rb+' at 0x419bdb0>"
p5839
asbasbasbag57
(g73
g59
NtRp5840
(dp5841
g62
(dp5842
sg71
g4621
sg64
(lp5843
g57
(g78
g59
NtRp5844
(dp5845
g62
(dp5846
g82
g83
ssg71
g5840
sg64
(lp5847
S'session_filename'
p5848
asbag57
(g78
g59
NtRp5849
(dp5850
g62
(dp5851
g89
g90
ssg71
g5840
sg64
(lp5852
S':'
asbag57
(g78
g59
NtRp5853
(dp5854
g62
(dp5855
sg71
g5840
sg64
(lp5856
g57
(g58
g59
NtRp5857
(dp5858
g62
(dp5859
g70
I5
ssg71
g5853
sg64
(lp5860
S'/home/marco/flisol2012/web2py/applications/flisol2012/sessions/127.0.0.1-2ede3a58-f97e-48e1-8d0e-90e5ecfe16bf'
p5861
asbasbasbag57
(g73
g59
NtRp5862
(dp5863
g62
(dp5864
sg71
g4621
sg64
(lp5865
g57
(g78
g59
NtRp5866
(dp5867
g62
(dp5868
g82
g83
ssg71
g5862
sg64
(lp5869
S'session_id'
p5870
asbag57
(g78
g59
NtRp5871
(dp5872
g62
(dp5873
g89
g90
ssg71
g5862
sg64
(lp5874
S':'
asbag57
(g78
g59
NtRp5875
(dp5876
g62
(dp5877
sg71
g5862
sg64
(lp5878
g57
(g58
g59
NtRp5879
(dp5880
g62
(dp5881
g70
I5
ssg71
g5875
sg64
(lp5882
S'127.0.0.1-2ede3a58-f97e-48e1-8d0e-90e5ecfe16bf'
p5883
asbasbasbag57
(g73
g59
NtRp5884
(dp5885
g62
(dp5886
sg71
g4621
sg64
(lp5887
g57
(g78
g59
NtRp5888
(dp5889
g62
(dp5890
g82
g83
ssg71
g5884
sg64
(lp5891
S'session_id_name'
p5892
asbag57
(g78
g59
NtRp5893
(dp5894
g62
(dp5895
g89
g90
ssg71
g5884
sg64
(lp5896
S':'
asbag57
(g78
g59
NtRp5897
(dp5898
g62
(dp5899
sg71
g5884
sg64
(lp5900
g57
(g58
g59
NtRp5901
(dp5902
g62
(dp5903
g70
I5
ssg71
g5897
sg64
(lp5904
g4678
asbasbasbag57
(g73
g59
NtRp5905
(dp5906
g62
(dp5907
sg71
g4621
sg64
(lp5908
g57
(g78
g59
NtRp5909
(dp5910
g62
(dp5911
g82
g83
ssg71
g5905
sg64
(lp5912
S'session_locked'
p5913
asbag57
(g78
g59
NtRp5914
(dp5915
g62
(dp5916
g89
g90
ssg71
g5905
sg64
(lp5917
S':'
asbag57
(g78
g59
NtRp5918
(dp5919
g62
(dp5920
sg71
g5905
sg64
(lp5921
g57
(g58
g59
NtRp5922
(dp5923
g62
(dp5924
g70
I5
ssg71
g5918
sg64
(lp5925
g1949
asbasbasbag57
(g73
g59
NtRp5926
(dp5927
g62
(dp5928
sg71
g4621
sg64
(lp5929
g57
(g78
g59
NtRp5930
(dp5931
g62
(dp5932
g82
g83
ssg71
g5926
sg64
(lp5933
S'session_new'
p5934
asbag57
(g78
g59
NtRp5935
(dp5936
g62
(dp5937
g89
g90
ssg71
g5926
sg64
(lp5938
S':'
asbag57
(g78
g59
NtRp5939
(dp5940
g62
(dp5941
sg71
g5926
sg64
(lp5942
g57
(g58
g59
NtRp5943
(dp5944
g62
(dp5945
g70
I5
ssg71
g5939
sg64
(lp5946
g100
asbasbasbag57
(g73
g59
NtRp5947
(dp5948
g62
(dp5949
sg71
g4621
sg64
(lp5950
g57
(g78
g59
NtRp5951
(dp5952
g62
(dp5953
g82
g83
ssg71
g5947
sg64
(lp5954
S'status'
p5955
asbag57
(g78
g59
NtRp5956
(dp5957
g62
(dp5958
g89
g90
ssg71
g5947
sg64
(lp5959
S':'
asbag57
(g78
g59
NtRp5960
(dp5961
g62
(dp5962
sg71
g5947
sg64
(lp5963
g57
(g58
g59
NtRp5964
(dp5965
g62
(dp5966
g70
I5
ssg71
g5960
sg64
(lp5967
S'200'
p5968
asbasbasbag57
(g73
g59
NtRp5969
(dp5970
g62
(dp5971
sg71
g4621
sg64
(lp5972
g57
(g78
g59
NtRp5973
(dp5974
g62
(dp5975
g82
g83
ssg71
g5969
sg64
(lp5976
S'subtitle'
p5977
asbag57
(g78
g59
NtRp5978
(dp5979
g62
(dp5980
g89
g90
ssg71
g5969
sg64
(lp5981
S':'
asbag57
(g78
g59
NtRp5982
(dp5983
g62
(dp5984
sg71
g5969
sg64
(lp5985
g57
(g58
g59
NtRp5986
(dp5987
g62
(dp5988
g70
I5
ssg71
g5982
sg64
(lp5989
S''
asbasbasbag57
(g73
g59
NtRp5990
(dp5991
g62
(dp5992
sg71
g4621
sg64
(lp5993
g57
(g78
g59
NtRp5994
(dp5995
g62
(dp5996
g82
g83
ssg71
g5990
sg64
(lp5997
S'title'
p5998
asbag57
(g78
g59
NtRp5999
(dp6000
g62
(dp6001
g89
g90
ssg71
g5990
sg64
(lp6002
S':'
asbag57
(g78
g59
NtRp6003
(dp6004
g62
(dp6005
sg71
g5990
sg64
(lp6006
g57
(g58
g59
NtRp6007
(dp6008
g62
(dp6009
g70
I5
ssg71
g6003
sg64
(lp6010
S'FLISOL 2012 - Salta'
p6011
asbasbasbag57
(g73
g59
NtRp6012
(dp6013
g62
(dp6014
sg71
g4621
sg64
(lp6015
g57
(g78
g59
NtRp6016
(dp6017
g62
(dp6018
g82
g83
ssg71
g6012
sg64
(lp6019
g2635
asbag57
(g78
g59
NtRp6020
(dp6021
g62
(dp6022
g89
g90
ssg71
g6012
sg64
(lp6023
S':'
asbag57
(g78
g59
NtRp6024
(dp6025
g62
(dp6026
sg71
g6012
sg64
(lp6027
g57
(g58
g59
NtRp6028
(dp6029
g62
(dp6030
g70
I5
ssg71
g6024
sg64
(lp6031
g2648
asbasbasbag57
(g73
g59
NtRp6032
(dp6033
g62
(dp6034
sg71
g4621
sg64
(lp6035
g57
(g78
g59
NtRp6036
(dp6037
g62
(dp6038
g82
g83
ssg71
g6032
sg64
(lp6039
S'view'
p6040
asbag57
(g78
g59
NtRp6041
(dp6042
g62
(dp6043
g89
g90
ssg71
g6032
sg64
(lp6044
S':'
asbag57
(g78
g59
NtRp6045
(dp6046
g62
(dp6047
sg71
g6032
sg64
(lp6048
g57
(g58
g59
NtRp6049
(dp6050
g62
(dp6051
g70
I5
ssg71
g6045
sg64
(lp6052
S'default/index.html'
p6053
asbasbasbasbasbsS'locals'
p6054
(dp6055
S'FOOD_PREFERENCES'
p6056
S"('normal', 'vegetarian', 'vegan', 'kosher', 'halal')"
p6057
sS'Service'
p6058
S"<class 'gluon.tools.Service'>"
p6059
sS'EMAIL_VERIFICATION'
p6060
g100
sS'OBJECT'
p6061
S"<class 'gluon.html.OBJECT'>"
p6062
sS'SQLDB'
p6063
S"<class 'gluon.dal.DAL'>"
p6064
sg3452
S"<Storage {'_formkey[register]': 'e8dbc482-ea3a-4...login]': 'cc127485-fce0-4cd8-8f19-204f9721cd1f'}>"
p6065
sS'LINK'
p6066
S"<class 'gluon.html.LINK'>"
p6067
sS'BR'
p6068
S"<class 'gluon.html.BR'>"
p6069
sS'local_import'
p6070
S'<function <lambda>>'
p6071
sS'OPTGROUP'
p6072
S"<class 'gluon.html.OPTGROUP'>"
p6073
sS'LI'
p6074
S"<class 'gluon.html.LI'>"
p6075
sS'OPTION'
p6076
S"<class 'gluon.html.OPTION'>"
p6077
sS'PRE'
p6078
S"<class 'gluon.html.PRE'>"
p6079
sS'IS_INT_IN_RANGE'
p6080
S"<class 'gluon.validators.IS_INT_IN_RANGE'>"
p6081
sS'IS_NOT_EMPTY'
p6082
S"<class 'gluon.validators.IS_NOT_EMPTY'>"
p6083
sg2522
S'datetime.datetime(2012, 3, 9, 18, 39, 5, 819830)'
p6084
sg2635
S"<module 'uuid' from '/usr/lib/python2.7/uuid.pyc'>"
p6085
sS'IS_LOWER'
p6086
S"<class 'gluon.validators.IS_LOWER'>"
p6087
sS'IS_STRONG'
p6088
S"<class 'gluon.validators.IS_STRONG'>"
p6089
sS'Recaptcha'
p6090
S"<class 'gluon.tools.Recaptcha'>"
p6091
sS'cache'
p6092
S'<gluon.cache.Cache object>'
p6093
sS'T_SHIRT_SIZES_LABELS'
p6094
S'(<lazyT "men\'s/small">, <lazyT "men\'s/medium">, <lazyT "men\'s/large">, <lazyT "men\'s/xlarge">, <lazyT "men\'s/2xlarge">, <lazyT "men\'s/3xlarge">, <lazyT "women\'s/small">, <lazyT "women\'s/medium">, <lazyT "women\'s/large">)'
p6095
sS'IS_IN_DB'
p6096
S"<class 'gluon.validators.IS_IN_DB'>"
p6097
sS'TAG'
p6098
S'<gluon.html.__TAG__ object>'
p6099
sS'SQLField'
p6100
S"<class 'gluon.dal.Field'>"
p6101
sS'mail'
p6102
S'<gluon.tools.Mail object>'
p6103
sS'RECAPTCHA_PRIVATE_KEY'
p6104
S"''"
p6105
sS'BODY'
p6106
S"<class 'gluon.html.BODY'>"
p6107
sS'IS_DATE_IN_RANGE'
p6108
S"<class 'gluon.validators.IS_DATE_IN_RANGE'>"
p6109
sS'IFRAME'
p6110
S"<class 'gluon.html.IFRAME'>"
p6111
sS'URL'
p6112
S'<function URL>'
p6113
sS'__file__'
p6114
S"'/home/marco/flisol2012/web2py/applications/flisol2012/models/menu.py'"
p6115
sS'PRECONF_DATE'
p6116
S'datetime.datetime(2009, 3, 19, 6, 0)'
p6117
sS'auth'
p6118
S'<gluon.tools.Auth object>'
p6119
sS'PAST'
p6120
S'datetime.datetime(2012, 3, 9, 18, 38, 5, 820431)'
p6121
sS'P'
S"<class 'gluon.html.P'>"
p6122
sS'VERSION'
p6123
S'0.5'
p6124
sS'TFOOT'
p6125
S"<class 'gluon.html.TFOOT'>"
p6126
sS'TRUETYPE_PATH'
p6127
S"'/usr/share/fonts/truetype/freefont'"
p6128
sS'XHTML'
p6129
S"<class 'gluon.html.XHTML'>"
p6130
sS'datetime'
p6131
S"<module 'datetime' from '/usr/lib/python2.7/lib-dynload/datetime.so'>"
p6132
sS'RECAPTCHA_PUBLIC_KEY'
p6133
S"''"
p6134
sS'ON'
p6135
g1949
sS'OL'
p6136
S"<class 'gluon.html.OL'>"
p6137
sS'TEXTAREA'
p6138
S"<class 'gluon.html.TEXTAREA'>"
p6139
sS'MENU'
p6140
S"<class 'gluon.html.MENU'>"
p6141
sS't2'
p6142
S'<applications.flisol2012.modules.t2.T2 instance>'
p6143
sS'STYLE'
p6144
S"<class 'gluon.html.STYLE'>"
p6145
sS'FA_EMAIL_UPDATES'
p6146
g1949
sS'CODE'
p6147
S"<class 'gluon.html.CODE'>"
p6148
sS'HTTP'
p6149
S"<class 'gluon.http.HTTP'>"
p6150
sS'is_gae'
p6151
g100
sS'HR'
p6152
S"<class 'gluon.html.HR'>"
p6153
sS'EMAIL_VERIFY_BODY'
p6154
S"'                                              \\r\\n...fault/verify/%(key)s\\r\\n\\r\\n--\\r\\nFLISOL 2012 - Salta\\r\\n'"
p6155
sS'IS_DATETIME'
p6156
S"<class 'gluon.validators.IS_DATETIME'>"
p6157
sS'stat'
p6158
S"<module 'stat' from '/usr/lib/python2.7/stat.pyc'>"
p6159
sS'LABEL'
p6160
S"<class 'gluon.html.LABEL'>"
p6161
sS'META'
p6162
S"<class 'gluon.html.META'>"
p6163
sS'INVOICE_HEADER'
p6164
S"'This is a Conference Invoice!!!'"
p6165
sS'email_invoice'
p6166
S'<function email_invoice>'
p6167
sS'SELECT'
p6168
S"<class 'gluon.html.SELECT'>"
p6169
sS'CENTER'
p6170
S"<class 'gluon.html.CENTER'>"
p6171
sS'prettydate'
p6172
S'<function prettydate>'
p6173
sS'redirect'
p6174
S'<function redirect>'
p6175
sS'CONFERENCE_COORDS'
p6176
S'(-34.769458, -58.649536)'
p6177
sS'Crud'
p6178
S"<class 'gluon.tools.Crud'>"
p6179
sS'Auth'
p6180
S"<class 'gluon.tools.Auth'>"
p6181
sS'__builtins__'
p6182
S"{'ArithmeticError': <type 'exceptions.ArithmeticError'>, 'AssertionError': <type 'exceptions.AssertionError'>, 'AttributeError': <type 'exceptions.AttributeError'>, 'BaseException': <type 'exceptions.BaseException'>, 'BufferError': <type 'exceptions.BufferError'>, 'BytesWarning': <type 'exceptions.BytesWarning'>, 'DeprecationWarning': <type 'exceptions.DeprecationWarning'>, 'EOFError': <type 'exceptions.EOFError'>, 'Ellipsis': Ellipsis, 'EnvironmentError': <type 'exceptions.EnvironmentError'>, ...}"
p6183
sS'HTML'
p6184
S"<class 'gluon.html.HTML'>"
p6185
sS'SQLFORM'
p6186
S"<class 'gluon.sqlhtml.SQLFORM'>"
p6187
sS'EMAIL_SERVER'
p6188
S"'localhost:25'"
p6189
sS'LOAD'
p6190
S'<function LOAD>'
p6191
sS'update_person'
p6192
S'<function update_person>'
p6193
sS'FIELDSET'
p6194
S"<class 'gluon.html.FIELDSET'>"
p6195
sS'COST_SECOND_TUTORIAL'
p6196
S'80.0'
p6197
sS'IS_EQUAL_TO'
p6198
S"<class 'gluon.validators.IS_EQUAL_TO'>"
p6199
sS'embed64'
p6200
S'<function embed64>'
p6201
sS'IS_LIST_OF'
p6202
S"<class 'gluon.validators.IS_LIST_OF'>"
p6203
sS'TUTORIALS'
p6204
S"{'11': 'Hands on Python I (Wednesday AM, March 25)', '12': 'Faster Python Programs through Optimization (Wednesday AM, March 25)', '13': 'Application Development with IronPython (Wednesday AM, March 25)', '14': 'Using Twisted Deferreds (Wednesday AM, March 25)', '15': 'Beginning TurboGears (Wednesday AM, March 25)', '16': 'Introduction to the Google App Engine (Wednesday AM, March 25)', '17': 'Easy Concurrency with Kamaelia (Wednesday AM, March 25)', '18': 'Working with Excel Files in Python (Wednesday AM, March 25)', '21': 'Hands on Python II (Wednesday PM, March 25)', '22': 'Django in the Real World (Wednesday PM, March 25)', ...}"
p6205
sS'INPUT'
p6206
S"<class 'gluon.html.INPUT'>"
p6207
sS'EMBED'
p6208
S"<class 'gluon.html.EMBED'>"
p6209
sS'email_fa'
p6210
S'<function email_fa>'
p6211
sS'FORM'
p6212
S"<class 'gluon.html.FORM'>"
p6213
sS'H2'
p6214
S"<class 'gluon.html.H2'>"
p6215
sS'H3'
p6216
S"<class 'gluon.html.H3'>"
p6217
sS'BUTTON'
p6218
S"<class 'gluon.html.BUTTON'>"
p6219
sS'H1'
p6220
S"<class 'gluon.html.H1'>"
p6221
sS'H6'
p6222
S"<class 'gluon.html.H6'>"
p6223
sS'CONFERENCE_URL'
p6224
S'None'
p6225
sS'H4'
p6226
S"<class 'gluon.html.H4'>"
p6227
sS'H5'
p6228
S"<class 'gluon.html.H5'>"
p6229
sS'UL'
p6230
S"<class 'gluon.html.UL'>"
p6231
sS'IS_UPPER'
p6232
S"<class 'gluon.validators.IS_UPPER'>"
p6233
sS'PASSWORD_RETRIEVE_SUBJECT'
p6234
S"'FLISOL 2012 - Salta Contrase\\xc3\\xb1a de Inscripci\\xc3\\xb3n'"
p6235
sS'xmlescape'
p6236
S'<function xmlescape>'
p6237
sS'submenu_conf'
p6238
S"[[<lazyT 'About'>, True, '/flisol2012/conference/about'], [<lazyT 'Venue'>, True, '/flisol2012/conference/venue'], [<lazyT 'Software'>, True, '/flisol2012/conference/software'], [<lazyT 'Schedule'>, True, '/flisol2012/conference/schedule'], [<lazyT 'Talk Proposals'>, True, '/flisol2012/conference/proposals'], [<lazyT 'Staff'>, True, '/flisol2012/conference/staff']]"
p6239
sS'TUTORIALS_LIST'
p6240
S"(('11', 'Hands on Python I (Wednesday AM, March 25)'), ('12', 'Faster Python Programs through Optimization (Wednesday AM, March 25)'), ('13', 'Application Development with IronPython (Wednesday AM, March 25)'), ('14', 'Using Twisted Deferreds (Wednesday AM, March 25)'), ('15', 'Beginning TurboGears (Wednesday AM, March 25)'), ('16', 'Introduction to the Google App Engine (Wednesday AM, March 25)'), ('17', 'Easy Concurrency with Kamaelia (Wednesday AM, March 25)'), ('18', 'Working with Excel Files in Python (Wednesday AM, March 25)'), ('21', 'Hands on Python II (Wednesday PM, March 25)'), ('22', 'Django in the Real World (Wednesday PM, March 25)'), ('23', 'Eggs and Buildout Development (Wednesday PM, March 25)'), ('24', 'Geographic Information Systems in Python (Wednesday PM, March 25)'), ('25', 'Intermediate TurboGears (Wednesday PM, March 25)'), ('26', 'A Courious Course on Coroutines and Concurrency (Wednesday PM, March 25)'), ('27', 'Building Real-Time Network Apps with Twisted and Orbited (Wednesday PM, March 25)'), ('28', 'Introduction to Functional Web Testing With Twill and Selenium (Wednesday PM, March 25)'), ('31', 'Python 401: Some Advanced Topics (Thursday AM, March 26)'), ('32', 'py.Test I: rapid testing with minimal effort (Thursday AM, March 26)'), ('33', 'ToscaWidgets: Test Driven Modular Ajax (Thursday AM, March 26)'), ('34', 'Introduction to SQLAlchemy (Thursday AM, March 26)'), ...)"
p6241
sS'IS_TIME'
p6242
S"<class 'gluon.validators.IS_TIME'>"
p6243
sS'os'
p6244
S"<module 'os' from '/usr/lib/python2.7/os.pyc'>"
p6245
sS'build_invoice'
p6246
S'<function build_invoice>'
p6247
sS'MANAGERS'
p6248
S"['marco@saltalug.org.ar', 'mattgaviota@saltalug.org.ar']"
p6249
sS'update_billed_amount'
p6250
S'<function update_billed_amount>'
p6251
sS'TITLE'
p6252
S"<class 'gluon.html.TITLE'>"
p6253
sS'CRYPT'
p6254
S"<class 'gluon.validators.CRYPT'>"
p6255
sS'T_SHIRT_SIZES'
p6256
S"('man/small', 'man/medium', 'man/large', 'man/xlarge', 'man/2xlarge', 'man/3xlarge', 'woman/small', 'woman/medium', 'woman/large')"
p6257
sS'IS_EMPTY_OR'
p6258
S"<class 'gluon.validators.IS_EMPTY_OR'>"
p6259
sS'MARKMIN'
p6260
S"<class 'gluon.html.MARKMIN'>"
p6261
sS'TODAY_DATE'
p6262
S'datetime.datetime(2012, 3, 9, 18, 39, 5, 809968)'
p6263
sS'__name__'
p6264
S"'__restricted__'"
p6265
sS'TUTORIALS_CAPS'
p6266
S"{'11': 32, '12': 62, '13': 32, '14': 32, '15': 32, '16': 62, '17': 32, '18': 32, '21': 32, '22': 62, ...}"
p6267
sS'COST_FIRST_TUTORIAL'
p6268
S'120.0'
p6269
sS'EM'
p6270
S"<class 'gluon.html.EM'>"
p6271
sS'COL'
p6272
S"<class 'gluon.html.COL'>"
p6273
sS'ps'
p6274
S"'/home/marco/flisol2012/web2py/applications/flisol2012/sessions'"
p6275
sS'coords_by_address'
p6276
S'<function coords_by_address>'
p6277
sS'ATTENDEE_TYPES'
p6278
S"(('gratis', <lazyT 'Gratuito, $0'>),)"
p6279
sS'SCRIPT'
p6280
S"<class 'gluon.html.SCRIPT'>"
p6281
sS'REGISTRATION_PASSWORD'
p6282
S"''"
p6283
sS'GOOGLEMAP_KEY'
p6284
S"'ABQIAAAANoGcCJcC-46KzN8dgwAVFxTPyXYvjXw76EZSLUYLo9tkfjfYfxQ0ezEEIEFWs3ZxdFD06cDjtRU7zw'"
p6285
sS'geocode'
p6286
S'<function geocode>'
p6287
sS'FOOD_PREFERENCES_LABELS'
p6288
S"(<lazyT 'normal'>, <lazyT 'vegetarian'>, <lazyT 'vegan'>, <lazyT 'kosher'>, <lazyT 'halal'>)"
p6289
sS'BEAUTIFY'
p6290
S"<class 'gluon.html.BEAUTIFY'>"
p6291
sS'TABLE'
p6292
S"<class 'gluon.html.TABLE'>"
p6293
sS'TALK_CATEGORIES'
p6294
S"('Ubuntu', 'ArchLinux', 'OpenSolaris', 'Python', 'PostgreSQL', 'Wine', 'KVM', 'Virtualbox')"
p6295
sS'IS_IPV4'
p6296
S"<class 'gluon.validators.IS_IPV4'>"
p6297
sS'IS_LENGTH'
p6298
S"<class 'gluon.validators.IS_LENGTH'>"
p6299
sS'XML'
p6300
S"<class 'gluon.html.XML'>"
p6301
sS'B'
S"<class 'gluon.html.B'>"
p6302
sS'IMG'
p6303
S"<class 'gluon.html.IMG'>"
p6304
sS'COUNTRIES'
p6305
S"['United States', 'Afghanistan', 'Albania', 'Algeria', 'Andorra', 'Angola', 'Antigua and Barbuda', 'Argentina', 'Armenia', 'Australia', 'Austria', 'Azerbaijan', 'Bahamas', 'Bahrain', 'Bangladesh', 'Barbados', 'Belarus', 'Belgium', 'Belize', 'Benin', ...]"
p6306
sS'SQLTABLE'
p6307
S"<class 'gluon.sqlhtml.SQLTABLE'>"
p6308
sS'IS_MATCH'
p6309
S"<class 'gluon.validators.IS_MATCH'>"
p6310
sS'HOST_NEXT'
p6311
S"'http://www.institutopascal.edu.ar/flisol2010'"
p6312
sS'DBPOOLS'
p6313
S'0'
sS'IS_ALPHANUMERIC'
p6314
S"<class 'gluon.validators.IS_ALPHANUMERIC'>"
p6315
sS'update_pay'
p6316
S'<function update_pay>'
p6317
sS'HOST'
p6318
S"'http://www.institutopascal.edu.ar/flisol2010'"
p6319
sS'ATTENDEE_TYPE_COST'
p6320
S"{None: 0.0, 'gratis': 0.0}"
p6321
sS'HOTELS'
p6322
S"('unknown', 'Hyatt Regency', 'Crowne Plaza', 'other', 'none')"
p6323
sS'FA_EMAIL_TO'
p6324
S"'flisol@institutopascal.edu.ar'"
p6325
sS'SPAN'
p6326
S"<class 'gluon.html.SPAN'>"
p6327
sS'f'
S"'127.0.0.1-2ede3a58-f97e-48e1-8d0e-90e5ecfe16bf'"
p6328
sS'IS_SLUG'
p6329
S"<class 'gluon.validators.IS_SLUG'>"
p6330
sS'CLEANUP'
p6331
S"<class 'gluon.validators.CLEANUP'>"
p6332
sS'FACUTOFF_DATE'
p6333
S'datetime.datetime(2009, 2, 24, 6, 0)'
p6334
sS'fetch'
p6335
S'<function fetch>'
p6336
sS'update_zip'
p6337
S'<function update_zip>'
p6338
sS'IS_DATE'
p6339
S"<class 'gluon.validators.IS_DATE'>"
p6340
sS'IS_EMAIL'
p6341
S"<class 'gluon.validators.IS_EMAIL'>"
p6342
sS'DBURI'
p6343
S"'sqlite://development.db'"
p6344
sS'migrate'
p6345
g100
sS'IS_FLOAT_IN_RANGE'
p6346
S"<class 'gluon.validators.IS_FLOAT_IN_RANGE'>"
p6347
sS'GOOGLE_SANDBOX'
p6348
g1949
sS'TBODY'
p6349
S"<class 'gluon.html.TBODY'>"
p6350
sS'CAT'
p6351
S"<class 'gluon.html.CAT'>"
p6352
sS'wysiwyg'
p6353
S'<function wysiwyg>'
p6354
sS'Field'
p6355
S"<class 'gluon.dal.Field'>"
p6356
sS'GSFONTS_PATH'
p6357
S"'/usr/share/fonts/type1/gsfonts/'"
p6358
sS'Mail'
p6359
S"<class 'gluon.tools.Mail'>"
p6360
sS'DIV'
p6361
S"<class 'gluon.html.DIV'>"
p6362
sS'LEGEND'
p6363
S"<class 'gluon.html.LEGEND'>"
p6364
sS'EMAIL_AUTH'
p6365
S'None'
p6366
sS'EMAIL_SENDER'
p6367
S"'flisol@institutopascal.edu.ar'"
p6368
sS'COLGROUP'
p6369
S"<class 'gluon.html.COLGROUP'>"
p6370
sS'DAL'
p6371
S"<class 'gluon.dal.DAL'>"
p6372
sS'TT'
p6373
S"<class 'gluon.html.TT'>"
p6374
sS'GOOGLE_MERCHANT_KEY'
p6375
S"''"
p6376
sS'TR'
p6377
S"<class 'gluon.html.TR'>"
p6378
sS'IS_IN_SET'
p6379
S"<class 'gluon.validators.IS_IN_SET'>"
p6380
sS'__package__'
p6381
S'None'
p6382
sS'TH'
p6383
S"<class 'gluon.html.TH'>"
p6384
sS'TD'
p6385
S"<class 'gluon.html.TD'>"
p6386
sS'PluginManager'
p6387
S"<class 'gluon.tools.PluginManager'>"
p6388
sS'IS_URL'
p6389
S"<class 'gluon.validators.IS_URL'>"
p6390
sS'DO_RECAPTCHA'
p6391
g100
sS'A'
S"<class 'gluon.html.A'>"
p6392
sS'HEAD'
p6393
S"<class 'gluon.html.HEAD'>"
p6394
sS'PASSWORD_RETRIEVE_BODY'
p6395
S"<lazyT 'Your new password is %(password)s'>"
p6396
sS'IS_DATETIME_IN_RANGE'
p6397
S"<class 'gluon.validators.IS_DATETIME_IN_RANGE'>"
p6398
sS'IS_IMAGE'
p6399
S"<class 'gluon.validators.IS_IMAGE'>"
p6400
sS'body_template'
p6401
S"'\\nYour Financial Aid Application has been %s.\\nTha...ally generated by PyCon2009 Registration System)\\n'"
p6402
sS'db'
p6403
S"<DAL {'auth_event': <Table {'origin': <gluon.dal... '_id': <gluon.dal.Field object at 0x31a3110>}>}>"
p6404
sS'T2'
p6405
S'<class applications.flisol2012.modules.t2.T2>'
p6406
sS'fill_just_data'
p6407
S'<function fill_just_data>'
p6408
sS'EMAIL_VERIFY_SUBJECT'
p6409
S"'FLISOL 2012 - Salta Confirmaci\\xc3\\xb3n de Inscripci\\xc3\\xb3n'"
p6410
sS'IS_NOT_IN_DB'
p6411
S"<class 'gluon.validators.IS_NOT_IN_DB'>"
p6412
sS'require_address'
p6413
S'<function require_address>'
p6414
sS'DEV_TEST'
p6415
g1949
sg4616
S"<Storage {'body': <cStringIO.StringO object at 0...da> at 0x209b2a8>, 'view': 'default/index.html'}>"
p6416
sS'THEAD'
p6417
S"<class 'gluon.html.THEAD'>"
p6418
sS'crud'
p6419
S'<gluon.tools.Crud object>'
p6420
sS'ENABLE_TALKS'
p6421
g1949
sS'IS_NULL_OR'
p6422
S"<class 'gluon.validators.IS_EMPTY_OR'>"
p6423
sS'I'
S"<class 'gluon.html.I'>"
p6424
sS'EARLYBIRD_DATE'
p6425
S'datetime.datetime(2009, 2, 22, 6, 0)'
p6426
sS'TALK_LEVELS'
p6427
S"(<lazyT 'Beginner'>, <lazyT 'Intermediate'>, <lazyT 'Advanced'>)"
p6428
sg56
S"<Storage {'body': <open file '<fdopen>', mode 'w... {}>, 'post_vars': <Storage {'action': 'edit'}>}>"
p6429
sS'IS_EXPR'
p6430
S"<class 'gluon.validators.IS_EXPR'>"
p6431
sS'email_fa_select'
p6432
S'<function email_fa_select>'
p6433
sS'GOOGLE_MERCHANT_ID'
p6434
S"''"
p6435
sS'IS_UPLOAD_FILENAME'
p6436
S"<class 'gluon.validators.IS_UPLOAD_FILENAME'>"
p6437
sS'time'
p6438
S"<module 'time' (built-in)>"
p6439
sS'IS_DECIMAL_IN_RANGE'
p6440
S"<class 'gluon.validators.IS_DECIMAL_IN_RANGE'>"
p6441
sS're'
p6442
S"<module 're' from '/usr/lib/python2.7/re.pyc'>"
p6443
sS'T'
S'<gluon.languages.translator object>'
p6444
sssS'traceback'
p6445
S'Traceback (most recent call last):\n  File "/home/marco/flisol2012/web2py/gluon/restricted.py", line 205, in restricted\n    exec ccode in environment\n  File "/home/marco/flisol2012/web2py/applications/flisol2012/models/menu.py", line 34, in <module>\n    response.menu.append([T(\'Stats\'),False,\'#\',submenu_info])\nNameError: name \'submenu_info\' is not defined\n'
p6446
s.