(dp1
S'output'
p2
S"<type 'exceptions.SyntaxError'> invalid syntax (menu.py, line 29)"
p3
sS'layer'
p4
S'/home/marco/flisol2012/web2py/applications/flisol2012/models/menu.py'
p5
sS'code'
p6
S"# coding: utf8\n\nsession.manager=(auth.user and auth.user.email in MANAGERS)\n\nresponse.menu=[[T('Main'),False,URL(r=request,c='default',f='index')]]\n\nif not auth.user:\n    response.menu.append([T('Register'),False,URL(r=request,c='default',f='registrar')])\n\nif CONFERENCE_URL:\n    response.menu.append([T('Conference'),False,CONFERENCE_URL])\nelse:\n    submenu_conf=[\n        [T('About'),True,URL(r=request,c='conference',f='about')],\n        [T('Venue'),True,URL(r=request,c='conference',f='venue')],\n        [T('Software'),True,URL(r=request,c='conference',f='software')],\n        [T('Schedule'),True,URL(r=request,c='conference',f='schedule')],\n        #[T('Communities'),True,URL(r=request,c='conference',f='communities')],\n        [T('Talk Proposals'),True,URL(r=request,c='conference',f='proposals')],\n        [T('Staff'),True,URL(r=request,c='conference',f='staff')],\n    ]\n    response.menu.append([T('Conference'),False,'#',submenu_conf])\n\n#submenu_info=[\n#        [T('Companies'),False,URL(r=request,c='default',f='companies')],\n#        [T('Attendees'),False,URL(r=request,c='default',f='attendees')],\n#        [T('Charts'),False,URL(r=request,c='default',f='charts')],\n#        [T('Maps'),False,URL(r=request,c='default',f='maps')],\n]\nif ENABLE_TALKS:\n   submenu_info.append([T('Accepted Talks'),False,URL(r=request,c='default',f='accepted_talks')])\n   submenu_info.append([T('Proposed Talks'),False,URL(r=request,c='default',f='proposed_talks')])\n\nresponse.menu.append([T('Stats'),False,'#',submenu_info])\nresponse.menu.append([T('About'),False,URL(r=request,c='default',f='about')])\n\nif auth.user:\n    response.menu.append([T('Expenses'),True,URL(r=request,c='expenses',f='index')])\n    response.menu.append([T('Profile'),False,URL(r=request,c='default',f='profile')])\n    response.menu.append([T('Logout'),False,URL(r=request,c='default',f='logout')])\nelse:\n    response.menu.append([T('Login'),False,URL(r=request,c='default',f='login')])\n\n#############################################\n# Insert Manage sub-menu item\n#############################################    \n\nif auth.user and session.manager:\n    submenu=[\n        [T('Financials'),False,URL(r=request,c='default',f='financials')],\n        [T('Payments'),False,URL(r=request,c='default',f='payments')],\n        # [T('CSV for Badges'),False,URL(r=request,c='default',f='badges')],\n        [T('Attendee Mail-List'),False, URL(r=request,c='default',f='maillist')],\n        [T('Badges'),False,URL(r=request,c='default',f='badge',args='auth_user')],\n        [T('Tutorials'),False,URL(r=request,c='default',f='list_by_tutorial')],\n        # [T('Tutorials+food'),False,URL(r=request,c='default',f='by_tutorial_csv')],\n        [T('FA-CSV'),False,URL(r=request,c='default',f='fa_csv')],\n        [T('FA-(email all)'),False,URL(r=request,c='default',f='fa_email_all')]\n    ]\n    submenu+=[['[%s]' % (table if not table[:3]=='t2_' else table[3:]),\n               False,t2.action('create',table)] for table in db.tables]\n    response.menu.append([T('Manage'),False,'#',submenu])\n\n#############################################\n# Insert Login and Logout menu items\n#############################################\n\nresponse.sidebar=[]\nif auth.user and ENABLE_TALKS:\n    talks=[(t.title,t2.action('display_talk',t.id)) \\\n           for t in db(db.talk.created_by==auth.user.id).select()]\n    talks.append((T('Propose talk'),URL(r=request,c='default',f='propose_talk')))\n    response.sidebar.append([T('Your Talks'),talks])\n"
p7
sS'snapshot'
p8
(dp9
S'exception'
p10
(dp11
S'__getslice__'
p12
S"<method-wrapper '__getslice__' of exceptions.SyntaxError object>"
p13
sS'text'
p14
S"']\\n'"
p15
sS'__str__'
p16
S"<method-wrapper '__str__' of exceptions.SyntaxError object>"
p17
sS'__reduce__'
p18
S'<built-in method __reduce__ of exceptions.SyntaxError object>'
p19
sS'__dict__'
p20
S'{}'
p21
sS'__sizeof__'
p22
S'<built-in method __sizeof__ of exceptions.SyntaxError object>'
p23
sS'__init__'
p24
S"<method-wrapper '__init__' of exceptions.SyntaxError object>"
p25
sS'__setattr__'
p26
S"<method-wrapper '__setattr__' of exceptions.SyntaxError object>"
p27
sS'__reduce_ex__'
p28
S'<built-in method __reduce_ex__ of exceptions.SyntaxError object>'
p29
sS'__new__'
p30
S'<built-in method __new__ of type object>'
p31
sS'__format__'
p32
S'<built-in method __format__ of exceptions.SyntaxError object>'
p33
sS'__class__'
p34
S"<type 'exceptions.SyntaxError'>"
p35
sS'filename'
p36
S"'/home/marco/flisol2012/web2py/applications/flisol2012/models/menu.py'"
p37
sS'lineno'
p38
S'29'
p39
sS'msg'
p40
S"'invalid syntax'"
p41
sS'__doc__'
p42
S"'Invalid syntax.'"
p43
sS'__getitem__'
p44
S"<method-wrapper '__getitem__' of exceptions.SyntaxError object>"
p45
sS'__setstate__'
p46
S'<built-in method __setstate__ of exceptions.SyntaxError object>'
p47
sS'__getattribute__'
p48
S"<method-wrapper '__getattribute__' of exceptions.SyntaxError object>"
p49
sS'print_file_and_line'
p50
S'None'
p51
sS'args'
p52
S"('invalid syntax', ('/home/marco/flisol2012/web2py/applications/flisol2012/models/menu.py', 29, 1, ']\\n'))"
p53
sS'__subclasshook__'
p54
S'<built-in method __subclasshook__ of type object>'
p55
sS'offset'
p56
S'1'
sS'__unicode__'
p57
S'<built-in method __unicode__ of exceptions.SyntaxError object>'
p58
sS'__delattr__'
p59
S"<method-wrapper '__delattr__' of exceptions.SyntaxError object>"
p60
sS'__repr__'
p61
S"<method-wrapper '__repr__' of exceptions.SyntaxError object>"
p62
sS'__hash__'
p63
S"<method-wrapper '__hash__' of exceptions.SyntaxError object>"
p64
ssS'evalue'
p65
S'invalid syntax (menu.py, line 29)'
p66
sS'request'
p67
ccopy_reg
_reconstructor
p68
(cgluon.html
BEAUTIFY
p69
c__builtin__
object
p70
NtRp71
(dp72
S'attributes'
p73
(dp74
sS'components'
p75
(lp76
g68
(cgluon.html
TABLE
p77
g70
NtRp78
(dp79
g73
(dp80
S'level'
p81
I5
ssS'parent'
p82
Nsg75
(lp83
g68
(cgluon.html
TR
p84
g70
NtRp85
(dp86
g73
(dp87
sg82
g78
sg75
(lp88
g68
(cgluon.html
TD
p89
g70
NtRp90
(dp91
g73
(dp92
S'_style'
p93
S'font-weight:bold;vertical-align:top'
p94
ssg82
g85
sg75
(lp95
S'ajax'
p96
asbag68
(g89
g70
NtRp97
(dp98
g73
(dp99
S'_valign'
p100
S'top'
p101
ssg82
g85
sg75
(lp102
S':'
asbag68
(g89
g70
NtRp103
(dp104
g73
(dp105
sg82
g85
sg75
(lp106
g68
(g69
g70
NtRp107
(dp108
g73
(dp109
g81
I5
ssg82
g103
sg75
(lp110
S'False'
p111
asbasbasbag68
(g84
g70
NtRp112
(dp113
g73
(dp114
sg82
g78
sg75
(lp115
g68
(g89
g70
NtRp116
(dp117
g73
(dp118
g93
g94
ssg82
g112
sg75
(lp119
S'application'
p120
asbag68
(g89
g70
NtRp121
(dp122
g73
(dp123
g100
g101
ssg82
g112
sg75
(lp124
S':'
asbag68
(g89
g70
NtRp125
(dp126
g73
(dp127
sg82
g112
sg75
(lp128
g68
(g69
g70
NtRp129
(dp130
g73
(dp131
g81
I5
ssg82
g125
sg75
(lp132
S'flisol2012'
p133
asbasbasbag68
(g84
g70
NtRp134
(dp135
g73
(dp136
sg82
g78
sg75
(lp137
g68
(g89
g70
NtRp138
(dp139
g73
(dp140
g93
g94
ssg82
g134
sg75
(lp141
g52
asbag68
(g89
g70
NtRp142
(dp143
g73
(dp144
g100
g101
ssg82
g134
sg75
(lp145
S':'
asbag68
(g89
g70
NtRp146
(dp147
g73
(dp148
sg82
g134
sg75
(lp149
g68
(g69
g70
NtRp150
(dp151
g73
(dp152
g81
I5
ssg82
g146
sg75
(lp153
g68
(g77
g70
NtRp154
(dp155
g73
(dp156
g81
I4
ssg82
Nsg75
(lp157
sbasbasbasbag68
(g84
g70
NtRp158
(dp159
g73
(dp160
sg82
g78
sg75
(lp161
g68
(g89
g70
NtRp162
(dp163
g73
(dp164
g93
g94
ssg82
g158
sg75
(lp165
S'body'
p166
asbag68
(g89
g70
NtRp167
(dp168
g73
(dp169
g100
g101
ssg82
g158
sg75
(lp170
S':'
asbag68
(g89
g70
NtRp171
(dp172
g73
(dp173
sg82
g158
sg75
(lp174
g68
(g69
g70
NtRp175
(dp176
g73
(dp177
g81
I5
ssg82
g171
sg75
(lp178
S"<open file '<fdopen>', mode 'w+b' at 0x23e7e40>"
p179
asbasbasbag68
(g84
g70
NtRp180
(dp181
g73
(dp182
sg82
g78
sg75
(lp183
g68
(g89
g70
NtRp184
(dp185
g73
(dp186
g93
g94
ssg82
g180
sg75
(lp187
S'client'
p188
asbag68
(g89
g70
NtRp189
(dp190
g73
(dp191
g100
g101
ssg82
g180
sg75
(lp192
S':'
asbag68
(g89
g70
NtRp193
(dp194
g73
(dp195
sg82
g180
sg75
(lp196
g68
(g69
g70
NtRp197
(dp198
g73
(dp199
g81
I5
ssg82
g193
sg75
(lp200
S'127.0.0.1'
p201
asbasbasbag68
(g84
g70
NtRp202
(dp203
g73
(dp204
sg82
g78
sg75
(lp205
g68
(g89
g70
NtRp206
(dp207
g73
(dp208
g93
g94
ssg82
g202
sg75
(lp209
S'controller'
p210
asbag68
(g89
g70
NtRp211
(dp212
g73
(dp213
g100
g101
ssg82
g202
sg75
(lp214
S':'
asbag68
(g89
g70
NtRp215
(dp216
g73
(dp217
sg82
g202
sg75
(lp218
g68
(g69
g70
NtRp219
(dp220
g73
(dp221
g81
I5
ssg82
g215
sg75
(lp222
S'default'
p223
asbasbasbag68
(g84
g70
NtRp224
(dp225
g73
(dp226
sg82
g78
sg75
(lp227
g68
(g89
g70
NtRp228
(dp229
g73
(dp230
g93
g94
ssg82
g224
sg75
(lp231
S'cookies'
p232
asbag68
(g89
g70
NtRp233
(dp234
g73
(dp235
g100
g101
ssg82
g224
sg75
(lp236
S':'
asbag68
(g89
g70
NtRp237
(dp238
g73
(dp239
sg82
g224
sg75
(lp240
g68
(g69
g70
NtRp241
(dp242
g73
(dp243
g81
I5
ssg82
g237
sg75
(lp244
g68
(g77
g70
NtRp245
(dp246
g73
(dp247
g81
I4
ssg82
Nsg75
(lp248
g68
(g84
g70
NtRp249
(dp250
g73
(dp251
sg82
g245
sg75
(lp252
g68
(g89
g70
NtRp253
(dp254
g73
(dp255
g93
g94
ssg82
g249
sg75
(lp256
S'session_id_admin'
p257
asbag68
(g89
g70
NtRp258
(dp259
g73
(dp260
g100
g101
ssg82
g249
sg75
(lp261
S':'
asbag68
(g89
g70
NtRp262
(dp263
g73
(dp264
sg82
g249
sg75
(lp265
g68
(g69
g70
NtRp266
(dp267
g73
(dp268
g81
I4
ssg82
g262
sg75
(lp269
g68
(g77
g70
NtRp270
(dp271
g73
(dp272
g81
I3
ssg82
Nsg75
(lp273
g68
(g84
g70
NtRp274
(dp275
g73
(dp276
sg82
g270
sg75
(lp277
g68
(g89
g70
NtRp278
(dp279
g73
(dp280
g93
g94
ssg82
g274
sg75
(lp281
S'comment'
p282
asbag68
(g89
g70
NtRp283
(dp284
g73
(dp285
g100
g101
ssg82
g274
sg75
(lp286
S':'
asbag68
(g89
g70
NtRp287
(dp288
g73
(dp289
sg82
g274
sg75
(lp290
g68
(g69
g70
NtRp291
(dp292
g73
(dp293
g81
I3
ssg82
g287
sg75
(lp294
S''
asbasbasbag68
(g84
g70
NtRp295
(dp296
g73
(dp297
sg82
g270
sg75
(lp298
g68
(g89
g70
NtRp299
(dp300
g73
(dp301
g93
g94
ssg82
g295
sg75
(lp302
S'domain'
p303
asbag68
(g89
g70
NtRp304
(dp305
g73
(dp306
g100
g101
ssg82
g295
sg75
(lp307
S':'
asbag68
(g89
g70
NtRp308
(dp309
g73
(dp310
sg82
g295
sg75
(lp311
g68
(g69
g70
NtRp312
(dp313
g73
(dp314
g81
I3
ssg82
g308
sg75
(lp315
S''
asbasbasbag68
(g84
g70
NtRp316
(dp317
g73
(dp318
sg82
g270
sg75
(lp319
g68
(g89
g70
NtRp320
(dp321
g73
(dp322
g93
g94
ssg82
g316
sg75
(lp323
S'expires'
p324
asbag68
(g89
g70
NtRp325
(dp326
g73
(dp327
g100
g101
ssg82
g316
sg75
(lp328
S':'
asbag68
(g89
g70
NtRp329
(dp330
g73
(dp331
sg82
g316
sg75
(lp332
g68
(g69
g70
NtRp333
(dp334
g73
(dp335
g81
I3
ssg82
g329
sg75
(lp336
S''
asbasbasbag68
(g84
g70
NtRp337
(dp338
g73
(dp339
sg82
g270
sg75
(lp340
g68
(g89
g70
NtRp341
(dp342
g73
(dp343
g93
g94
ssg82
g337
sg75
(lp344
S'httponly'
p345
asbag68
(g89
g70
NtRp346
(dp347
g73
(dp348
g100
g101
ssg82
g337
sg75
(lp349
S':'
asbag68
(g89
g70
NtRp350
(dp351
g73
(dp352
sg82
g337
sg75
(lp353
g68
(g69
g70
NtRp354
(dp355
g73
(dp356
g81
I3
ssg82
g350
sg75
(lp357
S''
asbasbasbag68
(g84
g70
NtRp358
(dp359
g73
(dp360
sg82
g270
sg75
(lp361
g68
(g89
g70
NtRp362
(dp363
g73
(dp364
g93
g94
ssg82
g358
sg75
(lp365
S'max-age'
p366
asbag68
(g89
g70
NtRp367
(dp368
g73
(dp369
g100
g101
ssg82
g358
sg75
(lp370
S':'
asbag68
(g89
g70
NtRp371
(dp372
g73
(dp373
sg82
g358
sg75
(lp374
g68
(g69
g70
NtRp375
(dp376
g73
(dp377
g81
I3
ssg82
g371
sg75
(lp378
S''
asbasbasbag68
(g84
g70
NtRp379
(dp380
g73
(dp381
sg82
g270
sg75
(lp382
g68
(g89
g70
NtRp383
(dp384
g73
(dp385
g93
g94
ssg82
g379
sg75
(lp386
S'path'
p387
asbag68
(g89
g70
NtRp388
(dp389
g73
(dp390
g100
g101
ssg82
g379
sg75
(lp391
S':'
asbag68
(g89
g70
NtRp392
(dp393
g73
(dp394
sg82
g379
sg75
(lp395
g68
(g69
g70
NtRp396
(dp397
g73
(dp398
g81
I3
ssg82
g392
sg75
(lp399
S''
asbasbasbag68
(g84
g70
NtRp400
(dp401
g73
(dp402
sg82
g270
sg75
(lp403
g68
(g89
g70
NtRp404
(dp405
g73
(dp406
g93
g94
ssg82
g400
sg75
(lp407
S'secure'
p408
asbag68
(g89
g70
NtRp409
(dp410
g73
(dp411
g100
g101
ssg82
g400
sg75
(lp412
S':'
asbag68
(g89
g70
NtRp413
(dp414
g73
(dp415
sg82
g400
sg75
(lp416
g68
(g69
g70
NtRp417
(dp418
g73
(dp419
g81
I3
ssg82
g413
sg75
(lp420
S''
asbasbasbag68
(g84
g70
NtRp421
(dp422
g73
(dp423
sg82
g270
sg75
(lp424
g68
(g89
g70
NtRp425
(dp426
g73
(dp427
g93
g94
ssg82
g421
sg75
(lp428
S'version'
p429
asbag68
(g89
g70
NtRp430
(dp431
g73
(dp432
g100
g101
ssg82
g421
sg75
(lp433
S':'
asbag68
(g89
g70
NtRp434
(dp435
g73
(dp436
sg82
g421
sg75
(lp437
g68
(g69
g70
NtRp438
(dp439
g73
(dp440
g81
I3
ssg82
g434
sg75
(lp441
S''
asbasbasbasbasbasbasbag68
(g84
g70
NtRp442
(dp443
g73
(dp444
sg82
g245
sg75
(lp445
g68
(g89
g70
NtRp446
(dp447
g73
(dp448
g93
g94
ssg82
g442
sg75
(lp449
S'session_id_flisol2012'
p450
asbag68
(g89
g70
NtRp451
(dp452
g73
(dp453
g100
g101
ssg82
g442
sg75
(lp454
S':'
asbag68
(g89
g70
NtRp455
(dp456
g73
(dp457
sg82
g442
sg75
(lp458
g68
(g69
g70
NtRp459
(dp460
g73
(dp461
g81
I4
ssg82
g455
sg75
(lp462
g68
(g77
g70
NtRp463
(dp464
g73
(dp465
g81
I3
ssg82
Nsg75
(lp466
g68
(g84
g70
NtRp467
(dp468
g73
(dp469
sg82
g463
sg75
(lp470
g68
(g89
g70
NtRp471
(dp472
g73
(dp473
g93
g94
ssg82
g467
sg75
(lp474
g282
asbag68
(g89
g70
NtRp475
(dp476
g73
(dp477
g100
g101
ssg82
g467
sg75
(lp478
S':'
asbag68
(g89
g70
NtRp479
(dp480
g73
(dp481
sg82
g467
sg75
(lp482
g68
(g69
g70
NtRp483
(dp484
g73
(dp485
g81
I3
ssg82
g479
sg75
(lp486
S''
asbasbasbag68
(g84
g70
NtRp487
(dp488
g73
(dp489
sg82
g463
sg75
(lp490
g68
(g89
g70
NtRp491
(dp492
g73
(dp493
g93
g94
ssg82
g487
sg75
(lp494
g303
asbag68
(g89
g70
NtRp495
(dp496
g73
(dp497
g100
g101
ssg82
g487
sg75
(lp498
S':'
asbag68
(g89
g70
NtRp499
(dp500
g73
(dp501
sg82
g487
sg75
(lp502
g68
(g69
g70
NtRp503
(dp504
g73
(dp505
g81
I3
ssg82
g499
sg75
(lp506
S''
asbasbasbag68
(g84
g70
NtRp507
(dp508
g73
(dp509
sg82
g463
sg75
(lp510
g68
(g89
g70
NtRp511
(dp512
g73
(dp513
g93
g94
ssg82
g507
sg75
(lp514
g324
asbag68
(g89
g70
NtRp515
(dp516
g73
(dp517
g100
g101
ssg82
g507
sg75
(lp518
S':'
asbag68
(g89
g70
NtRp519
(dp520
g73
(dp521
sg82
g507
sg75
(lp522
g68
(g69
g70
NtRp523
(dp524
g73
(dp525
g81
I3
ssg82
g519
sg75
(lp526
S''
asbasbasbag68
(g84
g70
NtRp527
(dp528
g73
(dp529
sg82
g463
sg75
(lp530
g68
(g89
g70
NtRp531
(dp532
g73
(dp533
g93
g94
ssg82
g527
sg75
(lp534
g345
asbag68
(g89
g70
NtRp535
(dp536
g73
(dp537
g100
g101
ssg82
g527
sg75
(lp538
S':'
asbag68
(g89
g70
NtRp539
(dp540
g73
(dp541
sg82
g527
sg75
(lp542
g68
(g69
g70
NtRp543
(dp544
g73
(dp545
g81
I3
ssg82
g539
sg75
(lp546
S''
asbasbasbag68
(g84
g70
NtRp547
(dp548
g73
(dp549
sg82
g463
sg75
(lp550
g68
(g89
g70
NtRp551
(dp552
g73
(dp553
g93
g94
ssg82
g547
sg75
(lp554
g366
asbag68
(g89
g70
NtRp555
(dp556
g73
(dp557
g100
g101
ssg82
g547
sg75
(lp558
S':'
asbag68
(g89
g70
NtRp559
(dp560
g73
(dp561
sg82
g547
sg75
(lp562
g68
(g69
g70
NtRp563
(dp564
g73
(dp565
g81
I3
ssg82
g559
sg75
(lp566
S''
asbasbasbag68
(g84
g70
NtRp567
(dp568
g73
(dp569
sg82
g463
sg75
(lp570
g68
(g89
g70
NtRp571
(dp572
g73
(dp573
g93
g94
ssg82
g567
sg75
(lp574
g387
asbag68
(g89
g70
NtRp575
(dp576
g73
(dp577
g100
g101
ssg82
g567
sg75
(lp578
S':'
asbag68
(g89
g70
NtRp579
(dp580
g73
(dp581
sg82
g567
sg75
(lp582
g68
(g69
g70
NtRp583
(dp584
g73
(dp585
g81
I3
ssg82
g579
sg75
(lp586
S''
asbasbasbag68
(g84
g70
NtRp587
(dp588
g73
(dp589
sg82
g463
sg75
(lp590
g68
(g89
g70
NtRp591
(dp592
g73
(dp593
g93
g94
ssg82
g587
sg75
(lp594
g408
asbag68
(g89
g70
NtRp595
(dp596
g73
(dp597
g100
g101
ssg82
g587
sg75
(lp598
S':'
asbag68
(g89
g70
NtRp599
(dp600
g73
(dp601
sg82
g587
sg75
(lp602
g68
(g69
g70
NtRp603
(dp604
g73
(dp605
g81
I3
ssg82
g599
sg75
(lp606
S''
asbasbasbag68
(g84
g70
NtRp607
(dp608
g73
(dp609
sg82
g463
sg75
(lp610
g68
(g89
g70
NtRp611
(dp612
g73
(dp613
g93
g94
ssg82
g607
sg75
(lp614
g429
asbag68
(g89
g70
NtRp615
(dp616
g73
(dp617
g100
g101
ssg82
g607
sg75
(lp618
S':'
asbag68
(g89
g70
NtRp619
(dp620
g73
(dp621
sg82
g607
sg75
(lp622
g68
(g69
g70
NtRp623
(dp624
g73
(dp625
g81
I3
ssg82
g619
sg75
(lp626
S''
asbasbasbasbasbasbasbag68
(g84
g70
NtRp627
(dp628
g73
(dp629
sg82
g245
sg75
(lp630
g68
(g89
g70
NtRp631
(dp632
g73
(dp633
g93
g94
ssg82
g627
sg75
(lp634
S'session_id_reingart'
p635
asbag68
(g89
g70
NtRp636
(dp637
g73
(dp638
g100
g101
ssg82
g627
sg75
(lp639
S':'
asbag68
(g89
g70
NtRp640
(dp641
g73
(dp642
sg82
g627
sg75
(lp643
g68
(g69
g70
NtRp644
(dp645
g73
(dp646
g81
I4
ssg82
g640
sg75
(lp647
g68
(g77
g70
NtRp648
(dp649
g73
(dp650
g81
I3
ssg82
Nsg75
(lp651
g68
(g84
g70
NtRp652
(dp653
g73
(dp654
sg82
g648
sg75
(lp655
g68
(g89
g70
NtRp656
(dp657
g73
(dp658
g93
g94
ssg82
g652
sg75
(lp659
g282
asbag68
(g89
g70
NtRp660
(dp661
g73
(dp662
g100
g101
ssg82
g652
sg75
(lp663
S':'
asbag68
(g89
g70
NtRp664
(dp665
g73
(dp666
sg82
g652
sg75
(lp667
g68
(g69
g70
NtRp668
(dp669
g73
(dp670
g81
I3
ssg82
g664
sg75
(lp671
S''
asbasbasbag68
(g84
g70
NtRp672
(dp673
g73
(dp674
sg82
g648
sg75
(lp675
g68
(g89
g70
NtRp676
(dp677
g73
(dp678
g93
g94
ssg82
g672
sg75
(lp679
g303
asbag68
(g89
g70
NtRp680
(dp681
g73
(dp682
g100
g101
ssg82
g672
sg75
(lp683
S':'
asbag68
(g89
g70
NtRp684
(dp685
g73
(dp686
sg82
g672
sg75
(lp687
g68
(g69
g70
NtRp688
(dp689
g73
(dp690
g81
I3
ssg82
g684
sg75
(lp691
S''
asbasbasbag68
(g84
g70
NtRp692
(dp693
g73
(dp694
sg82
g648
sg75
(lp695
g68
(g89
g70
NtRp696
(dp697
g73
(dp698
g93
g94
ssg82
g692
sg75
(lp699
g324
asbag68
(g89
g70
NtRp700
(dp701
g73
(dp702
g100
g101
ssg82
g692
sg75
(lp703
S':'
asbag68
(g89
g70
NtRp704
(dp705
g73
(dp706
sg82
g692
sg75
(lp707
g68
(g69
g70
NtRp708
(dp709
g73
(dp710
g81
I3
ssg82
g704
sg75
(lp711
S''
asbasbasbag68
(g84
g70
NtRp712
(dp713
g73
(dp714
sg82
g648
sg75
(lp715
g68
(g89
g70
NtRp716
(dp717
g73
(dp718
g93
g94
ssg82
g712
sg75
(lp719
g345
asbag68
(g89
g70
NtRp720
(dp721
g73
(dp722
g100
g101
ssg82
g712
sg75
(lp723
S':'
asbag68
(g89
g70
NtRp724
(dp725
g73
(dp726
sg82
g712
sg75
(lp727
g68
(g69
g70
NtRp728
(dp729
g73
(dp730
g81
I3
ssg82
g724
sg75
(lp731
S''
asbasbasbag68
(g84
g70
NtRp732
(dp733
g73
(dp734
sg82
g648
sg75
(lp735
g68
(g89
g70
NtRp736
(dp737
g73
(dp738
g93
g94
ssg82
g732
sg75
(lp739
g366
asbag68
(g89
g70
NtRp740
(dp741
g73
(dp742
g100
g101
ssg82
g732
sg75
(lp743
S':'
asbag68
(g89
g70
NtRp744
(dp745
g73
(dp746
sg82
g732
sg75
(lp747
g68
(g69
g70
NtRp748
(dp749
g73
(dp750
g81
I3
ssg82
g744
sg75
(lp751
S''
asbasbasbag68
(g84
g70
NtRp752
(dp753
g73
(dp754
sg82
g648
sg75
(lp755
g68
(g89
g70
NtRp756
(dp757
g73
(dp758
g93
g94
ssg82
g752
sg75
(lp759
g387
asbag68
(g89
g70
NtRp760
(dp761
g73
(dp762
g100
g101
ssg82
g752
sg75
(lp763
S':'
asbag68
(g89
g70
NtRp764
(dp765
g73
(dp766
sg82
g752
sg75
(lp767
g68
(g69
g70
NtRp768
(dp769
g73
(dp770
g81
I3
ssg82
g764
sg75
(lp771
S''
asbasbasbag68
(g84
g70
NtRp772
(dp773
g73
(dp774
sg82
g648
sg75
(lp775
g68
(g89
g70
NtRp776
(dp777
g73
(dp778
g93
g94
ssg82
g772
sg75
(lp779
g408
asbag68
(g89
g70
NtRp780
(dp781
g73
(dp782
g100
g101
ssg82
g772
sg75
(lp783
S':'
asbag68
(g89
g70
NtRp784
(dp785
g73
(dp786
sg82
g772
sg75
(lp787
g68
(g69
g70
NtRp788
(dp789
g73
(dp790
g81
I3
ssg82
g784
sg75
(lp791
S''
asbasbasbag68
(g84
g70
NtRp792
(dp793
g73
(dp794
sg82
g648
sg75
(lp795
g68
(g89
g70
NtRp796
(dp797
g73
(dp798
g93
g94
ssg82
g792
sg75
(lp799
g429
asbag68
(g89
g70
NtRp800
(dp801
g73
(dp802
g100
g101
ssg82
g792
sg75
(lp803
S':'
asbag68
(g89
g70
NtRp804
(dp805
g73
(dp806
sg82
g792
sg75
(lp807
g68
(g69
g70
NtRp808
(dp809
g73
(dp810
g81
I3
ssg82
g804
sg75
(lp811
S''
asbasbasbasbasbasbasbag68
(g84
g70
NtRp812
(dp813
g73
(dp814
sg82
g245
sg75
(lp815
g68
(g89
g70
NtRp816
(dp817
g73
(dp818
g93
g94
ssg82
g812
sg75
(lp819
S'session_id_welcome'
p820
asbag68
(g89
g70
NtRp821
(dp822
g73
(dp823
g100
g101
ssg82
g812
sg75
(lp824
S':'
asbag68
(g89
g70
NtRp825
(dp826
g73
(dp827
sg82
g812
sg75
(lp828
g68
(g69
g70
NtRp829
(dp830
g73
(dp831
g81
I4
ssg82
g825
sg75
(lp832
g68
(g77
g70
NtRp833
(dp834
g73
(dp835
g81
I3
ssg82
Nsg75
(lp836
g68
(g84
g70
NtRp837
(dp838
g73
(dp839
sg82
g833
sg75
(lp840
g68
(g89
g70
NtRp841
(dp842
g73
(dp843
g93
g94
ssg82
g837
sg75
(lp844
g282
asbag68
(g89
g70
NtRp845
(dp846
g73
(dp847
g100
g101
ssg82
g837
sg75
(lp848
S':'
asbag68
(g89
g70
NtRp849
(dp850
g73
(dp851
sg82
g837
sg75
(lp852
g68
(g69
g70
NtRp853
(dp854
g73
(dp855
g81
I3
ssg82
g849
sg75
(lp856
S''
asbasbasbag68
(g84
g70
NtRp857
(dp858
g73
(dp859
sg82
g833
sg75
(lp860
g68
(g89
g70
NtRp861
(dp862
g73
(dp863
g93
g94
ssg82
g857
sg75
(lp864
g303
asbag68
(g89
g70
NtRp865
(dp866
g73
(dp867
g100
g101
ssg82
g857
sg75
(lp868
S':'
asbag68
(g89
g70
NtRp869
(dp870
g73
(dp871
sg82
g857
sg75
(lp872
g68
(g69
g70
NtRp873
(dp874
g73
(dp875
g81
I3
ssg82
g869
sg75
(lp876
S''
asbasbasbag68
(g84
g70
NtRp877
(dp878
g73
(dp879
sg82
g833
sg75
(lp880
g68
(g89
g70
NtRp881
(dp882
g73
(dp883
g93
g94
ssg82
g877
sg75
(lp884
g324
asbag68
(g89
g70
NtRp885
(dp886
g73
(dp887
g100
g101
ssg82
g877
sg75
(lp888
S':'
asbag68
(g89
g70
NtRp889
(dp890
g73
(dp891
sg82
g877
sg75
(lp892
g68
(g69
g70
NtRp893
(dp894
g73
(dp895
g81
I3
ssg82
g889
sg75
(lp896
S''
asbasbasbag68
(g84
g70
NtRp897
(dp898
g73
(dp899
sg82
g833
sg75
(lp900
g68
(g89
g70
NtRp901
(dp902
g73
(dp903
g93
g94
ssg82
g897
sg75
(lp904
g345
asbag68
(g89
g70
NtRp905
(dp906
g73
(dp907
g100
g101
ssg82
g897
sg75
(lp908
S':'
asbag68
(g89
g70
NtRp909
(dp910
g73
(dp911
sg82
g897
sg75
(lp912
g68
(g69
g70
NtRp913
(dp914
g73
(dp915
g81
I3
ssg82
g909
sg75
(lp916
S''
asbasbasbag68
(g84
g70
NtRp917
(dp918
g73
(dp919
sg82
g833
sg75
(lp920
g68
(g89
g70
NtRp921
(dp922
g73
(dp923
g93
g94
ssg82
g917
sg75
(lp924
g366
asbag68
(g89
g70
NtRp925
(dp926
g73
(dp927
g100
g101
ssg82
g917
sg75
(lp928
S':'
asbag68
(g89
g70
NtRp929
(dp930
g73
(dp931
sg82
g917
sg75
(lp932
g68
(g69
g70
NtRp933
(dp934
g73
(dp935
g81
I3
ssg82
g929
sg75
(lp936
S''
asbasbasbag68
(g84
g70
NtRp937
(dp938
g73
(dp939
sg82
g833
sg75
(lp940
g68
(g89
g70
NtRp941
(dp942
g73
(dp943
g93
g94
ssg82
g937
sg75
(lp944
g387
asbag68
(g89
g70
NtRp945
(dp946
g73
(dp947
g100
g101
ssg82
g937
sg75
(lp948
S':'
asbag68
(g89
g70
NtRp949
(dp950
g73
(dp951
sg82
g937
sg75
(lp952
g68
(g69
g70
NtRp953
(dp954
g73
(dp955
g81
I3
ssg82
g949
sg75
(lp956
S''
asbasbasbag68
(g84
g70
NtRp957
(dp958
g73
(dp959
sg82
g833
sg75
(lp960
g68
(g89
g70
NtRp961
(dp962
g73
(dp963
g93
g94
ssg82
g957
sg75
(lp964
g408
asbag68
(g89
g70
NtRp965
(dp966
g73
(dp967
g100
g101
ssg82
g957
sg75
(lp968
S':'
asbag68
(g89
g70
NtRp969
(dp970
g73
(dp971
sg82
g957
sg75
(lp972
g68
(g69
g70
NtRp973
(dp974
g73
(dp975
g81
I3
ssg82
g969
sg75
(lp976
S''
asbasbasbag68
(g84
g70
NtRp977
(dp978
g73
(dp979
sg82
g833
sg75
(lp980
g68
(g89
g70
NtRp981
(dp982
g73
(dp983
g93
g94
ssg82
g977
sg75
(lp984
g429
asbag68
(g89
g70
NtRp985
(dp986
g73
(dp987
g100
g101
ssg82
g977
sg75
(lp988
S':'
asbag68
(g89
g70
NtRp989
(dp990
g73
(dp991
sg82
g977
sg75
(lp992
g68
(g69
g70
NtRp993
(dp994
g73
(dp995
g81
I3
ssg82
g989
sg75
(lp996
S''
asbasbasbasbasbasbasbasbasbasbasbag68
(g84
g70
NtRp997
(dp998
g73
(dp999
sg82
g78
sg75
(lp1000
g68
(g89
g70
NtRp1001
(dp1002
g73
(dp1003
g93
g94
ssg82
g997
sg75
(lp1004
S'env'
p1005
asbag68
(g89
g70
NtRp1006
(dp1007
g73
(dp1008
g100
g101
ssg82
g997
sg75
(lp1009
S':'
asbag68
(g89
g70
NtRp1010
(dp1011
g73
(dp1012
sg82
g997
sg75
(lp1013
g68
(g69
g70
NtRp1014
(dp1015
g73
(dp1016
g81
I5
ssg82
g1010
sg75
(lp1017
g68
(g77
g70
NtRp1018
(dp1019
g73
(dp1020
g81
I4
ssg82
Nsg75
(lp1021
g68
(g84
g70
NtRp1022
(dp1023
g73
(dp1024
sg82
g1018
sg75
(lp1025
g68
(g89
g70
NtRp1026
(dp1027
g73
(dp1028
g93
g94
ssg82
g1022
sg75
(lp1029
S'app_folders'
p1030
asbag68
(g89
g70
NtRp1031
(dp1032
g73
(dp1033
g100
g101
ssg82
g1022
sg75
(lp1034
S':'
asbag68
(g89
g70
NtRp1035
(dp1036
g73
(dp1037
sg82
g1022
sg75
(lp1038
g68
(g69
g70
NtRp1039
(dp1040
g73
(dp1041
g81
I4
ssg82
g1035
sg75
(lp1042
S"set(['/home/marco/flisol2012/web2py/applications/welcome/', '/home/marco/flisol2012/web2py/applications/flisol2012/', '/home/marco/flisol2012/web2py/applications/admin/'])"
p1043
asbasbasbag68
(g84
g70
NtRp1044
(dp1045
g73
(dp1046
sg82
g1018
sg75
(lp1047
g68
(g89
g70
NtRp1048
(dp1049
g73
(dp1050
g93
g94
ssg82
g1044
sg75
(lp1051
S'applications_parent'
p1052
asbag68
(g89
g70
NtRp1053
(dp1054
g73
(dp1055
g100
g101
ssg82
g1044
sg75
(lp1056
S':'
asbag68
(g89
g70
NtRp1057
(dp1058
g73
(dp1059
sg82
g1044
sg75
(lp1060
g68
(g69
g70
NtRp1061
(dp1062
g73
(dp1063
g81
I4
ssg82
g1057
sg75
(lp1064
S'/home/marco/flisol2012/web2py'
p1065
asbasbasbag68
(g84
g70
NtRp1066
(dp1067
g73
(dp1068
sg82
g1018
sg75
(lp1069
g68
(g89
g70
NtRp1070
(dp1071
g73
(dp1072
g93
g94
ssg82
g1066
sg75
(lp1073
S'cmd_args'
p1074
asbag68
(g89
g70
NtRp1075
(dp1076
g73
(dp1077
g100
g101
ssg82
g1066
sg75
(lp1078
S':'
asbag68
(g89
g70
NtRp1079
(dp1080
g73
(dp1081
sg82
g1066
sg75
(lp1082
g68
(g69
g70
NtRp1083
(dp1084
g73
(dp1085
g81
I4
ssg82
g1079
sg75
(lp1086
g68
(g77
g70
NtRp1087
(dp1088
g73
(dp1089
g81
I3
ssg82
Nsg75
(lp1090
sbasbasbasbag68
(g84
g70
NtRp1091
(dp1092
g73
(dp1093
sg82
g1018
sg75
(lp1094
g68
(g89
g70
NtRp1095
(dp1096
g73
(dp1097
g93
g94
ssg82
g1091
sg75
(lp1098
S'cmd_options'
p1099
asbag68
(g89
g70
NtRp1100
(dp1101
g73
(dp1102
g100
g101
ssg82
g1091
sg75
(lp1103
S':'
asbag68
(g89
g70
NtRp1104
(dp1105
g73
(dp1106
sg82
g1091
sg75
(lp1107
g68
(g69
g70
NtRp1108
(dp1109
g73
(dp1110
g81
I4
ssg82
g1104
sg75
(lp1111
S"<Values at 0x1bd6908: {'verbose': False, 'ip': '127.0.0.1', 'shutdown_timeout': 5, 'taskbar': False, 'nocron': False, 'pid_filename': 'httpserver.pid', 'maxthreads': None, 'softcron': False, 'server_name': 'malena', 'bpython': False, 'nogui': False, 'port': 8000, 'extcron': False, 'debuglevel': 30, 'test': None, 'folder': '/home/marco/flisol2012/web2py', 'config': '', 'import_models': False, 'winservice': '', 'shell': None, 'run': '', 'log_filename': 'httpserver.log', 'args': [''], 'socket_timeout': 5, 'ssl_ca_certificate': None, 'scheduler': None, 'profiler_filename': None, 'ssl_private_key': '', 'password': 'asd', 'request_queue_size': 5, 'ssl_certificate': '', 'cronjob': False, 'numthreads': None, 'quiet': False, 'interfaces': None, 'minthreads': None, 'timeout': 10, 'plain': False, 'nobanner': False}>"
p1112
asbasbasbag68
(g84
g70
NtRp1113
(dp1114
g73
(dp1115
sg82
g1018
sg75
(lp1116
g68
(g89
g70
NtRp1117
(dp1118
g73
(dp1119
g93
g94
ssg82
g1113
sg75
(lp1120
S'content_length'
p1121
asbag68
(g89
g70
NtRp1122
(dp1123
g73
(dp1124
g100
g101
ssg82
g1113
sg75
(lp1125
S':'
asbag68
(g89
g70
NtRp1126
(dp1127
g73
(dp1128
sg82
g1113
sg75
(lp1129
g68
(g69
g70
NtRp1130
(dp1131
g73
(dp1132
g81
I4
ssg82
g1126
sg75
(lp1133
S'175'
p1134
asbasbasbag68
(g84
g70
NtRp1135
(dp1136
g73
(dp1137
sg82
g1018
sg75
(lp1138
g68
(g89
g70
NtRp1139
(dp1140
g73
(dp1141
g93
g94
ssg82
g1135
sg75
(lp1142
S'content_type'
p1143
asbag68
(g89
g70
NtRp1144
(dp1145
g73
(dp1146
g100
g101
ssg82
g1135
sg75
(lp1147
S':'
asbag68
(g89
g70
NtRp1148
(dp1149
g73
(dp1150
sg82
g1135
sg75
(lp1151
g68
(g69
g70
NtRp1152
(dp1153
g73
(dp1154
g81
I4
ssg82
g1148
sg75
(lp1155
S'multipart/form-data; boundary=---------------------------9080686971422318609248868733'
p1156
asbasbasbag68
(g84
g70
NtRp1157
(dp1158
g73
(dp1159
sg82
g1018
sg75
(lp1160
g68
(g89
g70
NtRp1161
(dp1162
g73
(dp1163
g93
g94
ssg82
g1157
sg75
(lp1164
S'db_sessions'
p1165
asbag68
(g89
g70
NtRp1166
(dp1167
g73
(dp1168
g100
g101
ssg82
g1157
sg75
(lp1169
S':'
asbag68
(g89
g70
NtRp1170
(dp1171
g73
(dp1172
sg82
g1157
sg75
(lp1173
g68
(g69
g70
NtRp1174
(dp1175
g73
(dp1176
g81
I4
ssg82
g1170
sg75
(lp1177
S'set([])'
p1178
asbasbasbag68
(g84
g70
NtRp1179
(dp1180
g73
(dp1181
sg82
g1018
sg75
(lp1182
g68
(g89
g70
NtRp1183
(dp1184
g73
(dp1185
g93
g94
ssg82
g1179
sg75
(lp1186
S'debugging'
p1187
asbag68
(g89
g70
NtRp1188
(dp1189
g73
(dp1190
g100
g101
ssg82
g1179
sg75
(lp1191
S':'
asbag68
(g89
g70
NtRp1192
(dp1193
g73
(dp1194
sg82
g1179
sg75
(lp1195
g68
(g69
g70
NtRp1196
(dp1197
g73
(dp1198
g81
I4
ssg82
g1192
sg75
(lp1199
g111
asbasbasbag68
(g84
g70
NtRp1200
(dp1201
g73
(dp1202
sg82
g1018
sg75
(lp1203
g68
(g89
g70
NtRp1204
(dp1205
g73
(dp1206
g93
g94
ssg82
g1200
sg75
(lp1207
S'gluon_parent'
p1208
asbag68
(g89
g70
NtRp1209
(dp1210
g73
(dp1211
g100
g101
ssg82
g1200
sg75
(lp1212
S':'
asbag68
(g89
g70
NtRp1213
(dp1214
g73
(dp1215
sg82
g1200
sg75
(lp1216
g68
(g69
g70
NtRp1217
(dp1218
g73
(dp1219
g81
I4
ssg82
g1213
sg75
(lp1220
S'/home/marco/flisol2012/web2py'
p1221
asbasbasbag68
(g84
g70
NtRp1222
(dp1223
g73
(dp1224
sg82
g1018
sg75
(lp1225
g68
(g89
g70
NtRp1226
(dp1227
g73
(dp1228
g93
g94
ssg82
g1222
sg75
(lp1229
S'http_accept'
p1230
asbag68
(g89
g70
NtRp1231
(dp1232
g73
(dp1233
g100
g101
ssg82
g1222
sg75
(lp1234
S':'
asbag68
(g89
g70
NtRp1235
(dp1236
g73
(dp1237
sg82
g1222
sg75
(lp1238
g68
(g69
g70
NtRp1239
(dp1240
g73
(dp1241
g81
I4
ssg82
g1235
sg75
(lp1242
S'text/html,application/xhtml+xml,application/xml;q=0.9,*/*;q=0.8'
p1243
asbasbasbag68
(g84
g70
NtRp1244
(dp1245
g73
(dp1246
sg82
g1018
sg75
(lp1247
g68
(g89
g70
NtRp1248
(dp1249
g73
(dp1250
g93
g94
ssg82
g1244
sg75
(lp1251
S'http_accept_encoding'
p1252
asbag68
(g89
g70
NtRp1253
(dp1254
g73
(dp1255
g100
g101
ssg82
g1244
sg75
(lp1256
S':'
asbag68
(g89
g70
NtRp1257
(dp1258
g73
(dp1259
sg82
g1244
sg75
(lp1260
g68
(g69
g70
NtRp1261
(dp1262
g73
(dp1263
g81
I4
ssg82
g1257
sg75
(lp1264
S'gzip, deflate'
p1265
asbasbasbag68
(g84
g70
NtRp1266
(dp1267
g73
(dp1268
sg82
g1018
sg75
(lp1269
g68
(g89
g70
NtRp1270
(dp1271
g73
(dp1272
g93
g94
ssg82
g1266
sg75
(lp1273
S'http_accept_language'
p1274
asbag68
(g89
g70
NtRp1275
(dp1276
g73
(dp1277
g100
g101
ssg82
g1266
sg75
(lp1278
S':'
asbag68
(g89
g70
NtRp1279
(dp1280
g73
(dp1281
sg82
g1266
sg75
(lp1282
g68
(g69
g70
NtRp1283
(dp1284
g73
(dp1285
g81
I4
ssg82
g1279
sg75
(lp1286
S'es-ar,es;q=0.8,en-us;q=0.5,en;q=0.3'
p1287
asbasbasbag68
(g84
g70
NtRp1288
(dp1289
g73
(dp1290
sg82
g1018
sg75
(lp1291
g68
(g89
g70
NtRp1292
(dp1293
g73
(dp1294
g93
g94
ssg82
g1288
sg75
(lp1295
S'http_cache_control'
p1296
asbag68
(g89
g70
NtRp1297
(dp1298
g73
(dp1299
g100
g101
ssg82
g1288
sg75
(lp1300
S':'
asbag68
(g89
g70
NtRp1301
(dp1302
g73
(dp1303
sg82
g1288
sg75
(lp1304
g68
(g69
g70
NtRp1305
(dp1306
g73
(dp1307
g81
I4
ssg82
g1301
sg75
(lp1308
S'max-age=0'
p1309
asbasbasbag68
(g84
g70
NtRp1310
(dp1311
g73
(dp1312
sg82
g1018
sg75
(lp1313
g68
(g89
g70
NtRp1314
(dp1315
g73
(dp1316
g93
g94
ssg82
g1310
sg75
(lp1317
S'http_connection'
p1318
asbag68
(g89
g70
NtRp1319
(dp1320
g73
(dp1321
g100
g101
ssg82
g1310
sg75
(lp1322
S':'
asbag68
(g89
g70
NtRp1323
(dp1324
g73
(dp1325
sg82
g1310
sg75
(lp1326
g68
(g69
g70
NtRp1327
(dp1328
g73
(dp1329
g81
I4
ssg82
g1323
sg75
(lp1330
S'keep-alive'
p1331
asbasbasbag68
(g84
g70
NtRp1332
(dp1333
g73
(dp1334
sg82
g1018
sg75
(lp1335
g68
(g89
g70
NtRp1336
(dp1337
g73
(dp1338
g93
g94
ssg82
g1332
sg75
(lp1339
S'http_content_length'
p1340
asbag68
(g89
g70
NtRp1341
(dp1342
g73
(dp1343
g100
g101
ssg82
g1332
sg75
(lp1344
S':'
asbag68
(g89
g70
NtRp1345
(dp1346
g73
(dp1347
sg82
g1332
sg75
(lp1348
g68
(g69
g70
NtRp1349
(dp1350
g73
(dp1351
g81
I4
ssg82
g1345
sg75
(lp1352
g1134
asbasbasbag68
(g84
g70
NtRp1353
(dp1354
g73
(dp1355
sg82
g1018
sg75
(lp1356
g68
(g89
g70
NtRp1357
(dp1358
g73
(dp1359
g93
g94
ssg82
g1353
sg75
(lp1360
S'http_content_type'
p1361
asbag68
(g89
g70
NtRp1362
(dp1363
g73
(dp1364
g100
g101
ssg82
g1353
sg75
(lp1365
S':'
asbag68
(g89
g70
NtRp1366
(dp1367
g73
(dp1368
sg82
g1353
sg75
(lp1369
g68
(g69
g70
NtRp1370
(dp1371
g73
(dp1372
g81
I4
ssg82
g1366
sg75
(lp1373
g1156
asbasbasbag68
(g84
g70
NtRp1374
(dp1375
g73
(dp1376
sg82
g1018
sg75
(lp1377
g68
(g89
g70
NtRp1378
(dp1379
g73
(dp1380
g93
g94
ssg82
g1374
sg75
(lp1381
S'http_cookie'
p1382
asbag68
(g89
g70
NtRp1383
(dp1384
g73
(dp1385
g100
g101
ssg82
g1374
sg75
(lp1386
S':'
asbag68
(g89
g70
NtRp1387
(dp1388
g73
(dp1389
sg82
g1374
sg75
(lp1390
g68
(g69
g70
NtRp1391
(dp1392
g73
(dp1393
g81
I4
ssg82
g1387
sg75
(lp1394
S'__utma=96992031.1881515701.1331265087.1331309329.1331316385.4; __utmc=96992031; __utmz=96992031.1331265087.1.1.utmcsr=(direct)|utmccn=(direct)|utmcmd=(none); session_id_admin=127.0.0.1-9f819232-d34d-431b-a66d-efef7821a17b; session_id_reingart=127.0.0.1-c638efce-62e3-46b3-bb1a-e04405c01702; session_id_flisol2012=127.0.0.1-2ede3a58-f97e-48e1-8d0e-90e5ecfe16bf; __utmb=96992031.98.10.1331316385; session_id_welcome=127.0.0.1-d9714dec-041d-4a2a-a113-75a39351e0db'
p1395
asbasbasbag68
(g84
g70
NtRp1396
(dp1397
g73
(dp1398
sg82
g1018
sg75
(lp1399
g68
(g89
g70
NtRp1400
(dp1401
g73
(dp1402
g93
g94
ssg82
g1396
sg75
(lp1403
S'http_host'
p1404
asbag68
(g89
g70
NtRp1405
(dp1406
g73
(dp1407
g100
g101
ssg82
g1396
sg75
(lp1408
S':'
asbag68
(g89
g70
NtRp1409
(dp1410
g73
(dp1411
sg82
g1396
sg75
(lp1412
g68
(g69
g70
NtRp1413
(dp1414
g73
(dp1415
g81
I4
ssg82
g1409
sg75
(lp1416
S'127.0.0.1:8000'
p1417
asbasbasbag68
(g84
g70
NtRp1418
(dp1419
g73
(dp1420
sg82
g1018
sg75
(lp1421
g68
(g89
g70
NtRp1422
(dp1423
g73
(dp1424
g93
g94
ssg82
g1418
sg75
(lp1425
S'http_referer'
p1426
asbag68
(g89
g70
NtRp1427
(dp1428
g73
(dp1429
g100
g101
ssg82
g1418
sg75
(lp1430
S':'
asbag68
(g89
g70
NtRp1431
(dp1432
g73
(dp1433
sg82
g1418
sg75
(lp1434
g68
(g69
g70
NtRp1435
(dp1436
g73
(dp1437
g81
I4
ssg82
g1431
sg75
(lp1438
S'http://127.0.0.1:8000/flisol2012/default/index'
p1439
asbasbasbag68
(g84
g70
NtRp1440
(dp1441
g73
(dp1442
sg82
g1018
sg75
(lp1443
g68
(g89
g70
NtRp1444
(dp1445
g73
(dp1446
g93
g94
ssg82
g1440
sg75
(lp1447
S'http_user_agent'
p1448
asbag68
(g89
g70
NtRp1449
(dp1450
g73
(dp1451
g100
g101
ssg82
g1440
sg75
(lp1452
S':'
asbag68
(g89
g70
NtRp1453
(dp1454
g73
(dp1455
sg82
g1440
sg75
(lp1456
g68
(g69
g70
NtRp1457
(dp1458
g73
(dp1459
g81
I4
ssg82
g1453
sg75
(lp1460
S'Mozilla/5.0 (X11; Linux x86_64; rv:11.0) Gecko/20100101 Firefox/11.0 Iceweasel/11.0'
p1461
asbasbasbag68
(g84
g70
NtRp1462
(dp1463
g73
(dp1464
sg82
g1018
sg75
(lp1465
g68
(g89
g70
NtRp1466
(dp1467
g73
(dp1468
g93
g94
ssg82
g1462
sg75
(lp1469
S'is_jython'
p1470
asbag68
(g89
g70
NtRp1471
(dp1472
g73
(dp1473
g100
g101
ssg82
g1462
sg75
(lp1474
S':'
asbag68
(g89
g70
NtRp1475
(dp1476
g73
(dp1477
sg82
g1462
sg75
(lp1478
g68
(g69
g70
NtRp1479
(dp1480
g73
(dp1481
g81
I4
ssg82
g1475
sg75
(lp1482
g111
asbasbasbag68
(g84
g70
NtRp1483
(dp1484
g73
(dp1485
sg82
g1018
sg75
(lp1486
g68
(g89
g70
NtRp1487
(dp1488
g73
(dp1489
g93
g94
ssg82
g1483
sg75
(lp1490
S'is_pypy'
p1491
asbag68
(g89
g70
NtRp1492
(dp1493
g73
(dp1494
g100
g101
ssg82
g1483
sg75
(lp1495
S':'
asbag68
(g89
g70
NtRp1496
(dp1497
g73
(dp1498
sg82
g1483
sg75
(lp1499
g68
(g69
g70
NtRp1500
(dp1501
g73
(dp1502
g81
I4
ssg82
g1496
sg75
(lp1503
g111
asbasbasbag68
(g84
g70
NtRp1504
(dp1505
g73
(dp1506
sg82
g1018
sg75
(lp1507
g68
(g89
g70
NtRp1508
(dp1509
g73
(dp1510
g93
g94
ssg82
g1504
sg75
(lp1511
S'path_info'
p1512
asbag68
(g89
g70
NtRp1513
(dp1514
g73
(dp1515
g100
g101
ssg82
g1504
sg75
(lp1516
S':'
asbag68
(g89
g70
NtRp1517
(dp1518
g73
(dp1519
sg82
g1504
sg75
(lp1520
g68
(g69
g70
NtRp1521
(dp1522
g73
(dp1523
g81
I4
ssg82
g1517
sg75
(lp1524
S'/flisol2012/default/index'
p1525
asbasbasbag68
(g84
g70
NtRp1526
(dp1527
g73
(dp1528
sg82
g1018
sg75
(lp1529
g68
(g89
g70
NtRp1530
(dp1531
g73
(dp1532
g93
g94
ssg82
g1526
sg75
(lp1533
S'query_string'
p1534
asbag68
(g89
g70
NtRp1535
(dp1536
g73
(dp1537
g100
g101
ssg82
g1526
sg75
(lp1538
S':'
asbag68
(g89
g70
NtRp1539
(dp1540
g73
(dp1541
sg82
g1526
sg75
(lp1542
g68
(g69
g70
NtRp1543
(dp1544
g73
(dp1545
g81
I4
ssg82
g1539
sg75
(lp1546
S''
asbasbasbag68
(g84
g70
NtRp1547
(dp1548
g73
(dp1549
sg82
g1018
sg75
(lp1550
g68
(g89
g70
NtRp1551
(dp1552
g73
(dp1553
g93
g94
ssg82
g1547
sg75
(lp1554
S'remote_addr'
p1555
asbag68
(g89
g70
NtRp1556
(dp1557
g73
(dp1558
g100
g101
ssg82
g1547
sg75
(lp1559
S':'
asbag68
(g89
g70
NtRp1560
(dp1561
g73
(dp1562
sg82
g1547
sg75
(lp1563
g68
(g69
g70
NtRp1564
(dp1565
g73
(dp1566
g81
I4
ssg82
g1560
sg75
(lp1567
g201
asbasbasbag68
(g84
g70
NtRp1568
(dp1569
g73
(dp1570
sg82
g1018
sg75
(lp1571
g68
(g89
g70
NtRp1572
(dp1573
g73
(dp1574
g93
g94
ssg82
g1568
sg75
(lp1575
S'remote_port'
p1576
asbag68
(g89
g70
NtRp1577
(dp1578
g73
(dp1579
g100
g101
ssg82
g1568
sg75
(lp1580
S':'
asbag68
(g89
g70
NtRp1581
(dp1582
g73
(dp1583
sg82
g1568
sg75
(lp1584
g68
(g69
g70
NtRp1585
(dp1586
g73
(dp1587
g81
I4
ssg82
g1581
sg75
(lp1588
S'40680'
p1589
asbasbasbag68
(g84
g70
NtRp1590
(dp1591
g73
(dp1592
sg82
g1018
sg75
(lp1593
g68
(g89
g70
NtRp1594
(dp1595
g73
(dp1596
g93
g94
ssg82
g1590
sg75
(lp1597
S'request_method'
p1598
asbag68
(g89
g70
NtRp1599
(dp1600
g73
(dp1601
g100
g101
ssg82
g1590
sg75
(lp1602
S':'
asbag68
(g89
g70
NtRp1603
(dp1604
g73
(dp1605
sg82
g1590
sg75
(lp1606
g68
(g69
g70
NtRp1607
(dp1608
g73
(dp1609
g81
I4
ssg82
g1603
sg75
(lp1610
S'POST'
p1611
asbasbasbag68
(g84
g70
NtRp1612
(dp1613
g73
(dp1614
sg82
g1018
sg75
(lp1615
g68
(g89
g70
NtRp1616
(dp1617
g73
(dp1618
g93
g94
ssg82
g1612
sg75
(lp1619
S'script_name'
p1620
asbag68
(g89
g70
NtRp1621
(dp1622
g73
(dp1623
g100
g101
ssg82
g1612
sg75
(lp1624
S':'
asbag68
(g89
g70
NtRp1625
(dp1626
g73
(dp1627
sg82
g1612
sg75
(lp1628
g68
(g69
g70
NtRp1629
(dp1630
g73
(dp1631
g81
I4
ssg82
g1625
sg75
(lp1632
S''
asbasbasbag68
(g84
g70
NtRp1633
(dp1634
g73
(dp1635
sg82
g1018
sg75
(lp1636
g68
(g89
g70
NtRp1637
(dp1638
g73
(dp1639
g93
g94
ssg82
g1633
sg75
(lp1640
S'server_name'
p1641
asbag68
(g89
g70
NtRp1642
(dp1643
g73
(dp1644
g100
g101
ssg82
g1633
sg75
(lp1645
S':'
asbag68
(g89
g70
NtRp1646
(dp1647
g73
(dp1648
sg82
g1633
sg75
(lp1649
g68
(g69
g70
NtRp1650
(dp1651
g73
(dp1652
g81
I4
ssg82
g1646
sg75
(lp1653
S'malena'
p1654
asbasbasbag68
(g84
g70
NtRp1655
(dp1656
g73
(dp1657
sg82
g1018
sg75
(lp1658
g68
(g89
g70
NtRp1659
(dp1660
g73
(dp1661
g93
g94
ssg82
g1655
sg75
(lp1662
S'server_port'
p1663
asbag68
(g89
g70
NtRp1664
(dp1665
g73
(dp1666
g100
g101
ssg82
g1655
sg75
(lp1667
S':'
asbag68
(g89
g70
NtRp1668
(dp1669
g73
(dp1670
sg82
g1655
sg75
(lp1671
g68
(g69
g70
NtRp1672
(dp1673
g73
(dp1674
g81
I4
ssg82
g1668
sg75
(lp1675
S'8000'
p1676
asbasbasbag68
(g84
g70
NtRp1677
(dp1678
g73
(dp1679
sg82
g1018
sg75
(lp1680
g68
(g89
g70
NtRp1681
(dp1682
g73
(dp1683
g93
g94
ssg82
g1677
sg75
(lp1684
S'server_protocol'
p1685
asbag68
(g89
g70
NtRp1686
(dp1687
g73
(dp1688
g100
g101
ssg82
g1677
sg75
(lp1689
S':'
asbag68
(g89
g70
NtRp1690
(dp1691
g73
(dp1692
sg82
g1677
sg75
(lp1693
g68
(g69
g70
NtRp1694
(dp1695
g73
(dp1696
g81
I4
ssg82
g1690
sg75
(lp1697
S'HTTP/1.1'
p1698
asbasbasbag68
(g84
g70
NtRp1699
(dp1700
g73
(dp1701
sg82
g1018
sg75
(lp1702
g68
(g89
g70
NtRp1703
(dp1704
g73
(dp1705
g93
g94
ssg82
g1699
sg75
(lp1706
S'server_software'
p1707
asbag68
(g89
g70
NtRp1708
(dp1709
g73
(dp1710
g100
g101
ssg82
g1699
sg75
(lp1711
S':'
asbag68
(g89
g70
NtRp1712
(dp1713
g73
(dp1714
sg82
g1699
sg75
(lp1715
g68
(g69
g70
NtRp1716
(dp1717
g73
(dp1718
g81
I4
ssg82
g1712
sg75
(lp1719
S'Rocket 1.2.4'
p1720
asbasbasbag68
(g84
g70
NtRp1721
(dp1722
g73
(dp1723
sg82
g1018
sg75
(lp1724
g68
(g89
g70
NtRp1725
(dp1726
g73
(dp1727
g93
g94
ssg82
g1721
sg75
(lp1728
S'web2py_crontype'
p1729
asbag68
(g89
g70
NtRp1730
(dp1731
g73
(dp1732
g100
g101
ssg82
g1721
sg75
(lp1733
S':'
asbag68
(g89
g70
NtRp1734
(dp1735
g73
(dp1736
sg82
g1721
sg75
(lp1737
g68
(g69
g70
NtRp1738
(dp1739
g73
(dp1740
g81
I4
ssg82
g1734
sg75
(lp1741
S'hard'
p1742
asbasbasbag68
(g84
g70
NtRp1743
(dp1744
g73
(dp1745
sg82
g1018
sg75
(lp1746
g68
(g89
g70
NtRp1747
(dp1748
g73
(dp1749
g93
g94
ssg82
g1743
sg75
(lp1750
S'web2py_path'
p1751
asbag68
(g89
g70
NtRp1752
(dp1753
g73
(dp1754
g100
g101
ssg82
g1743
sg75
(lp1755
S':'
asbag68
(g89
g70
NtRp1756
(dp1757
g73
(dp1758
sg82
g1743
sg75
(lp1759
g68
(g69
g70
NtRp1760
(dp1761
g73
(dp1762
g81
I4
ssg82
g1756
sg75
(lp1763
g1065
asbasbasbag68
(g84
g70
NtRp1764
(dp1765
g73
(dp1766
sg82
g1018
sg75
(lp1767
g68
(g89
g70
NtRp1768
(dp1769
g73
(dp1770
g93
g94
ssg82
g1764
sg75
(lp1771
S'web2py_version'
p1772
asbag68
(g89
g70
NtRp1773
(dp1774
g73
(dp1775
g100
g101
ssg82
g1764
sg75
(lp1776
S':'
asbag68
(g89
g70
NtRp1777
(dp1778
g73
(dp1779
sg82
g1764
sg75
(lp1780
g68
(g69
g70
NtRp1781
(dp1782
g73
(dp1783
g81
I4
ssg82
g1777
sg75
(lp1784
g68
(g77
g70
NtRp1785
(dp1786
g73
(dp1787
g81
I3
ssg82
Nsg75
(lp1788
g68
(g84
g70
NtRp1789
(dp1790
g73
(dp1791
sg82
g1785
sg75
(lp1792
g68
(g89
g70
NtRp1793
(dp1794
g73
(dp1795
sg82
g1789
sg75
(lp1796
g68
(g69
g70
NtRp1797
(dp1798
g73
(dp1799
g81
I3
ssg82
g1793
sg75
(lp1800
S'1'
asbasbasbag68
(g84
g70
NtRp1801
(dp1802
g73
(dp1803
sg82
g1785
sg75
(lp1804
g68
(g89
g70
NtRp1805
(dp1806
g73
(dp1807
sg82
g1801
sg75
(lp1808
g68
(g69
g70
NtRp1809
(dp1810
g73
(dp1811
g81
I3
ssg82
g1805
sg75
(lp1812
S'99'
p1813
asbasbasbag68
(g84
g70
NtRp1814
(dp1815
g73
(dp1816
sg82
g1785
sg75
(lp1817
g68
(g89
g70
NtRp1818
(dp1819
g73
(dp1820
sg82
g1814
sg75
(lp1821
g68
(g69
g70
NtRp1822
(dp1823
g73
(dp1824
g81
I3
ssg82
g1818
sg75
(lp1825
S'7'
asbasbasbag68
(g84
g70
NtRp1826
(dp1827
g73
(dp1828
sg82
g1785
sg75
(lp1829
g68
(g89
g70
NtRp1830
(dp1831
g73
(dp1832
sg82
g1826
sg75
(lp1833
g68
(g69
g70
NtRp1834
(dp1835
g73
(dp1836
g81
I3
ssg82
g1830
sg75
(lp1837
S'datetime.datetime(2012, 3, 4, 22, 12, 8)'
p1838
asbasbasbag68
(g84
g70
NtRp1839
(dp1840
g73
(dp1841
sg82
g1785
sg75
(lp1842
g68
(g89
g70
NtRp1843
(dp1844
g73
(dp1845
sg82
g1839
sg75
(lp1846
g68
(g69
g70
NtRp1847
(dp1848
g73
(dp1849
g81
I3
ssg82
g1843
sg75
(lp1850
S'stable'
p1851
asbasbasbasbasbasbasbag68
(g84
g70
NtRp1852
(dp1853
g73
(dp1854
sg82
g1018
sg75
(lp1855
g68
(g89
g70
NtRp1856
(dp1857
g73
(dp1858
g93
g94
ssg82
g1852
sg75
(lp1859
S'wsgi_errors'
p1860
asbag68
(g89
g70
NtRp1861
(dp1862
g73
(dp1863
g100
g101
ssg82
g1852
sg75
(lp1864
S':'
asbag68
(g89
g70
NtRp1865
(dp1866
g73
(dp1867
sg82
g1852
sg75
(lp1868
g68
(g69
g70
NtRp1869
(dp1870
g73
(dp1871
g81
I4
ssg82
g1865
sg75
(lp1872
S"<open file '<stderr>', mode 'w' at 0x7f4f2366f270>"
p1873
asbasbasbag68
(g84
g70
NtRp1874
(dp1875
g73
(dp1876
sg82
g1018
sg75
(lp1877
g68
(g89
g70
NtRp1878
(dp1879
g73
(dp1880
g93
g94
ssg82
g1874
sg75
(lp1881
S'wsgi_file_wrapper'
p1882
asbag68
(g89
g70
NtRp1883
(dp1884
g73
(dp1885
g100
g101
ssg82
g1874
sg75
(lp1886
S':'
asbag68
(g89
g70
NtRp1887
(dp1888
g73
(dp1889
sg82
g1874
sg75
(lp1890
g68
(g69
g70
NtRp1891
(dp1892
g73
(dp1893
g81
I4
ssg82
g1887
sg75
(lp1894
S'<class wsgiref.util.FileWrapper at 0x1abc460>'
p1895
asbasbasbag68
(g84
g70
NtRp1896
(dp1897
g73
(dp1898
sg82
g1018
sg75
(lp1899
g68
(g89
g70
NtRp1900
(dp1901
g73
(dp1902
g93
g94
ssg82
g1896
sg75
(lp1903
S'wsgi_input'
p1904
asbag68
(g89
g70
NtRp1905
(dp1906
g73
(dp1907
g100
g101
ssg82
g1896
sg75
(lp1908
S':'
asbag68
(g89
g70
NtRp1909
(dp1910
g73
(dp1911
sg82
g1896
sg75
(lp1912
g68
(g69
g70
NtRp1913
(dp1914
g73
(dp1915
g81
I4
ssg82
g1909
sg75
(lp1916
S'<socket._fileobject object at 0x33b52d0>'
p1917
asbasbasbag68
(g84
g70
NtRp1918
(dp1919
g73
(dp1920
sg82
g1018
sg75
(lp1921
g68
(g89
g70
NtRp1922
(dp1923
g73
(dp1924
g93
g94
ssg82
g1918
sg75
(lp1925
S'wsgi_multiprocess'
p1926
asbag68
(g89
g70
NtRp1927
(dp1928
g73
(dp1929
g100
g101
ssg82
g1918
sg75
(lp1930
S':'
asbag68
(g89
g70
NtRp1931
(dp1932
g73
(dp1933
sg82
g1918
sg75
(lp1934
g68
(g69
g70
NtRp1935
(dp1936
g73
(dp1937
g81
I4
ssg82
g1931
sg75
(lp1938
g111
asbasbasbag68
(g84
g70
NtRp1939
(dp1940
g73
(dp1941
sg82
g1018
sg75
(lp1942
g68
(g89
g70
NtRp1943
(dp1944
g73
(dp1945
g93
g94
ssg82
g1939
sg75
(lp1946
S'wsgi_multithread'
p1947
asbag68
(g89
g70
NtRp1948
(dp1949
g73
(dp1950
g100
g101
ssg82
g1939
sg75
(lp1951
S':'
asbag68
(g89
g70
NtRp1952
(dp1953
g73
(dp1954
sg82
g1939
sg75
(lp1955
g68
(g69
g70
NtRp1956
(dp1957
g73
(dp1958
g81
I4
ssg82
g1952
sg75
(lp1959
S'True'
p1960
asbasbasbag68
(g84
g70
NtRp1961
(dp1962
g73
(dp1963
sg82
g1018
sg75
(lp1964
g68
(g89
g70
NtRp1965
(dp1966
g73
(dp1967
g93
g94
ssg82
g1961
sg75
(lp1968
S'wsgi_run_once'
p1969
asbag68
(g89
g70
NtRp1970
(dp1971
g73
(dp1972
g100
g101
ssg82
g1961
sg75
(lp1973
S':'
asbag68
(g89
g70
NtRp1974
(dp1975
g73
(dp1976
sg82
g1961
sg75
(lp1977
g68
(g69
g70
NtRp1978
(dp1979
g73
(dp1980
g81
I4
ssg82
g1974
sg75
(lp1981
g111
asbasbasbag68
(g84
g70
NtRp1982
(dp1983
g73
(dp1984
sg82
g1018
sg75
(lp1985
g68
(g89
g70
NtRp1986
(dp1987
g73
(dp1988
g93
g94
ssg82
g1982
sg75
(lp1989
S'wsgi_url_scheme'
p1990
asbag68
(g89
g70
NtRp1991
(dp1992
g73
(dp1993
g100
g101
ssg82
g1982
sg75
(lp1994
S':'
asbag68
(g89
g70
NtRp1995
(dp1996
g73
(dp1997
sg82
g1982
sg75
(lp1998
g68
(g69
g70
NtRp1999
(dp2000
g73
(dp2001
g81
I4
ssg82
g1995
sg75
(lp2002
S'http'
p2003
asbasbasbag68
(g84
g70
NtRp2004
(dp2005
g73
(dp2006
sg82
g1018
sg75
(lp2007
g68
(g89
g70
NtRp2008
(dp2009
g73
(dp2010
g93
g94
ssg82
g2004
sg75
(lp2011
S'wsgi_version'
p2012
asbag68
(g89
g70
NtRp2013
(dp2014
g73
(dp2015
g100
g101
ssg82
g2004
sg75
(lp2016
S':'
asbag68
(g89
g70
NtRp2017
(dp2018
g73
(dp2019
sg82
g2004
sg75
(lp2020
g68
(g69
g70
NtRp2021
(dp2022
g73
(dp2023
g81
I4
ssg82
g2017
sg75
(lp2024
g68
(g77
g70
NtRp2025
(dp2026
g73
(dp2027
g81
I3
ssg82
Nsg75
(lp2028
g68
(g84
g70
NtRp2029
(dp2030
g73
(dp2031
sg82
g2025
sg75
(lp2032
g68
(g89
g70
NtRp2033
(dp2034
g73
(dp2035
sg82
g2029
sg75
(lp2036
g68
(g69
g70
NtRp2037
(dp2038
g73
(dp2039
g81
I3
ssg82
g2033
sg75
(lp2040
S'1'
asbasbasbag68
(g84
g70
NtRp2041
(dp2042
g73
(dp2043
sg82
g2025
sg75
(lp2044
g68
(g89
g70
NtRp2045
(dp2046
g73
(dp2047
sg82
g2041
sg75
(lp2048
g68
(g69
g70
NtRp2049
(dp2050
g73
(dp2051
g81
I3
ssg82
g2045
sg75
(lp2052
S'0'
asbasbasbasbasbasbasbasbasbasbasbag68
(g84
g70
NtRp2053
(dp2054
g73
(dp2055
sg82
g78
sg75
(lp2056
g68
(g89
g70
NtRp2057
(dp2058
g73
(dp2059
g93
g94
ssg82
g2053
sg75
(lp2060
S'extension'
p2061
asbag68
(g89
g70
NtRp2062
(dp2063
g73
(dp2064
g100
g101
ssg82
g2053
sg75
(lp2065
S':'
asbag68
(g89
g70
NtRp2066
(dp2067
g73
(dp2068
sg82
g2053
sg75
(lp2069
g68
(g69
g70
NtRp2070
(dp2071
g73
(dp2072
g81
I5
ssg82
g2066
sg75
(lp2073
S'html'
p2074
asbasbasbag68
(g84
g70
NtRp2075
(dp2076
g73
(dp2077
sg82
g78
sg75
(lp2078
g68
(g89
g70
NtRp2079
(dp2080
g73
(dp2081
g93
g94
ssg82
g2075
sg75
(lp2082
S'folder'
p2083
asbag68
(g89
g70
NtRp2084
(dp2085
g73
(dp2086
g100
g101
ssg82
g2075
sg75
(lp2087
S':'
asbag68
(g89
g70
NtRp2088
(dp2089
g73
(dp2090
sg82
g2075
sg75
(lp2091
g68
(g69
g70
NtRp2092
(dp2093
g73
(dp2094
g81
I5
ssg82
g2088
sg75
(lp2095
S'/home/marco/flisol2012/web2py/applications/flisol2012/'
p2096
asbasbasbag68
(g84
g70
NtRp2097
(dp2098
g73
(dp2099
sg82
g78
sg75
(lp2100
g68
(g89
g70
NtRp2101
(dp2102
g73
(dp2103
g93
g94
ssg82
g2097
sg75
(lp2104
S'function'
p2105
asbag68
(g89
g70
NtRp2106
(dp2107
g73
(dp2108
g100
g101
ssg82
g2097
sg75
(lp2109
S':'
asbag68
(g89
g70
NtRp2110
(dp2111
g73
(dp2112
sg82
g2097
sg75
(lp2113
g68
(g69
g70
NtRp2114
(dp2115
g73
(dp2116
g81
I5
ssg82
g2110
sg75
(lp2117
S'index'
p2118
asbasbasbag68
(g84
g70
NtRp2119
(dp2120
g73
(dp2121
sg82
g78
sg75
(lp2122
g68
(g89
g70
NtRp2123
(dp2124
g73
(dp2125
g93
g94
ssg82
g2119
sg75
(lp2126
S'get_vars'
p2127
asbag68
(g89
g70
NtRp2128
(dp2129
g73
(dp2130
g100
g101
ssg82
g2119
sg75
(lp2131
S':'
asbag68
(g89
g70
NtRp2132
(dp2133
g73
(dp2134
sg82
g2119
sg75
(lp2135
g68
(g69
g70
NtRp2136
(dp2137
g73
(dp2138
g81
I5
ssg82
g2132
sg75
(lp2139
g68
(g77
g70
NtRp2140
(dp2141
g73
(dp2142
g81
I4
ssg82
Nsg75
(lp2143
sbasbasbasbag68
(g84
g70
NtRp2144
(dp2145
g73
(dp2146
sg82
g78
sg75
(lp2147
g68
(g89
g70
NtRp2148
(dp2149
g73
(dp2150
g93
g94
ssg82
g2144
sg75
(lp2151
S'global_settings'
p2152
asbag68
(g89
g70
NtRp2153
(dp2154
g73
(dp2155
g100
g101
ssg82
g2144
sg75
(lp2156
S':'
asbag68
(g89
g70
NtRp2157
(dp2158
g73
(dp2159
sg82
g2144
sg75
(lp2160
g68
(g69
g70
NtRp2161
(dp2162
g73
(dp2163
g81
I5
ssg82
g2157
sg75
(lp2164
g68
(g77
g70
NtRp2165
(dp2166
g73
(dp2167
g81
I4
ssg82
Nsg75
(lp2168
g68
(g84
g70
NtRp2169
(dp2170
g73
(dp2171
sg82
g2165
sg75
(lp2172
g68
(g89
g70
NtRp2173
(dp2174
g73
(dp2175
g93
g94
ssg82
g2169
sg75
(lp2176
g1030
asbag68
(g89
g70
NtRp2177
(dp2178
g73
(dp2179
g100
g101
ssg82
g2169
sg75
(lp2180
S':'
asbag68
(g89
g70
NtRp2181
(dp2182
g73
(dp2183
sg82
g2169
sg75
(lp2184
g68
(g69
g70
NtRp2185
(dp2186
g73
(dp2187
g81
I4
ssg82
g2181
sg75
(lp2188
S"set(['/home/marco/flisol2012/web2py/applications/welcome/', '/home/marco/flisol2012/web2py/applications/flisol2012/', '/home/marco/flisol2012/web2py/applications/admin/'])"
p2189
asbasbasbag68
(g84
g70
NtRp2190
(dp2191
g73
(dp2192
sg82
g2165
sg75
(lp2193
g68
(g89
g70
NtRp2194
(dp2195
g73
(dp2196
g93
g94
ssg82
g2190
sg75
(lp2197
g1052
asbag68
(g89
g70
NtRp2198
(dp2199
g73
(dp2200
g100
g101
ssg82
g2190
sg75
(lp2201
S':'
asbag68
(g89
g70
NtRp2202
(dp2203
g73
(dp2204
sg82
g2190
sg75
(lp2205
g68
(g69
g70
NtRp2206
(dp2207
g73
(dp2208
g81
I4
ssg82
g2202
sg75
(lp2209
g1065
asbasbasbag68
(g84
g70
NtRp2210
(dp2211
g73
(dp2212
sg82
g2165
sg75
(lp2213
g68
(g89
g70
NtRp2214
(dp2215
g73
(dp2216
g93
g94
ssg82
g2210
sg75
(lp2217
g1074
asbag68
(g89
g70
NtRp2218
(dp2219
g73
(dp2220
g100
g101
ssg82
g2210
sg75
(lp2221
S':'
asbag68
(g89
g70
NtRp2222
(dp2223
g73
(dp2224
sg82
g2210
sg75
(lp2225
g68
(g69
g70
NtRp2226
(dp2227
g73
(dp2228
g81
I4
ssg82
g2222
sg75
(lp2229
g68
(g77
g70
NtRp2230
(dp2231
g73
(dp2232
g81
I3
ssg82
Nsg75
(lp2233
sbasbasbasbag68
(g84
g70
NtRp2234
(dp2235
g73
(dp2236
sg82
g2165
sg75
(lp2237
g68
(g89
g70
NtRp2238
(dp2239
g73
(dp2240
g93
g94
ssg82
g2234
sg75
(lp2241
g1099
asbag68
(g89
g70
NtRp2242
(dp2243
g73
(dp2244
g100
g101
ssg82
g2234
sg75
(lp2245
S':'
asbag68
(g89
g70
NtRp2246
(dp2247
g73
(dp2248
sg82
g2234
sg75
(lp2249
g68
(g69
g70
NtRp2250
(dp2251
g73
(dp2252
g81
I4
ssg82
g2246
sg75
(lp2253
S"<Values at 0x1bd6908: {'verbose': False, 'ip': '127.0.0.1', 'shutdown_timeout': 5, 'taskbar': False, 'nocron': False, 'pid_filename': 'httpserver.pid', 'maxthreads': None, 'softcron': False, 'server_name': 'malena', 'bpython': False, 'nogui': False, 'port': 8000, 'extcron': False, 'debuglevel': 30, 'test': None, 'folder': '/home/marco/flisol2012/web2py', 'config': '', 'import_models': False, 'winservice': '', 'shell': None, 'run': '', 'log_filename': 'httpserver.log', 'args': [''], 'socket_timeout': 5, 'ssl_ca_certificate': None, 'scheduler': None, 'profiler_filename': None, 'ssl_private_key': '', 'password': 'asd', 'request_queue_size': 5, 'ssl_certificate': '', 'cronjob': False, 'numthreads': None, 'quiet': False, 'interfaces': None, 'minthreads': None, 'timeout': 10, 'plain': False, 'nobanner': False}>"
p2254
asbasbasbag68
(g84
g70
NtRp2255
(dp2256
g73
(dp2257
sg82
g2165
sg75
(lp2258
g68
(g89
g70
NtRp2259
(dp2260
g73
(dp2261
g93
g94
ssg82
g2255
sg75
(lp2262
g1165
asbag68
(g89
g70
NtRp2263
(dp2264
g73
(dp2265
g100
g101
ssg82
g2255
sg75
(lp2266
S':'
asbag68
(g89
g70
NtRp2267
(dp2268
g73
(dp2269
sg82
g2255
sg75
(lp2270
g68
(g69
g70
NtRp2271
(dp2272
g73
(dp2273
g81
I4
ssg82
g2267
sg75
(lp2274
S'set([])'
p2275
asbasbasbag68
(g84
g70
NtRp2276
(dp2277
g73
(dp2278
sg82
g2165
sg75
(lp2279
g68
(g89
g70
NtRp2280
(dp2281
g73
(dp2282
g93
g94
ssg82
g2276
sg75
(lp2283
g1187
asbag68
(g89
g70
NtRp2284
(dp2285
g73
(dp2286
g100
g101
ssg82
g2276
sg75
(lp2287
S':'
asbag68
(g89
g70
NtRp2288
(dp2289
g73
(dp2290
sg82
g2276
sg75
(lp2291
g68
(g69
g70
NtRp2292
(dp2293
g73
(dp2294
g81
I4
ssg82
g2288
sg75
(lp2295
g111
asbasbasbag68
(g84
g70
NtRp2296
(dp2297
g73
(dp2298
sg82
g2165
sg75
(lp2299
g68
(g89
g70
NtRp2300
(dp2301
g73
(dp2302
g93
g94
ssg82
g2296
sg75
(lp2303
g1208
asbag68
(g89
g70
NtRp2304
(dp2305
g73
(dp2306
g100
g101
ssg82
g2296
sg75
(lp2307
S':'
asbag68
(g89
g70
NtRp2308
(dp2309
g73
(dp2310
sg82
g2296
sg75
(lp2311
g68
(g69
g70
NtRp2312
(dp2313
g73
(dp2314
g81
I4
ssg82
g2308
sg75
(lp2315
g1221
asbasbasbag68
(g84
g70
NtRp2316
(dp2317
g73
(dp2318
sg82
g2165
sg75
(lp2319
g68
(g89
g70
NtRp2320
(dp2321
g73
(dp2322
g93
g94
ssg82
g2316
sg75
(lp2323
g1470
asbag68
(g89
g70
NtRp2324
(dp2325
g73
(dp2326
g100
g101
ssg82
g2316
sg75
(lp2327
S':'
asbag68
(g89
g70
NtRp2328
(dp2329
g73
(dp2330
sg82
g2316
sg75
(lp2331
g68
(g69
g70
NtRp2332
(dp2333
g73
(dp2334
g81
I4
ssg82
g2328
sg75
(lp2335
g111
asbasbasbag68
(g84
g70
NtRp2336
(dp2337
g73
(dp2338
sg82
g2165
sg75
(lp2339
g68
(g89
g70
NtRp2340
(dp2341
g73
(dp2342
g93
g94
ssg82
g2336
sg75
(lp2343
g1491
asbag68
(g89
g70
NtRp2344
(dp2345
g73
(dp2346
g100
g101
ssg82
g2336
sg75
(lp2347
S':'
asbag68
(g89
g70
NtRp2348
(dp2349
g73
(dp2350
sg82
g2336
sg75
(lp2351
g68
(g69
g70
NtRp2352
(dp2353
g73
(dp2354
g81
I4
ssg82
g2348
sg75
(lp2355
g111
asbasbasbag68
(g84
g70
NtRp2356
(dp2357
g73
(dp2358
sg82
g2165
sg75
(lp2359
g68
(g89
g70
NtRp2360
(dp2361
g73
(dp2362
g93
g94
ssg82
g2356
sg75
(lp2363
g1729
asbag68
(g89
g70
NtRp2364
(dp2365
g73
(dp2366
g100
g101
ssg82
g2356
sg75
(lp2367
S':'
asbag68
(g89
g70
NtRp2368
(dp2369
g73
(dp2370
sg82
g2356
sg75
(lp2371
g68
(g69
g70
NtRp2372
(dp2373
g73
(dp2374
g81
I4
ssg82
g2368
sg75
(lp2375
g1742
asbasbasbag68
(g84
g70
NtRp2376
(dp2377
g73
(dp2378
sg82
g2165
sg75
(lp2379
g68
(g89
g70
NtRp2380
(dp2381
g73
(dp2382
g93
g94
ssg82
g2376
sg75
(lp2383
g1772
asbag68
(g89
g70
NtRp2384
(dp2385
g73
(dp2386
g100
g101
ssg82
g2376
sg75
(lp2387
S':'
asbag68
(g89
g70
NtRp2388
(dp2389
g73
(dp2390
sg82
g2376
sg75
(lp2391
g68
(g69
g70
NtRp2392
(dp2393
g73
(dp2394
g81
I4
ssg82
g2388
sg75
(lp2395
g68
(g77
g70
NtRp2396
(dp2397
g73
(dp2398
g81
I3
ssg82
Nsg75
(lp2399
g68
(g84
g70
NtRp2400
(dp2401
g73
(dp2402
sg82
g2396
sg75
(lp2403
g68
(g89
g70
NtRp2404
(dp2405
g73
(dp2406
sg82
g2400
sg75
(lp2407
g68
(g69
g70
NtRp2408
(dp2409
g73
(dp2410
g81
I3
ssg82
g2404
sg75
(lp2411
S'1'
asbasbasbag68
(g84
g70
NtRp2412
(dp2413
g73
(dp2414
sg82
g2396
sg75
(lp2415
g68
(g89
g70
NtRp2416
(dp2417
g73
(dp2418
sg82
g2412
sg75
(lp2419
g68
(g69
g70
NtRp2420
(dp2421
g73
(dp2422
g81
I3
ssg82
g2416
sg75
(lp2423
S'99'
p2424
asbasbasbag68
(g84
g70
NtRp2425
(dp2426
g73
(dp2427
sg82
g2396
sg75
(lp2428
g68
(g89
g70
NtRp2429
(dp2430
g73
(dp2431
sg82
g2425
sg75
(lp2432
g68
(g69
g70
NtRp2433
(dp2434
g73
(dp2435
g81
I3
ssg82
g2429
sg75
(lp2436
S'7'
asbasbasbag68
(g84
g70
NtRp2437
(dp2438
g73
(dp2439
sg82
g2396
sg75
(lp2440
g68
(g89
g70
NtRp2441
(dp2442
g73
(dp2443
sg82
g2437
sg75
(lp2444
g68
(g69
g70
NtRp2445
(dp2446
g73
(dp2447
g81
I3
ssg82
g2441
sg75
(lp2448
S'datetime.datetime(2012, 3, 4, 22, 12, 8)'
p2449
asbasbasbag68
(g84
g70
NtRp2450
(dp2451
g73
(dp2452
sg82
g2396
sg75
(lp2453
g68
(g89
g70
NtRp2454
(dp2455
g73
(dp2456
sg82
g2450
sg75
(lp2457
g68
(g69
g70
NtRp2458
(dp2459
g73
(dp2460
g81
I3
ssg82
g2454
sg75
(lp2461
g1851
asbasbasbasbasbasbasbasbasbasbasbag68
(g84
g70
NtRp2462
(dp2463
g73
(dp2464
sg82
g78
sg75
(lp2465
g68
(g89
g70
NtRp2466
(dp2467
g73
(dp2468
g93
g94
ssg82
g2462
sg75
(lp2469
S'is_https'
p2470
asbag68
(g89
g70
NtRp2471
(dp2472
g73
(dp2473
g100
g101
ssg82
g2462
sg75
(lp2474
S':'
asbag68
(g89
g70
NtRp2475
(dp2476
g73
(dp2477
sg82
g2462
sg75
(lp2478
g68
(g69
g70
NtRp2479
(dp2480
g73
(dp2481
g81
I5
ssg82
g2475
sg75
(lp2482
g111
asbasbasbag68
(g84
g70
NtRp2483
(dp2484
g73
(dp2485
sg82
g78
sg75
(lp2486
g68
(g89
g70
NtRp2487
(dp2488
g73
(dp2489
g93
g94
ssg82
g2483
sg75
(lp2490
S'is_local'
p2491
asbag68
(g89
g70
NtRp2492
(dp2493
g73
(dp2494
g100
g101
ssg82
g2483
sg75
(lp2495
S':'
asbag68
(g89
g70
NtRp2496
(dp2497
g73
(dp2498
sg82
g2483
sg75
(lp2499
g68
(g69
g70
NtRp2500
(dp2501
g73
(dp2502
g81
I5
ssg82
g2496
sg75
(lp2503
g1960
asbasbasbag68
(g84
g70
NtRp2504
(dp2505
g73
(dp2506
sg82
g78
sg75
(lp2507
g68
(g89
g70
NtRp2508
(dp2509
g73
(dp2510
g93
g94
ssg82
g2504
sg75
(lp2511
S'is_restful'
p2512
asbag68
(g89
g70
NtRp2513
(dp2514
g73
(dp2515
g100
g101
ssg82
g2504
sg75
(lp2516
S':'
asbag68
(g89
g70
NtRp2517
(dp2518
g73
(dp2519
sg82
g2504
sg75
(lp2520
g68
(g69
g70
NtRp2521
(dp2522
g73
(dp2523
g81
I5
ssg82
g2517
sg75
(lp2524
g111
asbasbasbag68
(g84
g70
NtRp2525
(dp2526
g73
(dp2527
sg82
g78
sg75
(lp2528
g68
(g89
g70
NtRp2529
(dp2530
g73
(dp2531
g93
g94
ssg82
g2525
sg75
(lp2532
S'now'
p2533
asbag68
(g89
g70
NtRp2534
(dp2535
g73
(dp2536
g100
g101
ssg82
g2525
sg75
(lp2537
S':'
asbag68
(g89
g70
NtRp2538
(dp2539
g73
(dp2540
sg82
g2525
sg75
(lp2541
g68
(g69
g70
NtRp2542
(dp2543
g73
(dp2544
g81
I5
ssg82
g2538
sg75
(lp2545
S'datetime.datetime(2012, 3, 9, 18, 38, 11, 620190)'
p2546
asbasbasbag68
(g84
g70
NtRp2547
(dp2548
g73
(dp2549
sg82
g78
sg75
(lp2550
g68
(g89
g70
NtRp2551
(dp2552
g73
(dp2553
g93
g94
ssg82
g2547
sg75
(lp2554
S'post_vars'
p2555
asbag68
(g89
g70
NtRp2556
(dp2557
g73
(dp2558
g100
g101
ssg82
g2547
sg75
(lp2559
S':'
asbag68
(g89
g70
NtRp2560
(dp2561
g73
(dp2562
sg82
g2547
sg75
(lp2563
g68
(g69
g70
NtRp2564
(dp2565
g73
(dp2566
g81
I5
ssg82
g2560
sg75
(lp2567
g68
(g77
g70
NtRp2568
(dp2569
g73
(dp2570
g81
I4
ssg82
Nsg75
(lp2571
g68
(g84
g70
NtRp2572
(dp2573
g73
(dp2574
sg82
g2568
sg75
(lp2575
g68
(g89
g70
NtRp2576
(dp2577
g73
(dp2578
g93
g94
ssg82
g2572
sg75
(lp2579
S'action'
p2580
asbag68
(g89
g70
NtRp2581
(dp2582
g73
(dp2583
g100
g101
ssg82
g2572
sg75
(lp2584
S':'
asbag68
(g89
g70
NtRp2585
(dp2586
g73
(dp2587
sg82
g2572
sg75
(lp2588
g68
(g69
g70
NtRp2589
(dp2590
g73
(dp2591
g81
I4
ssg82
g2585
sg75
(lp2592
S'edit'
p2593
asbasbasbasbasbasbasbag68
(g84
g70
NtRp2594
(dp2595
g73
(dp2596
sg82
g78
sg75
(lp2597
g68
(g89
g70
NtRp2598
(dp2599
g73
(dp2600
g93
g94
ssg82
g2594
sg75
(lp2601
S'url'
p2602
asbag68
(g89
g70
NtRp2603
(dp2604
g73
(dp2605
g100
g101
ssg82
g2594
sg75
(lp2606
S':'
asbag68
(g89
g70
NtRp2607
(dp2608
g73
(dp2609
sg82
g2594
sg75
(lp2610
g68
(g69
g70
NtRp2611
(dp2612
g73
(dp2613
g81
I5
ssg82
g2607
sg75
(lp2614
S'/flisol2012/default/index'
p2615
asbasbasbag68
(g84
g70
NtRp2616
(dp2617
g73
(dp2618
sg82
g78
sg75
(lp2619
g68
(g89
g70
NtRp2620
(dp2621
g73
(dp2622
g93
g94
ssg82
g2616
sg75
(lp2623
S'utcnow'
p2624
asbag68
(g89
g70
NtRp2625
(dp2626
g73
(dp2627
g100
g101
ssg82
g2616
sg75
(lp2628
S':'
asbag68
(g89
g70
NtRp2629
(dp2630
g73
(dp2631
sg82
g2616
sg75
(lp2632
g68
(g69
g70
NtRp2633
(dp2634
g73
(dp2635
g81
I5
ssg82
g2629
sg75
(lp2636
S'datetime.datetime(2012, 3, 9, 21, 38, 11, 620231)'
p2637
asbasbasbag68
(g84
g70
NtRp2638
(dp2639
g73
(dp2640
sg82
g78
sg75
(lp2641
g68
(g89
g70
NtRp2642
(dp2643
g73
(dp2644
g93
g94
ssg82
g2638
sg75
(lp2645
S'uuid'
p2646
asbag68
(g89
g70
NtRp2647
(dp2648
g73
(dp2649
g100
g101
ssg82
g2638
sg75
(lp2650
S':'
asbag68
(g89
g70
NtRp2651
(dp2652
g73
(dp2653
sg82
g2638
sg75
(lp2654
g68
(g69
g70
NtRp2655
(dp2656
g73
(dp2657
g81
I5
ssg82
g2651
sg75
(lp2658
S'flisol2012/127.0.0.1.2012-03-09.18-38-11.6fdf67ee-9b98-4d1b-bff6-6a1f01c19599'
p2659
asbasbasbag68
(g84
g70
NtRp2660
(dp2661
g73
(dp2662
sg82
g78
sg75
(lp2663
g68
(g89
g70
NtRp2664
(dp2665
g73
(dp2666
g93
g94
ssg82
g2660
sg75
(lp2667
S'vars'
p2668
asbag68
(g89
g70
NtRp2669
(dp2670
g73
(dp2671
g100
g101
ssg82
g2660
sg75
(lp2672
S':'
asbag68
(g89
g70
NtRp2673
(dp2674
g73
(dp2675
sg82
g2660
sg75
(lp2676
g68
(g69
g70
NtRp2677
(dp2678
g73
(dp2679
g81
I5
ssg82
g2673
sg75
(lp2680
g68
(g77
g70
NtRp2681
(dp2682
g73
(dp2683
g81
I4
ssg82
Nsg75
(lp2684
g68
(g84
g70
NtRp2685
(dp2686
g73
(dp2687
sg82
g2681
sg75
(lp2688
g68
(g89
g70
NtRp2689
(dp2690
g73
(dp2691
g93
g94
ssg82
g2685
sg75
(lp2692
g2580
asbag68
(g89
g70
NtRp2693
(dp2694
g73
(dp2695
g100
g101
ssg82
g2685
sg75
(lp2696
S':'
asbag68
(g89
g70
NtRp2697
(dp2698
g73
(dp2699
sg82
g2685
sg75
(lp2700
g68
(g69
g70
NtRp2701
(dp2702
g73
(dp2703
g81
I4
ssg82
g2697
sg75
(lp2704
g2593
asbasbasbasbasbasbasbag68
(g84
g70
NtRp2705
(dp2706
g73
(dp2707
sg82
g78
sg75
(lp2708
g68
(g89
g70
NtRp2709
(dp2710
g73
(dp2711
g93
g94
ssg82
g2705
sg75
(lp2712
S'wsgi'
p2713
asbag68
(g89
g70
NtRp2714
(dp2715
g73
(dp2716
g100
g101
ssg82
g2705
sg75
(lp2717
S':'
asbag68
(g89
g70
NtRp2718
(dp2719
g73
(dp2720
sg82
g2705
sg75
(lp2721
g68
(g69
g70
NtRp2722
(dp2723
g73
(dp2724
g81
I5
ssg82
g2718
sg75
(lp2725
g68
(g77
g70
NtRp2726
(dp2727
g73
(dp2728
g81
I4
ssg82
Nsg75
(lp2729
g68
(g84
g70
NtRp2730
(dp2731
g73
(dp2732
sg82
g2726
sg75
(lp2733
g68
(g89
g70
NtRp2734
(dp2735
g73
(dp2736
g93
g94
ssg82
g2730
sg75
(lp2737
S'environ'
p2738
asbag68
(g89
g70
NtRp2739
(dp2740
g73
(dp2741
g100
g101
ssg82
g2730
sg75
(lp2742
S':'
asbag68
(g89
g70
NtRp2743
(dp2744
g73
(dp2745
sg82
g2730
sg75
(lp2746
g68
(g69
g70
NtRp2747
(dp2748
g73
(dp2749
g81
I4
ssg82
g2743
sg75
(lp2750
g68
(g77
g70
NtRp2751
(dp2752
g73
(dp2753
g81
I3
ssg82
Nsg75
(lp2754
g68
(g84
g70
NtRp2755
(dp2756
g73
(dp2757
sg82
g2751
sg75
(lp2758
g68
(g89
g70
NtRp2759
(dp2760
g73
(dp2761
g93
g94
ssg82
g2755
sg75
(lp2762
S'CONTENT_LENGTH'
p2763
asbag68
(g89
g70
NtRp2764
(dp2765
g73
(dp2766
g100
g101
ssg82
g2755
sg75
(lp2767
S':'
asbag68
(g89
g70
NtRp2768
(dp2769
g73
(dp2770
sg82
g2755
sg75
(lp2771
g68
(g69
g70
NtRp2772
(dp2773
g73
(dp2774
g81
I3
ssg82
g2768
sg75
(lp2775
g1134
asbasbasbag68
(g84
g70
NtRp2776
(dp2777
g73
(dp2778
sg82
g2751
sg75
(lp2779
g68
(g89
g70
NtRp2780
(dp2781
g73
(dp2782
g93
g94
ssg82
g2776
sg75
(lp2783
S'CONTENT_TYPE'
p2784
asbag68
(g89
g70
NtRp2785
(dp2786
g73
(dp2787
g100
g101
ssg82
g2776
sg75
(lp2788
S':'
asbag68
(g89
g70
NtRp2789
(dp2790
g73
(dp2791
sg82
g2776
sg75
(lp2792
g68
(g69
g70
NtRp2793
(dp2794
g73
(dp2795
g81
I3
ssg82
g2789
sg75
(lp2796
g1156
asbasbasbag68
(g84
g70
NtRp2797
(dp2798
g73
(dp2799
sg82
g2751
sg75
(lp2800
g68
(g89
g70
NtRp2801
(dp2802
g73
(dp2803
g93
g94
ssg82
g2797
sg75
(lp2804
S'HTTP_ACCEPT'
p2805
asbag68
(g89
g70
NtRp2806
(dp2807
g73
(dp2808
g100
g101
ssg82
g2797
sg75
(lp2809
S':'
asbag68
(g89
g70
NtRp2810
(dp2811
g73
(dp2812
sg82
g2797
sg75
(lp2813
g68
(g69
g70
NtRp2814
(dp2815
g73
(dp2816
g81
I3
ssg82
g2810
sg75
(lp2817
g1243
asbasbasbag68
(g84
g70
NtRp2818
(dp2819
g73
(dp2820
sg82
g2751
sg75
(lp2821
g68
(g89
g70
NtRp2822
(dp2823
g73
(dp2824
g93
g94
ssg82
g2818
sg75
(lp2825
S'HTTP_ACCEPT_ENCODING'
p2826
asbag68
(g89
g70
NtRp2827
(dp2828
g73
(dp2829
g100
g101
ssg82
g2818
sg75
(lp2830
S':'
asbag68
(g89
g70
NtRp2831
(dp2832
g73
(dp2833
sg82
g2818
sg75
(lp2834
g68
(g69
g70
NtRp2835
(dp2836
g73
(dp2837
g81
I3
ssg82
g2831
sg75
(lp2838
g1265
asbasbasbag68
(g84
g70
NtRp2839
(dp2840
g73
(dp2841
sg82
g2751
sg75
(lp2842
g68
(g89
g70
NtRp2843
(dp2844
g73
(dp2845
g93
g94
ssg82
g2839
sg75
(lp2846
S'HTTP_ACCEPT_LANGUAGE'
p2847
asbag68
(g89
g70
NtRp2848
(dp2849
g73
(dp2850
g100
g101
ssg82
g2839
sg75
(lp2851
S':'
asbag68
(g89
g70
NtRp2852
(dp2853
g73
(dp2854
sg82
g2839
sg75
(lp2855
g68
(g69
g70
NtRp2856
(dp2857
g73
(dp2858
g81
I3
ssg82
g2852
sg75
(lp2859
g1287
asbasbasbag68
(g84
g70
NtRp2860
(dp2861
g73
(dp2862
sg82
g2751
sg75
(lp2863
g68
(g89
g70
NtRp2864
(dp2865
g73
(dp2866
g93
g94
ssg82
g2860
sg75
(lp2867
S'HTTP_CACHE_CONTROL'
p2868
asbag68
(g89
g70
NtRp2869
(dp2870
g73
(dp2871
g100
g101
ssg82
g2860
sg75
(lp2872
S':'
asbag68
(g89
g70
NtRp2873
(dp2874
g73
(dp2875
sg82
g2860
sg75
(lp2876
g68
(g69
g70
NtRp2877
(dp2878
g73
(dp2879
g81
I3
ssg82
g2873
sg75
(lp2880
g1309
asbasbasbag68
(g84
g70
NtRp2881
(dp2882
g73
(dp2883
sg82
g2751
sg75
(lp2884
g68
(g89
g70
NtRp2885
(dp2886
g73
(dp2887
g93
g94
ssg82
g2881
sg75
(lp2888
S'HTTP_CONNECTION'
p2889
asbag68
(g89
g70
NtRp2890
(dp2891
g73
(dp2892
g100
g101
ssg82
g2881
sg75
(lp2893
S':'
asbag68
(g89
g70
NtRp2894
(dp2895
g73
(dp2896
sg82
g2881
sg75
(lp2897
g68
(g69
g70
NtRp2898
(dp2899
g73
(dp2900
g81
I3
ssg82
g2894
sg75
(lp2901
g1331
asbasbasbag68
(g84
g70
NtRp2902
(dp2903
g73
(dp2904
sg82
g2751
sg75
(lp2905
g68
(g89
g70
NtRp2906
(dp2907
g73
(dp2908
g93
g94
ssg82
g2902
sg75
(lp2909
S'HTTP_CONTENT_LENGTH'
p2910
asbag68
(g89
g70
NtRp2911
(dp2912
g73
(dp2913
g100
g101
ssg82
g2902
sg75
(lp2914
S':'
asbag68
(g89
g70
NtRp2915
(dp2916
g73
(dp2917
sg82
g2902
sg75
(lp2918
g68
(g69
g70
NtRp2919
(dp2920
g73
(dp2921
g81
I3
ssg82
g2915
sg75
(lp2922
g1134
asbasbasbag68
(g84
g70
NtRp2923
(dp2924
g73
(dp2925
sg82
g2751
sg75
(lp2926
g68
(g89
g70
NtRp2927
(dp2928
g73
(dp2929
g93
g94
ssg82
g2923
sg75
(lp2930
S'HTTP_CONTENT_TYPE'
p2931
asbag68
(g89
g70
NtRp2932
(dp2933
g73
(dp2934
g100
g101
ssg82
g2923
sg75
(lp2935
S':'
asbag68
(g89
g70
NtRp2936
(dp2937
g73
(dp2938
sg82
g2923
sg75
(lp2939
g68
(g69
g70
NtRp2940
(dp2941
g73
(dp2942
g81
I3
ssg82
g2936
sg75
(lp2943
g1156
asbasbasbag68
(g84
g70
NtRp2944
(dp2945
g73
(dp2946
sg82
g2751
sg75
(lp2947
g68
(g89
g70
NtRp2948
(dp2949
g73
(dp2950
g93
g94
ssg82
g2944
sg75
(lp2951
S'HTTP_COOKIE'
p2952
asbag68
(g89
g70
NtRp2953
(dp2954
g73
(dp2955
g100
g101
ssg82
g2944
sg75
(lp2956
S':'
asbag68
(g89
g70
NtRp2957
(dp2958
g73
(dp2959
sg82
g2944
sg75
(lp2960
g68
(g69
g70
NtRp2961
(dp2962
g73
(dp2963
g81
I3
ssg82
g2957
sg75
(lp2964
g1395
asbasbasbag68
(g84
g70
NtRp2965
(dp2966
g73
(dp2967
sg82
g2751
sg75
(lp2968
g68
(g89
g70
NtRp2969
(dp2970
g73
(dp2971
g93
g94
ssg82
g2965
sg75
(lp2972
S'HTTP_HOST'
p2973
asbag68
(g89
g70
NtRp2974
(dp2975
g73
(dp2976
g100
g101
ssg82
g2965
sg75
(lp2977
S':'
asbag68
(g89
g70
NtRp2978
(dp2979
g73
(dp2980
sg82
g2965
sg75
(lp2981
g68
(g69
g70
NtRp2982
(dp2983
g73
(dp2984
g81
I3
ssg82
g2978
sg75
(lp2985
g1417
asbasbasbag68
(g84
g70
NtRp2986
(dp2987
g73
(dp2988
sg82
g2751
sg75
(lp2989
g68
(g89
g70
NtRp2990
(dp2991
g73
(dp2992
g93
g94
ssg82
g2986
sg75
(lp2993
S'HTTP_REFERER'
p2994
asbag68
(g89
g70
NtRp2995
(dp2996
g73
(dp2997
g100
g101
ssg82
g2986
sg75
(lp2998
S':'
asbag68
(g89
g70
NtRp2999
(dp3000
g73
(dp3001
sg82
g2986
sg75
(lp3002
g68
(g69
g70
NtRp3003
(dp3004
g73
(dp3005
g81
I3
ssg82
g2999
sg75
(lp3006
g1439
asbasbasbag68
(g84
g70
NtRp3007
(dp3008
g73
(dp3009
sg82
g2751
sg75
(lp3010
g68
(g89
g70
NtRp3011
(dp3012
g73
(dp3013
g93
g94
ssg82
g3007
sg75
(lp3014
S'HTTP_USER_AGENT'
p3015
asbag68
(g89
g70
NtRp3016
(dp3017
g73
(dp3018
g100
g101
ssg82
g3007
sg75
(lp3019
S':'
asbag68
(g89
g70
NtRp3020
(dp3021
g73
(dp3022
sg82
g3007
sg75
(lp3023
g68
(g69
g70
NtRp3024
(dp3025
g73
(dp3026
g81
I3
ssg82
g3020
sg75
(lp3027
g1461
asbasbasbag68
(g84
g70
NtRp3028
(dp3029
g73
(dp3030
sg82
g2751
sg75
(lp3031
g68
(g89
g70
NtRp3032
(dp3033
g73
(dp3034
g93
g94
ssg82
g3028
sg75
(lp3035
S'PATH_INFO'
p3036
asbag68
(g89
g70
NtRp3037
(dp3038
g73
(dp3039
g100
g101
ssg82
g3028
sg75
(lp3040
S':'
asbag68
(g89
g70
NtRp3041
(dp3042
g73
(dp3043
sg82
g3028
sg75
(lp3044
g68
(g69
g70
NtRp3045
(dp3046
g73
(dp3047
g81
I3
ssg82
g3041
sg75
(lp3048
g1525
asbasbasbag68
(g84
g70
NtRp3049
(dp3050
g73
(dp3051
sg82
g2751
sg75
(lp3052
g68
(g89
g70
NtRp3053
(dp3054
g73
(dp3055
g93
g94
ssg82
g3049
sg75
(lp3056
S'QUERY_STRING'
p3057
asbag68
(g89
g70
NtRp3058
(dp3059
g73
(dp3060
g100
g101
ssg82
g3049
sg75
(lp3061
S':'
asbag68
(g89
g70
NtRp3062
(dp3063
g73
(dp3064
sg82
g3049
sg75
(lp3065
g68
(g69
g70
NtRp3066
(dp3067
g73
(dp3068
g81
I3
ssg82
g3062
sg75
(lp3069
S''
asbasbasbag68
(g84
g70
NtRp3070
(dp3071
g73
(dp3072
sg82
g2751
sg75
(lp3073
g68
(g89
g70
NtRp3074
(dp3075
g73
(dp3076
g93
g94
ssg82
g3070
sg75
(lp3077
S'REMOTE_ADDR'
p3078
asbag68
(g89
g70
NtRp3079
(dp3080
g73
(dp3081
g100
g101
ssg82
g3070
sg75
(lp3082
S':'
asbag68
(g89
g70
NtRp3083
(dp3084
g73
(dp3085
sg82
g3070
sg75
(lp3086
g68
(g69
g70
NtRp3087
(dp3088
g73
(dp3089
g81
I3
ssg82
g3083
sg75
(lp3090
g201
asbasbasbag68
(g84
g70
NtRp3091
(dp3092
g73
(dp3093
sg82
g2751
sg75
(lp3094
g68
(g89
g70
NtRp3095
(dp3096
g73
(dp3097
g93
g94
ssg82
g3091
sg75
(lp3098
S'REMOTE_PORT'
p3099
asbag68
(g89
g70
NtRp3100
(dp3101
g73
(dp3102
g100
g101
ssg82
g3091
sg75
(lp3103
S':'
asbag68
(g89
g70
NtRp3104
(dp3105
g73
(dp3106
sg82
g3091
sg75
(lp3107
g68
(g69
g70
NtRp3108
(dp3109
g73
(dp3110
g81
I3
ssg82
g3104
sg75
(lp3111
g1589
asbasbasbag68
(g84
g70
NtRp3112
(dp3113
g73
(dp3114
sg82
g2751
sg75
(lp3115
g68
(g89
g70
NtRp3116
(dp3117
g73
(dp3118
g93
g94
ssg82
g3112
sg75
(lp3119
S'REQUEST_METHOD'
p3120
asbag68
(g89
g70
NtRp3121
(dp3122
g73
(dp3123
g100
g101
ssg82
g3112
sg75
(lp3124
S':'
asbag68
(g89
g70
NtRp3125
(dp3126
g73
(dp3127
sg82
g3112
sg75
(lp3128
g68
(g69
g70
NtRp3129
(dp3130
g73
(dp3131
g81
I3
ssg82
g3125
sg75
(lp3132
g1611
asbasbasbag68
(g84
g70
NtRp3133
(dp3134
g73
(dp3135
sg82
g2751
sg75
(lp3136
g68
(g89
g70
NtRp3137
(dp3138
g73
(dp3139
g93
g94
ssg82
g3133
sg75
(lp3140
S'SCRIPT_NAME'
p3141
asbag68
(g89
g70
NtRp3142
(dp3143
g73
(dp3144
g100
g101
ssg82
g3133
sg75
(lp3145
S':'
asbag68
(g89
g70
NtRp3146
(dp3147
g73
(dp3148
sg82
g3133
sg75
(lp3149
g68
(g69
g70
NtRp3150
(dp3151
g73
(dp3152
g81
I3
ssg82
g3146
sg75
(lp3153
S''
asbasbasbag68
(g84
g70
NtRp3154
(dp3155
g73
(dp3156
sg82
g2751
sg75
(lp3157
g68
(g89
g70
NtRp3158
(dp3159
g73
(dp3160
g93
g94
ssg82
g3154
sg75
(lp3161
S'SERVER_NAME'
p3162
asbag68
(g89
g70
NtRp3163
(dp3164
g73
(dp3165
g100
g101
ssg82
g3154
sg75
(lp3166
S':'
asbag68
(g89
g70
NtRp3167
(dp3168
g73
(dp3169
sg82
g3154
sg75
(lp3170
g68
(g69
g70
NtRp3171
(dp3172
g73
(dp3173
g81
I3
ssg82
g3167
sg75
(lp3174
g1654
asbasbasbag68
(g84
g70
NtRp3175
(dp3176
g73
(dp3177
sg82
g2751
sg75
(lp3178
g68
(g89
g70
NtRp3179
(dp3180
g73
(dp3181
g93
g94
ssg82
g3175
sg75
(lp3182
S'SERVER_PORT'
p3183
asbag68
(g89
g70
NtRp3184
(dp3185
g73
(dp3186
g100
g101
ssg82
g3175
sg75
(lp3187
S':'
asbag68
(g89
g70
NtRp3188
(dp3189
g73
(dp3190
sg82
g3175
sg75
(lp3191
g68
(g69
g70
NtRp3192
(dp3193
g73
(dp3194
g81
I3
ssg82
g3188
sg75
(lp3195
g1676
asbasbasbag68
(g84
g70
NtRp3196
(dp3197
g73
(dp3198
sg82
g2751
sg75
(lp3199
g68
(g89
g70
NtRp3200
(dp3201
g73
(dp3202
g93
g94
ssg82
g3196
sg75
(lp3203
S'SERVER_PROTOCOL'
p3204
asbag68
(g89
g70
NtRp3205
(dp3206
g73
(dp3207
g100
g101
ssg82
g3196
sg75
(lp3208
S':'
asbag68
(g89
g70
NtRp3209
(dp3210
g73
(dp3211
sg82
g3196
sg75
(lp3212
g68
(g69
g70
NtRp3213
(dp3214
g73
(dp3215
g81
I3
ssg82
g3209
sg75
(lp3216
g1698
asbasbasbag68
(g84
g70
NtRp3217
(dp3218
g73
(dp3219
sg82
g2751
sg75
(lp3220
g68
(g89
g70
NtRp3221
(dp3222
g73
(dp3223
g93
g94
ssg82
g3217
sg75
(lp3224
S'SERVER_SOFTWARE'
p3225
asbag68
(g89
g70
NtRp3226
(dp3227
g73
(dp3228
g100
g101
ssg82
g3217
sg75
(lp3229
S':'
asbag68
(g89
g70
NtRp3230
(dp3231
g73
(dp3232
sg82
g3217
sg75
(lp3233
g68
(g69
g70
NtRp3234
(dp3235
g73
(dp3236
g81
I3
ssg82
g3230
sg75
(lp3237
g1720
asbasbasbag68
(g84
g70
NtRp3238
(dp3239
g73
(dp3240
sg82
g2751
sg75
(lp3241
g68
(g89
g70
NtRp3242
(dp3243
g73
(dp3244
g93
g94
ssg82
g3238
sg75
(lp3245
S'wsgi.errors'
p3246
asbag68
(g89
g70
NtRp3247
(dp3248
g73
(dp3249
g100
g101
ssg82
g3238
sg75
(lp3250
S':'
asbag68
(g89
g70
NtRp3251
(dp3252
g73
(dp3253
sg82
g3238
sg75
(lp3254
g68
(g69
g70
NtRp3255
(dp3256
g73
(dp3257
g81
I3
ssg82
g3251
sg75
(lp3258
S"<open file '<stderr>', mode 'w' at 0x7f4f2366f270>"
p3259
asbasbasbag68
(g84
g70
NtRp3260
(dp3261
g73
(dp3262
sg82
g2751
sg75
(lp3263
g68
(g89
g70
NtRp3264
(dp3265
g73
(dp3266
g93
g94
ssg82
g3260
sg75
(lp3267
S'wsgi.file_wrapper'
p3268
asbag68
(g89
g70
NtRp3269
(dp3270
g73
(dp3271
g100
g101
ssg82
g3260
sg75
(lp3272
S':'
asbag68
(g89
g70
NtRp3273
(dp3274
g73
(dp3275
sg82
g3260
sg75
(lp3276
g68
(g69
g70
NtRp3277
(dp3278
g73
(dp3279
g81
I3
ssg82
g3273
sg75
(lp3280
S'<class wsgiref.util.FileWrapper at 0x1abc460>'
p3281
asbasbasbag68
(g84
g70
NtRp3282
(dp3283
g73
(dp3284
sg82
g2751
sg75
(lp3285
g68
(g89
g70
NtRp3286
(dp3287
g73
(dp3288
g93
g94
ssg82
g3282
sg75
(lp3289
S'wsgi.input'
p3290
asbag68
(g89
g70
NtRp3291
(dp3292
g73
(dp3293
g100
g101
ssg82
g3282
sg75
(lp3294
S':'
asbag68
(g89
g70
NtRp3295
(dp3296
g73
(dp3297
sg82
g3282
sg75
(lp3298
g68
(g69
g70
NtRp3299
(dp3300
g73
(dp3301
g81
I3
ssg82
g3295
sg75
(lp3302
S"<open file '<fdopen>', mode 'w+b' at 0x23e7e40>"
p3303
asbasbasbag68
(g84
g70
NtRp3304
(dp3305
g73
(dp3306
sg82
g2751
sg75
(lp3307
g68
(g89
g70
NtRp3308
(dp3309
g73
(dp3310
g93
g94
ssg82
g3304
sg75
(lp3311
S'wsgi.multiprocess'
p3312
asbag68
(g89
g70
NtRp3313
(dp3314
g73
(dp3315
g100
g101
ssg82
g3304
sg75
(lp3316
S':'
asbag68
(g89
g70
NtRp3317
(dp3318
g73
(dp3319
sg82
g3304
sg75
(lp3320
g68
(g69
g70
NtRp3321
(dp3322
g73
(dp3323
g81
I3
ssg82
g3317
sg75
(lp3324
g111
asbasbasbag68
(g84
g70
NtRp3325
(dp3326
g73
(dp3327
sg82
g2751
sg75
(lp3328
g68
(g89
g70
NtRp3329
(dp3330
g73
(dp3331
g93
g94
ssg82
g3325
sg75
(lp3332
S'wsgi.multithread'
p3333
asbag68
(g89
g70
NtRp3334
(dp3335
g73
(dp3336
g100
g101
ssg82
g3325
sg75
(lp3337
S':'
asbag68
(g89
g70
NtRp3338
(dp3339
g73
(dp3340
sg82
g3325
sg75
(lp3341
g68
(g69
g70
NtRp3342
(dp3343
g73
(dp3344
g81
I3
ssg82
g3338
sg75
(lp3345
g1960
asbasbasbag68
(g84
g70
NtRp3346
(dp3347
g73
(dp3348
sg82
g2751
sg75
(lp3349
g68
(g89
g70
NtRp3350
(dp3351
g73
(dp3352
g93
g94
ssg82
g3346
sg75
(lp3353
S'wsgi.run_once'
p3354
asbag68
(g89
g70
NtRp3355
(dp3356
g73
(dp3357
g100
g101
ssg82
g3346
sg75
(lp3358
S':'
asbag68
(g89
g70
NtRp3359
(dp3360
g73
(dp3361
sg82
g3346
sg75
(lp3362
g68
(g69
g70
NtRp3363
(dp3364
g73
(dp3365
g81
I3
ssg82
g3359
sg75
(lp3366
g111
asbasbasbag68
(g84
g70
NtRp3367
(dp3368
g73
(dp3369
sg82
g2751
sg75
(lp3370
g68
(g89
g70
NtRp3371
(dp3372
g73
(dp3373
g93
g94
ssg82
g3367
sg75
(lp3374
S'wsgi.url_scheme'
p3375
asbag68
(g89
g70
NtRp3376
(dp3377
g73
(dp3378
g100
g101
ssg82
g3367
sg75
(lp3379
S':'
asbag68
(g89
g70
NtRp3380
(dp3381
g73
(dp3382
sg82
g3367
sg75
(lp3383
g68
(g69
g70
NtRp3384
(dp3385
g73
(dp3386
g81
I3
ssg82
g3380
sg75
(lp3387
g2003
asbasbasbag68
(g84
g70
NtRp3388
(dp3389
g73
(dp3390
sg82
g2751
sg75
(lp3391
g68
(g89
g70
NtRp3392
(dp3393
g73
(dp3394
g93
g94
ssg82
g3388
sg75
(lp3395
S'wsgi.version'
p3396
asbag68
(g89
g70
NtRp3397
(dp3398
g73
(dp3399
g100
g101
ssg82
g3388
sg75
(lp3400
S':'
asbag68
(g89
g70
NtRp3401
(dp3402
g73
(dp3403
sg82
g3388
sg75
(lp3404
g68
(g69
g70
NtRp3405
(dp3406
g73
(dp3407
g81
I3
ssg82
g3401
sg75
(lp3408
S'1'
asbasbasbasbasbasbasbasbasbasbasbasbasbsS'frames'
p3409
(lp3410
(dp3411
S'file'
p3412
S'/home/marco/flisol2012/web2py/gluon/restricted.py'
p3413
sS'dump'
p3414
(dp3415
S'code'
p3416
S'"# coding: utf8\\n\\nsession.manager=(auth.user and a...response.sidebar.append([T(\'Your Talks\'),talks])\\n"'
p3417
sS'layer'
p3418
S"'/home/marco/flisol2012/web2py/applications/flisol2012/models/menu.py'"
p3419
sS'global compile2'
p3420
S'<function compile2>'
p3421
sS'ccode'
p3422
S'undefined'
p3423
ssS'lnum'
p3424
I204
sS'lines'
p3425
(dp3426
I199
S"    environment['__name__'] = '__restricted__'"
p3427
sI200
S'    try:'
p3428
sI201
S'        if type(code) == types.CodeType:'
p3429
sI202
S'            ccode = code'
p3430
sI203
S'        else:'
p3431
sI204
S'            ccode = compile2(code,layer)'
p3432
sI205
S'        exec ccode in environment'
p3433
sI206
S'    except HTTP:'
p3434
sI207
S'        raise'
p3435
sI208
S'    except RestrictedError:'
p3436
ssS'call'
p3437
S'(code="# coding: utf8\\n\\nsession.manager=(auth.user and a...response.sidebar.append([T(\'Your Talks\'),talks])\\n", environment={\'A\': <class \'gluon.html.A\'>, \'ATTENDEE_TYPES\': ((\'gratis\', <lazyT \'Gratuito, $0\'>),), \'ATTENDEE_TYPE_COST\': {None: 0.0, \'gratis\': 0.0}, \'Auth\': <class \'gluon.tools.Auth\'>, \'B\': <class \'gluon.html.B\'>, \'BEAUTIFY\': <class \'gluon.html.BEAUTIFY\'>, \'BODY\': <class \'gluon.html.BODY\'>, \'BR\': <class \'gluon.html.BR\'>, \'BUTTON\': <class \'gluon.html.BUTTON\'>, \'CAT\': <class \'gluon.html.CAT\'>, ...}, layer=\'/home/marco/flisol2012/web2py/applications/flisol2012/models/menu.py\')'
p3438
sS'func'
p3439
S'restricted'
p3440
sa(dp3441
g3412
S'/home/marco/flisol2012/web2py/gluon/restricted.py'
p3442
sg3414
(dp3443
S'builtincompile'
p3444
S'<built-in function compile>'
p3445
sS'code'
p3446
S'"# coding: utf8\\n\\nsession.manager=(auth.user and a...response.sidebar.append([T(\'Your Talks\'),talks])\\n"'
p3447
sS'code.rstrip'
p3448
S'<built-in method rstrip of str object>'
p3449
sS').replace'
p3450
g3423
sS'layer'
p3451
S"'/home/marco/flisol2012/web2py/applications/flisol2012/models/menu.py'"
p3452
ssg3424
I189
sg3425
(dp3453
I192
S'    """'
p3454
sI193
S'    runs code in environment and returns the output. if an exception occurs'
p3455
sI184
S''
sI185
S'def compile2(code,layer):'
p3456
sI186
S'    """'
p3457
sI187
S"    The +'\\n' is necessary else compile fails when code ends in a comment."
p3458
sI188
S'    """'
p3459
sI189
S"    return compile(code.rstrip().replace('\\r\\n','\\n')+'\\n', layer, 'exec')"
p3460
sI190
S''
sI191
S"def restricted(code, environment=None, layer='Unknown'):"
p3461
ssg3437
S'(code="# coding: utf8\\n\\nsession.manager=(auth.user and a...response.sidebar.append([T(\'Your Talks\'),talks])\\n", layer=\'/home/marco/flisol2012/web2py/applications/flisol2012/models/menu.py\')'
p3462
sg3439
S'compile2'
p3463
sasS'pyver'
p3464
S'Python 2.7.2+: /usr/bin/python'
p3465
sS'session'
p3466
g68
(g69
g70
NtRp3467
(dp3468
g73
(dp3469
sg75
(lp3470
g68
(g77
g70
NtRp3471
(dp3472
g73
(dp3473
g81
I5
ssg82
Nsg75
(lp3474
g68
(g84
g70
NtRp3475
(dp3476
g73
(dp3477
sg82
g3471
sg75
(lp3478
g68
(g89
g70
NtRp3479
(dp3480
g73
(dp3481
g93
g94
ssg82
g3475
sg75
(lp3482
S'amount_added'
p3483
asbag68
(g89
g70
NtRp3484
(dp3485
g73
(dp3486
g100
g101
ssg82
g3475
sg75
(lp3487
S':'
asbag68
(g89
g70
NtRp3488
(dp3489
g73
(dp3490
sg82
g3475
sg75
(lp3491
g68
(g69
g70
NtRp3492
(dp3493
g73
(dp3494
g81
I5
ssg82
g3488
sg75
(lp3495
S'0.0'
p3496
asbasbasbag68
(g84
g70
NtRp3497
(dp3498
g73
(dp3499
sg82
g3471
sg75
(lp3500
g68
(g89
g70
NtRp3501
(dp3502
g73
(dp3503
g93
g94
ssg82
g3497
sg75
(lp3504
S'amount_billed'
p3505
asbag68
(g89
g70
NtRp3506
(dp3507
g73
(dp3508
g100
g101
ssg82
g3497
sg75
(lp3509
S':'
asbag68
(g89
g70
NtRp3510
(dp3511
g73
(dp3512
sg82
g3497
sg75
(lp3513
g68
(g69
g70
NtRp3514
(dp3515
g73
(dp3516
g81
I5
ssg82
g3510
sg75
(lp3517
S'0.0'
p3518
asbasbasbag68
(g84
g70
NtRp3519
(dp3520
g73
(dp3521
sg82
g3471
sg75
(lp3522
g68
(g89
g70
NtRp3523
(dp3524
g73
(dp3525
g93
g94
ssg82
g3519
sg75
(lp3526
S'amount_paid'
p3527
asbag68
(g89
g70
NtRp3528
(dp3529
g73
(dp3530
g100
g101
ssg82
g3519
sg75
(lp3531
S':'
asbag68
(g89
g70
NtRp3532
(dp3533
g73
(dp3534
sg82
g3519
sg75
(lp3535
g68
(g69
g70
NtRp3536
(dp3537
g73
(dp3538
g81
I5
ssg82
g3532
sg75
(lp3539
S'0.0'
p3540
asbasbasbag68
(g84
g70
NtRp3541
(dp3542
g73
(dp3543
sg82
g3471
sg75
(lp3544
g68
(g89
g70
NtRp3545
(dp3546
g73
(dp3547
g93
g94
ssg82
g3541
sg75
(lp3548
S'amount_subtracted'
p3549
asbag68
(g89
g70
NtRp3550
(dp3551
g73
(dp3552
g100
g101
ssg82
g3541
sg75
(lp3553
S':'
asbag68
(g89
g70
NtRp3554
(dp3555
g73
(dp3556
sg82
g3541
sg75
(lp3557
g68
(g69
g70
NtRp3558
(dp3559
g73
(dp3560
g81
I5
ssg82
g3554
sg75
(lp3561
S'0.0'
p3562
asbasbasbag68
(g84
g70
NtRp3563
(dp3564
g73
(dp3565
sg82
g3471
sg75
(lp3566
g68
(g89
g70
NtRp3567
(dp3568
g73
(dp3569
g93
g94
ssg82
g3563
sg75
(lp3570
S'auth'
p3571
asbag68
(g89
g70
NtRp3572
(dp3573
g73
(dp3574
g100
g101
ssg82
g3563
sg75
(lp3575
S':'
asbag68
(g89
g70
NtRp3576
(dp3577
g73
(dp3578
sg82
g3563
sg75
(lp3579
g68
(g69
g70
NtRp3580
(dp3581
g73
(dp3582
g81
I5
ssg82
g3576
sg75
(lp3583
g68
(g77
g70
NtRp3584
(dp3585
g73
(dp3586
g81
I4
ssg82
Nsg75
(lp3587
g68
(g84
g70
NtRp3588
(dp3589
g73
(dp3590
sg82
g3584
sg75
(lp3591
g68
(g89
g70
NtRp3592
(dp3593
g73
(dp3594
g93
g94
ssg82
g3588
sg75
(lp3595
S'expiration'
p3596
asbag68
(g89
g70
NtRp3597
(dp3598
g73
(dp3599
g100
g101
ssg82
g3588
sg75
(lp3600
S':'
asbag68
(g89
g70
NtRp3601
(dp3602
g73
(dp3603
sg82
g3588
sg75
(lp3604
g68
(g69
g70
NtRp3605
(dp3606
g73
(dp3607
g81
I4
ssg82
g3601
sg75
(lp3608
S'3600'
p3609
asbasbasbag68
(g84
g70
NtRp3610
(dp3611
g73
(dp3612
sg82
g3584
sg75
(lp3613
g68
(g89
g70
NtRp3614
(dp3615
g73
(dp3616
g93
g94
ssg82
g3610
sg75
(lp3617
S'hmac_key'
p3618
asbag68
(g89
g70
NtRp3619
(dp3620
g73
(dp3621
g100
g101
ssg82
g3610
sg75
(lp3622
S':'
asbag68
(g89
g70
NtRp3623
(dp3624
g73
(dp3625
sg82
g3610
sg75
(lp3626
g68
(g69
g70
NtRp3627
(dp3628
g73
(dp3629
g81
I4
ssg82
g3623
sg75
(lp3630
S'045d0b9c-7347-403d-bb13-cdac39166793'
p3631
asbasbasbag68
(g84
g70
NtRp3632
(dp3633
g73
(dp3634
sg82
g3584
sg75
(lp3635
g68
(g89
g70
NtRp3636
(dp3637
g73
(dp3638
g93
g94
ssg82
g3632
sg75
(lp3639
S'last_visit'
p3640
asbag68
(g89
g70
NtRp3641
(dp3642
g73
(dp3643
g100
g101
ssg82
g3632
sg75
(lp3644
S':'
asbag68
(g89
g70
NtRp3645
(dp3646
g73
(dp3647
sg82
g3632
sg75
(lp3648
g68
(g69
g70
NtRp3649
(dp3650
g73
(dp3651
g81
I4
ssg82
g3645
sg75
(lp3652
S'datetime.datetime(2012, 3, 9, 18, 38, 11, 620190)'
p3653
asbasbasbag68
(g84
g70
NtRp3654
(dp3655
g73
(dp3656
sg82
g3584
sg75
(lp3657
g68
(g89
g70
NtRp3658
(dp3659
g73
(dp3660
g93
g94
ssg82
g3654
sg75
(lp3661
S'remember'
p3662
asbag68
(g89
g70
NtRp3663
(dp3664
g73
(dp3665
g100
g101
ssg82
g3654
sg75
(lp3666
S':'
asbag68
(g89
g70
NtRp3667
(dp3668
g73
(dp3669
sg82
g3654
sg75
(lp3670
g68
(g69
g70
NtRp3671
(dp3672
g73
(dp3673
g81
I4
ssg82
g3667
sg75
(lp3674
g111
asbasbasbag68
(g84
g70
NtRp3675
(dp3676
g73
(dp3677
sg82
g3584
sg75
(lp3678
g68
(g89
g70
NtRp3679
(dp3680
g73
(dp3681
g93
g94
ssg82
g3675
sg75
(lp3682
S'user'
p3683
asbag68
(g89
g70
NtRp3684
(dp3685
g73
(dp3686
g100
g101
ssg82
g3675
sg75
(lp3687
S':'
asbag68
(g89
g70
NtRp3688
(dp3689
g73
(dp3690
sg82
g3675
sg75
(lp3691
g68
(g69
g70
NtRp3692
(dp3693
g73
(dp3694
g81
I4
ssg82
g3688
sg75
(lp3695
g68
(g77
g70
NtRp3696
(dp3697
g73
(dp3698
g81
I3
ssg82
Nsg75
(lp3699
g68
(g84
g70
NtRp3700
(dp3701
g73
(dp3702
sg82
g3696
sg75
(lp3703
g68
(g89
g70
NtRp3704
(dp3705
g73
(dp3706
g93
g94
ssg82
g3700
sg75
(lp3707
S'address'
p3708
asbag68
(g89
g70
NtRp3709
(dp3710
g73
(dp3711
g100
g101
ssg82
g3700
sg75
(lp3712
S':'
asbag68
(g89
g70
NtRp3713
(dp3714
g73
(dp3715
sg82
g3700
sg75
(lp3716
g68
(g69
g70
NtRp3717
(dp3718
g73
(dp3719
g81
I3
ssg82
g3713
sg75
(lp3720
S'Santa Lucia S/N'
p3721
asbasbasbag68
(g84
g70
NtRp3722
(dp3723
g73
(dp3724
sg82
g3696
sg75
(lp3725
g68
(g89
g70
NtRp3726
(dp3727
g73
(dp3728
g93
g94
ssg82
g3722
sg75
(lp3729
S'amount_added'
p3730
asbag68
(g89
g70
NtRp3731
(dp3732
g73
(dp3733
g100
g101
ssg82
g3722
sg75
(lp3734
S':'
asbag68
(g89
g70
NtRp3735
(dp3736
g73
(dp3737
sg82
g3722
sg75
(lp3738
g68
(g69
g70
NtRp3739
(dp3740
g73
(dp3741
g81
I3
ssg82
g3735
sg75
(lp3742
S'0.0'
p3743
asbasbasbag68
(g84
g70
NtRp3744
(dp3745
g73
(dp3746
sg82
g3696
sg75
(lp3747
g68
(g89
g70
NtRp3748
(dp3749
g73
(dp3750
g93
g94
ssg82
g3744
sg75
(lp3751
S'amount_billed'
p3752
asbag68
(g89
g70
NtRp3753
(dp3754
g73
(dp3755
g100
g101
ssg82
g3744
sg75
(lp3756
S':'
asbag68
(g89
g70
NtRp3757
(dp3758
g73
(dp3759
sg82
g3744
sg75
(lp3760
g68
(g69
g70
NtRp3761
(dp3762
g73
(dp3763
g81
I3
ssg82
g3757
sg75
(lp3764
S'0.0'
p3765
asbasbasbag68
(g84
g70
NtRp3766
(dp3767
g73
(dp3768
sg82
g3696
sg75
(lp3769
g68
(g89
g70
NtRp3770
(dp3771
g73
(dp3772
g93
g94
ssg82
g3766
sg75
(lp3773
S'amount_due'
p3774
asbag68
(g89
g70
NtRp3775
(dp3776
g73
(dp3777
g100
g101
ssg82
g3766
sg75
(lp3778
S':'
asbag68
(g89
g70
NtRp3779
(dp3780
g73
(dp3781
sg82
g3766
sg75
(lp3782
g68
(g69
g70
NtRp3783
(dp3784
g73
(dp3785
g81
I3
ssg82
g3779
sg75
(lp3786
S'0.0'
p3787
asbasbasbag68
(g84
g70
NtRp3788
(dp3789
g73
(dp3790
sg82
g3696
sg75
(lp3791
g68
(g89
g70
NtRp3792
(dp3793
g73
(dp3794
g93
g94
ssg82
g3788
sg75
(lp3795
S'amount_paid'
p3796
asbag68
(g89
g70
NtRp3797
(dp3798
g73
(dp3799
g100
g101
ssg82
g3788
sg75
(lp3800
S':'
asbag68
(g89
g70
NtRp3801
(dp3802
g73
(dp3803
sg82
g3788
sg75
(lp3804
g68
(g69
g70
NtRp3805
(dp3806
g73
(dp3807
g81
I3
ssg82
g3801
sg75
(lp3808
S'0.0'
p3809
asbasbasbag68
(g84
g70
NtRp3810
(dp3811
g73
(dp3812
sg82
g3696
sg75
(lp3813
g68
(g89
g70
NtRp3814
(dp3815
g73
(dp3816
g93
g94
ssg82
g3810
sg75
(lp3817
S'amount_subtracted'
p3818
asbag68
(g89
g70
NtRp3819
(dp3820
g73
(dp3821
g100
g101
ssg82
g3810
sg75
(lp3822
S':'
asbag68
(g89
g70
NtRp3823
(dp3824
g73
(dp3825
sg82
g3810
sg75
(lp3826
g68
(g69
g70
NtRp3827
(dp3828
g73
(dp3829
g81
I3
ssg82
g3823
sg75
(lp3830
S'0.0'
p3831
asbasbasbag68
(g84
g70
NtRp3832
(dp3833
g73
(dp3834
sg82
g3696
sg75
(lp3835
g68
(g89
g70
NtRp3836
(dp3837
g73
(dp3838
g93
g94
ssg82
g3832
sg75
(lp3839
S'attendee_type'
p3840
asbag68
(g89
g70
NtRp3841
(dp3842
g73
(dp3843
g100
g101
ssg82
g3832
sg75
(lp3844
S':'
asbag68
(g89
g70
NtRp3845
(dp3846
g73
(dp3847
sg82
g3832
sg75
(lp3848
g68
(g69
g70
NtRp3849
(dp3850
g73
(dp3851
g81
I3
ssg82
g3845
sg75
(lp3852
S'gratis'
p3853
asbasbasbag68
(g84
g70
NtRp3854
(dp3855
g73
(dp3856
sg82
g3696
sg75
(lp3857
g68
(g89
g70
NtRp3858
(dp3859
g73
(dp3860
g93
g94
ssg82
g3854
sg75
(lp3861
S'city'
p3862
asbag68
(g89
g70
NtRp3863
(dp3864
g73
(dp3865
g100
g101
ssg82
g3854
sg75
(lp3866
S':'
asbag68
(g89
g70
NtRp3867
(dp3868
g73
(dp3869
sg82
g3854
sg75
(lp3870
g68
(g69
g70
NtRp3871
(dp3872
g73
(dp3873
g81
I3
ssg82
g3867
sg75
(lp3874
S'Salta'
p3875
asbasbasbag68
(g84
g70
NtRp3876
(dp3877
g73
(dp3878
sg82
g3696
sg75
(lp3879
g68
(g89
g70
NtRp3880
(dp3881
g73
(dp3882
g93
g94
ssg82
g3876
sg75
(lp3883
S'company_home_page'
p3884
asbag68
(g89
g70
NtRp3885
(dp3886
g73
(dp3887
g100
g101
ssg82
g3876
sg75
(lp3888
S':'
asbag68
(g89
g70
NtRp3889
(dp3890
g73
(dp3891
sg82
g3876
sg75
(lp3892
g68
(g69
g70
NtRp3893
(dp3894
g73
(dp3895
g81
I3
ssg82
g3889
sg75
(lp3896
S'http://www.esdebian.org'
p3897
asbasbasbag68
(g84
g70
NtRp3898
(dp3899
g73
(dp3900
sg82
g3696
sg75
(lp3901
g68
(g89
g70
NtRp3902
(dp3903
g73
(dp3904
g93
g94
ssg82
g3898
sg75
(lp3905
S'company_name'
p3906
asbag68
(g89
g70
NtRp3907
(dp3908
g73
(dp3909
g100
g101
ssg82
g3898
sg75
(lp3910
S':'
asbag68
(g89
g70
NtRp3911
(dp3912
g73
(dp3913
sg82
g3898
sg75
(lp3914
g68
(g69
g70
NtRp3915
(dp3916
g73
(dp3917
g81
I3
ssg82
g3911
sg75
(lp3918
S'Debian OS'
p3919
asbasbasbag68
(g84
g70
NtRp3920
(dp3921
g73
(dp3922
sg82
g3696
sg75
(lp3923
g68
(g89
g70
NtRp3924
(dp3925
g73
(dp3926
g93
g94
ssg82
g3920
sg75
(lp3927
S'country'
p3928
asbag68
(g89
g70
NtRp3929
(dp3930
g73
(dp3931
g100
g101
ssg82
g3920
sg75
(lp3932
S':'
asbag68
(g89
g70
NtRp3933
(dp3934
g73
(dp3935
sg82
g3920
sg75
(lp3936
g68
(g69
g70
NtRp3937
(dp3938
g73
(dp3939
g81
I3
ssg82
g3933
sg75
(lp3940
S'Argentina'
p3941
asbasbasbag68
(g84
g70
NtRp3942
(dp3943
g73
(dp3944
sg82
g3696
sg75
(lp3945
g68
(g89
g70
NtRp3946
(dp3947
g73
(dp3948
g93
g94
ssg82
g3942
sg75
(lp3949
S'created_by_ip'
p3950
asbag68
(g89
g70
NtRp3951
(dp3952
g73
(dp3953
g100
g101
ssg82
g3942
sg75
(lp3954
S':'
asbag68
(g89
g70
NtRp3955
(dp3956
g73
(dp3957
sg82
g3942
sg75
(lp3958
g68
(g69
g70
NtRp3959
(dp3960
g73
(dp3961
g81
I3
ssg82
g3955
sg75
(lp3962
S'127.0.0.1'
p3963
asbasbasbag68
(g84
g70
NtRp3964
(dp3965
g73
(dp3966
sg82
g3696
sg75
(lp3967
g68
(g89
g70
NtRp3968
(dp3969
g73
(dp3970
g93
g94
ssg82
g3964
sg75
(lp3971
S'created_on'
p3972
asbag68
(g89
g70
NtRp3973
(dp3974
g73
(dp3975
g100
g101
ssg82
g3964
sg75
(lp3976
S':'
asbag68
(g89
g70
NtRp3977
(dp3978
g73
(dp3979
sg82
g3964
sg75
(lp3980
g68
(g69
g70
NtRp3981
(dp3982
g73
(dp3983
g81
I3
ssg82
g3977
sg75
(lp3984
S'datetime.datetime(2012, 3, 9, 2, 56, 49)'
p3985
asbasbasbag68
(g84
g70
NtRp3986
(dp3987
g73
(dp3988
sg82
g3696
sg75
(lp3989
g68
(g89
g70
NtRp3990
(dp3991
g73
(dp3992
g93
g94
ssg82
g3986
sg75
(lp3993
S'discount_coupon'
p3994
asbag68
(g89
g70
NtRp3995
(dp3996
g73
(dp3997
g100
g101
ssg82
g3986
sg75
(lp3998
S':'
asbag68
(g89
g70
NtRp3999
(dp4000
g73
(dp4001
sg82
g3986
sg75
(lp4002
g68
(g69
g70
NtRp4003
(dp4004
g73
(dp4005
g81
I3
ssg82
g3999
sg75
(lp4006
S'None'
p4007
asbasbasbag68
(g84
g70
NtRp4008
(dp4009
g73
(dp4010
sg82
g3696
sg75
(lp4011
g68
(g89
g70
NtRp4012
(dp4013
g73
(dp4014
g93
g94
ssg82
g4008
sg75
(lp4015
S'donation'
p4016
asbag68
(g89
g70
NtRp4017
(dp4018
g73
(dp4019
g100
g101
ssg82
g4008
sg75
(lp4020
S':'
asbag68
(g89
g70
NtRp4021
(dp4022
g73
(dp4023
sg82
g4008
sg75
(lp4024
g68
(g69
g70
NtRp4025
(dp4026
g73
(dp4027
g81
I3
ssg82
g4021
sg75
(lp4028
S'0.0'
p4029
asbasbasbag68
(g84
g70
NtRp4030
(dp4031
g73
(dp4032
sg82
g3696
sg75
(lp4033
g68
(g89
g70
NtRp4034
(dp4035
g73
(dp4036
g93
g94
ssg82
g4030
sg75
(lp4037
S'email'
p4038
asbag68
(g89
g70
NtRp4039
(dp4040
g73
(dp4041
g100
g101
ssg82
g4030
sg75
(lp4042
S':'
asbag68
(g89
g70
NtRp4043
(dp4044
g73
(dp4045
sg82
g4030
sg75
(lp4046
g68
(g69
g70
NtRp4047
(dp4048
g73
(dp4049
g81
I3
ssg82
g4043
sg75
(lp4050
S'marco@saltalug.org.ar'
p4051
asbasbasbag68
(g84
g70
NtRp4052
(dp4053
g73
(dp4054
sg82
g3696
sg75
(lp4055
g68
(g89
g70
NtRp4056
(dp4057
g73
(dp4058
g93
g94
ssg82
g4052
sg75
(lp4059
S'first_name'
p4060
asbag68
(g89
g70
NtRp4061
(dp4062
g73
(dp4063
g100
g101
ssg82
g4052
sg75
(lp4064
S':'
asbag68
(g89
g70
NtRp4065
(dp4066
g73
(dp4067
sg82
g4052
sg75
(lp4068
g68
(g69
g70
NtRp4069
(dp4070
g73
(dp4071
g81
I3
ssg82
g4065
sg75
(lp4072
S'Marco'
p4073
asbasbasbag68
(g84
g70
NtRp4074
(dp4075
g73
(dp4076
sg82
g3696
sg75
(lp4077
g68
(g89
g70
NtRp4078
(dp4079
g73
(dp4080
g93
g94
ssg82
g4074
sg75
(lp4081
S'id'
p4082
asbag68
(g89
g70
NtRp4083
(dp4084
g73
(dp4085
g100
g101
ssg82
g4074
sg75
(lp4086
S':'
asbag68
(g89
g70
NtRp4087
(dp4088
g73
(dp4089
sg82
g4074
sg75
(lp4090
g68
(g69
g70
NtRp4091
(dp4092
g73
(dp4093
g81
I3
ssg82
g4087
sg75
(lp4094
S'55'
p4095
asbasbasbag68
(g84
g70
NtRp4096
(dp4097
g73
(dp4098
sg82
g3696
sg75
(lp4099
g68
(g89
g70
NtRp4100
(dp4101
g73
(dp4102
g93
g94
ssg82
g4096
sg75
(lp4103
S'include_in_delegate_listing'
p4104
asbag68
(g89
g70
NtRp4105
(dp4106
g73
(dp4107
g100
g101
ssg82
g4096
sg75
(lp4108
S':'
asbag68
(g89
g70
NtRp4109
(dp4110
g73
(dp4111
sg82
g4096
sg75
(lp4112
g68
(g69
g70
NtRp4113
(dp4114
g73
(dp4115
g81
I3
ssg82
g4109
sg75
(lp4116
g1960
asbasbasbag68
(g84
g70
NtRp4117
(dp4118
g73
(dp4119
sg82
g3696
sg75
(lp4120
g68
(g89
g70
NtRp4121
(dp4122
g73
(dp4123
g93
g94
ssg82
g4117
sg75
(lp4124
S'installfest_hardware'
p4125
asbag68
(g89
g70
NtRp4126
(dp4127
g73
(dp4128
g100
g101
ssg82
g4117
sg75
(lp4129
S':'
asbag68
(g89
g70
NtRp4130
(dp4131
g73
(dp4132
sg82
g4117
sg75
(lp4133
g68
(g69
g70
NtRp4134
(dp4135
g73
(dp4136
g81
I3
ssg82
g4130
sg75
(lp4137
S'kakafono'
p4138
asbasbasbag68
(g84
g70
NtRp4139
(dp4140
g73
(dp4141
sg82
g3696
sg75
(lp4142
g68
(g89
g70
NtRp4143
(dp4144
g73
(dp4145
g93
g94
ssg82
g4139
sg75
(lp4146
S'installfest_os'
p4147
asbag68
(g89
g70
NtRp4148
(dp4149
g73
(dp4150
g100
g101
ssg82
g4139
sg75
(lp4151
S':'
asbag68
(g89
g70
NtRp4152
(dp4153
g73
(dp4154
sg82
g4139
sg75
(lp4155
g68
(g69
g70
NtRp4156
(dp4157
g73
(dp4158
g81
I3
ssg82
g4152
sg75
(lp4159
S'Debian'
p4160
asbasbasbag68
(g84
g70
NtRp4161
(dp4162
g73
(dp4163
sg82
g3696
sg75
(lp4164
g68
(g89
g70
NtRp4165
(dp4166
g73
(dp4167
g93
g94
ssg82
g4161
sg75
(lp4168
S'last_name'
p4169
asbag68
(g89
g70
NtRp4170
(dp4171
g73
(dp4172
g100
g101
ssg82
g4161
sg75
(lp4173
S':'
asbag68
(g89
g70
NtRp4174
(dp4175
g73
(dp4176
sg82
g4161
sg75
(lp4177
g68
(g69
g70
NtRp4178
(dp4179
g73
(dp4180
g81
I3
ssg82
g4174
sg75
(lp4181
S'Mansilla'
p4182
asbasbasbag68
(g84
g70
NtRp4183
(dp4184
g73
(dp4185
sg82
g3696
sg75
(lp4186
g68
(g89
g70
NtRp4187
(dp4188
g73
(dp4189
g93
g94
ssg82
g4183
sg75
(lp4190
S'latitude'
p4191
asbag68
(g89
g70
NtRp4192
(dp4193
g73
(dp4194
g100
g101
ssg82
g4183
sg75
(lp4195
S':'
asbag68
(g89
g70
NtRp4196
(dp4197
g73
(dp4198
sg82
g4183
sg75
(lp4199
g68
(g69
g70
NtRp4200
(dp4201
g73
(dp4202
g81
I3
ssg82
g4196
sg75
(lp4203
S'-24.8442777'
p4204
asbasbasbag68
(g84
g70
NtRp4205
(dp4206
g73
(dp4207
sg82
g3696
sg75
(lp4208
g68
(g89
g70
NtRp4209
(dp4210
g73
(dp4211
g93
g94
ssg82
g4205
sg75
(lp4212
S'longitude'
p4213
asbag68
(g89
g70
NtRp4214
(dp4215
g73
(dp4216
g100
g101
ssg82
g4205
sg75
(lp4217
S':'
asbag68
(g89
g70
NtRp4218
(dp4219
g73
(dp4220
sg82
g4205
sg75
(lp4221
g68
(g69
g70
NtRp4222
(dp4223
g73
(dp4224
g81
I3
ssg82
g4218
sg75
(lp4225
S'-65.4787676'
p4226
asbasbasbag68
(g84
g70
NtRp4227
(dp4228
g73
(dp4229
sg82
g3696
sg75
(lp4230
g68
(g89
g70
NtRp4231
(dp4232
g73
(dp4233
g93
g94
ssg82
g4227
sg75
(lp4234
S'manager'
p4235
asbag68
(g89
g70
NtRp4236
(dp4237
g73
(dp4238
g100
g101
ssg82
g4227
sg75
(lp4239
S':'
asbag68
(g89
g70
NtRp4240
(dp4241
g73
(dp4242
sg82
g4227
sg75
(lp4243
g68
(g69
g70
NtRp4244
(dp4245
g73
(dp4246
g81
I3
ssg82
g4240
sg75
(lp4247
g1960
asbasbasbag68
(g84
g70
NtRp4248
(dp4249
g73
(dp4250
sg82
g3696
sg75
(lp4251
g68
(g89
g70
NtRp4252
(dp4253
g73
(dp4254
g93
g94
ssg82
g4248
sg75
(lp4255
S'password'
p4256
asbag68
(g89
g70
NtRp4257
(dp4258
g73
(dp4259
g100
g101
ssg82
g4248
sg75
(lp4260
S':'
asbag68
(g89
g70
NtRp4261
(dp4262
g73
(dp4263
sg82
g4248
sg75
(lp4264
g68
(g69
g70
NtRp4265
(dp4266
g73
(dp4267
g81
I3
ssg82
g4261
sg75
(lp4268
S'121c120f6831e94b12b41d853c3f672b'
p4269
asbasbasbag68
(g84
g70
NtRp4270
(dp4271
g73
(dp4272
sg82
g3696
sg75
(lp4273
g68
(g89
g70
NtRp4274
(dp4275
g73
(dp4276
g93
g94
ssg82
g4270
sg75
(lp4277
S'personal_home_page'
p4278
asbag68
(g89
g70
NtRp4279
(dp4280
g73
(dp4281
g100
g101
ssg82
g4270
sg75
(lp4282
S':'
asbag68
(g89
g70
NtRp4283
(dp4284
g73
(dp4285
sg82
g4270
sg75
(lp4286
g68
(g69
g70
NtRp4287
(dp4288
g73
(dp4289
g81
I3
ssg82
g4283
sg75
(lp4290
S'http://www.esdebian.org'
p4291
asbasbasbag68
(g84
g70
NtRp4292
(dp4293
g73
(dp4294
sg82
g3696
sg75
(lp4295
g68
(g89
g70
NtRp4296
(dp4297
g73
(dp4298
g93
g94
ssg82
g4292
sg75
(lp4299
S'phone_number'
p4300
asbag68
(g89
g70
NtRp4301
(dp4302
g73
(dp4303
g100
g101
ssg82
g4292
sg75
(lp4304
S':'
asbag68
(g89
g70
NtRp4305
(dp4306
g73
(dp4307
sg82
g4292
sg75
(lp4308
g68
(g69
g70
NtRp4309
(dp4310
g73
(dp4311
g81
I3
ssg82
g4305
sg75
(lp4312
S'76543456789'
p4313
asbasbasbag68
(g84
g70
NtRp4314
(dp4315
g73
(dp4316
sg82
g3696
sg75
(lp4317
g68
(g89
g70
NtRp4318
(dp4319
g73
(dp4320
g93
g94
ssg82
g4314
sg75
(lp4321
S'registration_key'
p4322
asbag68
(g89
g70
NtRp4323
(dp4324
g73
(dp4325
g100
g101
ssg82
g4314
sg75
(lp4326
S':'
asbag68
(g89
g70
NtRp4327
(dp4328
g73
(dp4329
sg82
g4314
sg75
(lp4330
g68
(g69
g70
NtRp4331
(dp4332
g73
(dp4333
g81
I3
ssg82
g4327
sg75
(lp4334
S''
asbasbasbag68
(g84
g70
NtRp4335
(dp4336
g73
(dp4337
sg82
g3696
sg75
(lp4338
g68
(g89
g70
NtRp4339
(dp4340
g73
(dp4341
g93
g94
ssg82
g4335
sg75
(lp4342
S'resume'
p4343
asbag68
(g89
g70
NtRp4344
(dp4345
g73
(dp4346
g100
g101
ssg82
g4335
sg75
(lp4347
S':'
asbag68
(g89
g70
NtRp4348
(dp4349
g73
(dp4350
sg82
g4335
sg75
(lp4351
g68
(g69
g70
NtRp4352
(dp4353
g73
(dp4354
g81
I3
ssg82
g4348
sg75
(lp4355
S'None'
p4356
asbasbasbag68
(g84
g70
NtRp4357
(dp4358
g73
(dp4359
sg82
g3696
sg75
(lp4360
g68
(g89
g70
NtRp4361
(dp4362
g73
(dp4363
g93
g94
ssg82
g4357
sg75
(lp4364
S'reviewer'
p4365
asbag68
(g89
g70
NtRp4366
(dp4367
g73
(dp4368
g100
g101
ssg82
g4357
sg75
(lp4369
S':'
asbag68
(g89
g70
NtRp4370
(dp4371
g73
(dp4372
sg82
g4357
sg75
(lp4373
g68
(g69
g70
NtRp4374
(dp4375
g73
(dp4376
g81
I3
ssg82
g4370
sg75
(lp4377
g1960
asbasbasbag68
(g84
g70
NtRp4378
(dp4379
g73
(dp4380
sg82
g3696
sg75
(lp4381
g68
(g89
g70
NtRp4382
(dp4383
g73
(dp4384
g93
g94
ssg82
g4378
sg75
(lp4385
S'session_chair'
p4386
asbag68
(g89
g70
NtRp4387
(dp4388
g73
(dp4389
g100
g101
ssg82
g4378
sg75
(lp4390
S':'
asbag68
(g89
g70
NtRp4391
(dp4392
g73
(dp4393
sg82
g4378
sg75
(lp4394
g68
(g69
g70
NtRp4395
(dp4396
g73
(dp4397
g81
I3
ssg82
g4391
sg75
(lp4398
g111
asbasbasbag68
(g84
g70
NtRp4399
(dp4400
g73
(dp4401
sg82
g3696
sg75
(lp4402
g68
(g89
g70
NtRp4403
(dp4404
g73
(dp4405
g93
g94
ssg82
g4399
sg75
(lp4406
S'speaker'
p4407
asbag68
(g89
g70
NtRp4408
(dp4409
g73
(dp4410
g100
g101
ssg82
g4399
sg75
(lp4411
S':'
asbag68
(g89
g70
NtRp4412
(dp4413
g73
(dp4414
sg82
g4399
sg75
(lp4415
g68
(g69
g70
NtRp4416
(dp4417
g73
(dp4418
g81
I3
ssg82
g4412
sg75
(lp4419
g111
asbasbasbag68
(g84
g70
NtRp4420
(dp4421
g73
(dp4422
sg82
g3696
sg75
(lp4423
g68
(g89
g70
NtRp4424
(dp4425
g73
(dp4426
g93
g94
ssg82
g4420
sg75
(lp4427
S'state'
p4428
asbag68
(g89
g70
NtRp4429
(dp4430
g73
(dp4431
g100
g101
ssg82
g4420
sg75
(lp4432
S':'
asbag68
(g89
g70
NtRp4433
(dp4434
g73
(dp4435
sg82
g4420
sg75
(lp4436
g68
(g69
g70
NtRp4437
(dp4438
g73
(dp4439
g81
I3
ssg82
g4433
sg75
(lp4440
S'Salta'
p4441
asbasbasbag68
(g84
g70
NtRp4442
(dp4443
g73
(dp4444
sg82
g3696
sg75
(lp4445
g68
(g89
g70
NtRp4446
(dp4447
g73
(dp4448
g93
g94
ssg82
g4442
sg75
(lp4449
S'tutorials'
p4450
asbag68
(g89
g70
NtRp4451
(dp4452
g73
(dp4453
g100
g101
ssg82
g4442
sg75
(lp4454
S':'
asbag68
(g89
g70
NtRp4455
(dp4456
g73
(dp4457
sg82
g4442
sg75
(lp4458
g68
(g69
g70
NtRp4459
(dp4460
g73
(dp4461
g81
I3
ssg82
g4455
sg75
(lp4462
S'None'
p4463
asbasbasbag68
(g84
g70
NtRp4464
(dp4465
g73
(dp4466
sg82
g3696
sg75
(lp4467
g68
(g89
g70
NtRp4468
(dp4469
g73
(dp4470
g93
g94
ssg82
g4464
sg75
(lp4471
S'zip_code'
p4472
asbag68
(g89
g70
NtRp4473
(dp4474
g73
(dp4475
g100
g101
ssg82
g4464
sg75
(lp4476
S':'
asbag68
(g89
g70
NtRp4477
(dp4478
g73
(dp4479
sg82
g4464
sg75
(lp4480
g68
(g69
g70
NtRp4481
(dp4482
g73
(dp4483
g81
I3
ssg82
g4477
sg75
(lp4484
S'4400'
p4485
asbasbasbasbasbasbasbag68
(g84
g70
NtRp4486
(dp4487
g73
(dp4488
sg82
g3584
sg75
(lp4489
g68
(g89
g70
NtRp4490
(dp4491
g73
(dp4492
g93
g94
ssg82
g4486
sg75
(lp4493
S'user_groups'
p4494
asbag68
(g89
g70
NtRp4495
(dp4496
g73
(dp4497
g100
g101
ssg82
g4486
sg75
(lp4498
S':'
asbag68
(g89
g70
NtRp4499
(dp4500
g73
(dp4501
sg82
g4486
sg75
(lp4502
g68
(g69
g70
NtRp4503
(dp4504
g73
(dp4505
g81
I4
ssg82
g4499
sg75
(lp4506
g68
(g77
g70
NtRp4507
(dp4508
g73
(dp4509
g81
I3
ssg82
Nsg75
(lp4510
g68
(g84
g70
NtRp4511
(dp4512
g73
(dp4513
sg82
g4507
sg75
(lp4514
g68
(g89
g70
NtRp4515
(dp4516
g73
(dp4517
g93
g94
ssg82
g4511
sg75
(lp4518
S'15'
p4519
asbag68
(g89
g70
NtRp4520
(dp4521
g73
(dp4522
g100
g101
ssg82
g4511
sg75
(lp4523
S':'
asbag68
(g89
g70
NtRp4524
(dp4525
g73
(dp4526
sg82
g4511
sg75
(lp4527
g68
(g69
g70
NtRp4528
(dp4529
g73
(dp4530
g81
I3
ssg82
g4524
sg75
(lp4531
S'plugin_flatpages'
p4532
asbasbasbasbasbasbasbasbasbasbasbag68
(g84
g70
NtRp4533
(dp4534
g73
(dp4535
sg82
g3471
sg75
(lp4536
g68
(g89
g70
NtRp4537
(dp4538
g73
(dp4539
g93
g94
ssg82
g4533
sg75
(lp4540
S'balance'
p4541
asbag68
(g89
g70
NtRp4542
(dp4543
g73
(dp4544
g100
g101
ssg82
g4533
sg75
(lp4545
S':'
asbag68
(g89
g70
NtRp4546
(dp4547
g73
(dp4548
sg82
g4533
sg75
(lp4549
g68
(g69
g70
NtRp4550
(dp4551
g73
(dp4552
g81
I5
ssg82
g4546
sg75
(lp4553
S'0.0'
p4554
asbasbasbag68
(g84
g70
NtRp4555
(dp4556
g73
(dp4557
sg82
g3471
sg75
(lp4558
g68
(g89
g70
NtRp4559
(dp4560
g73
(dp4561
g93
g94
ssg82
g4555
sg75
(lp4562
S'manager'
p4563
asbag68
(g89
g70
NtRp4564
(dp4565
g73
(dp4566
g100
g101
ssg82
g4555
sg75
(lp4567
S':'
asbag68
(g89
g70
NtRp4568
(dp4569
g73
(dp4570
sg82
g4555
sg75
(lp4571
g68
(g69
g70
NtRp4572
(dp4573
g73
(dp4574
g81
I5
ssg82
g4568
sg75
(lp4575
g1960
asbasbasbag68
(g84
g70
NtRp4576
(dp4577
g73
(dp4578
sg82
g3471
sg75
(lp4579
g68
(g89
g70
NtRp4580
(dp4581
g73
(dp4582
g93
g94
ssg82
g4576
sg75
(lp4583
S't2'
p4584
asbag68
(g89
g70
NtRp4585
(dp4586
g73
(dp4587
g100
g101
ssg82
g4576
sg75
(lp4588
S':'
asbag68
(g89
g70
NtRp4589
(dp4590
g73
(dp4591
sg82
g4576
sg75
(lp4592
g68
(g69
g70
NtRp4593
(dp4594
g73
(dp4595
g81
I5
ssg82
g4589
sg75
(lp4596
g68
(g77
g70
NtRp4597
(dp4598
g73
(dp4599
g81
I4
ssg82
Nsg75
(lp4600
g68
(g84
g70
NtRp4601
(dp4602
g73
(dp4603
sg82
g4597
sg75
(lp4604
g68
(g89
g70
NtRp4605
(dp4606
g73
(dp4607
g93
g94
ssg82
g4601
sg75
(lp4608
S'my_groups_id'
p4609
asbag68
(g89
g70
NtRp4610
(dp4611
g73
(dp4612
g100
g101
ssg82
g4601
sg75
(lp4613
S':'
asbag68
(g89
g70
NtRp4614
(dp4615
g73
(dp4616
sg82
g4601
sg75
(lp4617
g68
(g69
g70
NtRp4618
(dp4619
g73
(dp4620
g81
I4
ssg82
g4614
sg75
(lp4621
g68
(g77
g70
NtRp4622
(dp4623
g73
(dp4624
g81
I3
ssg82
Nsg75
(lp4625
sbasbasbasbasbasbasbasbasbasbsS'etype'
p4626
S"<type 'exceptions.SyntaxError'>"
p4627
sS'date'
p4628
S'Fri Mar  9 18:38:11 2012'
p4629
sS'response'
p4630
g68
(g69
g70
NtRp4631
(dp4632
g73
(dp4633
sg75
(lp4634
g68
(g77
g70
NtRp4635
(dp4636
g73
(dp4637
g81
I5
ssg82
Nsg75
(lp4638
g68
(g84
g70
NtRp4639
(dp4640
g73
(dp4641
sg82
g4635
sg75
(lp4642
g68
(g89
g70
NtRp4643
(dp4644
g73
(dp4645
g93
g94
ssg82
g4639
sg75
(lp4646
g166
asbag68
(g89
g70
NtRp4647
(dp4648
g73
(dp4649
g100
g101
ssg82
g4639
sg75
(lp4650
S':'
asbag68
(g89
g70
NtRp4651
(dp4652
g73
(dp4653
sg82
g4639
sg75
(lp4654
g68
(g69
g70
NtRp4655
(dp4656
g73
(dp4657
g81
I5
ssg82
g4651
sg75
(lp4658
S'<cStringIO.StringO object at 0x2acbc38>'
p4659
asbasbasbag68
(g84
g70
NtRp4660
(dp4661
g73
(dp4662
sg82
g4635
sg75
(lp4663
g68
(g89
g70
NtRp4664
(dp4665
g73
(dp4666
g93
g94
ssg82
g4660
sg75
(lp4667
g232
asbag68
(g89
g70
NtRp4668
(dp4669
g73
(dp4670
g100
g101
ssg82
g4660
sg75
(lp4671
S':'
asbag68
(g89
g70
NtRp4672
(dp4673
g73
(dp4674
sg82
g4660
sg75
(lp4675
g68
(g69
g70
NtRp4676
(dp4677
g73
(dp4678
g81
I5
ssg82
g4672
sg75
(lp4679
g68
(g77
g70
NtRp4680
(dp4681
g73
(dp4682
g81
I4
ssg82
Nsg75
(lp4683
g68
(g84
g70
NtRp4684
(dp4685
g73
(dp4686
sg82
g4680
sg75
(lp4687
g68
(g89
g70
NtRp4688
(dp4689
g73
(dp4690
g93
g94
ssg82
g4684
sg75
(lp4691
S'session_id_flisol2012'
p4692
asbag68
(g89
g70
NtRp4693
(dp4694
g73
(dp4695
g100
g101
ssg82
g4684
sg75
(lp4696
S':'
asbag68
(g89
g70
NtRp4697
(dp4698
g73
(dp4699
sg82
g4684
sg75
(lp4700
g68
(g69
g70
NtRp4701
(dp4702
g73
(dp4703
g81
I4
ssg82
g4697
sg75
(lp4704
g68
(g77
g70
NtRp4705
(dp4706
g73
(dp4707
g81
I3
ssg82
Nsg75
(lp4708
g68
(g84
g70
NtRp4709
(dp4710
g73
(dp4711
sg82
g4705
sg75
(lp4712
g68
(g89
g70
NtRp4713
(dp4714
g73
(dp4715
g93
g94
ssg82
g4709
sg75
(lp4716
g282
asbag68
(g89
g70
NtRp4717
(dp4718
g73
(dp4719
g100
g101
ssg82
g4709
sg75
(lp4720
S':'
asbag68
(g89
g70
NtRp4721
(dp4722
g73
(dp4723
sg82
g4709
sg75
(lp4724
g68
(g69
g70
NtRp4725
(dp4726
g73
(dp4727
g81
I3
ssg82
g4721
sg75
(lp4728
S''
asbasbasbag68
(g84
g70
NtRp4729
(dp4730
g73
(dp4731
sg82
g4705
sg75
(lp4732
g68
(g89
g70
NtRp4733
(dp4734
g73
(dp4735
g93
g94
ssg82
g4729
sg75
(lp4736
g303
asbag68
(g89
g70
NtRp4737
(dp4738
g73
(dp4739
g100
g101
ssg82
g4729
sg75
(lp4740
S':'
asbag68
(g89
g70
NtRp4741
(dp4742
g73
(dp4743
sg82
g4729
sg75
(lp4744
g68
(g69
g70
NtRp4745
(dp4746
g73
(dp4747
g81
I3
ssg82
g4741
sg75
(lp4748
S''
asbasbasbag68
(g84
g70
NtRp4749
(dp4750
g73
(dp4751
sg82
g4705
sg75
(lp4752
g68
(g89
g70
NtRp4753
(dp4754
g73
(dp4755
g93
g94
ssg82
g4749
sg75
(lp4756
g324
asbag68
(g89
g70
NtRp4757
(dp4758
g73
(dp4759
g100
g101
ssg82
g4749
sg75
(lp4760
S':'
asbag68
(g89
g70
NtRp4761
(dp4762
g73
(dp4763
sg82
g4749
sg75
(lp4764
g68
(g69
g70
NtRp4765
(dp4766
g73
(dp4767
g81
I3
ssg82
g4761
sg75
(lp4768
S''
asbasbasbag68
(g84
g70
NtRp4769
(dp4770
g73
(dp4771
sg82
g4705
sg75
(lp4772
g68
(g89
g70
NtRp4773
(dp4774
g73
(dp4775
g93
g94
ssg82
g4769
sg75
(lp4776
g345
asbag68
(g89
g70
NtRp4777
(dp4778
g73
(dp4779
g100
g101
ssg82
g4769
sg75
(lp4780
S':'
asbag68
(g89
g70
NtRp4781
(dp4782
g73
(dp4783
sg82
g4769
sg75
(lp4784
g68
(g69
g70
NtRp4785
(dp4786
g73
(dp4787
g81
I3
ssg82
g4781
sg75
(lp4788
S''
asbasbasbag68
(g84
g70
NtRp4789
(dp4790
g73
(dp4791
sg82
g4705
sg75
(lp4792
g68
(g89
g70
NtRp4793
(dp4794
g73
(dp4795
g93
g94
ssg82
g4789
sg75
(lp4796
g366
asbag68
(g89
g70
NtRp4797
(dp4798
g73
(dp4799
g100
g101
ssg82
g4789
sg75
(lp4800
S':'
asbag68
(g89
g70
NtRp4801
(dp4802
g73
(dp4803
sg82
g4789
sg75
(lp4804
g68
(g69
g70
NtRp4805
(dp4806
g73
(dp4807
g81
I3
ssg82
g4801
sg75
(lp4808
S''
asbasbasbag68
(g84
g70
NtRp4809
(dp4810
g73
(dp4811
sg82
g4705
sg75
(lp4812
g68
(g89
g70
NtRp4813
(dp4814
g73
(dp4815
g93
g94
ssg82
g4809
sg75
(lp4816
g387
asbag68
(g89
g70
NtRp4817
(dp4818
g73
(dp4819
g100
g101
ssg82
g4809
sg75
(lp4820
S':'
asbag68
(g89
g70
NtRp4821
(dp4822
g73
(dp4823
sg82
g4809
sg75
(lp4824
g68
(g69
g70
NtRp4825
(dp4826
g73
(dp4827
g81
I3
ssg82
g4821
sg75
(lp4828
S'/'
asbasbasbag68
(g84
g70
NtRp4829
(dp4830
g73
(dp4831
sg82
g4705
sg75
(lp4832
g68
(g89
g70
NtRp4833
(dp4834
g73
(dp4835
g93
g94
ssg82
g4829
sg75
(lp4836
g408
asbag68
(g89
g70
NtRp4837
(dp4838
g73
(dp4839
g100
g101
ssg82
g4829
sg75
(lp4840
S':'
asbag68
(g89
g70
NtRp4841
(dp4842
g73
(dp4843
sg82
g4829
sg75
(lp4844
g68
(g69
g70
NtRp4845
(dp4846
g73
(dp4847
g81
I3
ssg82
g4841
sg75
(lp4848
S''
asbasbasbag68
(g84
g70
NtRp4849
(dp4850
g73
(dp4851
sg82
g4705
sg75
(lp4852
g68
(g89
g70
NtRp4853
(dp4854
g73
(dp4855
g93
g94
ssg82
g4849
sg75
(lp4856
g429
asbag68
(g89
g70
NtRp4857
(dp4858
g73
(dp4859
g100
g101
ssg82
g4849
sg75
(lp4860
S':'
asbag68
(g89
g70
NtRp4861
(dp4862
g73
(dp4863
sg82
g4849
sg75
(lp4864
g68
(g69
g70
NtRp4865
(dp4866
g73
(dp4867
g81
I3
ssg82
g4861
sg75
(lp4868
S''
asbasbasbasbasbasbasbasbasbasbasbag68
(g84
g70
NtRp4869
(dp4870
g73
(dp4871
sg82
g4635
sg75
(lp4872
g68
(g89
g70
NtRp4873
(dp4874
g73
(dp4875
g93
g94
ssg82
g4869
sg75
(lp4876
S'delimiters'
p4877
asbag68
(g89
g70
NtRp4878
(dp4879
g73
(dp4880
g100
g101
ssg82
g4869
sg75
(lp4881
S':'
asbag68
(g89
g70
NtRp4882
(dp4883
g73
(dp4884
sg82
g4869
sg75
(lp4885
g68
(g69
g70
NtRp4886
(dp4887
g73
(dp4888
g81
I5
ssg82
g4882
sg75
(lp4889
g68
(g77
g70
NtRp4890
(dp4891
g73
(dp4892
g81
I4
ssg82
Nsg75
(lp4893
g68
(g84
g70
NtRp4894
(dp4895
g73
(dp4896
sg82
g4890
sg75
(lp4897
g68
(g89
g70
NtRp4898
(dp4899
g73
(dp4900
sg82
g4894
sg75
(lp4901
g68
(g69
g70
NtRp4902
(dp4903
g73
(dp4904
g81
I4
ssg82
g4898
sg75
(lp4905
S'{{'
p4906
asbasbasbag68
(g84
g70
NtRp4907
(dp4908
g73
(dp4909
sg82
g4890
sg75
(lp4910
g68
(g89
g70
NtRp4911
(dp4912
g73
(dp4913
sg82
g4907
sg75
(lp4914
g68
(g69
g70
NtRp4915
(dp4916
g73
(dp4917
g81
I4
ssg82
g4911
sg75
(lp4918
S'}}'
p4919
asbasbasbasbasbasbasbag68
(g84
g70
NtRp4920
(dp4921
g73
(dp4922
sg82
g4635
sg75
(lp4923
g68
(g89
g70
NtRp4924
(dp4925
g73
(dp4926
g93
g94
ssg82
g4920
sg75
(lp4927
S'description'
p4928
asbag68
(g89
g70
NtRp4929
(dp4930
g73
(dp4931
g100
g101
ssg82
g4920
sg75
(lp4932
S':'
asbag68
(g89
g70
NtRp4933
(dp4934
g73
(dp4935
sg82
g4920
sg75
(lp4936
g68
(g69
g70
NtRp4937
(dp4938
g73
(dp4939
g81
I5
ssg82
g4933
sg75
(lp4940
S'Hecho con web2py'
p4941
asbasbasbag68
(g84
g70
NtRp4942
(dp4943
g73
(dp4944
sg82
g4635
sg75
(lp4945
g68
(g89
g70
NtRp4946
(dp4947
g73
(dp4948
g93
g94
ssg82
g4942
sg75
(lp4949
S'files'
p4950
asbag68
(g89
g70
NtRp4951
(dp4952
g73
(dp4953
g100
g101
ssg82
g4942
sg75
(lp4954
S':'
asbag68
(g89
g70
NtRp4955
(dp4956
g73
(dp4957
sg82
g4942
sg75
(lp4958
g68
(g69
g70
NtRp4959
(dp4960
g73
(dp4961
g81
I5
ssg82
g4955
sg75
(lp4962
g68
(g77
g70
NtRp4963
(dp4964
g73
(dp4965
g81
I4
ssg82
Nsg75
(lp4966
g68
(g84
g70
NtRp4967
(dp4968
g73
(dp4969
sg82
g4963
sg75
(lp4970
g68
(g89
g70
NtRp4971
(dp4972
g73
(dp4973
sg82
g4967
sg75
(lp4974
g68
(g69
g70
NtRp4975
(dp4976
g73
(dp4977
g81
I4
ssg82
g4971
sg75
(lp4978
S'/plugin_t2/static/t2/scripts/jquery.js'
p4979
asbasbasbag68
(g84
g70
NtRp4980
(dp4981
g73
(dp4982
sg82
g4963
sg75
(lp4983
g68
(g89
g70
NtRp4984
(dp4985
g73
(dp4986
sg82
g4980
sg75
(lp4987
g68
(g69
g70
NtRp4988
(dp4989
g73
(dp4990
g81
I4
ssg82
g4984
sg75
(lp4991
S'/plugin_t2/static/t2/styles/calendar.css'
p4992
asbasbasbag68
(g84
g70
NtRp4993
(dp4994
g73
(dp4995
sg82
g4963
sg75
(lp4996
g68
(g89
g70
NtRp4997
(dp4998
g73
(dp4999
sg82
g4993
sg75
(lp5000
g68
(g69
g70
NtRp5001
(dp5002
g73
(dp5003
g81
I4
ssg82
g4997
sg75
(lp5004
S'/plugin_t2/static/t2/scripts/calendar.js'
p5005
asbasbasbag68
(g84
g70
NtRp5006
(dp5007
g73
(dp5008
sg82
g4963
sg75
(lp5009
g68
(g89
g70
NtRp5010
(dp5011
g73
(dp5012
sg82
g5006
sg75
(lp5013
g68
(g69
g70
NtRp5014
(dp5015
g73
(dp5016
g81
I4
ssg82
g5010
sg75
(lp5017
S'/plugin_t2/static/t2/styles/sfmenu.css'
p5018
asbasbasbag68
(g84
g70
NtRp5019
(dp5020
g73
(dp5021
sg82
g4963
sg75
(lp5022
g68
(g89
g70
NtRp5023
(dp5024
g73
(dp5025
sg82
g5019
sg75
(lp5026
g68
(g69
g70
NtRp5027
(dp5028
g73
(dp5029
g81
I4
ssg82
g5023
sg75
(lp5030
S'/plugin_t2/static/t2/scripts/sfmenu.js'
p5031
asbasbasbag68
(g84
g70
NtRp5032
(dp5033
g73
(dp5034
sg82
g4963
sg75
(lp5035
g68
(g89
g70
NtRp5036
(dp5037
g73
(dp5038
sg82
g5032
sg75
(lp5039
g68
(g69
g70
NtRp5040
(dp5041
g73
(dp5042
g81
I4
ssg82
g5036
sg75
(lp5043
S'/plugin_t2/static/t2/scripts/fancyzoom.min.js'
p5044
asbasbasbag68
(g84
g70
NtRp5045
(dp5046
g73
(dp5047
sg82
g4963
sg75
(lp5048
g68
(g89
g70
NtRp5049
(dp5050
g73
(dp5051
sg82
g5045
sg75
(lp5052
g68
(g69
g70
NtRp5053
(dp5054
g73
(dp5055
g81
I4
ssg82
g5049
sg75
(lp5056
S'/plugin_t2/static/t2/styles/rating.css'
p5057
asbasbasbag68
(g84
g70
NtRp5058
(dp5059
g73
(dp5060
sg82
g4963
sg75
(lp5061
g68
(g89
g70
NtRp5062
(dp5063
g73
(dp5064
sg82
g5058
sg75
(lp5065
g68
(g69
g70
NtRp5066
(dp5067
g73
(dp5068
g81
I4
ssg82
g5062
sg75
(lp5069
S'/plugin_t2/static/t2/scripts/rating.js'
p5070
asbasbasbag68
(g84
g70
NtRp5071
(dp5072
g73
(dp5073
sg82
g4963
sg75
(lp5074
g68
(g89
g70
NtRp5075
(dp5076
g73
(dp5077
sg82
g5071
sg75
(lp5078
g68
(g69
g70
NtRp5079
(dp5080
g73
(dp5081
g81
I4
ssg82
g5075
sg75
(lp5082
S'/plugin_t2/static/t2/scripts/web2py.js'
p5083
asbasbasbasbasbasbasbag68
(g84
g70
NtRp5084
(dp5085
g73
(dp5086
sg82
g4635
sg75
(lp5087
g68
(g89
g70
NtRp5088
(dp5089
g73
(dp5090
g93
g94
ssg82
g5084
sg75
(lp5091
S'flash'
p5092
asbag68
(g89
g70
NtRp5093
(dp5094
g73
(dp5095
g100
g101
ssg82
g5084
sg75
(lp5096
S':'
asbag68
(g89
g70
NtRp5097
(dp5098
g73
(dp5099
sg82
g5084
sg75
(lp5100
g68
(g69
g70
NtRp5101
(dp5102
g73
(dp5103
g81
I5
ssg82
g5097
sg75
(lp5104
S''
asbasbasbag68
(g84
g70
NtRp5105
(dp5106
g73
(dp5107
sg82
g4635
sg75
(lp5108
g68
(g89
g70
NtRp5109
(dp5110
g73
(dp5111
g93
g94
ssg82
g5105
sg75
(lp5112
S'footer'
p5113
asbag68
(g89
g70
NtRp5114
(dp5115
g73
(dp5116
g100
g101
ssg82
g5105
sg75
(lp5117
S':'
asbag68
(g89
g70
NtRp5118
(dp5119
g73
(dp5120
sg82
g5105
sg75
(lp5121
g68
(g69
g70
NtRp5122
(dp5123
g73
(dp5124
g81
I5
ssg82
g5118
sg75
(lp5125
S'<p>InstallFest <a href="http://www.flisol.info/">FLISOL</a> <b>28 de abril de 2012</b> - <a href="http://www.unsa.edu.ar/">Universidad Nacional de Salta</a><br/>\n<a href="http://www.flisol.info/FLISOL2012/Argentina/Salta">http://www.flisol.info/FLISOL2012/Argentina/Salta</a> - organizacion@saltalug.org.ar</p>'
p5126
asbasbasbag68
(g84
g70
NtRp5127
(dp5128
g73
(dp5129
sg82
g4635
sg75
(lp5130
g68
(g89
g70
NtRp5131
(dp5132
g73
(dp5133
g93
g94
ssg82
g5127
sg75
(lp5134
S'generic_patterns'
p5135
asbag68
(g89
g70
NtRp5136
(dp5137
g73
(dp5138
g100
g101
ssg82
g5127
sg75
(lp5139
S':'
asbag68
(g89
g70
NtRp5140
(dp5141
g73
(dp5142
sg82
g5127
sg75
(lp5143
g68
(g69
g70
NtRp5144
(dp5145
g73
(dp5146
g81
I5
ssg82
g5140
sg75
(lp5147
g68
(g77
g70
NtRp5148
(dp5149
g73
(dp5150
g81
I4
ssg82
Nsg75
(lp5151
sbasbasbasbag68
(g84
g70
NtRp5152
(dp5153
g73
(dp5154
sg82
g4635
sg75
(lp5155
g68
(g89
g70
NtRp5156
(dp5157
g73
(dp5158
g93
g94
ssg82
g5152
sg75
(lp5159
S'headers'
p5160
asbag68
(g89
g70
NtRp5161
(dp5162
g73
(dp5163
g100
g101
ssg82
g5152
sg75
(lp5164
S':'
asbag68
(g89
g70
NtRp5165
(dp5166
g73
(dp5167
sg82
g5152
sg75
(lp5168
g68
(g69
g70
NtRp5169
(dp5170
g73
(dp5171
g81
I5
ssg82
g5165
sg75
(lp5172
g68
(g77
g70
NtRp5173
(dp5174
g73
(dp5175
g81
I4
ssg82
Nsg75
(lp5176
g68
(g84
g70
NtRp5177
(dp5178
g73
(dp5179
sg82
g5173
sg75
(lp5180
g68
(g89
g70
NtRp5181
(dp5182
g73
(dp5183
g93
g94
ssg82
g5177
sg75
(lp5184
S'Cache-Control'
p5185
asbag68
(g89
g70
NtRp5186
(dp5187
g73
(dp5188
g100
g101
ssg82
g5177
sg75
(lp5189
S':'
asbag68
(g89
g70
NtRp5190
(dp5191
g73
(dp5192
sg82
g5177
sg75
(lp5193
g68
(g69
g70
NtRp5194
(dp5195
g73
(dp5196
g81
I4
ssg82
g5190
sg75
(lp5197
S'no-store, no-cache, must-revalidate, post-check=0, pre-check=0'
p5198
asbasbasbag68
(g84
g70
NtRp5199
(dp5200
g73
(dp5201
sg82
g5173
sg75
(lp5202
g68
(g89
g70
NtRp5203
(dp5204
g73
(dp5205
g93
g94
ssg82
g5199
sg75
(lp5206
S'Content-Type'
p5207
asbag68
(g89
g70
NtRp5208
(dp5209
g73
(dp5210
g100
g101
ssg82
g5199
sg75
(lp5211
S':'
asbag68
(g89
g70
NtRp5212
(dp5213
g73
(dp5214
sg82
g5199
sg75
(lp5215
g68
(g69
g70
NtRp5216
(dp5217
g73
(dp5218
g81
I4
ssg82
g5212
sg75
(lp5219
S'text/html; charset=utf-8'
p5220
asbasbasbag68
(g84
g70
NtRp5221
(dp5222
g73
(dp5223
sg82
g5173
sg75
(lp5224
g68
(g89
g70
NtRp5225
(dp5226
g73
(dp5227
g93
g94
ssg82
g5221
sg75
(lp5228
S'Expires'
p5229
asbag68
(g89
g70
NtRp5230
(dp5231
g73
(dp5232
g100
g101
ssg82
g5221
sg75
(lp5233
S':'
asbag68
(g89
g70
NtRp5234
(dp5235
g73
(dp5236
sg82
g5221
sg75
(lp5237
g68
(g69
g70
NtRp5238
(dp5239
g73
(dp5240
g81
I4
ssg82
g5234
sg75
(lp5241
S'Fri, 09 Mar 2012 21:38:11 GMT'
p5242
asbasbasbag68
(g84
g70
NtRp5243
(dp5244
g73
(dp5245
sg82
g5173
sg75
(lp5246
g68
(g89
g70
NtRp5247
(dp5248
g73
(dp5249
g93
g94
ssg82
g5243
sg75
(lp5250
S'Pragma'
p5251
asbag68
(g89
g70
NtRp5252
(dp5253
g73
(dp5254
g100
g101
ssg82
g5243
sg75
(lp5255
S':'
asbag68
(g89
g70
NtRp5256
(dp5257
g73
(dp5258
sg82
g5243
sg75
(lp5259
g68
(g69
g70
NtRp5260
(dp5261
g73
(dp5262
g81
I4
ssg82
g5256
sg75
(lp5263
S'no-cache'
p5264
asbasbasbag68
(g84
g70
NtRp5265
(dp5266
g73
(dp5267
sg82
g5173
sg75
(lp5268
g68
(g89
g70
NtRp5269
(dp5270
g73
(dp5271
g93
g94
ssg82
g5265
sg75
(lp5272
S'X-Powered-By'
p5273
asbag68
(g89
g70
NtRp5274
(dp5275
g73
(dp5276
g100
g101
ssg82
g5265
sg75
(lp5277
S':'
asbag68
(g89
g70
NtRp5278
(dp5279
g73
(dp5280
sg82
g5265
sg75
(lp5281
g68
(g69
g70
NtRp5282
(dp5283
g73
(dp5284
g81
I4
ssg82
g5278
sg75
(lp5285
S'web2py'
p5286
asbasbasbasbasbasbasbag68
(g84
g70
NtRp5287
(dp5288
g73
(dp5289
sg82
g4635
sg75
(lp5290
g68
(g89
g70
NtRp5291
(dp5292
g73
(dp5293
g93
g94
ssg82
g5287
sg75
(lp5294
S'keywords'
p5295
asbag68
(g89
g70
NtRp5296
(dp5297
g73
(dp5298
g100
g101
ssg82
g5287
sg75
(lp5299
S':'
asbag68
(g89
g70
NtRp5300
(dp5301
g73
(dp5302
sg82
g5287
sg75
(lp5303
g68
(g69
g70
NtRp5304
(dp5305
g73
(dp5306
g81
I5
ssg82
g5300
sg75
(lp5307
S'festival, instalaci\xc3\xb3n, software libre, salta, argentina, flisol'
p5308
asbasbasbag68
(g84
g70
NtRp5309
(dp5310
g73
(dp5311
sg82
g4635
sg75
(lp5312
g68
(g89
g70
NtRp5313
(dp5314
g73
(dp5315
g93
g94
ssg82
g5309
sg75
(lp5316
S'menu'
p5317
asbag68
(g89
g70
NtRp5318
(dp5319
g73
(dp5320
g100
g101
ssg82
g5309
sg75
(lp5321
S':'
asbag68
(g89
g70
NtRp5322
(dp5323
g73
(dp5324
sg82
g5309
sg75
(lp5325
g68
(g69
g70
NtRp5326
(dp5327
g73
(dp5328
g81
I5
ssg82
g5322
sg75
(lp5329
g68
(g77
g70
NtRp5330
(dp5331
g73
(dp5332
g81
I4
ssg82
Nsg75
(lp5333
sbasbasbasbag68
(g84
g70
NtRp5334
(dp5335
g73
(dp5336
sg82
g4635
sg75
(lp5337
g68
(g89
g70
NtRp5338
(dp5339
g73
(dp5340
g93
g94
ssg82
g5334
sg75
(lp5341
S'meta'
p5342
asbag68
(g89
g70
NtRp5343
(dp5344
g73
(dp5345
g100
g101
ssg82
g5334
sg75
(lp5346
S':'
asbag68
(g89
g70
NtRp5347
(dp5348
g73
(dp5349
sg82
g5334
sg75
(lp5350
g68
(g69
g70
NtRp5351
(dp5352
g73
(dp5353
g81
I5
ssg82
g5347
sg75
(lp5354
g68
(g77
g70
NtRp5355
(dp5356
g73
(dp5357
g81
I4
ssg82
Nsg75
(lp5358
sbasbasbasbag68
(g84
g70
NtRp5359
(dp5360
g73
(dp5361
sg82
g4635
sg75
(lp5362
g68
(g89
g70
NtRp5363
(dp5364
g73
(dp5365
g93
g94
ssg82
g5359
sg75
(lp5366
S'postprocessing'
p5367
asbag68
(g89
g70
NtRp5368
(dp5369
g73
(dp5370
g100
g101
ssg82
g5359
sg75
(lp5371
S':'
asbag68
(g89
g70
NtRp5372
(dp5373
g73
(dp5374
sg82
g5359
sg75
(lp5375
g68
(g69
g70
NtRp5376
(dp5377
g73
(dp5378
g81
I5
ssg82
g5372
sg75
(lp5379
g68
(g77
g70
NtRp5380
(dp5381
g73
(dp5382
g81
I4
ssg82
Nsg75
(lp5383
sbasbasbasbag68
(g84
g70
NtRp5384
(dp5385
g73
(dp5386
sg82
g4635
sg75
(lp5387
g68
(g89
g70
NtRp5388
(dp5389
g73
(dp5390
g93
g94
ssg82
g5384
sg75
(lp5391
S'session_file'
p5392
asbag68
(g89
g70
NtRp5393
(dp5394
g73
(dp5395
g100
g101
ssg82
g5384
sg75
(lp5396
S':'
asbag68
(g89
g70
NtRp5397
(dp5398
g73
(dp5399
sg82
g5384
sg75
(lp5400
g68
(g69
g70
NtRp5401
(dp5402
g73
(dp5403
g81
I5
ssg82
g5397
sg75
(lp5404
S"<open file '/home/marco/flisol2012/web2py/applications/flisol2012/sessions/127.0.0.1-2ede3a58-f97e-48e1-8d0e-90e5ecfe16bf', mode 'rb+' at 0x23e7b70>"
p5405
asbasbasbag68
(g84
g70
NtRp5406
(dp5407
g73
(dp5408
sg82
g4635
sg75
(lp5409
g68
(g89
g70
NtRp5410
(dp5411
g73
(dp5412
g93
g94
ssg82
g5406
sg75
(lp5413
S'session_filename'
p5414
asbag68
(g89
g70
NtRp5415
(dp5416
g73
(dp5417
g100
g101
ssg82
g5406
sg75
(lp5418
S':'
asbag68
(g89
g70
NtRp5419
(dp5420
g73
(dp5421
sg82
g5406
sg75
(lp5422
g68
(g69
g70
NtRp5423
(dp5424
g73
(dp5425
g81
I5
ssg82
g5419
sg75
(lp5426
S'/home/marco/flisol2012/web2py/applications/flisol2012/sessions/127.0.0.1-2ede3a58-f97e-48e1-8d0e-90e5ecfe16bf'
p5427
asbasbasbag68
(g84
g70
NtRp5428
(dp5429
g73
(dp5430
sg82
g4635
sg75
(lp5431
g68
(g89
g70
NtRp5432
(dp5433
g73
(dp5434
g93
g94
ssg82
g5428
sg75
(lp5435
S'session_id'
p5436
asbag68
(g89
g70
NtRp5437
(dp5438
g73
(dp5439
g100
g101
ssg82
g5428
sg75
(lp5440
S':'
asbag68
(g89
g70
NtRp5441
(dp5442
g73
(dp5443
sg82
g5428
sg75
(lp5444
g68
(g69
g70
NtRp5445
(dp5446
g73
(dp5447
g81
I5
ssg82
g5441
sg75
(lp5448
S'127.0.0.1-2ede3a58-f97e-48e1-8d0e-90e5ecfe16bf'
p5449
asbasbasbag68
(g84
g70
NtRp5450
(dp5451
g73
(dp5452
sg82
g4635
sg75
(lp5453
g68
(g89
g70
NtRp5454
(dp5455
g73
(dp5456
g93
g94
ssg82
g5450
sg75
(lp5457
S'session_id_name'
p5458
asbag68
(g89
g70
NtRp5459
(dp5460
g73
(dp5461
g100
g101
ssg82
g5450
sg75
(lp5462
S':'
asbag68
(g89
g70
NtRp5463
(dp5464
g73
(dp5465
sg82
g5450
sg75
(lp5466
g68
(g69
g70
NtRp5467
(dp5468
g73
(dp5469
g81
I5
ssg82
g5463
sg75
(lp5470
g4692
asbasbasbag68
(g84
g70
NtRp5471
(dp5472
g73
(dp5473
sg82
g4635
sg75
(lp5474
g68
(g89
g70
NtRp5475
(dp5476
g73
(dp5477
g93
g94
ssg82
g5471
sg75
(lp5478
S'session_locked'
p5479
asbag68
(g89
g70
NtRp5480
(dp5481
g73
(dp5482
g100
g101
ssg82
g5471
sg75
(lp5483
S':'
asbag68
(g89
g70
NtRp5484
(dp5485
g73
(dp5486
sg82
g5471
sg75
(lp5487
g68
(g69
g70
NtRp5488
(dp5489
g73
(dp5490
g81
I5
ssg82
g5484
sg75
(lp5491
g1960
asbasbasbag68
(g84
g70
NtRp5492
(dp5493
g73
(dp5494
sg82
g4635
sg75
(lp5495
g68
(g89
g70
NtRp5496
(dp5497
g73
(dp5498
g93
g94
ssg82
g5492
sg75
(lp5499
S'session_new'
p5500
asbag68
(g89
g70
NtRp5501
(dp5502
g73
(dp5503
g100
g101
ssg82
g5492
sg75
(lp5504
S':'
asbag68
(g89
g70
NtRp5505
(dp5506
g73
(dp5507
sg82
g5492
sg75
(lp5508
g68
(g69
g70
NtRp5509
(dp5510
g73
(dp5511
g81
I5
ssg82
g5505
sg75
(lp5512
g111
asbasbasbag68
(g84
g70
NtRp5513
(dp5514
g73
(dp5515
sg82
g4635
sg75
(lp5516
g68
(g89
g70
NtRp5517
(dp5518
g73
(dp5519
g93
g94
ssg82
g5513
sg75
(lp5520
S'status'
p5521
asbag68
(g89
g70
NtRp5522
(dp5523
g73
(dp5524
g100
g101
ssg82
g5513
sg75
(lp5525
S':'
asbag68
(g89
g70
NtRp5526
(dp5527
g73
(dp5528
sg82
g5513
sg75
(lp5529
g68
(g69
g70
NtRp5530
(dp5531
g73
(dp5532
g81
I5
ssg82
g5526
sg75
(lp5533
S'200'
p5534
asbasbasbag68
(g84
g70
NtRp5535
(dp5536
g73
(dp5537
sg82
g4635
sg75
(lp5538
g68
(g89
g70
NtRp5539
(dp5540
g73
(dp5541
g93
g94
ssg82
g5535
sg75
(lp5542
S'subtitle'
p5543
asbag68
(g89
g70
NtRp5544
(dp5545
g73
(dp5546
g100
g101
ssg82
g5535
sg75
(lp5547
S':'
asbag68
(g89
g70
NtRp5548
(dp5549
g73
(dp5550
sg82
g5535
sg75
(lp5551
g68
(g69
g70
NtRp5552
(dp5553
g73
(dp5554
g81
I5
ssg82
g5548
sg75
(lp5555
S''
asbasbasbag68
(g84
g70
NtRp5556
(dp5557
g73
(dp5558
sg82
g4635
sg75
(lp5559
g68
(g89
g70
NtRp5560
(dp5561
g73
(dp5562
g93
g94
ssg82
g5556
sg75
(lp5563
S'title'
p5564
asbag68
(g89
g70
NtRp5565
(dp5566
g73
(dp5567
g100
g101
ssg82
g5556
sg75
(lp5568
S':'
asbag68
(g89
g70
NtRp5569
(dp5570
g73
(dp5571
sg82
g5556
sg75
(lp5572
g68
(g69
g70
NtRp5573
(dp5574
g73
(dp5575
g81
I5
ssg82
g5569
sg75
(lp5576
S'FLISOL 2012 - Salta'
p5577
asbasbasbag68
(g84
g70
NtRp5578
(dp5579
g73
(dp5580
sg82
g4635
sg75
(lp5581
g68
(g89
g70
NtRp5582
(dp5583
g73
(dp5584
g93
g94
ssg82
g5578
sg75
(lp5585
g2646
asbag68
(g89
g70
NtRp5586
(dp5587
g73
(dp5588
g100
g101
ssg82
g5578
sg75
(lp5589
S':'
asbag68
(g89
g70
NtRp5590
(dp5591
g73
(dp5592
sg82
g5578
sg75
(lp5593
g68
(g69
g70
NtRp5594
(dp5595
g73
(dp5596
g81
I5
ssg82
g5590
sg75
(lp5597
g2659
asbasbasbag68
(g84
g70
NtRp5598
(dp5599
g73
(dp5600
sg82
g4635
sg75
(lp5601
g68
(g89
g70
NtRp5602
(dp5603
g73
(dp5604
g93
g94
ssg82
g5598
sg75
(lp5605
S'view'
p5606
asbag68
(g89
g70
NtRp5607
(dp5608
g73
(dp5609
g100
g101
ssg82
g5598
sg75
(lp5610
S':'
asbag68
(g89
g70
NtRp5611
(dp5612
g73
(dp5613
sg82
g5598
sg75
(lp5614
g68
(g69
g70
NtRp5615
(dp5616
g73
(dp5617
g81
I5
ssg82
g5611
sg75
(lp5618
S'default/index.html'
p5619
asbasbasbasbasbsS'locals'
p5620
(dp5621
g4
S"'/home/marco/flisol2012/web2py/applications/flisol2012/models/menu.py'"
p5622
sg6
S'"# coding: utf8\\n\\nsession.manager=(auth.user and a...response.sidebar.append([T(\'Your Talks\'),talks])\\n"'
p5623
sssS'traceback'
p5624
S'Traceback (most recent call last):\n  File "/home/marco/flisol2012/web2py/gluon/restricted.py", line 204, in restricted\n    ccode = compile2(code,layer)\n  File "/home/marco/flisol2012/web2py/gluon/restricted.py", line 189, in compile2\n    return compile(code.rstrip().replace(\'\\r\\n\',\'\\n\')+\'\\n\', layer, \'exec\')\n  File "/home/marco/flisol2012/web2py/applications/flisol2012/models/menu.py", line 29\n    ]\n    ^\nSyntaxError: invalid syntax\n'
p5625
s.