(dp1
S'output'
p2
S"<type 'exceptions.SyntaxError'> invalid syntax (db_asistentes.py, line 4)"
p3
sS'layer'
p4
S'/home/marco/flisol2012/web2py/applications/flisol2012/models/db_asistentes.py'
p5
sS'code'
p6
S"# -*- coding: utf-8 -*-\n\ndb.define_table('asistente',\n    Field('nombre','string',length=30);\n    Field('apellido','string',length=30);\n    Field('dni','integer',length=10);\n    Field('email','string',length=40);\n    Field('ocupacion','string');\n    Field('provincia','string');\n    Field('certificado','boolean',label='Solicita certificado?');\n    Field('instalacion','boolean',label='Lleva un dispositivo para participar del install fest?');\n    Field('dispositivo','string');\n    Field('distribucion','string');\n    Field('comentario','text');\n    Field('fecha','datetime',default=request.now,writable=False);\n    )\n\n\ndb.asistente.nombre.comment=('(requerido)')\ndb.asistente.nombre.requires=IS_NOT_EMPTY()\n\ndb.asistente.apellido.comment=('(requerido)')\ndb.asistente.apellido.requires=IS_NOT_EMPTY()\n\ndb.asistente.dni.comment=('(requerido)')\ndb.asistente.dni.requires=IS_NOT_EMPTY()\n\ndb.asistente.email.comment=('(requerido)')\ndb.asistente.email.requires=IS_EMAIL()\n"
p7
sS'snapshot'
p8
(dp9
S'exception'
p10
(dp11
S'__getslice__'
p12
S"<method-wrapper '__getslice__' of exceptions.SyntaxError object>"
p13
sS'text'
p14
S'"    Field(\'nombre\',\'string\',length=30);\\n"'
p15
sS'__str__'
p16
S"<method-wrapper '__str__' of exceptions.SyntaxError object>"
p17
sS'__reduce__'
p18
S'<built-in method __reduce__ of exceptions.SyntaxError object>'
p19
sS'__dict__'
p20
S'{}'
p21
sS'__sizeof__'
p22
S'<built-in method __sizeof__ of exceptions.SyntaxError object>'
p23
sS'__init__'
p24
S"<method-wrapper '__init__' of exceptions.SyntaxError object>"
p25
sS'__setattr__'
p26
S"<method-wrapper '__setattr__' of exceptions.SyntaxError object>"
p27
sS'__reduce_ex__'
p28
S'<built-in method __reduce_ex__ of exceptions.SyntaxError object>'
p29
sS'__new__'
p30
S'<built-in method __new__ of type object>'
p31
sS'__format__'
p32
S'<built-in method __format__ of exceptions.SyntaxError object>'
p33
sS'__class__'
p34
S"<type 'exceptions.SyntaxError'>"
p35
sS'filename'
p36
S"'/home/marco/flisol2012/web2py/applications/flisol2012/models/db_asistentes.py'"
p37
sS'lineno'
p38
S'4'
sS'msg'
p39
S"'invalid syntax'"
p40
sS'__doc__'
p41
S"'Invalid syntax.'"
p42
sS'__getitem__'
p43
S"<method-wrapper '__getitem__' of exceptions.SyntaxError object>"
p44
sS'__setstate__'
p45
S'<built-in method __setstate__ of exceptions.SyntaxError object>'
p46
sS'__getattribute__'
p47
S"<method-wrapper '__getattribute__' of exceptions.SyntaxError object>"
p48
sS'print_file_and_line'
p49
S'None'
p50
sS'args'
p51
S'(\'invalid syntax\', (\'/home/marco/flisol2012/web2py/applications/flisol2012/models/db_asistentes.py\', 4, 39, "    Field(\'nombre\',\'string\',length=30);\\n"))'
p52
sS'__subclasshook__'
p53
S'<built-in method __subclasshook__ of type object>'
p54
sS'offset'
p55
S'39'
p56
sS'__unicode__'
p57
S'<built-in method __unicode__ of exceptions.SyntaxError object>'
p58
sS'__delattr__'
p59
S"<method-wrapper '__delattr__' of exceptions.SyntaxError object>"
p60
sS'__repr__'
p61
S"<method-wrapper '__repr__' of exceptions.SyntaxError object>"
p62
sS'__hash__'
p63
S"<method-wrapper '__hash__' of exceptions.SyntaxError object>"
p64
ssS'evalue'
p65
S'invalid syntax (db_asistentes.py, line 4)'
p66
sS'request'
p67
ccopy_reg
_reconstructor
p68
(cgluon.html
BEAUTIFY
p69
c__builtin__
object
p70
NtRp71
(dp72
S'attributes'
p73
(dp74
sS'components'
p75
(lp76
g68
(cgluon.html
TABLE
p77
g70
NtRp78
(dp79
g73
(dp80
S'level'
p81
I5
ssS'parent'
p82
Nsg75
(lp83
g68
(cgluon.html
TR
p84
g70
NtRp85
(dp86
g73
(dp87
sg82
g78
sg75
(lp88
g68
(cgluon.html
TD
p89
g70
NtRp90
(dp91
g73
(dp92
S'_style'
p93
S'font-weight:bold;vertical-align:top'
p94
ssg82
g85
sg75
(lp95
S'ajax'
p96
asbag68
(g89
g70
NtRp97
(dp98
g73
(dp99
S'_valign'
p100
S'top'
p101
ssg82
g85
sg75
(lp102
S':'
asbag68
(g89
g70
NtRp103
(dp104
g73
(dp105
sg82
g85
sg75
(lp106
g68
(g69
g70
NtRp107
(dp108
g73
(dp109
g81
I5
ssg82
g103
sg75
(lp110
S'False'
p111
asbasbasbag68
(g84
g70
NtRp112
(dp113
g73
(dp114
sg82
g78
sg75
(lp115
g68
(g89
g70
NtRp116
(dp117
g73
(dp118
g93
g94
ssg82
g112
sg75
(lp119
S'application'
p120
asbag68
(g89
g70
NtRp121
(dp122
g73
(dp123
g100
g101
ssg82
g112
sg75
(lp124
S':'
asbag68
(g89
g70
NtRp125
(dp126
g73
(dp127
sg82
g112
sg75
(lp128
g68
(g69
g70
NtRp129
(dp130
g73
(dp131
g81
I5
ssg82
g125
sg75
(lp132
S'flisol2012'
p133
asbasbasbag68
(g84
g70
NtRp134
(dp135
g73
(dp136
sg82
g78
sg75
(lp137
g68
(g89
g70
NtRp138
(dp139
g73
(dp140
g93
g94
ssg82
g134
sg75
(lp141
g51
asbag68
(g89
g70
NtRp142
(dp143
g73
(dp144
g100
g101
ssg82
g134
sg75
(lp145
S':'
asbag68
(g89
g70
NtRp146
(dp147
g73
(dp148
sg82
g134
sg75
(lp149
g68
(g69
g70
NtRp150
(dp151
g73
(dp152
g81
I5
ssg82
g146
sg75
(lp153
g68
(g77
g70
NtRp154
(dp155
g73
(dp156
g81
I4
ssg82
Nsg75
(lp157
sbasbasbasbag68
(g84
g70
NtRp158
(dp159
g73
(dp160
sg82
g78
sg75
(lp161
g68
(g89
g70
NtRp162
(dp163
g73
(dp164
g93
g94
ssg82
g158
sg75
(lp165
S'body'
p166
asbag68
(g89
g70
NtRp167
(dp168
g73
(dp169
g100
g101
ssg82
g158
sg75
(lp170
S':'
asbag68
(g89
g70
NtRp171
(dp172
g73
(dp173
sg82
g158
sg75
(lp174
g68
(g69
g70
NtRp175
(dp176
g73
(dp177
g81
I5
ssg82
g171
sg75
(lp178
S'<cStringIO.StringO object at 0x2827c70>'
p179
asbasbasbag68
(g84
g70
NtRp180
(dp181
g73
(dp182
sg82
g78
sg75
(lp183
g68
(g89
g70
NtRp184
(dp185
g73
(dp186
g93
g94
ssg82
g180
sg75
(lp187
S'client'
p188
asbag68
(g89
g70
NtRp189
(dp190
g73
(dp191
g100
g101
ssg82
g180
sg75
(lp192
S':'
asbag68
(g89
g70
NtRp193
(dp194
g73
(dp195
sg82
g180
sg75
(lp196
g68
(g69
g70
NtRp197
(dp198
g73
(dp199
g81
I5
ssg82
g193
sg75
(lp200
S'127.0.0.1'
p201
asbasbasbag68
(g84
g70
NtRp202
(dp203
g73
(dp204
sg82
g78
sg75
(lp205
g68
(g89
g70
NtRp206
(dp207
g73
(dp208
g93
g94
ssg82
g202
sg75
(lp209
S'controller'
p210
asbag68
(g89
g70
NtRp211
(dp212
g73
(dp213
g100
g101
ssg82
g202
sg75
(lp214
S':'
asbag68
(g89
g70
NtRp215
(dp216
g73
(dp217
sg82
g202
sg75
(lp218
g68
(g69
g70
NtRp219
(dp220
g73
(dp221
g81
I5
ssg82
g215
sg75
(lp222
S'conference'
p223
asbasbasbag68
(g84
g70
NtRp224
(dp225
g73
(dp226
sg82
g78
sg75
(lp227
g68
(g89
g70
NtRp228
(dp229
g73
(dp230
g93
g94
ssg82
g224
sg75
(lp231
S'cookies'
p232
asbag68
(g89
g70
NtRp233
(dp234
g73
(dp235
g100
g101
ssg82
g224
sg75
(lp236
S':'
asbag68
(g89
g70
NtRp237
(dp238
g73
(dp239
sg82
g224
sg75
(lp240
g68
(g69
g70
NtRp241
(dp242
g73
(dp243
g81
I5
ssg82
g237
sg75
(lp244
g68
(g77
g70
NtRp245
(dp246
g73
(dp247
g81
I4
ssg82
Nsg75
(lp248
g68
(g84
g70
NtRp249
(dp250
g73
(dp251
sg82
g245
sg75
(lp252
g68
(g89
g70
NtRp253
(dp254
g73
(dp255
g93
g94
ssg82
g249
sg75
(lp256
S'session_id_admin'
p257
asbag68
(g89
g70
NtRp258
(dp259
g73
(dp260
g100
g101
ssg82
g249
sg75
(lp261
S':'
asbag68
(g89
g70
NtRp262
(dp263
g73
(dp264
sg82
g249
sg75
(lp265
g68
(g69
g70
NtRp266
(dp267
g73
(dp268
g81
I4
ssg82
g262
sg75
(lp269
g68
(g77
g70
NtRp270
(dp271
g73
(dp272
g81
I3
ssg82
Nsg75
(lp273
g68
(g84
g70
NtRp274
(dp275
g73
(dp276
sg82
g270
sg75
(lp277
g68
(g89
g70
NtRp278
(dp279
g73
(dp280
g93
g94
ssg82
g274
sg75
(lp281
S'comment'
p282
asbag68
(g89
g70
NtRp283
(dp284
g73
(dp285
g100
g101
ssg82
g274
sg75
(lp286
S':'
asbag68
(g89
g70
NtRp287
(dp288
g73
(dp289
sg82
g274
sg75
(lp290
g68
(g69
g70
NtRp291
(dp292
g73
(dp293
g81
I3
ssg82
g287
sg75
(lp294
S''
asbasbasbag68
(g84
g70
NtRp295
(dp296
g73
(dp297
sg82
g270
sg75
(lp298
g68
(g89
g70
NtRp299
(dp300
g73
(dp301
g93
g94
ssg82
g295
sg75
(lp302
S'domain'
p303
asbag68
(g89
g70
NtRp304
(dp305
g73
(dp306
g100
g101
ssg82
g295
sg75
(lp307
S':'
asbag68
(g89
g70
NtRp308
(dp309
g73
(dp310
sg82
g295
sg75
(lp311
g68
(g69
g70
NtRp312
(dp313
g73
(dp314
g81
I3
ssg82
g308
sg75
(lp315
S''
asbasbasbag68
(g84
g70
NtRp316
(dp317
g73
(dp318
sg82
g270
sg75
(lp319
g68
(g89
g70
NtRp320
(dp321
g73
(dp322
g93
g94
ssg82
g316
sg75
(lp323
S'expires'
p324
asbag68
(g89
g70
NtRp325
(dp326
g73
(dp327
g100
g101
ssg82
g316
sg75
(lp328
S':'
asbag68
(g89
g70
NtRp329
(dp330
g73
(dp331
sg82
g316
sg75
(lp332
g68
(g69
g70
NtRp333
(dp334
g73
(dp335
g81
I3
ssg82
g329
sg75
(lp336
S''
asbasbasbag68
(g84
g70
NtRp337
(dp338
g73
(dp339
sg82
g270
sg75
(lp340
g68
(g89
g70
NtRp341
(dp342
g73
(dp343
g93
g94
ssg82
g337
sg75
(lp344
S'httponly'
p345
asbag68
(g89
g70
NtRp346
(dp347
g73
(dp348
g100
g101
ssg82
g337
sg75
(lp349
S':'
asbag68
(g89
g70
NtRp350
(dp351
g73
(dp352
sg82
g337
sg75
(lp353
g68
(g69
g70
NtRp354
(dp355
g73
(dp356
g81
I3
ssg82
g350
sg75
(lp357
S''
asbasbasbag68
(g84
g70
NtRp358
(dp359
g73
(dp360
sg82
g270
sg75
(lp361
g68
(g89
g70
NtRp362
(dp363
g73
(dp364
g93
g94
ssg82
g358
sg75
(lp365
S'max-age'
p366
asbag68
(g89
g70
NtRp367
(dp368
g73
(dp369
g100
g101
ssg82
g358
sg75
(lp370
S':'
asbag68
(g89
g70
NtRp371
(dp372
g73
(dp373
sg82
g358
sg75
(lp374
g68
(g69
g70
NtRp375
(dp376
g73
(dp377
g81
I3
ssg82
g371
sg75
(lp378
S''
asbasbasbag68
(g84
g70
NtRp379
(dp380
g73
(dp381
sg82
g270
sg75
(lp382
g68
(g89
g70
NtRp383
(dp384
g73
(dp385
g93
g94
ssg82
g379
sg75
(lp386
S'path'
p387
asbag68
(g89
g70
NtRp388
(dp389
g73
(dp390
g100
g101
ssg82
g379
sg75
(lp391
S':'
asbag68
(g89
g70
NtRp392
(dp393
g73
(dp394
sg82
g379
sg75
(lp395
g68
(g69
g70
NtRp396
(dp397
g73
(dp398
g81
I3
ssg82
g392
sg75
(lp399
S''
asbasbasbag68
(g84
g70
NtRp400
(dp401
g73
(dp402
sg82
g270
sg75
(lp403
g68
(g89
g70
NtRp404
(dp405
g73
(dp406
g93
g94
ssg82
g400
sg75
(lp407
S'secure'
p408
asbag68
(g89
g70
NtRp409
(dp410
g73
(dp411
g100
g101
ssg82
g400
sg75
(lp412
S':'
asbag68
(g89
g70
NtRp413
(dp414
g73
(dp415
sg82
g400
sg75
(lp416
g68
(g69
g70
NtRp417
(dp418
g73
(dp419
g81
I3
ssg82
g413
sg75
(lp420
S''
asbasbasbag68
(g84
g70
NtRp421
(dp422
g73
(dp423
sg82
g270
sg75
(lp424
g68
(g89
g70
NtRp425
(dp426
g73
(dp427
g93
g94
ssg82
g421
sg75
(lp428
S'version'
p429
asbag68
(g89
g70
NtRp430
(dp431
g73
(dp432
g100
g101
ssg82
g421
sg75
(lp433
S':'
asbag68
(g89
g70
NtRp434
(dp435
g73
(dp436
sg82
g421
sg75
(lp437
g68
(g69
g70
NtRp438
(dp439
g73
(dp440
g81
I3
ssg82
g434
sg75
(lp441
S''
asbasbasbasbasbasbasbag68
(g84
g70
NtRp442
(dp443
g73
(dp444
sg82
g245
sg75
(lp445
g68
(g89
g70
NtRp446
(dp447
g73
(dp448
g93
g94
ssg82
g442
sg75
(lp449
S'session_id_flisol2012'
p450
asbag68
(g89
g70
NtRp451
(dp452
g73
(dp453
g100
g101
ssg82
g442
sg75
(lp454
S':'
asbag68
(g89
g70
NtRp455
(dp456
g73
(dp457
sg82
g442
sg75
(lp458
g68
(g69
g70
NtRp459
(dp460
g73
(dp461
g81
I4
ssg82
g455
sg75
(lp462
g68
(g77
g70
NtRp463
(dp464
g73
(dp465
g81
I3
ssg82
Nsg75
(lp466
g68
(g84
g70
NtRp467
(dp468
g73
(dp469
sg82
g463
sg75
(lp470
g68
(g89
g70
NtRp471
(dp472
g73
(dp473
g93
g94
ssg82
g467
sg75
(lp474
g282
asbag68
(g89
g70
NtRp475
(dp476
g73
(dp477
g100
g101
ssg82
g467
sg75
(lp478
S':'
asbag68
(g89
g70
NtRp479
(dp480
g73
(dp481
sg82
g467
sg75
(lp482
g68
(g69
g70
NtRp483
(dp484
g73
(dp485
g81
I3
ssg82
g479
sg75
(lp486
S''
asbasbasbag68
(g84
g70
NtRp487
(dp488
g73
(dp489
sg82
g463
sg75
(lp490
g68
(g89
g70
NtRp491
(dp492
g73
(dp493
g93
g94
ssg82
g487
sg75
(lp494
g303
asbag68
(g89
g70
NtRp495
(dp496
g73
(dp497
g100
g101
ssg82
g487
sg75
(lp498
S':'
asbag68
(g89
g70
NtRp499
(dp500
g73
(dp501
sg82
g487
sg75
(lp502
g68
(g69
g70
NtRp503
(dp504
g73
(dp505
g81
I3
ssg82
g499
sg75
(lp506
S''
asbasbasbag68
(g84
g70
NtRp507
(dp508
g73
(dp509
sg82
g463
sg75
(lp510
g68
(g89
g70
NtRp511
(dp512
g73
(dp513
g93
g94
ssg82
g507
sg75
(lp514
g324
asbag68
(g89
g70
NtRp515
(dp516
g73
(dp517
g100
g101
ssg82
g507
sg75
(lp518
S':'
asbag68
(g89
g70
NtRp519
(dp520
g73
(dp521
sg82
g507
sg75
(lp522
g68
(g69
g70
NtRp523
(dp524
g73
(dp525
g81
I3
ssg82
g519
sg75
(lp526
S''
asbasbasbag68
(g84
g70
NtRp527
(dp528
g73
(dp529
sg82
g463
sg75
(lp530
g68
(g89
g70
NtRp531
(dp532
g73
(dp533
g93
g94
ssg82
g527
sg75
(lp534
g345
asbag68
(g89
g70
NtRp535
(dp536
g73
(dp537
g100
g101
ssg82
g527
sg75
(lp538
S':'
asbag68
(g89
g70
NtRp539
(dp540
g73
(dp541
sg82
g527
sg75
(lp542
g68
(g69
g70
NtRp543
(dp544
g73
(dp545
g81
I3
ssg82
g539
sg75
(lp546
S''
asbasbasbag68
(g84
g70
NtRp547
(dp548
g73
(dp549
sg82
g463
sg75
(lp550
g68
(g89
g70
NtRp551
(dp552
g73
(dp553
g93
g94
ssg82
g547
sg75
(lp554
g366
asbag68
(g89
g70
NtRp555
(dp556
g73
(dp557
g100
g101
ssg82
g547
sg75
(lp558
S':'
asbag68
(g89
g70
NtRp559
(dp560
g73
(dp561
sg82
g547
sg75
(lp562
g68
(g69
g70
NtRp563
(dp564
g73
(dp565
g81
I3
ssg82
g559
sg75
(lp566
S''
asbasbasbag68
(g84
g70
NtRp567
(dp568
g73
(dp569
sg82
g463
sg75
(lp570
g68
(g89
g70
NtRp571
(dp572
g73
(dp573
g93
g94
ssg82
g567
sg75
(lp574
g387
asbag68
(g89
g70
NtRp575
(dp576
g73
(dp577
g100
g101
ssg82
g567
sg75
(lp578
S':'
asbag68
(g89
g70
NtRp579
(dp580
g73
(dp581
sg82
g567
sg75
(lp582
g68
(g69
g70
NtRp583
(dp584
g73
(dp585
g81
I3
ssg82
g579
sg75
(lp586
S''
asbasbasbag68
(g84
g70
NtRp587
(dp588
g73
(dp589
sg82
g463
sg75
(lp590
g68
(g89
g70
NtRp591
(dp592
g73
(dp593
g93
g94
ssg82
g587
sg75
(lp594
g408
asbag68
(g89
g70
NtRp595
(dp596
g73
(dp597
g100
g101
ssg82
g587
sg75
(lp598
S':'
asbag68
(g89
g70
NtRp599
(dp600
g73
(dp601
sg82
g587
sg75
(lp602
g68
(g69
g70
NtRp603
(dp604
g73
(dp605
g81
I3
ssg82
g599
sg75
(lp606
S''
asbasbasbag68
(g84
g70
NtRp607
(dp608
g73
(dp609
sg82
g463
sg75
(lp610
g68
(g89
g70
NtRp611
(dp612
g73
(dp613
g93
g94
ssg82
g607
sg75
(lp614
g429
asbag68
(g89
g70
NtRp615
(dp616
g73
(dp617
g100
g101
ssg82
g607
sg75
(lp618
S':'
asbag68
(g89
g70
NtRp619
(dp620
g73
(dp621
sg82
g607
sg75
(lp622
g68
(g69
g70
NtRp623
(dp624
g73
(dp625
g81
I3
ssg82
g619
sg75
(lp626
S''
asbasbasbasbasbasbasbag68
(g84
g70
NtRp627
(dp628
g73
(dp629
sg82
g245
sg75
(lp630
g68
(g89
g70
NtRp631
(dp632
g73
(dp633
g93
g94
ssg82
g627
sg75
(lp634
S'session_id_reingart'
p635
asbag68
(g89
g70
NtRp636
(dp637
g73
(dp638
g100
g101
ssg82
g627
sg75
(lp639
S':'
asbag68
(g89
g70
NtRp640
(dp641
g73
(dp642
sg82
g627
sg75
(lp643
g68
(g69
g70
NtRp644
(dp645
g73
(dp646
g81
I4
ssg82
g640
sg75
(lp647
g68
(g77
g70
NtRp648
(dp649
g73
(dp650
g81
I3
ssg82
Nsg75
(lp651
g68
(g84
g70
NtRp652
(dp653
g73
(dp654
sg82
g648
sg75
(lp655
g68
(g89
g70
NtRp656
(dp657
g73
(dp658
g93
g94
ssg82
g652
sg75
(lp659
g282
asbag68
(g89
g70
NtRp660
(dp661
g73
(dp662
g100
g101
ssg82
g652
sg75
(lp663
S':'
asbag68
(g89
g70
NtRp664
(dp665
g73
(dp666
sg82
g652
sg75
(lp667
g68
(g69
g70
NtRp668
(dp669
g73
(dp670
g81
I3
ssg82
g664
sg75
(lp671
S''
asbasbasbag68
(g84
g70
NtRp672
(dp673
g73
(dp674
sg82
g648
sg75
(lp675
g68
(g89
g70
NtRp676
(dp677
g73
(dp678
g93
g94
ssg82
g672
sg75
(lp679
g303
asbag68
(g89
g70
NtRp680
(dp681
g73
(dp682
g100
g101
ssg82
g672
sg75
(lp683
S':'
asbag68
(g89
g70
NtRp684
(dp685
g73
(dp686
sg82
g672
sg75
(lp687
g68
(g69
g70
NtRp688
(dp689
g73
(dp690
g81
I3
ssg82
g684
sg75
(lp691
S''
asbasbasbag68
(g84
g70
NtRp692
(dp693
g73
(dp694
sg82
g648
sg75
(lp695
g68
(g89
g70
NtRp696
(dp697
g73
(dp698
g93
g94
ssg82
g692
sg75
(lp699
g324
asbag68
(g89
g70
NtRp700
(dp701
g73
(dp702
g100
g101
ssg82
g692
sg75
(lp703
S':'
asbag68
(g89
g70
NtRp704
(dp705
g73
(dp706
sg82
g692
sg75
(lp707
g68
(g69
g70
NtRp708
(dp709
g73
(dp710
g81
I3
ssg82
g704
sg75
(lp711
S''
asbasbasbag68
(g84
g70
NtRp712
(dp713
g73
(dp714
sg82
g648
sg75
(lp715
g68
(g89
g70
NtRp716
(dp717
g73
(dp718
g93
g94
ssg82
g712
sg75
(lp719
g345
asbag68
(g89
g70
NtRp720
(dp721
g73
(dp722
g100
g101
ssg82
g712
sg75
(lp723
S':'
asbag68
(g89
g70
NtRp724
(dp725
g73
(dp726
sg82
g712
sg75
(lp727
g68
(g69
g70
NtRp728
(dp729
g73
(dp730
g81
I3
ssg82
g724
sg75
(lp731
S''
asbasbasbag68
(g84
g70
NtRp732
(dp733
g73
(dp734
sg82
g648
sg75
(lp735
g68
(g89
g70
NtRp736
(dp737
g73
(dp738
g93
g94
ssg82
g732
sg75
(lp739
g366
asbag68
(g89
g70
NtRp740
(dp741
g73
(dp742
g100
g101
ssg82
g732
sg75
(lp743
S':'
asbag68
(g89
g70
NtRp744
(dp745
g73
(dp746
sg82
g732
sg75
(lp747
g68
(g69
g70
NtRp748
(dp749
g73
(dp750
g81
I3
ssg82
g744
sg75
(lp751
S''
asbasbasbag68
(g84
g70
NtRp752
(dp753
g73
(dp754
sg82
g648
sg75
(lp755
g68
(g89
g70
NtRp756
(dp757
g73
(dp758
g93
g94
ssg82
g752
sg75
(lp759
g387
asbag68
(g89
g70
NtRp760
(dp761
g73
(dp762
g100
g101
ssg82
g752
sg75
(lp763
S':'
asbag68
(g89
g70
NtRp764
(dp765
g73
(dp766
sg82
g752
sg75
(lp767
g68
(g69
g70
NtRp768
(dp769
g73
(dp770
g81
I3
ssg82
g764
sg75
(lp771
S''
asbasbasbag68
(g84
g70
NtRp772
(dp773
g73
(dp774
sg82
g648
sg75
(lp775
g68
(g89
g70
NtRp776
(dp777
g73
(dp778
g93
g94
ssg82
g772
sg75
(lp779
g408
asbag68
(g89
g70
NtRp780
(dp781
g73
(dp782
g100
g101
ssg82
g772
sg75
(lp783
S':'
asbag68
(g89
g70
NtRp784
(dp785
g73
(dp786
sg82
g772
sg75
(lp787
g68
(g69
g70
NtRp788
(dp789
g73
(dp790
g81
I3
ssg82
g784
sg75
(lp791
S''
asbasbasbag68
(g84
g70
NtRp792
(dp793
g73
(dp794
sg82
g648
sg75
(lp795
g68
(g89
g70
NtRp796
(dp797
g73
(dp798
g93
g94
ssg82
g792
sg75
(lp799
g429
asbag68
(g89
g70
NtRp800
(dp801
g73
(dp802
g100
g101
ssg82
g792
sg75
(lp803
S':'
asbag68
(g89
g70
NtRp804
(dp805
g73
(dp806
sg82
g792
sg75
(lp807
g68
(g69
g70
NtRp808
(dp809
g73
(dp810
g81
I3
ssg82
g804
sg75
(lp811
S''
asbasbasbasbasbasbasbasbasbasbasbag68
(g84
g70
NtRp812
(dp813
g73
(dp814
sg82
g78
sg75
(lp815
g68
(g89
g70
NtRp816
(dp817
g73
(dp818
g93
g94
ssg82
g812
sg75
(lp819
S'env'
p820
asbag68
(g89
g70
NtRp821
(dp822
g73
(dp823
g100
g101
ssg82
g812
sg75
(lp824
S':'
asbag68
(g89
g70
NtRp825
(dp826
g73
(dp827
sg82
g812
sg75
(lp828
g68
(g69
g70
NtRp829
(dp830
g73
(dp831
g81
I5
ssg82
g825
sg75
(lp832
g68
(g77
g70
NtRp833
(dp834
g73
(dp835
g81
I4
ssg82
Nsg75
(lp836
g68
(g84
g70
NtRp837
(dp838
g73
(dp839
sg82
g833
sg75
(lp840
g68
(g89
g70
NtRp841
(dp842
g73
(dp843
g93
g94
ssg82
g837
sg75
(lp844
S'app_folders'
p845
asbag68
(g89
g70
NtRp846
(dp847
g73
(dp848
g100
g101
ssg82
g837
sg75
(lp849
S':'
asbag68
(g89
g70
NtRp850
(dp851
g73
(dp852
sg82
g837
sg75
(lp853
g68
(g69
g70
NtRp854
(dp855
g73
(dp856
g81
I4
ssg82
g850
sg75
(lp857
S"set(['/home/marco/flisol2012/web2py/applications/flisol2012/', '/home/marco/flisol2012/web2py/applications/admin/'])"
p858
asbasbasbag68
(g84
g70
NtRp859
(dp860
g73
(dp861
sg82
g833
sg75
(lp862
g68
(g89
g70
NtRp863
(dp864
g73
(dp865
g93
g94
ssg82
g859
sg75
(lp866
S'applications_parent'
p867
asbag68
(g89
g70
NtRp868
(dp869
g73
(dp870
g100
g101
ssg82
g859
sg75
(lp871
S':'
asbag68
(g89
g70
NtRp872
(dp873
g73
(dp874
sg82
g859
sg75
(lp875
g68
(g69
g70
NtRp876
(dp877
g73
(dp878
g81
I4
ssg82
g872
sg75
(lp879
S'/home/marco/flisol2012/web2py'
p880
asbasbasbag68
(g84
g70
NtRp881
(dp882
g73
(dp883
sg82
g833
sg75
(lp884
g68
(g89
g70
NtRp885
(dp886
g73
(dp887
g93
g94
ssg82
g881
sg75
(lp888
S'cmd_args'
p889
asbag68
(g89
g70
NtRp890
(dp891
g73
(dp892
g100
g101
ssg82
g881
sg75
(lp893
S':'
asbag68
(g89
g70
NtRp894
(dp895
g73
(dp896
sg82
g881
sg75
(lp897
g68
(g69
g70
NtRp898
(dp899
g73
(dp900
g81
I4
ssg82
g894
sg75
(lp901
g68
(g77
g70
NtRp902
(dp903
g73
(dp904
g81
I3
ssg82
Nsg75
(lp905
sbasbasbasbag68
(g84
g70
NtRp906
(dp907
g73
(dp908
sg82
g833
sg75
(lp909
g68
(g89
g70
NtRp910
(dp911
g73
(dp912
g93
g94
ssg82
g906
sg75
(lp913
S'cmd_options'
p914
asbag68
(g89
g70
NtRp915
(dp916
g73
(dp917
g100
g101
ssg82
g906
sg75
(lp918
S':'
asbag68
(g89
g70
NtRp919
(dp920
g73
(dp921
sg82
g906
sg75
(lp922
g68
(g69
g70
NtRp923
(dp924
g73
(dp925
g81
I4
ssg82
g919
sg75
(lp926
S"<Values at 0x1bd6908: {'verbose': False, 'ip': '127.0.0.1', 'shutdown_timeout': 5, 'taskbar': False, 'nocron': False, 'pid_filename': 'httpserver.pid', 'maxthreads': None, 'softcron': False, 'server_name': 'malena', 'bpython': False, 'nogui': False, 'port': 8000, 'extcron': False, 'debuglevel': 30, 'test': None, 'folder': '/home/marco/flisol2012/web2py', 'config': '', 'import_models': False, 'winservice': '', 'shell': None, 'run': '', 'log_filename': 'httpserver.log', 'args': [''], 'socket_timeout': 5, 'ssl_ca_certificate': None, 'scheduler': None, 'profiler_filename': None, 'ssl_private_key': '', 'password': 'asd', 'request_queue_size': 5, 'ssl_certificate': '', 'cronjob': False, 'numthreads': None, 'quiet': False, 'interfaces': None, 'minthreads': None, 'timeout': 10, 'plain': False, 'nobanner': False}>"
p927
asbasbasbag68
(g84
g70
NtRp928
(dp929
g73
(dp930
sg82
g833
sg75
(lp931
g68
(g89
g70
NtRp932
(dp933
g73
(dp934
g93
g94
ssg82
g928
sg75
(lp935
S'db_sessions'
p936
asbag68
(g89
g70
NtRp937
(dp938
g73
(dp939
g100
g101
ssg82
g928
sg75
(lp940
S':'
asbag68
(g89
g70
NtRp941
(dp942
g73
(dp943
sg82
g928
sg75
(lp944
g68
(g69
g70
NtRp945
(dp946
g73
(dp947
g81
I4
ssg82
g941
sg75
(lp948
S'set([])'
p949
asbasbasbag68
(g84
g70
NtRp950
(dp951
g73
(dp952
sg82
g833
sg75
(lp953
g68
(g89
g70
NtRp954
(dp955
g73
(dp956
g93
g94
ssg82
g950
sg75
(lp957
S'debugging'
p958
asbag68
(g89
g70
NtRp959
(dp960
g73
(dp961
g100
g101
ssg82
g950
sg75
(lp962
S':'
asbag68
(g89
g70
NtRp963
(dp964
g73
(dp965
sg82
g950
sg75
(lp966
g68
(g69
g70
NtRp967
(dp968
g73
(dp969
g81
I4
ssg82
g963
sg75
(lp970
g111
asbasbasbag68
(g84
g70
NtRp971
(dp972
g73
(dp973
sg82
g833
sg75
(lp974
g68
(g89
g70
NtRp975
(dp976
g73
(dp977
g93
g94
ssg82
g971
sg75
(lp978
S'gluon_parent'
p979
asbag68
(g89
g70
NtRp980
(dp981
g73
(dp982
g100
g101
ssg82
g971
sg75
(lp983
S':'
asbag68
(g89
g70
NtRp984
(dp985
g73
(dp986
sg82
g971
sg75
(lp987
g68
(g69
g70
NtRp988
(dp989
g73
(dp990
g81
I4
ssg82
g984
sg75
(lp991
S'/home/marco/flisol2012/web2py'
p992
asbasbasbag68
(g84
g70
NtRp993
(dp994
g73
(dp995
sg82
g833
sg75
(lp996
g68
(g89
g70
NtRp997
(dp998
g73
(dp999
g93
g94
ssg82
g993
sg75
(lp1000
S'http_accept'
p1001
asbag68
(g89
g70
NtRp1002
(dp1003
g73
(dp1004
g100
g101
ssg82
g993
sg75
(lp1005
S':'
asbag68
(g89
g70
NtRp1006
(dp1007
g73
(dp1008
sg82
g993
sg75
(lp1009
g68
(g69
g70
NtRp1010
(dp1011
g73
(dp1012
g81
I4
ssg82
g1006
sg75
(lp1013
S'text/html,application/xhtml+xml,application/xml;q=0.9,*/*;q=0.8'
p1014
asbasbasbag68
(g84
g70
NtRp1015
(dp1016
g73
(dp1017
sg82
g833
sg75
(lp1018
g68
(g89
g70
NtRp1019
(dp1020
g73
(dp1021
g93
g94
ssg82
g1015
sg75
(lp1022
S'http_accept_encoding'
p1023
asbag68
(g89
g70
NtRp1024
(dp1025
g73
(dp1026
g100
g101
ssg82
g1015
sg75
(lp1027
S':'
asbag68
(g89
g70
NtRp1028
(dp1029
g73
(dp1030
sg82
g1015
sg75
(lp1031
g68
(g69
g70
NtRp1032
(dp1033
g73
(dp1034
g81
I4
ssg82
g1028
sg75
(lp1035
S'gzip, deflate'
p1036
asbasbasbag68
(g84
g70
NtRp1037
(dp1038
g73
(dp1039
sg82
g833
sg75
(lp1040
g68
(g89
g70
NtRp1041
(dp1042
g73
(dp1043
g93
g94
ssg82
g1037
sg75
(lp1044
S'http_accept_language'
p1045
asbag68
(g89
g70
NtRp1046
(dp1047
g73
(dp1048
g100
g101
ssg82
g1037
sg75
(lp1049
S':'
asbag68
(g89
g70
NtRp1050
(dp1051
g73
(dp1052
sg82
g1037
sg75
(lp1053
g68
(g69
g70
NtRp1054
(dp1055
g73
(dp1056
g81
I4
ssg82
g1050
sg75
(lp1057
S'es-ar,es;q=0.8,en-us;q=0.5,en;q=0.3'
p1058
asbasbasbag68
(g84
g70
NtRp1059
(dp1060
g73
(dp1061
sg82
g833
sg75
(lp1062
g68
(g89
g70
NtRp1063
(dp1064
g73
(dp1065
g93
g94
ssg82
g1059
sg75
(lp1066
S'http_cache_control'
p1067
asbag68
(g89
g70
NtRp1068
(dp1069
g73
(dp1070
g100
g101
ssg82
g1059
sg75
(lp1071
S':'
asbag68
(g89
g70
NtRp1072
(dp1073
g73
(dp1074
sg82
g1059
sg75
(lp1075
g68
(g69
g70
NtRp1076
(dp1077
g73
(dp1078
g81
I4
ssg82
g1072
sg75
(lp1079
S'max-age=0'
p1080
asbasbasbag68
(g84
g70
NtRp1081
(dp1082
g73
(dp1083
sg82
g833
sg75
(lp1084
g68
(g89
g70
NtRp1085
(dp1086
g73
(dp1087
g93
g94
ssg82
g1081
sg75
(lp1088
S'http_connection'
p1089
asbag68
(g89
g70
NtRp1090
(dp1091
g73
(dp1092
g100
g101
ssg82
g1081
sg75
(lp1093
S':'
asbag68
(g89
g70
NtRp1094
(dp1095
g73
(dp1096
sg82
g1081
sg75
(lp1097
g68
(g69
g70
NtRp1098
(dp1099
g73
(dp1100
g81
I4
ssg82
g1094
sg75
(lp1101
S'keep-alive'
p1102
asbasbasbag68
(g84
g70
NtRp1103
(dp1104
g73
(dp1105
sg82
g833
sg75
(lp1106
g68
(g89
g70
NtRp1107
(dp1108
g73
(dp1109
g93
g94
ssg82
g1103
sg75
(lp1110
S'http_cookie'
p1111
asbag68
(g89
g70
NtRp1112
(dp1113
g73
(dp1114
g100
g101
ssg82
g1103
sg75
(lp1115
S':'
asbag68
(g89
g70
NtRp1116
(dp1117
g73
(dp1118
sg82
g1103
sg75
(lp1119
g68
(g69
g70
NtRp1120
(dp1121
g73
(dp1122
g81
I4
ssg82
g1116
sg75
(lp1123
S'__utma=96992031.1881515701.1331265087.1331304752.1331309329.3; __utmc=96992031; __utmz=96992031.1331265087.1.1.utmcsr=(direct)|utmccn=(direct)|utmcmd=(none); session_id_admin=127.0.0.1-9a2952a6-26e2-4128-bf07-4f0465bdfbbf; session_id_reingart=127.0.0.1-c638efce-62e3-46b3-bb1a-e04405c01702; session_id_flisol2012=127.0.0.1-52b5dd6f-efb7-4104-a68b-859b9ffc61cb'
p1124
asbasbasbag68
(g84
g70
NtRp1125
(dp1126
g73
(dp1127
sg82
g833
sg75
(lp1128
g68
(g89
g70
NtRp1129
(dp1130
g73
(dp1131
g93
g94
ssg82
g1125
sg75
(lp1132
S'http_host'
p1133
asbag68
(g89
g70
NtRp1134
(dp1135
g73
(dp1136
g100
g101
ssg82
g1125
sg75
(lp1137
S':'
asbag68
(g89
g70
NtRp1138
(dp1139
g73
(dp1140
sg82
g1125
sg75
(lp1141
g68
(g69
g70
NtRp1142
(dp1143
g73
(dp1144
g81
I4
ssg82
g1138
sg75
(lp1145
S'127.0.0.1:8000'
p1146
asbasbasbag68
(g84
g70
NtRp1147
(dp1148
g73
(dp1149
sg82
g833
sg75
(lp1150
g68
(g89
g70
NtRp1151
(dp1152
g73
(dp1153
g93
g94
ssg82
g1147
sg75
(lp1154
S'http_referer'
p1155
asbag68
(g89
g70
NtRp1156
(dp1157
g73
(dp1158
g100
g101
ssg82
g1147
sg75
(lp1159
S':'
asbag68
(g89
g70
NtRp1160
(dp1161
g73
(dp1162
sg82
g1147
sg75
(lp1163
g68
(g69
g70
NtRp1164
(dp1165
g73
(dp1166
g81
I4
ssg82
g1160
sg75
(lp1167
S'http://127.0.0.1:8000/flisol2012/default/index'
p1168
asbasbasbag68
(g84
g70
NtRp1169
(dp1170
g73
(dp1171
sg82
g833
sg75
(lp1172
g68
(g89
g70
NtRp1173
(dp1174
g73
(dp1175
g93
g94
ssg82
g1169
sg75
(lp1176
S'http_user_agent'
p1177
asbag68
(g89
g70
NtRp1178
(dp1179
g73
(dp1180
g100
g101
ssg82
g1169
sg75
(lp1181
S':'
asbag68
(g89
g70
NtRp1182
(dp1183
g73
(dp1184
sg82
g1169
sg75
(lp1185
g68
(g69
g70
NtRp1186
(dp1187
g73
(dp1188
g81
I4
ssg82
g1182
sg75
(lp1189
S'Mozilla/5.0 (X11; Linux x86_64; rv:11.0) Gecko/20100101 Firefox/11.0 Iceweasel/11.0'
p1190
asbasbasbag68
(g84
g70
NtRp1191
(dp1192
g73
(dp1193
sg82
g833
sg75
(lp1194
g68
(g89
g70
NtRp1195
(dp1196
g73
(dp1197
g93
g94
ssg82
g1191
sg75
(lp1198
S'is_jython'
p1199
asbag68
(g89
g70
NtRp1200
(dp1201
g73
(dp1202
g100
g101
ssg82
g1191
sg75
(lp1203
S':'
asbag68
(g89
g70
NtRp1204
(dp1205
g73
(dp1206
sg82
g1191
sg75
(lp1207
g68
(g69
g70
NtRp1208
(dp1209
g73
(dp1210
g81
I4
ssg82
g1204
sg75
(lp1211
g111
asbasbasbag68
(g84
g70
NtRp1212
(dp1213
g73
(dp1214
sg82
g833
sg75
(lp1215
g68
(g89
g70
NtRp1216
(dp1217
g73
(dp1218
g93
g94
ssg82
g1212
sg75
(lp1219
S'is_pypy'
p1220
asbag68
(g89
g70
NtRp1221
(dp1222
g73
(dp1223
g100
g101
ssg82
g1212
sg75
(lp1224
S':'
asbag68
(g89
g70
NtRp1225
(dp1226
g73
(dp1227
sg82
g1212
sg75
(lp1228
g68
(g69
g70
NtRp1229
(dp1230
g73
(dp1231
g81
I4
ssg82
g1225
sg75
(lp1232
g111
asbasbasbag68
(g84
g70
NtRp1233
(dp1234
g73
(dp1235
sg82
g833
sg75
(lp1236
g68
(g89
g70
NtRp1237
(dp1238
g73
(dp1239
g93
g94
ssg82
g1233
sg75
(lp1240
S'path_info'
p1241
asbag68
(g89
g70
NtRp1242
(dp1243
g73
(dp1244
g100
g101
ssg82
g1233
sg75
(lp1245
S':'
asbag68
(g89
g70
NtRp1246
(dp1247
g73
(dp1248
sg82
g1233
sg75
(lp1249
g68
(g69
g70
NtRp1250
(dp1251
g73
(dp1252
g81
I4
ssg82
g1246
sg75
(lp1253
S'/flisol2012/conference/staff'
p1254
asbasbasbag68
(g84
g70
NtRp1255
(dp1256
g73
(dp1257
sg82
g833
sg75
(lp1258
g68
(g89
g70
NtRp1259
(dp1260
g73
(dp1261
g93
g94
ssg82
g1255
sg75
(lp1262
S'query_string'
p1263
asbag68
(g89
g70
NtRp1264
(dp1265
g73
(dp1266
g100
g101
ssg82
g1255
sg75
(lp1267
S':'
asbag68
(g89
g70
NtRp1268
(dp1269
g73
(dp1270
sg82
g1255
sg75
(lp1271
g68
(g69
g70
NtRp1272
(dp1273
g73
(dp1274
g81
I4
ssg82
g1268
sg75
(lp1275
S''
asbasbasbag68
(g84
g70
NtRp1276
(dp1277
g73
(dp1278
sg82
g833
sg75
(lp1279
g68
(g89
g70
NtRp1280
(dp1281
g73
(dp1282
g93
g94
ssg82
g1276
sg75
(lp1283
S'remote_addr'
p1284
asbag68
(g89
g70
NtRp1285
(dp1286
g73
(dp1287
g100
g101
ssg82
g1276
sg75
(lp1288
S':'
asbag68
(g89
g70
NtRp1289
(dp1290
g73
(dp1291
sg82
g1276
sg75
(lp1292
g68
(g69
g70
NtRp1293
(dp1294
g73
(dp1295
g81
I4
ssg82
g1289
sg75
(lp1296
g201
asbasbasbag68
(g84
g70
NtRp1297
(dp1298
g73
(dp1299
sg82
g833
sg75
(lp1300
g68
(g89
g70
NtRp1301
(dp1302
g73
(dp1303
g93
g94
ssg82
g1297
sg75
(lp1304
S'remote_port'
p1305
asbag68
(g89
g70
NtRp1306
(dp1307
g73
(dp1308
g100
g101
ssg82
g1297
sg75
(lp1309
S':'
asbag68
(g89
g70
NtRp1310
(dp1311
g73
(dp1312
sg82
g1297
sg75
(lp1313
g68
(g69
g70
NtRp1314
(dp1315
g73
(dp1316
g81
I4
ssg82
g1310
sg75
(lp1317
S'39860'
p1318
asbasbasbag68
(g84
g70
NtRp1319
(dp1320
g73
(dp1321
sg82
g833
sg75
(lp1322
g68
(g89
g70
NtRp1323
(dp1324
g73
(dp1325
g93
g94
ssg82
g1319
sg75
(lp1326
S'request_method'
p1327
asbag68
(g89
g70
NtRp1328
(dp1329
g73
(dp1330
g100
g101
ssg82
g1319
sg75
(lp1331
S':'
asbag68
(g89
g70
NtRp1332
(dp1333
g73
(dp1334
sg82
g1319
sg75
(lp1335
g68
(g69
g70
NtRp1336
(dp1337
g73
(dp1338
g81
I4
ssg82
g1332
sg75
(lp1339
S'GET'
p1340
asbasbasbag68
(g84
g70
NtRp1341
(dp1342
g73
(dp1343
sg82
g833
sg75
(lp1344
g68
(g89
g70
NtRp1345
(dp1346
g73
(dp1347
g93
g94
ssg82
g1341
sg75
(lp1348
S'script_name'
p1349
asbag68
(g89
g70
NtRp1350
(dp1351
g73
(dp1352
g100
g101
ssg82
g1341
sg75
(lp1353
S':'
asbag68
(g89
g70
NtRp1354
(dp1355
g73
(dp1356
sg82
g1341
sg75
(lp1357
g68
(g69
g70
NtRp1358
(dp1359
g73
(dp1360
g81
I4
ssg82
g1354
sg75
(lp1361
S''
asbasbasbag68
(g84
g70
NtRp1362
(dp1363
g73
(dp1364
sg82
g833
sg75
(lp1365
g68
(g89
g70
NtRp1366
(dp1367
g73
(dp1368
g93
g94
ssg82
g1362
sg75
(lp1369
S'server_name'
p1370
asbag68
(g89
g70
NtRp1371
(dp1372
g73
(dp1373
g100
g101
ssg82
g1362
sg75
(lp1374
S':'
asbag68
(g89
g70
NtRp1375
(dp1376
g73
(dp1377
sg82
g1362
sg75
(lp1378
g68
(g69
g70
NtRp1379
(dp1380
g73
(dp1381
g81
I4
ssg82
g1375
sg75
(lp1382
S'malena'
p1383
asbasbasbag68
(g84
g70
NtRp1384
(dp1385
g73
(dp1386
sg82
g833
sg75
(lp1387
g68
(g89
g70
NtRp1388
(dp1389
g73
(dp1390
g93
g94
ssg82
g1384
sg75
(lp1391
S'server_port'
p1392
asbag68
(g89
g70
NtRp1393
(dp1394
g73
(dp1395
g100
g101
ssg82
g1384
sg75
(lp1396
S':'
asbag68
(g89
g70
NtRp1397
(dp1398
g73
(dp1399
sg82
g1384
sg75
(lp1400
g68
(g69
g70
NtRp1401
(dp1402
g73
(dp1403
g81
I4
ssg82
g1397
sg75
(lp1404
S'8000'
p1405
asbasbasbag68
(g84
g70
NtRp1406
(dp1407
g73
(dp1408
sg82
g833
sg75
(lp1409
g68
(g89
g70
NtRp1410
(dp1411
g73
(dp1412
g93
g94
ssg82
g1406
sg75
(lp1413
S'server_protocol'
p1414
asbag68
(g89
g70
NtRp1415
(dp1416
g73
(dp1417
g100
g101
ssg82
g1406
sg75
(lp1418
S':'
asbag68
(g89
g70
NtRp1419
(dp1420
g73
(dp1421
sg82
g1406
sg75
(lp1422
g68
(g69
g70
NtRp1423
(dp1424
g73
(dp1425
g81
I4
ssg82
g1419
sg75
(lp1426
S'HTTP/1.1'
p1427
asbasbasbag68
(g84
g70
NtRp1428
(dp1429
g73
(dp1430
sg82
g833
sg75
(lp1431
g68
(g89
g70
NtRp1432
(dp1433
g73
(dp1434
g93
g94
ssg82
g1428
sg75
(lp1435
S'server_software'
p1436
asbag68
(g89
g70
NtRp1437
(dp1438
g73
(dp1439
g100
g101
ssg82
g1428
sg75
(lp1440
S':'
asbag68
(g89
g70
NtRp1441
(dp1442
g73
(dp1443
sg82
g1428
sg75
(lp1444
g68
(g69
g70
NtRp1445
(dp1446
g73
(dp1447
g81
I4
ssg82
g1441
sg75
(lp1448
S'Rocket 1.2.4'
p1449
asbasbasbag68
(g84
g70
NtRp1450
(dp1451
g73
(dp1452
sg82
g833
sg75
(lp1453
g68
(g89
g70
NtRp1454
(dp1455
g73
(dp1456
g93
g94
ssg82
g1450
sg75
(lp1457
S'web2py_crontype'
p1458
asbag68
(g89
g70
NtRp1459
(dp1460
g73
(dp1461
g100
g101
ssg82
g1450
sg75
(lp1462
S':'
asbag68
(g89
g70
NtRp1463
(dp1464
g73
(dp1465
sg82
g1450
sg75
(lp1466
g68
(g69
g70
NtRp1467
(dp1468
g73
(dp1469
g81
I4
ssg82
g1463
sg75
(lp1470
S'hard'
p1471
asbasbasbag68
(g84
g70
NtRp1472
(dp1473
g73
(dp1474
sg82
g833
sg75
(lp1475
g68
(g89
g70
NtRp1476
(dp1477
g73
(dp1478
g93
g94
ssg82
g1472
sg75
(lp1479
S'web2py_path'
p1480
asbag68
(g89
g70
NtRp1481
(dp1482
g73
(dp1483
g100
g101
ssg82
g1472
sg75
(lp1484
S':'
asbag68
(g89
g70
NtRp1485
(dp1486
g73
(dp1487
sg82
g1472
sg75
(lp1488
g68
(g69
g70
NtRp1489
(dp1490
g73
(dp1491
g81
I4
ssg82
g1485
sg75
(lp1492
g880
asbasbasbag68
(g84
g70
NtRp1493
(dp1494
g73
(dp1495
sg82
g833
sg75
(lp1496
g68
(g89
g70
NtRp1497
(dp1498
g73
(dp1499
g93
g94
ssg82
g1493
sg75
(lp1500
S'web2py_version'
p1501
asbag68
(g89
g70
NtRp1502
(dp1503
g73
(dp1504
g100
g101
ssg82
g1493
sg75
(lp1505
S':'
asbag68
(g89
g70
NtRp1506
(dp1507
g73
(dp1508
sg82
g1493
sg75
(lp1509
g68
(g69
g70
NtRp1510
(dp1511
g73
(dp1512
g81
I4
ssg82
g1506
sg75
(lp1513
g68
(g77
g70
NtRp1514
(dp1515
g73
(dp1516
g81
I3
ssg82
Nsg75
(lp1517
g68
(g84
g70
NtRp1518
(dp1519
g73
(dp1520
sg82
g1514
sg75
(lp1521
g68
(g89
g70
NtRp1522
(dp1523
g73
(dp1524
sg82
g1518
sg75
(lp1525
g68
(g69
g70
NtRp1526
(dp1527
g73
(dp1528
g81
I3
ssg82
g1522
sg75
(lp1529
S'1'
asbasbasbag68
(g84
g70
NtRp1530
(dp1531
g73
(dp1532
sg82
g1514
sg75
(lp1533
g68
(g89
g70
NtRp1534
(dp1535
g73
(dp1536
sg82
g1530
sg75
(lp1537
g68
(g69
g70
NtRp1538
(dp1539
g73
(dp1540
g81
I3
ssg82
g1534
sg75
(lp1541
S'99'
p1542
asbasbasbag68
(g84
g70
NtRp1543
(dp1544
g73
(dp1545
sg82
g1514
sg75
(lp1546
g68
(g89
g70
NtRp1547
(dp1548
g73
(dp1549
sg82
g1543
sg75
(lp1550
g68
(g69
g70
NtRp1551
(dp1552
g73
(dp1553
g81
I3
ssg82
g1547
sg75
(lp1554
S'7'
asbasbasbag68
(g84
g70
NtRp1555
(dp1556
g73
(dp1557
sg82
g1514
sg75
(lp1558
g68
(g89
g70
NtRp1559
(dp1560
g73
(dp1561
sg82
g1555
sg75
(lp1562
g68
(g69
g70
NtRp1563
(dp1564
g73
(dp1565
g81
I3
ssg82
g1559
sg75
(lp1566
S'datetime.datetime(2012, 3, 4, 22, 12, 8)'
p1567
asbasbasbag68
(g84
g70
NtRp1568
(dp1569
g73
(dp1570
sg82
g1514
sg75
(lp1571
g68
(g89
g70
NtRp1572
(dp1573
g73
(dp1574
sg82
g1568
sg75
(lp1575
g68
(g69
g70
NtRp1576
(dp1577
g73
(dp1578
g81
I3
ssg82
g1572
sg75
(lp1579
S'stable'
p1580
asbasbasbasbasbasbasbag68
(g84
g70
NtRp1581
(dp1582
g73
(dp1583
sg82
g833
sg75
(lp1584
g68
(g89
g70
NtRp1585
(dp1586
g73
(dp1587
g93
g94
ssg82
g1581
sg75
(lp1588
S'wsgi_errors'
p1589
asbag68
(g89
g70
NtRp1590
(dp1591
g73
(dp1592
g100
g101
ssg82
g1581
sg75
(lp1593
S':'
asbag68
(g89
g70
NtRp1594
(dp1595
g73
(dp1596
sg82
g1581
sg75
(lp1597
g68
(g69
g70
NtRp1598
(dp1599
g73
(dp1600
g81
I4
ssg82
g1594
sg75
(lp1601
S"<open file '<stderr>', mode 'w' at 0x7f4f2366f270>"
p1602
asbasbasbag68
(g84
g70
NtRp1603
(dp1604
g73
(dp1605
sg82
g833
sg75
(lp1606
g68
(g89
g70
NtRp1607
(dp1608
g73
(dp1609
g93
g94
ssg82
g1603
sg75
(lp1610
S'wsgi_file_wrapper'
p1611
asbag68
(g89
g70
NtRp1612
(dp1613
g73
(dp1614
g100
g101
ssg82
g1603
sg75
(lp1615
S':'
asbag68
(g89
g70
NtRp1616
(dp1617
g73
(dp1618
sg82
g1603
sg75
(lp1619
g68
(g69
g70
NtRp1620
(dp1621
g73
(dp1622
g81
I4
ssg82
g1616
sg75
(lp1623
S'<class wsgiref.util.FileWrapper at 0x1abc460>'
p1624
asbasbasbag68
(g84
g70
NtRp1625
(dp1626
g73
(dp1627
sg82
g833
sg75
(lp1628
g68
(g89
g70
NtRp1629
(dp1630
g73
(dp1631
g93
g94
ssg82
g1625
sg75
(lp1632
S'wsgi_input'
p1633
asbag68
(g89
g70
NtRp1634
(dp1635
g73
(dp1636
g100
g101
ssg82
g1625
sg75
(lp1637
S':'
asbag68
(g89
g70
NtRp1638
(dp1639
g73
(dp1640
sg82
g1625
sg75
(lp1641
g68
(g69
g70
NtRp1642
(dp1643
g73
(dp1644
g81
I4
ssg82
g1638
sg75
(lp1645
S'<socket._fileobject object at 0x3e784d0>'
p1646
asbasbasbag68
(g84
g70
NtRp1647
(dp1648
g73
(dp1649
sg82
g833
sg75
(lp1650
g68
(g89
g70
NtRp1651
(dp1652
g73
(dp1653
g93
g94
ssg82
g1647
sg75
(lp1654
S'wsgi_multiprocess'
p1655
asbag68
(g89
g70
NtRp1656
(dp1657
g73
(dp1658
g100
g101
ssg82
g1647
sg75
(lp1659
S':'
asbag68
(g89
g70
NtRp1660
(dp1661
g73
(dp1662
sg82
g1647
sg75
(lp1663
g68
(g69
g70
NtRp1664
(dp1665
g73
(dp1666
g81
I4
ssg82
g1660
sg75
(lp1667
g111
asbasbasbag68
(g84
g70
NtRp1668
(dp1669
g73
(dp1670
sg82
g833
sg75
(lp1671
g68
(g89
g70
NtRp1672
(dp1673
g73
(dp1674
g93
g94
ssg82
g1668
sg75
(lp1675
S'wsgi_multithread'
p1676
asbag68
(g89
g70
NtRp1677
(dp1678
g73
(dp1679
g100
g101
ssg82
g1668
sg75
(lp1680
S':'
asbag68
(g89
g70
NtRp1681
(dp1682
g73
(dp1683
sg82
g1668
sg75
(lp1684
g68
(g69
g70
NtRp1685
(dp1686
g73
(dp1687
g81
I4
ssg82
g1681
sg75
(lp1688
S'True'
p1689
asbasbasbag68
(g84
g70
NtRp1690
(dp1691
g73
(dp1692
sg82
g833
sg75
(lp1693
g68
(g89
g70
NtRp1694
(dp1695
g73
(dp1696
g93
g94
ssg82
g1690
sg75
(lp1697
S'wsgi_run_once'
p1698
asbag68
(g89
g70
NtRp1699
(dp1700
g73
(dp1701
g100
g101
ssg82
g1690
sg75
(lp1702
S':'
asbag68
(g89
g70
NtRp1703
(dp1704
g73
(dp1705
sg82
g1690
sg75
(lp1706
g68
(g69
g70
NtRp1707
(dp1708
g73
(dp1709
g81
I4
ssg82
g1703
sg75
(lp1710
g111
asbasbasbag68
(g84
g70
NtRp1711
(dp1712
g73
(dp1713
sg82
g833
sg75
(lp1714
g68
(g89
g70
NtRp1715
(dp1716
g73
(dp1717
g93
g94
ssg82
g1711
sg75
(lp1718
S'wsgi_url_scheme'
p1719
asbag68
(g89
g70
NtRp1720
(dp1721
g73
(dp1722
g100
g101
ssg82
g1711
sg75
(lp1723
S':'
asbag68
(g89
g70
NtRp1724
(dp1725
g73
(dp1726
sg82
g1711
sg75
(lp1727
g68
(g69
g70
NtRp1728
(dp1729
g73
(dp1730
g81
I4
ssg82
g1724
sg75
(lp1731
S'http'
p1732
asbasbasbag68
(g84
g70
NtRp1733
(dp1734
g73
(dp1735
sg82
g833
sg75
(lp1736
g68
(g89
g70
NtRp1737
(dp1738
g73
(dp1739
g93
g94
ssg82
g1733
sg75
(lp1740
S'wsgi_version'
p1741
asbag68
(g89
g70
NtRp1742
(dp1743
g73
(dp1744
g100
g101
ssg82
g1733
sg75
(lp1745
S':'
asbag68
(g89
g70
NtRp1746
(dp1747
g73
(dp1748
sg82
g1733
sg75
(lp1749
g68
(g69
g70
NtRp1750
(dp1751
g73
(dp1752
g81
I4
ssg82
g1746
sg75
(lp1753
g68
(g77
g70
NtRp1754
(dp1755
g73
(dp1756
g81
I3
ssg82
Nsg75
(lp1757
g68
(g84
g70
NtRp1758
(dp1759
g73
(dp1760
sg82
g1754
sg75
(lp1761
g68
(g89
g70
NtRp1762
(dp1763
g73
(dp1764
sg82
g1758
sg75
(lp1765
g68
(g69
g70
NtRp1766
(dp1767
g73
(dp1768
g81
I3
ssg82
g1762
sg75
(lp1769
S'1'
asbasbasbag68
(g84
g70
NtRp1770
(dp1771
g73
(dp1772
sg82
g1754
sg75
(lp1773
g68
(g89
g70
NtRp1774
(dp1775
g73
(dp1776
sg82
g1770
sg75
(lp1777
g68
(g69
g70
NtRp1778
(dp1779
g73
(dp1780
g81
I3
ssg82
g1774
sg75
(lp1781
S'0'
asbasbasbasbasbasbasbasbasbasbasbag68
(g84
g70
NtRp1782
(dp1783
g73
(dp1784
sg82
g78
sg75
(lp1785
g68
(g89
g70
NtRp1786
(dp1787
g73
(dp1788
g93
g94
ssg82
g1782
sg75
(lp1789
S'extension'
p1790
asbag68
(g89
g70
NtRp1791
(dp1792
g73
(dp1793
g100
g101
ssg82
g1782
sg75
(lp1794
S':'
asbag68
(g89
g70
NtRp1795
(dp1796
g73
(dp1797
sg82
g1782
sg75
(lp1798
g68
(g69
g70
NtRp1799
(dp1800
g73
(dp1801
g81
I5
ssg82
g1795
sg75
(lp1802
S'html'
p1803
asbasbasbag68
(g84
g70
NtRp1804
(dp1805
g73
(dp1806
sg82
g78
sg75
(lp1807
g68
(g89
g70
NtRp1808
(dp1809
g73
(dp1810
g93
g94
ssg82
g1804
sg75
(lp1811
S'folder'
p1812
asbag68
(g89
g70
NtRp1813
(dp1814
g73
(dp1815
g100
g101
ssg82
g1804
sg75
(lp1816
S':'
asbag68
(g89
g70
NtRp1817
(dp1818
g73
(dp1819
sg82
g1804
sg75
(lp1820
g68
(g69
g70
NtRp1821
(dp1822
g73
(dp1823
g81
I5
ssg82
g1817
sg75
(lp1824
S'/home/marco/flisol2012/web2py/applications/flisol2012/'
p1825
asbasbasbag68
(g84
g70
NtRp1826
(dp1827
g73
(dp1828
sg82
g78
sg75
(lp1829
g68
(g89
g70
NtRp1830
(dp1831
g73
(dp1832
g93
g94
ssg82
g1826
sg75
(lp1833
S'function'
p1834
asbag68
(g89
g70
NtRp1835
(dp1836
g73
(dp1837
g100
g101
ssg82
g1826
sg75
(lp1838
S':'
asbag68
(g89
g70
NtRp1839
(dp1840
g73
(dp1841
sg82
g1826
sg75
(lp1842
g68
(g69
g70
NtRp1843
(dp1844
g73
(dp1845
g81
I5
ssg82
g1839
sg75
(lp1846
S'staff'
p1847
asbasbasbag68
(g84
g70
NtRp1848
(dp1849
g73
(dp1850
sg82
g78
sg75
(lp1851
g68
(g89
g70
NtRp1852
(dp1853
g73
(dp1854
g93
g94
ssg82
g1848
sg75
(lp1855
S'get_vars'
p1856
asbag68
(g89
g70
NtRp1857
(dp1858
g73
(dp1859
g100
g101
ssg82
g1848
sg75
(lp1860
S':'
asbag68
(g89
g70
NtRp1861
(dp1862
g73
(dp1863
sg82
g1848
sg75
(lp1864
g68
(g69
g70
NtRp1865
(dp1866
g73
(dp1867
g81
I5
ssg82
g1861
sg75
(lp1868
g68
(g77
g70
NtRp1869
(dp1870
g73
(dp1871
g81
I4
ssg82
Nsg75
(lp1872
sbasbasbasbag68
(g84
g70
NtRp1873
(dp1874
g73
(dp1875
sg82
g78
sg75
(lp1876
g68
(g89
g70
NtRp1877
(dp1878
g73
(dp1879
g93
g94
ssg82
g1873
sg75
(lp1880
S'global_settings'
p1881
asbag68
(g89
g70
NtRp1882
(dp1883
g73
(dp1884
g100
g101
ssg82
g1873
sg75
(lp1885
S':'
asbag68
(g89
g70
NtRp1886
(dp1887
g73
(dp1888
sg82
g1873
sg75
(lp1889
g68
(g69
g70
NtRp1890
(dp1891
g73
(dp1892
g81
I5
ssg82
g1886
sg75
(lp1893
g68
(g77
g70
NtRp1894
(dp1895
g73
(dp1896
g81
I4
ssg82
Nsg75
(lp1897
g68
(g84
g70
NtRp1898
(dp1899
g73
(dp1900
sg82
g1894
sg75
(lp1901
g68
(g89
g70
NtRp1902
(dp1903
g73
(dp1904
g93
g94
ssg82
g1898
sg75
(lp1905
g845
asbag68
(g89
g70
NtRp1906
(dp1907
g73
(dp1908
g100
g101
ssg82
g1898
sg75
(lp1909
S':'
asbag68
(g89
g70
NtRp1910
(dp1911
g73
(dp1912
sg82
g1898
sg75
(lp1913
g68
(g69
g70
NtRp1914
(dp1915
g73
(dp1916
g81
I4
ssg82
g1910
sg75
(lp1917
S"set(['/home/marco/flisol2012/web2py/applications/flisol2012/', '/home/marco/flisol2012/web2py/applications/admin/'])"
p1918
asbasbasbag68
(g84
g70
NtRp1919
(dp1920
g73
(dp1921
sg82
g1894
sg75
(lp1922
g68
(g89
g70
NtRp1923
(dp1924
g73
(dp1925
g93
g94
ssg82
g1919
sg75
(lp1926
g867
asbag68
(g89
g70
NtRp1927
(dp1928
g73
(dp1929
g100
g101
ssg82
g1919
sg75
(lp1930
S':'
asbag68
(g89
g70
NtRp1931
(dp1932
g73
(dp1933
sg82
g1919
sg75
(lp1934
g68
(g69
g70
NtRp1935
(dp1936
g73
(dp1937
g81
I4
ssg82
g1931
sg75
(lp1938
g880
asbasbasbag68
(g84
g70
NtRp1939
(dp1940
g73
(dp1941
sg82
g1894
sg75
(lp1942
g68
(g89
g70
NtRp1943
(dp1944
g73
(dp1945
g93
g94
ssg82
g1939
sg75
(lp1946
g889
asbag68
(g89
g70
NtRp1947
(dp1948
g73
(dp1949
g100
g101
ssg82
g1939
sg75
(lp1950
S':'
asbag68
(g89
g70
NtRp1951
(dp1952
g73
(dp1953
sg82
g1939
sg75
(lp1954
g68
(g69
g70
NtRp1955
(dp1956
g73
(dp1957
g81
I4
ssg82
g1951
sg75
(lp1958
g68
(g77
g70
NtRp1959
(dp1960
g73
(dp1961
g81
I3
ssg82
Nsg75
(lp1962
sbasbasbasbag68
(g84
g70
NtRp1963
(dp1964
g73
(dp1965
sg82
g1894
sg75
(lp1966
g68
(g89
g70
NtRp1967
(dp1968
g73
(dp1969
g93
g94
ssg82
g1963
sg75
(lp1970
g914
asbag68
(g89
g70
NtRp1971
(dp1972
g73
(dp1973
g100
g101
ssg82
g1963
sg75
(lp1974
S':'
asbag68
(g89
g70
NtRp1975
(dp1976
g73
(dp1977
sg82
g1963
sg75
(lp1978
g68
(g69
g70
NtRp1979
(dp1980
g73
(dp1981
g81
I4
ssg82
g1975
sg75
(lp1982
S"<Values at 0x1bd6908: {'verbose': False, 'ip': '127.0.0.1', 'shutdown_timeout': 5, 'taskbar': False, 'nocron': False, 'pid_filename': 'httpserver.pid', 'maxthreads': None, 'softcron': False, 'server_name': 'malena', 'bpython': False, 'nogui': False, 'port': 8000, 'extcron': False, 'debuglevel': 30, 'test': None, 'folder': '/home/marco/flisol2012/web2py', 'config': '', 'import_models': False, 'winservice': '', 'shell': None, 'run': '', 'log_filename': 'httpserver.log', 'args': [''], 'socket_timeout': 5, 'ssl_ca_certificate': None, 'scheduler': None, 'profiler_filename': None, 'ssl_private_key': '', 'password': 'asd', 'request_queue_size': 5, 'ssl_certificate': '', 'cronjob': False, 'numthreads': None, 'quiet': False, 'interfaces': None, 'minthreads': None, 'timeout': 10, 'plain': False, 'nobanner': False}>"
p1983
asbasbasbag68
(g84
g70
NtRp1984
(dp1985
g73
(dp1986
sg82
g1894
sg75
(lp1987
g68
(g89
g70
NtRp1988
(dp1989
g73
(dp1990
g93
g94
ssg82
g1984
sg75
(lp1991
g936
asbag68
(g89
g70
NtRp1992
(dp1993
g73
(dp1994
g100
g101
ssg82
g1984
sg75
(lp1995
S':'
asbag68
(g89
g70
NtRp1996
(dp1997
g73
(dp1998
sg82
g1984
sg75
(lp1999
g68
(g69
g70
NtRp2000
(dp2001
g73
(dp2002
g81
I4
ssg82
g1996
sg75
(lp2003
S'set([])'
p2004
asbasbasbag68
(g84
g70
NtRp2005
(dp2006
g73
(dp2007
sg82
g1894
sg75
(lp2008
g68
(g89
g70
NtRp2009
(dp2010
g73
(dp2011
g93
g94
ssg82
g2005
sg75
(lp2012
g958
asbag68
(g89
g70
NtRp2013
(dp2014
g73
(dp2015
g100
g101
ssg82
g2005
sg75
(lp2016
S':'
asbag68
(g89
g70
NtRp2017
(dp2018
g73
(dp2019
sg82
g2005
sg75
(lp2020
g68
(g69
g70
NtRp2021
(dp2022
g73
(dp2023
g81
I4
ssg82
g2017
sg75
(lp2024
g111
asbasbasbag68
(g84
g70
NtRp2025
(dp2026
g73
(dp2027
sg82
g1894
sg75
(lp2028
g68
(g89
g70
NtRp2029
(dp2030
g73
(dp2031
g93
g94
ssg82
g2025
sg75
(lp2032
g979
asbag68
(g89
g70
NtRp2033
(dp2034
g73
(dp2035
g100
g101
ssg82
g2025
sg75
(lp2036
S':'
asbag68
(g89
g70
NtRp2037
(dp2038
g73
(dp2039
sg82
g2025
sg75
(lp2040
g68
(g69
g70
NtRp2041
(dp2042
g73
(dp2043
g81
I4
ssg82
g2037
sg75
(lp2044
g992
asbasbasbag68
(g84
g70
NtRp2045
(dp2046
g73
(dp2047
sg82
g1894
sg75
(lp2048
g68
(g89
g70
NtRp2049
(dp2050
g73
(dp2051
g93
g94
ssg82
g2045
sg75
(lp2052
g1199
asbag68
(g89
g70
NtRp2053
(dp2054
g73
(dp2055
g100
g101
ssg82
g2045
sg75
(lp2056
S':'
asbag68
(g89
g70
NtRp2057
(dp2058
g73
(dp2059
sg82
g2045
sg75
(lp2060
g68
(g69
g70
NtRp2061
(dp2062
g73
(dp2063
g81
I4
ssg82
g2057
sg75
(lp2064
g111
asbasbasbag68
(g84
g70
NtRp2065
(dp2066
g73
(dp2067
sg82
g1894
sg75
(lp2068
g68
(g89
g70
NtRp2069
(dp2070
g73
(dp2071
g93
g94
ssg82
g2065
sg75
(lp2072
g1220
asbag68
(g89
g70
NtRp2073
(dp2074
g73
(dp2075
g100
g101
ssg82
g2065
sg75
(lp2076
S':'
asbag68
(g89
g70
NtRp2077
(dp2078
g73
(dp2079
sg82
g2065
sg75
(lp2080
g68
(g69
g70
NtRp2081
(dp2082
g73
(dp2083
g81
I4
ssg82
g2077
sg75
(lp2084
g111
asbasbasbag68
(g84
g70
NtRp2085
(dp2086
g73
(dp2087
sg82
g1894
sg75
(lp2088
g68
(g89
g70
NtRp2089
(dp2090
g73
(dp2091
g93
g94
ssg82
g2085
sg75
(lp2092
g1458
asbag68
(g89
g70
NtRp2093
(dp2094
g73
(dp2095
g100
g101
ssg82
g2085
sg75
(lp2096
S':'
asbag68
(g89
g70
NtRp2097
(dp2098
g73
(dp2099
sg82
g2085
sg75
(lp2100
g68
(g69
g70
NtRp2101
(dp2102
g73
(dp2103
g81
I4
ssg82
g2097
sg75
(lp2104
g1471
asbasbasbag68
(g84
g70
NtRp2105
(dp2106
g73
(dp2107
sg82
g1894
sg75
(lp2108
g68
(g89
g70
NtRp2109
(dp2110
g73
(dp2111
g93
g94
ssg82
g2105
sg75
(lp2112
g1501
asbag68
(g89
g70
NtRp2113
(dp2114
g73
(dp2115
g100
g101
ssg82
g2105
sg75
(lp2116
S':'
asbag68
(g89
g70
NtRp2117
(dp2118
g73
(dp2119
sg82
g2105
sg75
(lp2120
g68
(g69
g70
NtRp2121
(dp2122
g73
(dp2123
g81
I4
ssg82
g2117
sg75
(lp2124
g68
(g77
g70
NtRp2125
(dp2126
g73
(dp2127
g81
I3
ssg82
Nsg75
(lp2128
g68
(g84
g70
NtRp2129
(dp2130
g73
(dp2131
sg82
g2125
sg75
(lp2132
g68
(g89
g70
NtRp2133
(dp2134
g73
(dp2135
sg82
g2129
sg75
(lp2136
g68
(g69
g70
NtRp2137
(dp2138
g73
(dp2139
g81
I3
ssg82
g2133
sg75
(lp2140
S'1'
asbasbasbag68
(g84
g70
NtRp2141
(dp2142
g73
(dp2143
sg82
g2125
sg75
(lp2144
g68
(g89
g70
NtRp2145
(dp2146
g73
(dp2147
sg82
g2141
sg75
(lp2148
g68
(g69
g70
NtRp2149
(dp2150
g73
(dp2151
g81
I3
ssg82
g2145
sg75
(lp2152
S'99'
p2153
asbasbasbag68
(g84
g70
NtRp2154
(dp2155
g73
(dp2156
sg82
g2125
sg75
(lp2157
g68
(g89
g70
NtRp2158
(dp2159
g73
(dp2160
sg82
g2154
sg75
(lp2161
g68
(g69
g70
NtRp2162
(dp2163
g73
(dp2164
g81
I3
ssg82
g2158
sg75
(lp2165
S'7'
asbasbasbag68
(g84
g70
NtRp2166
(dp2167
g73
(dp2168
sg82
g2125
sg75
(lp2169
g68
(g89
g70
NtRp2170
(dp2171
g73
(dp2172
sg82
g2166
sg75
(lp2173
g68
(g69
g70
NtRp2174
(dp2175
g73
(dp2176
g81
I3
ssg82
g2170
sg75
(lp2177
S'datetime.datetime(2012, 3, 4, 22, 12, 8)'
p2178
asbasbasbag68
(g84
g70
NtRp2179
(dp2180
g73
(dp2181
sg82
g2125
sg75
(lp2182
g68
(g89
g70
NtRp2183
(dp2184
g73
(dp2185
sg82
g2179
sg75
(lp2186
g68
(g69
g70
NtRp2187
(dp2188
g73
(dp2189
g81
I3
ssg82
g2183
sg75
(lp2190
g1580
asbasbasbasbasbasbasbasbasbasbasbag68
(g84
g70
NtRp2191
(dp2192
g73
(dp2193
sg82
g78
sg75
(lp2194
g68
(g89
g70
NtRp2195
(dp2196
g73
(dp2197
g93
g94
ssg82
g2191
sg75
(lp2198
S'is_https'
p2199
asbag68
(g89
g70
NtRp2200
(dp2201
g73
(dp2202
g100
g101
ssg82
g2191
sg75
(lp2203
S':'
asbag68
(g89
g70
NtRp2204
(dp2205
g73
(dp2206
sg82
g2191
sg75
(lp2207
g68
(g69
g70
NtRp2208
(dp2209
g73
(dp2210
g81
I5
ssg82
g2204
sg75
(lp2211
g111
asbasbasbag68
(g84
g70
NtRp2212
(dp2213
g73
(dp2214
sg82
g78
sg75
(lp2215
g68
(g89
g70
NtRp2216
(dp2217
g73
(dp2218
g93
g94
ssg82
g2212
sg75
(lp2219
S'is_local'
p2220
asbag68
(g89
g70
NtRp2221
(dp2222
g73
(dp2223
g100
g101
ssg82
g2212
sg75
(lp2224
S':'
asbag68
(g89
g70
NtRp2225
(dp2226
g73
(dp2227
sg82
g2212
sg75
(lp2228
g68
(g69
g70
NtRp2229
(dp2230
g73
(dp2231
g81
I5
ssg82
g2225
sg75
(lp2232
g1689
asbasbasbag68
(g84
g70
NtRp2233
(dp2234
g73
(dp2235
sg82
g78
sg75
(lp2236
g68
(g89
g70
NtRp2237
(dp2238
g73
(dp2239
g93
g94
ssg82
g2233
sg75
(lp2240
S'is_restful'
p2241
asbag68
(g89
g70
NtRp2242
(dp2243
g73
(dp2244
g100
g101
ssg82
g2233
sg75
(lp2245
S':'
asbag68
(g89
g70
NtRp2246
(dp2247
g73
(dp2248
sg82
g2233
sg75
(lp2249
g68
(g69
g70
NtRp2250
(dp2251
g73
(dp2252
g81
I5
ssg82
g2246
sg75
(lp2253
g111
asbasbasbag68
(g84
g70
NtRp2254
(dp2255
g73
(dp2256
sg82
g78
sg75
(lp2257
g68
(g89
g70
NtRp2258
(dp2259
g73
(dp2260
g93
g94
ssg82
g2254
sg75
(lp2261
S'now'
p2262
asbag68
(g89
g70
NtRp2263
(dp2264
g73
(dp2265
g100
g101
ssg82
g2254
sg75
(lp2266
S':'
asbag68
(g89
g70
NtRp2267
(dp2268
g73
(dp2269
sg82
g2254
sg75
(lp2270
g68
(g69
g70
NtRp2271
(dp2272
g73
(dp2273
g81
I5
ssg82
g2267
sg75
(lp2274
S'datetime.datetime(2012, 3, 9, 15, 3, 39, 285591)'
p2275
asbasbasbag68
(g84
g70
NtRp2276
(dp2277
g73
(dp2278
sg82
g78
sg75
(lp2279
g68
(g89
g70
NtRp2280
(dp2281
g73
(dp2282
g93
g94
ssg82
g2276
sg75
(lp2283
S'post_vars'
p2284
asbag68
(g89
g70
NtRp2285
(dp2286
g73
(dp2287
g100
g101
ssg82
g2276
sg75
(lp2288
S':'
asbag68
(g89
g70
NtRp2289
(dp2290
g73
(dp2291
sg82
g2276
sg75
(lp2292
g68
(g69
g70
NtRp2293
(dp2294
g73
(dp2295
g81
I5
ssg82
g2289
sg75
(lp2296
g68
(g77
g70
NtRp2297
(dp2298
g73
(dp2299
g81
I4
ssg82
Nsg75
(lp2300
sbasbasbasbag68
(g84
g70
NtRp2301
(dp2302
g73
(dp2303
sg82
g78
sg75
(lp2304
g68
(g89
g70
NtRp2305
(dp2306
g73
(dp2307
g93
g94
ssg82
g2301
sg75
(lp2308
S'url'
p2309
asbag68
(g89
g70
NtRp2310
(dp2311
g73
(dp2312
g100
g101
ssg82
g2301
sg75
(lp2313
S':'
asbag68
(g89
g70
NtRp2314
(dp2315
g73
(dp2316
sg82
g2301
sg75
(lp2317
g68
(g69
g70
NtRp2318
(dp2319
g73
(dp2320
g81
I5
ssg82
g2314
sg75
(lp2321
S'/flisol2012/conference/staff'
p2322
asbasbasbag68
(g84
g70
NtRp2323
(dp2324
g73
(dp2325
sg82
g78
sg75
(lp2326
g68
(g89
g70
NtRp2327
(dp2328
g73
(dp2329
g93
g94
ssg82
g2323
sg75
(lp2330
S'utcnow'
p2331
asbag68
(g89
g70
NtRp2332
(dp2333
g73
(dp2334
g100
g101
ssg82
g2323
sg75
(lp2335
S':'
asbag68
(g89
g70
NtRp2336
(dp2337
g73
(dp2338
sg82
g2323
sg75
(lp2339
g68
(g69
g70
NtRp2340
(dp2341
g73
(dp2342
g81
I5
ssg82
g2336
sg75
(lp2343
S'datetime.datetime(2012, 3, 9, 18, 3, 39, 285636)'
p2344
asbasbasbag68
(g84
g70
NtRp2345
(dp2346
g73
(dp2347
sg82
g78
sg75
(lp2348
g68
(g89
g70
NtRp2349
(dp2350
g73
(dp2351
g93
g94
ssg82
g2345
sg75
(lp2352
S'uuid'
p2353
asbag68
(g89
g70
NtRp2354
(dp2355
g73
(dp2356
g100
g101
ssg82
g2345
sg75
(lp2357
S':'
asbag68
(g89
g70
NtRp2358
(dp2359
g73
(dp2360
sg82
g2345
sg75
(lp2361
g68
(g69
g70
NtRp2362
(dp2363
g73
(dp2364
g81
I5
ssg82
g2358
sg75
(lp2365
S'flisol2012/127.0.0.1.2012-03-09.15-03-39.1821407b-f616-4a44-8808-1b7488ebe805'
p2366
asbasbasbag68
(g84
g70
NtRp2367
(dp2368
g73
(dp2369
sg82
g78
sg75
(lp2370
g68
(g89
g70
NtRp2371
(dp2372
g73
(dp2373
g93
g94
ssg82
g2367
sg75
(lp2374
S'vars'
p2375
asbag68
(g89
g70
NtRp2376
(dp2377
g73
(dp2378
g100
g101
ssg82
g2367
sg75
(lp2379
S':'
asbag68
(g89
g70
NtRp2380
(dp2381
g73
(dp2382
sg82
g2367
sg75
(lp2383
g68
(g69
g70
NtRp2384
(dp2385
g73
(dp2386
g81
I5
ssg82
g2380
sg75
(lp2387
g68
(g77
g70
NtRp2388
(dp2389
g73
(dp2390
g81
I4
ssg82
Nsg75
(lp2391
sbasbasbasbag68
(g84
g70
NtRp2392
(dp2393
g73
(dp2394
sg82
g78
sg75
(lp2395
g68
(g89
g70
NtRp2396
(dp2397
g73
(dp2398
g93
g94
ssg82
g2392
sg75
(lp2399
S'wsgi'
p2400
asbag68
(g89
g70
NtRp2401
(dp2402
g73
(dp2403
g100
g101
ssg82
g2392
sg75
(lp2404
S':'
asbag68
(g89
g70
NtRp2405
(dp2406
g73
(dp2407
sg82
g2392
sg75
(lp2408
g68
(g69
g70
NtRp2409
(dp2410
g73
(dp2411
g81
I5
ssg82
g2405
sg75
(lp2412
g68
(g77
g70
NtRp2413
(dp2414
g73
(dp2415
g81
I4
ssg82
Nsg75
(lp2416
g68
(g84
g70
NtRp2417
(dp2418
g73
(dp2419
sg82
g2413
sg75
(lp2420
g68
(g89
g70
NtRp2421
(dp2422
g73
(dp2423
g93
g94
ssg82
g2417
sg75
(lp2424
S'environ'
p2425
asbag68
(g89
g70
NtRp2426
(dp2427
g73
(dp2428
g100
g101
ssg82
g2417
sg75
(lp2429
S':'
asbag68
(g89
g70
NtRp2430
(dp2431
g73
(dp2432
sg82
g2417
sg75
(lp2433
g68
(g69
g70
NtRp2434
(dp2435
g73
(dp2436
g81
I4
ssg82
g2430
sg75
(lp2437
g68
(g77
g70
NtRp2438
(dp2439
g73
(dp2440
g81
I3
ssg82
Nsg75
(lp2441
g68
(g84
g70
NtRp2442
(dp2443
g73
(dp2444
sg82
g2438
sg75
(lp2445
g68
(g89
g70
NtRp2446
(dp2447
g73
(dp2448
g93
g94
ssg82
g2442
sg75
(lp2449
S'HTTP_ACCEPT'
p2450
asbag68
(g89
g70
NtRp2451
(dp2452
g73
(dp2453
g100
g101
ssg82
g2442
sg75
(lp2454
S':'
asbag68
(g89
g70
NtRp2455
(dp2456
g73
(dp2457
sg82
g2442
sg75
(lp2458
g68
(g69
g70
NtRp2459
(dp2460
g73
(dp2461
g81
I3
ssg82
g2455
sg75
(lp2462
g1014
asbasbasbag68
(g84
g70
NtRp2463
(dp2464
g73
(dp2465
sg82
g2438
sg75
(lp2466
g68
(g89
g70
NtRp2467
(dp2468
g73
(dp2469
g93
g94
ssg82
g2463
sg75
(lp2470
S'HTTP_ACCEPT_ENCODING'
p2471
asbag68
(g89
g70
NtRp2472
(dp2473
g73
(dp2474
g100
g101
ssg82
g2463
sg75
(lp2475
S':'
asbag68
(g89
g70
NtRp2476
(dp2477
g73
(dp2478
sg82
g2463
sg75
(lp2479
g68
(g69
g70
NtRp2480
(dp2481
g73
(dp2482
g81
I3
ssg82
g2476
sg75
(lp2483
g1036
asbasbasbag68
(g84
g70
NtRp2484
(dp2485
g73
(dp2486
sg82
g2438
sg75
(lp2487
g68
(g89
g70
NtRp2488
(dp2489
g73
(dp2490
g93
g94
ssg82
g2484
sg75
(lp2491
S'HTTP_ACCEPT_LANGUAGE'
p2492
asbag68
(g89
g70
NtRp2493
(dp2494
g73
(dp2495
g100
g101
ssg82
g2484
sg75
(lp2496
S':'
asbag68
(g89
g70
NtRp2497
(dp2498
g73
(dp2499
sg82
g2484
sg75
(lp2500
g68
(g69
g70
NtRp2501
(dp2502
g73
(dp2503
g81
I3
ssg82
g2497
sg75
(lp2504
g1058
asbasbasbag68
(g84
g70
NtRp2505
(dp2506
g73
(dp2507
sg82
g2438
sg75
(lp2508
g68
(g89
g70
NtRp2509
(dp2510
g73
(dp2511
g93
g94
ssg82
g2505
sg75
(lp2512
S'HTTP_CACHE_CONTROL'
p2513
asbag68
(g89
g70
NtRp2514
(dp2515
g73
(dp2516
g100
g101
ssg82
g2505
sg75
(lp2517
S':'
asbag68
(g89
g70
NtRp2518
(dp2519
g73
(dp2520
sg82
g2505
sg75
(lp2521
g68
(g69
g70
NtRp2522
(dp2523
g73
(dp2524
g81
I3
ssg82
g2518
sg75
(lp2525
g1080
asbasbasbag68
(g84
g70
NtRp2526
(dp2527
g73
(dp2528
sg82
g2438
sg75
(lp2529
g68
(g89
g70
NtRp2530
(dp2531
g73
(dp2532
g93
g94
ssg82
g2526
sg75
(lp2533
S'HTTP_CONNECTION'
p2534
asbag68
(g89
g70
NtRp2535
(dp2536
g73
(dp2537
g100
g101
ssg82
g2526
sg75
(lp2538
S':'
asbag68
(g89
g70
NtRp2539
(dp2540
g73
(dp2541
sg82
g2526
sg75
(lp2542
g68
(g69
g70
NtRp2543
(dp2544
g73
(dp2545
g81
I3
ssg82
g2539
sg75
(lp2546
g1102
asbasbasbag68
(g84
g70
NtRp2547
(dp2548
g73
(dp2549
sg82
g2438
sg75
(lp2550
g68
(g89
g70
NtRp2551
(dp2552
g73
(dp2553
g93
g94
ssg82
g2547
sg75
(lp2554
S'HTTP_COOKIE'
p2555
asbag68
(g89
g70
NtRp2556
(dp2557
g73
(dp2558
g100
g101
ssg82
g2547
sg75
(lp2559
S':'
asbag68
(g89
g70
NtRp2560
(dp2561
g73
(dp2562
sg82
g2547
sg75
(lp2563
g68
(g69
g70
NtRp2564
(dp2565
g73
(dp2566
g81
I3
ssg82
g2560
sg75
(lp2567
g1124
asbasbasbag68
(g84
g70
NtRp2568
(dp2569
g73
(dp2570
sg82
g2438
sg75
(lp2571
g68
(g89
g70
NtRp2572
(dp2573
g73
(dp2574
g93
g94
ssg82
g2568
sg75
(lp2575
S'HTTP_HOST'
p2576
asbag68
(g89
g70
NtRp2577
(dp2578
g73
(dp2579
g100
g101
ssg82
g2568
sg75
(lp2580
S':'
asbag68
(g89
g70
NtRp2581
(dp2582
g73
(dp2583
sg82
g2568
sg75
(lp2584
g68
(g69
g70
NtRp2585
(dp2586
g73
(dp2587
g81
I3
ssg82
g2581
sg75
(lp2588
g1146
asbasbasbag68
(g84
g70
NtRp2589
(dp2590
g73
(dp2591
sg82
g2438
sg75
(lp2592
g68
(g89
g70
NtRp2593
(dp2594
g73
(dp2595
g93
g94
ssg82
g2589
sg75
(lp2596
S'HTTP_REFERER'
p2597
asbag68
(g89
g70
NtRp2598
(dp2599
g73
(dp2600
g100
g101
ssg82
g2589
sg75
(lp2601
S':'
asbag68
(g89
g70
NtRp2602
(dp2603
g73
(dp2604
sg82
g2589
sg75
(lp2605
g68
(g69
g70
NtRp2606
(dp2607
g73
(dp2608
g81
I3
ssg82
g2602
sg75
(lp2609
g1168
asbasbasbag68
(g84
g70
NtRp2610
(dp2611
g73
(dp2612
sg82
g2438
sg75
(lp2613
g68
(g89
g70
NtRp2614
(dp2615
g73
(dp2616
g93
g94
ssg82
g2610
sg75
(lp2617
S'HTTP_USER_AGENT'
p2618
asbag68
(g89
g70
NtRp2619
(dp2620
g73
(dp2621
g100
g101
ssg82
g2610
sg75
(lp2622
S':'
asbag68
(g89
g70
NtRp2623
(dp2624
g73
(dp2625
sg82
g2610
sg75
(lp2626
g68
(g69
g70
NtRp2627
(dp2628
g73
(dp2629
g81
I3
ssg82
g2623
sg75
(lp2630
g1190
asbasbasbag68
(g84
g70
NtRp2631
(dp2632
g73
(dp2633
sg82
g2438
sg75
(lp2634
g68
(g89
g70
NtRp2635
(dp2636
g73
(dp2637
g93
g94
ssg82
g2631
sg75
(lp2638
S'PATH_INFO'
p2639
asbag68
(g89
g70
NtRp2640
(dp2641
g73
(dp2642
g100
g101
ssg82
g2631
sg75
(lp2643
S':'
asbag68
(g89
g70
NtRp2644
(dp2645
g73
(dp2646
sg82
g2631
sg75
(lp2647
g68
(g69
g70
NtRp2648
(dp2649
g73
(dp2650
g81
I3
ssg82
g2644
sg75
(lp2651
g1254
asbasbasbag68
(g84
g70
NtRp2652
(dp2653
g73
(dp2654
sg82
g2438
sg75
(lp2655
g68
(g89
g70
NtRp2656
(dp2657
g73
(dp2658
g93
g94
ssg82
g2652
sg75
(lp2659
S'QUERY_STRING'
p2660
asbag68
(g89
g70
NtRp2661
(dp2662
g73
(dp2663
g100
g101
ssg82
g2652
sg75
(lp2664
S':'
asbag68
(g89
g70
NtRp2665
(dp2666
g73
(dp2667
sg82
g2652
sg75
(lp2668
g68
(g69
g70
NtRp2669
(dp2670
g73
(dp2671
g81
I3
ssg82
g2665
sg75
(lp2672
S''
asbasbasbag68
(g84
g70
NtRp2673
(dp2674
g73
(dp2675
sg82
g2438
sg75
(lp2676
g68
(g89
g70
NtRp2677
(dp2678
g73
(dp2679
g93
g94
ssg82
g2673
sg75
(lp2680
S'REMOTE_ADDR'
p2681
asbag68
(g89
g70
NtRp2682
(dp2683
g73
(dp2684
g100
g101
ssg82
g2673
sg75
(lp2685
S':'
asbag68
(g89
g70
NtRp2686
(dp2687
g73
(dp2688
sg82
g2673
sg75
(lp2689
g68
(g69
g70
NtRp2690
(dp2691
g73
(dp2692
g81
I3
ssg82
g2686
sg75
(lp2693
g201
asbasbasbag68
(g84
g70
NtRp2694
(dp2695
g73
(dp2696
sg82
g2438
sg75
(lp2697
g68
(g89
g70
NtRp2698
(dp2699
g73
(dp2700
g93
g94
ssg82
g2694
sg75
(lp2701
S'REMOTE_PORT'
p2702
asbag68
(g89
g70
NtRp2703
(dp2704
g73
(dp2705
g100
g101
ssg82
g2694
sg75
(lp2706
S':'
asbag68
(g89
g70
NtRp2707
(dp2708
g73
(dp2709
sg82
g2694
sg75
(lp2710
g68
(g69
g70
NtRp2711
(dp2712
g73
(dp2713
g81
I3
ssg82
g2707
sg75
(lp2714
g1318
asbasbasbag68
(g84
g70
NtRp2715
(dp2716
g73
(dp2717
sg82
g2438
sg75
(lp2718
g68
(g89
g70
NtRp2719
(dp2720
g73
(dp2721
g93
g94
ssg82
g2715
sg75
(lp2722
S'REQUEST_METHOD'
p2723
asbag68
(g89
g70
NtRp2724
(dp2725
g73
(dp2726
g100
g101
ssg82
g2715
sg75
(lp2727
S':'
asbag68
(g89
g70
NtRp2728
(dp2729
g73
(dp2730
sg82
g2715
sg75
(lp2731
g68
(g69
g70
NtRp2732
(dp2733
g73
(dp2734
g81
I3
ssg82
g2728
sg75
(lp2735
g1340
asbasbasbag68
(g84
g70
NtRp2736
(dp2737
g73
(dp2738
sg82
g2438
sg75
(lp2739
g68
(g89
g70
NtRp2740
(dp2741
g73
(dp2742
g93
g94
ssg82
g2736
sg75
(lp2743
S'SCRIPT_NAME'
p2744
asbag68
(g89
g70
NtRp2745
(dp2746
g73
(dp2747
g100
g101
ssg82
g2736
sg75
(lp2748
S':'
asbag68
(g89
g70
NtRp2749
(dp2750
g73
(dp2751
sg82
g2736
sg75
(lp2752
g68
(g69
g70
NtRp2753
(dp2754
g73
(dp2755
g81
I3
ssg82
g2749
sg75
(lp2756
S''
asbasbasbag68
(g84
g70
NtRp2757
(dp2758
g73
(dp2759
sg82
g2438
sg75
(lp2760
g68
(g89
g70
NtRp2761
(dp2762
g73
(dp2763
g93
g94
ssg82
g2757
sg75
(lp2764
S'SERVER_NAME'
p2765
asbag68
(g89
g70
NtRp2766
(dp2767
g73
(dp2768
g100
g101
ssg82
g2757
sg75
(lp2769
S':'
asbag68
(g89
g70
NtRp2770
(dp2771
g73
(dp2772
sg82
g2757
sg75
(lp2773
g68
(g69
g70
NtRp2774
(dp2775
g73
(dp2776
g81
I3
ssg82
g2770
sg75
(lp2777
g1383
asbasbasbag68
(g84
g70
NtRp2778
(dp2779
g73
(dp2780
sg82
g2438
sg75
(lp2781
g68
(g89
g70
NtRp2782
(dp2783
g73
(dp2784
g93
g94
ssg82
g2778
sg75
(lp2785
S'SERVER_PORT'
p2786
asbag68
(g89
g70
NtRp2787
(dp2788
g73
(dp2789
g100
g101
ssg82
g2778
sg75
(lp2790
S':'
asbag68
(g89
g70
NtRp2791
(dp2792
g73
(dp2793
sg82
g2778
sg75
(lp2794
g68
(g69
g70
NtRp2795
(dp2796
g73
(dp2797
g81
I3
ssg82
g2791
sg75
(lp2798
g1405
asbasbasbag68
(g84
g70
NtRp2799
(dp2800
g73
(dp2801
sg82
g2438
sg75
(lp2802
g68
(g89
g70
NtRp2803
(dp2804
g73
(dp2805
g93
g94
ssg82
g2799
sg75
(lp2806
S'SERVER_PROTOCOL'
p2807
asbag68
(g89
g70
NtRp2808
(dp2809
g73
(dp2810
g100
g101
ssg82
g2799
sg75
(lp2811
S':'
asbag68
(g89
g70
NtRp2812
(dp2813
g73
(dp2814
sg82
g2799
sg75
(lp2815
g68
(g69
g70
NtRp2816
(dp2817
g73
(dp2818
g81
I3
ssg82
g2812
sg75
(lp2819
g1427
asbasbasbag68
(g84
g70
NtRp2820
(dp2821
g73
(dp2822
sg82
g2438
sg75
(lp2823
g68
(g89
g70
NtRp2824
(dp2825
g73
(dp2826
g93
g94
ssg82
g2820
sg75
(lp2827
S'SERVER_SOFTWARE'
p2828
asbag68
(g89
g70
NtRp2829
(dp2830
g73
(dp2831
g100
g101
ssg82
g2820
sg75
(lp2832
S':'
asbag68
(g89
g70
NtRp2833
(dp2834
g73
(dp2835
sg82
g2820
sg75
(lp2836
g68
(g69
g70
NtRp2837
(dp2838
g73
(dp2839
g81
I3
ssg82
g2833
sg75
(lp2840
g1449
asbasbasbag68
(g84
g70
NtRp2841
(dp2842
g73
(dp2843
sg82
g2438
sg75
(lp2844
g68
(g89
g70
NtRp2845
(dp2846
g73
(dp2847
g93
g94
ssg82
g2841
sg75
(lp2848
S'wsgi.errors'
p2849
asbag68
(g89
g70
NtRp2850
(dp2851
g73
(dp2852
g100
g101
ssg82
g2841
sg75
(lp2853
S':'
asbag68
(g89
g70
NtRp2854
(dp2855
g73
(dp2856
sg82
g2841
sg75
(lp2857
g68
(g69
g70
NtRp2858
(dp2859
g73
(dp2860
g81
I3
ssg82
g2854
sg75
(lp2861
S"<open file '<stderr>', mode 'w' at 0x7f4f2366f270>"
p2862
asbasbasbag68
(g84
g70
NtRp2863
(dp2864
g73
(dp2865
sg82
g2438
sg75
(lp2866
g68
(g89
g70
NtRp2867
(dp2868
g73
(dp2869
g93
g94
ssg82
g2863
sg75
(lp2870
S'wsgi.file_wrapper'
p2871
asbag68
(g89
g70
NtRp2872
(dp2873
g73
(dp2874
g100
g101
ssg82
g2863
sg75
(lp2875
S':'
asbag68
(g89
g70
NtRp2876
(dp2877
g73
(dp2878
sg82
g2863
sg75
(lp2879
g68
(g69
g70
NtRp2880
(dp2881
g73
(dp2882
g81
I3
ssg82
g2876
sg75
(lp2883
S'<class wsgiref.util.FileWrapper at 0x1abc460>'
p2884
asbasbasbag68
(g84
g70
NtRp2885
(dp2886
g73
(dp2887
sg82
g2438
sg75
(lp2888
g68
(g89
g70
NtRp2889
(dp2890
g73
(dp2891
g93
g94
ssg82
g2885
sg75
(lp2892
S'wsgi.input'
p2893
asbag68
(g89
g70
NtRp2894
(dp2895
g73
(dp2896
g100
g101
ssg82
g2885
sg75
(lp2897
S':'
asbag68
(g89
g70
NtRp2898
(dp2899
g73
(dp2900
sg82
g2885
sg75
(lp2901
g68
(g69
g70
NtRp2902
(dp2903
g73
(dp2904
g81
I3
ssg82
g2898
sg75
(lp2905
S'<cStringIO.StringO object at 0x2827c70>'
p2906
asbasbasbag68
(g84
g70
NtRp2907
(dp2908
g73
(dp2909
sg82
g2438
sg75
(lp2910
g68
(g89
g70
NtRp2911
(dp2912
g73
(dp2913
g93
g94
ssg82
g2907
sg75
(lp2914
S'wsgi.multiprocess'
p2915
asbag68
(g89
g70
NtRp2916
(dp2917
g73
(dp2918
g100
g101
ssg82
g2907
sg75
(lp2919
S':'
asbag68
(g89
g70
NtRp2920
(dp2921
g73
(dp2922
sg82
g2907
sg75
(lp2923
g68
(g69
g70
NtRp2924
(dp2925
g73
(dp2926
g81
I3
ssg82
g2920
sg75
(lp2927
g111
asbasbasbag68
(g84
g70
NtRp2928
(dp2929
g73
(dp2930
sg82
g2438
sg75
(lp2931
g68
(g89
g70
NtRp2932
(dp2933
g73
(dp2934
g93
g94
ssg82
g2928
sg75
(lp2935
S'wsgi.multithread'
p2936
asbag68
(g89
g70
NtRp2937
(dp2938
g73
(dp2939
g100
g101
ssg82
g2928
sg75
(lp2940
S':'
asbag68
(g89
g70
NtRp2941
(dp2942
g73
(dp2943
sg82
g2928
sg75
(lp2944
g68
(g69
g70
NtRp2945
(dp2946
g73
(dp2947
g81
I3
ssg82
g2941
sg75
(lp2948
g1689
asbasbasbag68
(g84
g70
NtRp2949
(dp2950
g73
(dp2951
sg82
g2438
sg75
(lp2952
g68
(g89
g70
NtRp2953
(dp2954
g73
(dp2955
g93
g94
ssg82
g2949
sg75
(lp2956
S'wsgi.run_once'
p2957
asbag68
(g89
g70
NtRp2958
(dp2959
g73
(dp2960
g100
g101
ssg82
g2949
sg75
(lp2961
S':'
asbag68
(g89
g70
NtRp2962
(dp2963
g73
(dp2964
sg82
g2949
sg75
(lp2965
g68
(g69
g70
NtRp2966
(dp2967
g73
(dp2968
g81
I3
ssg82
g2962
sg75
(lp2969
g111
asbasbasbag68
(g84
g70
NtRp2970
(dp2971
g73
(dp2972
sg82
g2438
sg75
(lp2973
g68
(g89
g70
NtRp2974
(dp2975
g73
(dp2976
g93
g94
ssg82
g2970
sg75
(lp2977
S'wsgi.url_scheme'
p2978
asbag68
(g89
g70
NtRp2979
(dp2980
g73
(dp2981
g100
g101
ssg82
g2970
sg75
(lp2982
S':'
asbag68
(g89
g70
NtRp2983
(dp2984
g73
(dp2985
sg82
g2970
sg75
(lp2986
g68
(g69
g70
NtRp2987
(dp2988
g73
(dp2989
g81
I3
ssg82
g2983
sg75
(lp2990
g1732
asbasbasbag68
(g84
g70
NtRp2991
(dp2992
g73
(dp2993
sg82
g2438
sg75
(lp2994
g68
(g89
g70
NtRp2995
(dp2996
g73
(dp2997
g93
g94
ssg82
g2991
sg75
(lp2998
S'wsgi.version'
p2999
asbag68
(g89
g70
NtRp3000
(dp3001
g73
(dp3002
g100
g101
ssg82
g2991
sg75
(lp3003
S':'
asbag68
(g89
g70
NtRp3004
(dp3005
g73
(dp3006
sg82
g2991
sg75
(lp3007
g68
(g69
g70
NtRp3008
(dp3009
g73
(dp3010
g81
I3
ssg82
g3004
sg75
(lp3011
S'1'
asbasbasbasbasbasbasbasbasbasbasbasbasbsS'frames'
p3012
(lp3013
(dp3014
S'file'
p3015
S'/home/marco/flisol2012/web2py/gluon/restricted.py'
p3016
sS'dump'
p3017
(dp3018
S'code'
p3019
S'"# -*- coding: utf-8 -*-\\n\\ndb.define_table(\'asiste...uerido)\')\\ndb.asistente.email.requires=IS_EMAIL()\\n"'
p3020
sS'layer'
p3021
S"'/home/marco/flisol2012/web2py/applications/flisol2012/models/db_asistentes.py'"
p3022
sS'global compile2'
p3023
S'<function compile2>'
p3024
sS'ccode'
p3025
S'undefined'
p3026
ssS'lnum'
p3027
I204
sS'lines'
p3028
(dp3029
I199
S"    environment['__name__'] = '__restricted__'"
p3030
sI200
S'    try:'
p3031
sI201
S'        if type(code) == types.CodeType:'
p3032
sI202
S'            ccode = code'
p3033
sI203
S'        else:'
p3034
sI204
S'            ccode = compile2(code,layer)'
p3035
sI205
S'        exec ccode in environment'
p3036
sI206
S'    except HTTP:'
p3037
sI207
S'        raise'
p3038
sI208
S'    except RestrictedError:'
p3039
ssS'call'
p3040
S'(code="# -*- coding: utf-8 -*-\\n\\ndb.define_table(\'asiste...uerido)\')\\ndb.asistente.email.requires=IS_EMAIL()\\n", environment={\'A\': <class \'gluon.html.A\'>, \'ATTENDEE_TYPES\': ((\'gratis\', <lazyT \'Gratuito, $0\'>),), \'ATTENDEE_TYPE_COST\': {None: 0.0, \'gratis\': 0.0}, \'Auth\': <class \'gluon.tools.Auth\'>, \'B\': <class \'gluon.html.B\'>, \'BEAUTIFY\': <class \'gluon.html.BEAUTIFY\'>, \'BODY\': <class \'gluon.html.BODY\'>, \'BR\': <class \'gluon.html.BR\'>, \'BUTTON\': <class \'gluon.html.BUTTON\'>, \'CAT\': <class \'gluon.html.CAT\'>, ...}, layer=\'/home/marco/flisol2012/web2py/applications/flisol2012/models/db_asistentes.py\')'
p3041
sS'func'
p3042
S'restricted'
p3043
sa(dp3044
g3015
S'/home/marco/flisol2012/web2py/gluon/restricted.py'
p3045
sg3017
(dp3046
S'builtincompile'
p3047
S'<built-in function compile>'
p3048
sS'code'
p3049
S'"# -*- coding: utf-8 -*-\\n\\ndb.define_table(\'asiste...uerido)\')\\ndb.asistente.email.requires=IS_EMAIL()\\n"'
p3050
sS'code.rstrip'
p3051
S'<built-in method rstrip of str object>'
p3052
sS').replace'
p3053
g3026
sS'layer'
p3054
S"'/home/marco/flisol2012/web2py/applications/flisol2012/models/db_asistentes.py'"
p3055
ssg3027
I189
sg3028
(dp3056
I192
S'    """'
p3057
sI193
S'    runs code in environment and returns the output. if an exception occurs'
p3058
sI184
S''
sI185
S'def compile2(code,layer):'
p3059
sI186
S'    """'
p3060
sI187
S"    The +'\\n' is necessary else compile fails when code ends in a comment."
p3061
sI188
S'    """'
p3062
sI189
S"    return compile(code.rstrip().replace('\\r\\n','\\n')+'\\n', layer, 'exec')"
p3063
sI190
S''
sI191
S"def restricted(code, environment=None, layer='Unknown'):"
p3064
ssg3040
S'(code="# -*- coding: utf-8 -*-\\n\\ndb.define_table(\'asiste...uerido)\')\\ndb.asistente.email.requires=IS_EMAIL()\\n", layer=\'/home/marco/flisol2012/web2py/applications/flisol2012/models/db_asistentes.py\')'
p3065
sg3042
S'compile2'
p3066
sasS'pyver'
p3067
S'Python 2.7.2+: /usr/bin/python'
p3068
sS'session'
p3069
g68
(g69
g70
NtRp3070
(dp3071
g73
(dp3072
sg75
(lp3073
g68
(g77
g70
NtRp3074
(dp3075
g73
(dp3076
g81
I5
ssg82
Nsg75
(lp3077
g68
(g84
g70
NtRp3078
(dp3079
g73
(dp3080
sg82
g3074
sg75
(lp3081
g68
(g89
g70
NtRp3082
(dp3083
g73
(dp3084
g93
g94
ssg82
g3078
sg75
(lp3085
S'amount_added'
p3086
asbag68
(g89
g70
NtRp3087
(dp3088
g73
(dp3089
g100
g101
ssg82
g3078
sg75
(lp3090
S':'
asbag68
(g89
g70
NtRp3091
(dp3092
g73
(dp3093
sg82
g3078
sg75
(lp3094
g68
(g69
g70
NtRp3095
(dp3096
g73
(dp3097
g81
I5
ssg82
g3091
sg75
(lp3098
S'0.0'
p3099
asbasbasbag68
(g84
g70
NtRp3100
(dp3101
g73
(dp3102
sg82
g3074
sg75
(lp3103
g68
(g89
g70
NtRp3104
(dp3105
g73
(dp3106
g93
g94
ssg82
g3100
sg75
(lp3107
S'amount_billed'
p3108
asbag68
(g89
g70
NtRp3109
(dp3110
g73
(dp3111
g100
g101
ssg82
g3100
sg75
(lp3112
S':'
asbag68
(g89
g70
NtRp3113
(dp3114
g73
(dp3115
sg82
g3100
sg75
(lp3116
g68
(g69
g70
NtRp3117
(dp3118
g73
(dp3119
g81
I5
ssg82
g3113
sg75
(lp3120
S'0.0'
p3121
asbasbasbag68
(g84
g70
NtRp3122
(dp3123
g73
(dp3124
sg82
g3074
sg75
(lp3125
g68
(g89
g70
NtRp3126
(dp3127
g73
(dp3128
g93
g94
ssg82
g3122
sg75
(lp3129
S'amount_paid'
p3130
asbag68
(g89
g70
NtRp3131
(dp3132
g73
(dp3133
g100
g101
ssg82
g3122
sg75
(lp3134
S':'
asbag68
(g89
g70
NtRp3135
(dp3136
g73
(dp3137
sg82
g3122
sg75
(lp3138
g68
(g69
g70
NtRp3139
(dp3140
g73
(dp3141
g81
I5
ssg82
g3135
sg75
(lp3142
S'0.0'
p3143
asbasbasbag68
(g84
g70
NtRp3144
(dp3145
g73
(dp3146
sg82
g3074
sg75
(lp3147
g68
(g89
g70
NtRp3148
(dp3149
g73
(dp3150
g93
g94
ssg82
g3144
sg75
(lp3151
S'amount_subtracted'
p3152
asbag68
(g89
g70
NtRp3153
(dp3154
g73
(dp3155
g100
g101
ssg82
g3144
sg75
(lp3156
S':'
asbag68
(g89
g70
NtRp3157
(dp3158
g73
(dp3159
sg82
g3144
sg75
(lp3160
g68
(g69
g70
NtRp3161
(dp3162
g73
(dp3163
g81
I5
ssg82
g3157
sg75
(lp3164
S'0.0'
p3165
asbasbasbag68
(g84
g70
NtRp3166
(dp3167
g73
(dp3168
sg82
g3074
sg75
(lp3169
g68
(g89
g70
NtRp3170
(dp3171
g73
(dp3172
g93
g94
ssg82
g3166
sg75
(lp3173
S'auth'
p3174
asbag68
(g89
g70
NtRp3175
(dp3176
g73
(dp3177
g100
g101
ssg82
g3166
sg75
(lp3178
S':'
asbag68
(g89
g70
NtRp3179
(dp3180
g73
(dp3181
sg82
g3166
sg75
(lp3182
g68
(g69
g70
NtRp3183
(dp3184
g73
(dp3185
g81
I5
ssg82
g3179
sg75
(lp3186
g68
(g77
g70
NtRp3187
(dp3188
g73
(dp3189
g81
I4
ssg82
Nsg75
(lp3190
g68
(g84
g70
NtRp3191
(dp3192
g73
(dp3193
sg82
g3187
sg75
(lp3194
g68
(g89
g70
NtRp3195
(dp3196
g73
(dp3197
g93
g94
ssg82
g3191
sg75
(lp3198
S'expiration'
p3199
asbag68
(g89
g70
NtRp3200
(dp3201
g73
(dp3202
g100
g101
ssg82
g3191
sg75
(lp3203
S':'
asbag68
(g89
g70
NtRp3204
(dp3205
g73
(dp3206
sg82
g3191
sg75
(lp3207
g68
(g69
g70
NtRp3208
(dp3209
g73
(dp3210
g81
I4
ssg82
g3204
sg75
(lp3211
S'2592000'
p3212
asbasbasbag68
(g84
g70
NtRp3213
(dp3214
g73
(dp3215
sg82
g3187
sg75
(lp3216
g68
(g89
g70
NtRp3217
(dp3218
g73
(dp3219
g93
g94
ssg82
g3213
sg75
(lp3220
S'hmac_key'
p3221
asbag68
(g89
g70
NtRp3222
(dp3223
g73
(dp3224
g100
g101
ssg82
g3213
sg75
(lp3225
S':'
asbag68
(g89
g70
NtRp3226
(dp3227
g73
(dp3228
sg82
g3213
sg75
(lp3229
g68
(g69
g70
NtRp3230
(dp3231
g73
(dp3232
g81
I4
ssg82
g3226
sg75
(lp3233
S'f88e8d21-cd42-4e09-94f7-6c53903f779c'
p3234
asbasbasbag68
(g84
g70
NtRp3235
(dp3236
g73
(dp3237
sg82
g3187
sg75
(lp3238
g68
(g89
g70
NtRp3239
(dp3240
g73
(dp3241
g93
g94
ssg82
g3235
sg75
(lp3242
S'last_visit'
p3243
asbag68
(g89
g70
NtRp3244
(dp3245
g73
(dp3246
g100
g101
ssg82
g3235
sg75
(lp3247
S':'
asbag68
(g89
g70
NtRp3248
(dp3249
g73
(dp3250
sg82
g3235
sg75
(lp3251
g68
(g69
g70
NtRp3252
(dp3253
g73
(dp3254
g81
I4
ssg82
g3248
sg75
(lp3255
S'datetime.datetime(2012, 3, 9, 13, 27, 21, 553602)'
p3256
asbasbasbag68
(g84
g70
NtRp3257
(dp3258
g73
(dp3259
sg82
g3187
sg75
(lp3260
g68
(g89
g70
NtRp3261
(dp3262
g73
(dp3263
g93
g94
ssg82
g3257
sg75
(lp3264
S'remember'
p3265
asbag68
(g89
g70
NtRp3266
(dp3267
g73
(dp3268
g100
g101
ssg82
g3257
sg75
(lp3269
S':'
asbag68
(g89
g70
NtRp3270
(dp3271
g73
(dp3272
sg82
g3257
sg75
(lp3273
g68
(g69
g70
NtRp3274
(dp3275
g73
(dp3276
g81
I4
ssg82
g3270
sg75
(lp3277
g1689
asbasbasbag68
(g84
g70
NtRp3278
(dp3279
g73
(dp3280
sg82
g3187
sg75
(lp3281
g68
(g89
g70
NtRp3282
(dp3283
g73
(dp3284
g93
g94
ssg82
g3278
sg75
(lp3285
S'user'
p3286
asbag68
(g89
g70
NtRp3287
(dp3288
g73
(dp3289
g100
g101
ssg82
g3278
sg75
(lp3290
S':'
asbag68
(g89
g70
NtRp3291
(dp3292
g73
(dp3293
sg82
g3278
sg75
(lp3294
g68
(g69
g70
NtRp3295
(dp3296
g73
(dp3297
g81
I4
ssg82
g3291
sg75
(lp3298
g68
(g77
g70
NtRp3299
(dp3300
g73
(dp3301
g81
I3
ssg82
Nsg75
(lp3302
g68
(g84
g70
NtRp3303
(dp3304
g73
(dp3305
sg82
g3299
sg75
(lp3306
g68
(g89
g70
NtRp3307
(dp3308
g73
(dp3309
g93
g94
ssg82
g3303
sg75
(lp3310
S'address'
p3311
asbag68
(g89
g70
NtRp3312
(dp3313
g73
(dp3314
g100
g101
ssg82
g3303
sg75
(lp3315
S':'
asbag68
(g89
g70
NtRp3316
(dp3317
g73
(dp3318
sg82
g3303
sg75
(lp3319
g68
(g69
g70
NtRp3320
(dp3321
g73
(dp3322
g81
I3
ssg82
g3316
sg75
(lp3323
S'Santa Lucia S/N'
p3324
asbasbasbag68
(g84
g70
NtRp3325
(dp3326
g73
(dp3327
sg82
g3299
sg75
(lp3328
g68
(g89
g70
NtRp3329
(dp3330
g73
(dp3331
g93
g94
ssg82
g3325
sg75
(lp3332
S'amount_added'
p3333
asbag68
(g89
g70
NtRp3334
(dp3335
g73
(dp3336
g100
g101
ssg82
g3325
sg75
(lp3337
S':'
asbag68
(g89
g70
NtRp3338
(dp3339
g73
(dp3340
sg82
g3325
sg75
(lp3341
g68
(g69
g70
NtRp3342
(dp3343
g73
(dp3344
g81
I3
ssg82
g3338
sg75
(lp3345
S'0.0'
p3346
asbasbasbag68
(g84
g70
NtRp3347
(dp3348
g73
(dp3349
sg82
g3299
sg75
(lp3350
g68
(g89
g70
NtRp3351
(dp3352
g73
(dp3353
g93
g94
ssg82
g3347
sg75
(lp3354
S'amount_billed'
p3355
asbag68
(g89
g70
NtRp3356
(dp3357
g73
(dp3358
g100
g101
ssg82
g3347
sg75
(lp3359
S':'
asbag68
(g89
g70
NtRp3360
(dp3361
g73
(dp3362
sg82
g3347
sg75
(lp3363
g68
(g69
g70
NtRp3364
(dp3365
g73
(dp3366
g81
I3
ssg82
g3360
sg75
(lp3367
S'0.0'
p3368
asbasbasbag68
(g84
g70
NtRp3369
(dp3370
g73
(dp3371
sg82
g3299
sg75
(lp3372
g68
(g89
g70
NtRp3373
(dp3374
g73
(dp3375
g93
g94
ssg82
g3369
sg75
(lp3376
S'amount_due'
p3377
asbag68
(g89
g70
NtRp3378
(dp3379
g73
(dp3380
g100
g101
ssg82
g3369
sg75
(lp3381
S':'
asbag68
(g89
g70
NtRp3382
(dp3383
g73
(dp3384
sg82
g3369
sg75
(lp3385
g68
(g69
g70
NtRp3386
(dp3387
g73
(dp3388
g81
I3
ssg82
g3382
sg75
(lp3389
S'0.0'
p3390
asbasbasbag68
(g84
g70
NtRp3391
(dp3392
g73
(dp3393
sg82
g3299
sg75
(lp3394
g68
(g89
g70
NtRp3395
(dp3396
g73
(dp3397
g93
g94
ssg82
g3391
sg75
(lp3398
S'amount_paid'
p3399
asbag68
(g89
g70
NtRp3400
(dp3401
g73
(dp3402
g100
g101
ssg82
g3391
sg75
(lp3403
S':'
asbag68
(g89
g70
NtRp3404
(dp3405
g73
(dp3406
sg82
g3391
sg75
(lp3407
g68
(g69
g70
NtRp3408
(dp3409
g73
(dp3410
g81
I3
ssg82
g3404
sg75
(lp3411
S'0.0'
p3412
asbasbasbag68
(g84
g70
NtRp3413
(dp3414
g73
(dp3415
sg82
g3299
sg75
(lp3416
g68
(g89
g70
NtRp3417
(dp3418
g73
(dp3419
g93
g94
ssg82
g3413
sg75
(lp3420
S'amount_subtracted'
p3421
asbag68
(g89
g70
NtRp3422
(dp3423
g73
(dp3424
g100
g101
ssg82
g3413
sg75
(lp3425
S':'
asbag68
(g89
g70
NtRp3426
(dp3427
g73
(dp3428
sg82
g3413
sg75
(lp3429
g68
(g69
g70
NtRp3430
(dp3431
g73
(dp3432
g81
I3
ssg82
g3426
sg75
(lp3433
S'0.0'
p3434
asbasbasbag68
(g84
g70
NtRp3435
(dp3436
g73
(dp3437
sg82
g3299
sg75
(lp3438
g68
(g89
g70
NtRp3439
(dp3440
g73
(dp3441
g93
g94
ssg82
g3435
sg75
(lp3442
S'attendee_type'
p3443
asbag68
(g89
g70
NtRp3444
(dp3445
g73
(dp3446
g100
g101
ssg82
g3435
sg75
(lp3447
S':'
asbag68
(g89
g70
NtRp3448
(dp3449
g73
(dp3450
sg82
g3435
sg75
(lp3451
g68
(g69
g70
NtRp3452
(dp3453
g73
(dp3454
g81
I3
ssg82
g3448
sg75
(lp3455
S'gratis'
p3456
asbasbasbag68
(g84
g70
NtRp3457
(dp3458
g73
(dp3459
sg82
g3299
sg75
(lp3460
g68
(g89
g70
NtRp3461
(dp3462
g73
(dp3463
g93
g94
ssg82
g3457
sg75
(lp3464
S'city'
p3465
asbag68
(g89
g70
NtRp3466
(dp3467
g73
(dp3468
g100
g101
ssg82
g3457
sg75
(lp3469
S':'
asbag68
(g89
g70
NtRp3470
(dp3471
g73
(dp3472
sg82
g3457
sg75
(lp3473
g68
(g69
g70
NtRp3474
(dp3475
g73
(dp3476
g81
I3
ssg82
g3470
sg75
(lp3477
S'Salta'
p3478
asbasbasbag68
(g84
g70
NtRp3479
(dp3480
g73
(dp3481
sg82
g3299
sg75
(lp3482
g68
(g89
g70
NtRp3483
(dp3484
g73
(dp3485
g93
g94
ssg82
g3479
sg75
(lp3486
S'company_home_page'
p3487
asbag68
(g89
g70
NtRp3488
(dp3489
g73
(dp3490
g100
g101
ssg82
g3479
sg75
(lp3491
S':'
asbag68
(g89
g70
NtRp3492
(dp3493
g73
(dp3494
sg82
g3479
sg75
(lp3495
g68
(g69
g70
NtRp3496
(dp3497
g73
(dp3498
g81
I3
ssg82
g3492
sg75
(lp3499
S'http://www.esdebian.org'
p3500
asbasbasbag68
(g84
g70
NtRp3501
(dp3502
g73
(dp3503
sg82
g3299
sg75
(lp3504
g68
(g89
g70
NtRp3505
(dp3506
g73
(dp3507
g93
g94
ssg82
g3501
sg75
(lp3508
S'company_name'
p3509
asbag68
(g89
g70
NtRp3510
(dp3511
g73
(dp3512
g100
g101
ssg82
g3501
sg75
(lp3513
S':'
asbag68
(g89
g70
NtRp3514
(dp3515
g73
(dp3516
sg82
g3501
sg75
(lp3517
g68
(g69
g70
NtRp3518
(dp3519
g73
(dp3520
g81
I3
ssg82
g3514
sg75
(lp3521
S'Debian OS'
p3522
asbasbasbag68
(g84
g70
NtRp3523
(dp3524
g73
(dp3525
sg82
g3299
sg75
(lp3526
g68
(g89
g70
NtRp3527
(dp3528
g73
(dp3529
g93
g94
ssg82
g3523
sg75
(lp3530
S'country'
p3531
asbag68
(g89
g70
NtRp3532
(dp3533
g73
(dp3534
g100
g101
ssg82
g3523
sg75
(lp3535
S':'
asbag68
(g89
g70
NtRp3536
(dp3537
g73
(dp3538
sg82
g3523
sg75
(lp3539
g68
(g69
g70
NtRp3540
(dp3541
g73
(dp3542
g81
I3
ssg82
g3536
sg75
(lp3543
S'Argentina'
p3544
asbasbasbag68
(g84
g70
NtRp3545
(dp3546
g73
(dp3547
sg82
g3299
sg75
(lp3548
g68
(g89
g70
NtRp3549
(dp3550
g73
(dp3551
g93
g94
ssg82
g3545
sg75
(lp3552
S'created_by_ip'
p3553
asbag68
(g89
g70
NtRp3554
(dp3555
g73
(dp3556
g100
g101
ssg82
g3545
sg75
(lp3557
S':'
asbag68
(g89
g70
NtRp3558
(dp3559
g73
(dp3560
sg82
g3545
sg75
(lp3561
g68
(g69
g70
NtRp3562
(dp3563
g73
(dp3564
g81
I3
ssg82
g3558
sg75
(lp3565
S'127.0.0.1'
p3566
asbasbasbag68
(g84
g70
NtRp3567
(dp3568
g73
(dp3569
sg82
g3299
sg75
(lp3570
g68
(g89
g70
NtRp3571
(dp3572
g73
(dp3573
g93
g94
ssg82
g3567
sg75
(lp3574
S'created_on'
p3575
asbag68
(g89
g70
NtRp3576
(dp3577
g73
(dp3578
g100
g101
ssg82
g3567
sg75
(lp3579
S':'
asbag68
(g89
g70
NtRp3580
(dp3581
g73
(dp3582
sg82
g3567
sg75
(lp3583
g68
(g69
g70
NtRp3584
(dp3585
g73
(dp3586
g81
I3
ssg82
g3580
sg75
(lp3587
S'datetime.datetime(2012, 3, 9, 2, 56, 49)'
p3588
asbasbasbag68
(g84
g70
NtRp3589
(dp3590
g73
(dp3591
sg82
g3299
sg75
(lp3592
g68
(g89
g70
NtRp3593
(dp3594
g73
(dp3595
g93
g94
ssg82
g3589
sg75
(lp3596
S'discount_coupon'
p3597
asbag68
(g89
g70
NtRp3598
(dp3599
g73
(dp3600
g100
g101
ssg82
g3589
sg75
(lp3601
S':'
asbag68
(g89
g70
NtRp3602
(dp3603
g73
(dp3604
sg82
g3589
sg75
(lp3605
g68
(g69
g70
NtRp3606
(dp3607
g73
(dp3608
g81
I3
ssg82
g3602
sg75
(lp3609
S'None'
p3610
asbasbasbag68
(g84
g70
NtRp3611
(dp3612
g73
(dp3613
sg82
g3299
sg75
(lp3614
g68
(g89
g70
NtRp3615
(dp3616
g73
(dp3617
g93
g94
ssg82
g3611
sg75
(lp3618
S'donation'
p3619
asbag68
(g89
g70
NtRp3620
(dp3621
g73
(dp3622
g100
g101
ssg82
g3611
sg75
(lp3623
S':'
asbag68
(g89
g70
NtRp3624
(dp3625
g73
(dp3626
sg82
g3611
sg75
(lp3627
g68
(g69
g70
NtRp3628
(dp3629
g73
(dp3630
g81
I3
ssg82
g3624
sg75
(lp3631
S'0.0'
p3632
asbasbasbag68
(g84
g70
NtRp3633
(dp3634
g73
(dp3635
sg82
g3299
sg75
(lp3636
g68
(g89
g70
NtRp3637
(dp3638
g73
(dp3639
g93
g94
ssg82
g3633
sg75
(lp3640
S'email'
p3641
asbag68
(g89
g70
NtRp3642
(dp3643
g73
(dp3644
g100
g101
ssg82
g3633
sg75
(lp3645
S':'
asbag68
(g89
g70
NtRp3646
(dp3647
g73
(dp3648
sg82
g3633
sg75
(lp3649
g68
(g69
g70
NtRp3650
(dp3651
g73
(dp3652
g81
I3
ssg82
g3646
sg75
(lp3653
S'marco@saltalug.org.ar'
p3654
asbasbasbag68
(g84
g70
NtRp3655
(dp3656
g73
(dp3657
sg82
g3299
sg75
(lp3658
g68
(g89
g70
NtRp3659
(dp3660
g73
(dp3661
g93
g94
ssg82
g3655
sg75
(lp3662
S'first_name'
p3663
asbag68
(g89
g70
NtRp3664
(dp3665
g73
(dp3666
g100
g101
ssg82
g3655
sg75
(lp3667
S':'
asbag68
(g89
g70
NtRp3668
(dp3669
g73
(dp3670
sg82
g3655
sg75
(lp3671
g68
(g69
g70
NtRp3672
(dp3673
g73
(dp3674
g81
I3
ssg82
g3668
sg75
(lp3675
S'Marco'
p3676
asbasbasbag68
(g84
g70
NtRp3677
(dp3678
g73
(dp3679
sg82
g3299
sg75
(lp3680
g68
(g89
g70
NtRp3681
(dp3682
g73
(dp3683
g93
g94
ssg82
g3677
sg75
(lp3684
S'id'
p3685
asbag68
(g89
g70
NtRp3686
(dp3687
g73
(dp3688
g100
g101
ssg82
g3677
sg75
(lp3689
S':'
asbag68
(g89
g70
NtRp3690
(dp3691
g73
(dp3692
sg82
g3677
sg75
(lp3693
g68
(g69
g70
NtRp3694
(dp3695
g73
(dp3696
g81
I3
ssg82
g3690
sg75
(lp3697
S'55'
p3698
asbasbasbag68
(g84
g70
NtRp3699
(dp3700
g73
(dp3701
sg82
g3299
sg75
(lp3702
g68
(g89
g70
NtRp3703
(dp3704
g73
(dp3705
g93
g94
ssg82
g3699
sg75
(lp3706
S'include_in_delegate_listing'
p3707
asbag68
(g89
g70
NtRp3708
(dp3709
g73
(dp3710
g100
g101
ssg82
g3699
sg75
(lp3711
S':'
asbag68
(g89
g70
NtRp3712
(dp3713
g73
(dp3714
sg82
g3699
sg75
(lp3715
g68
(g69
g70
NtRp3716
(dp3717
g73
(dp3718
g81
I3
ssg82
g3712
sg75
(lp3719
g1689
asbasbasbag68
(g84
g70
NtRp3720
(dp3721
g73
(dp3722
sg82
g3299
sg75
(lp3723
g68
(g89
g70
NtRp3724
(dp3725
g73
(dp3726
g93
g94
ssg82
g3720
sg75
(lp3727
S'installfest_hardware'
p3728
asbag68
(g89
g70
NtRp3729
(dp3730
g73
(dp3731
g100
g101
ssg82
g3720
sg75
(lp3732
S':'
asbag68
(g89
g70
NtRp3733
(dp3734
g73
(dp3735
sg82
g3720
sg75
(lp3736
g68
(g69
g70
NtRp3737
(dp3738
g73
(dp3739
g81
I3
ssg82
g3733
sg75
(lp3740
S'kakafono'
p3741
asbasbasbag68
(g84
g70
NtRp3742
(dp3743
g73
(dp3744
sg82
g3299
sg75
(lp3745
g68
(g89
g70
NtRp3746
(dp3747
g73
(dp3748
g93
g94
ssg82
g3742
sg75
(lp3749
S'installfest_os'
p3750
asbag68
(g89
g70
NtRp3751
(dp3752
g73
(dp3753
g100
g101
ssg82
g3742
sg75
(lp3754
S':'
asbag68
(g89
g70
NtRp3755
(dp3756
g73
(dp3757
sg82
g3742
sg75
(lp3758
g68
(g69
g70
NtRp3759
(dp3760
g73
(dp3761
g81
I3
ssg82
g3755
sg75
(lp3762
S'Debian'
p3763
asbasbasbag68
(g84
g70
NtRp3764
(dp3765
g73
(dp3766
sg82
g3299
sg75
(lp3767
g68
(g89
g70
NtRp3768
(dp3769
g73
(dp3770
g93
g94
ssg82
g3764
sg75
(lp3771
S'last_name'
p3772
asbag68
(g89
g70
NtRp3773
(dp3774
g73
(dp3775
g100
g101
ssg82
g3764
sg75
(lp3776
S':'
asbag68
(g89
g70
NtRp3777
(dp3778
g73
(dp3779
sg82
g3764
sg75
(lp3780
g68
(g69
g70
NtRp3781
(dp3782
g73
(dp3783
g81
I3
ssg82
g3777
sg75
(lp3784
S'Mansilla'
p3785
asbasbasbag68
(g84
g70
NtRp3786
(dp3787
g73
(dp3788
sg82
g3299
sg75
(lp3789
g68
(g89
g70
NtRp3790
(dp3791
g73
(dp3792
g93
g94
ssg82
g3786
sg75
(lp3793
S'latitude'
p3794
asbag68
(g89
g70
NtRp3795
(dp3796
g73
(dp3797
g100
g101
ssg82
g3786
sg75
(lp3798
S':'
asbag68
(g89
g70
NtRp3799
(dp3800
g73
(dp3801
sg82
g3786
sg75
(lp3802
g68
(g69
g70
NtRp3803
(dp3804
g73
(dp3805
g81
I3
ssg82
g3799
sg75
(lp3806
S'-24.8442777'
p3807
asbasbasbag68
(g84
g70
NtRp3808
(dp3809
g73
(dp3810
sg82
g3299
sg75
(lp3811
g68
(g89
g70
NtRp3812
(dp3813
g73
(dp3814
g93
g94
ssg82
g3808
sg75
(lp3815
S'longitude'
p3816
asbag68
(g89
g70
NtRp3817
(dp3818
g73
(dp3819
g100
g101
ssg82
g3808
sg75
(lp3820
S':'
asbag68
(g89
g70
NtRp3821
(dp3822
g73
(dp3823
sg82
g3808
sg75
(lp3824
g68
(g69
g70
NtRp3825
(dp3826
g73
(dp3827
g81
I3
ssg82
g3821
sg75
(lp3828
S'-65.4787676'
p3829
asbasbasbag68
(g84
g70
NtRp3830
(dp3831
g73
(dp3832
sg82
g3299
sg75
(lp3833
g68
(g89
g70
NtRp3834
(dp3835
g73
(dp3836
g93
g94
ssg82
g3830
sg75
(lp3837
S'manager'
p3838
asbag68
(g89
g70
NtRp3839
(dp3840
g73
(dp3841
g100
g101
ssg82
g3830
sg75
(lp3842
S':'
asbag68
(g89
g70
NtRp3843
(dp3844
g73
(dp3845
sg82
g3830
sg75
(lp3846
g68
(g69
g70
NtRp3847
(dp3848
g73
(dp3849
g81
I3
ssg82
g3843
sg75
(lp3850
g1689
asbasbasbag68
(g84
g70
NtRp3851
(dp3852
g73
(dp3853
sg82
g3299
sg75
(lp3854
g68
(g89
g70
NtRp3855
(dp3856
g73
(dp3857
g93
g94
ssg82
g3851
sg75
(lp3858
S'password'
p3859
asbag68
(g89
g70
NtRp3860
(dp3861
g73
(dp3862
g100
g101
ssg82
g3851
sg75
(lp3863
S':'
asbag68
(g89
g70
NtRp3864
(dp3865
g73
(dp3866
sg82
g3851
sg75
(lp3867
g68
(g69
g70
NtRp3868
(dp3869
g73
(dp3870
g81
I3
ssg82
g3864
sg75
(lp3871
S'121c120f6831e94b12b41d853c3f672b'
p3872
asbasbasbag68
(g84
g70
NtRp3873
(dp3874
g73
(dp3875
sg82
g3299
sg75
(lp3876
g68
(g89
g70
NtRp3877
(dp3878
g73
(dp3879
g93
g94
ssg82
g3873
sg75
(lp3880
S'personal_home_page'
p3881
asbag68
(g89
g70
NtRp3882
(dp3883
g73
(dp3884
g100
g101
ssg82
g3873
sg75
(lp3885
S':'
asbag68
(g89
g70
NtRp3886
(dp3887
g73
(dp3888
sg82
g3873
sg75
(lp3889
g68
(g69
g70
NtRp3890
(dp3891
g73
(dp3892
g81
I3
ssg82
g3886
sg75
(lp3893
S'http://www.esdebian.org'
p3894
asbasbasbag68
(g84
g70
NtRp3895
(dp3896
g73
(dp3897
sg82
g3299
sg75
(lp3898
g68
(g89
g70
NtRp3899
(dp3900
g73
(dp3901
g93
g94
ssg82
g3895
sg75
(lp3902
S'phone_number'
p3903
asbag68
(g89
g70
NtRp3904
(dp3905
g73
(dp3906
g100
g101
ssg82
g3895
sg75
(lp3907
S':'
asbag68
(g89
g70
NtRp3908
(dp3909
g73
(dp3910
sg82
g3895
sg75
(lp3911
g68
(g69
g70
NtRp3912
(dp3913
g73
(dp3914
g81
I3
ssg82
g3908
sg75
(lp3915
S'76543456789'
p3916
asbasbasbag68
(g84
g70
NtRp3917
(dp3918
g73
(dp3919
sg82
g3299
sg75
(lp3920
g68
(g89
g70
NtRp3921
(dp3922
g73
(dp3923
g93
g94
ssg82
g3917
sg75
(lp3924
S'registration_key'
p3925
asbag68
(g89
g70
NtRp3926
(dp3927
g73
(dp3928
g100
g101
ssg82
g3917
sg75
(lp3929
S':'
asbag68
(g89
g70
NtRp3930
(dp3931
g73
(dp3932
sg82
g3917
sg75
(lp3933
g68
(g69
g70
NtRp3934
(dp3935
g73
(dp3936
g81
I3
ssg82
g3930
sg75
(lp3937
S''
asbasbasbag68
(g84
g70
NtRp3938
(dp3939
g73
(dp3940
sg82
g3299
sg75
(lp3941
g68
(g89
g70
NtRp3942
(dp3943
g73
(dp3944
g93
g94
ssg82
g3938
sg75
(lp3945
S'resume'
p3946
asbag68
(g89
g70
NtRp3947
(dp3948
g73
(dp3949
g100
g101
ssg82
g3938
sg75
(lp3950
S':'
asbag68
(g89
g70
NtRp3951
(dp3952
g73
(dp3953
sg82
g3938
sg75
(lp3954
g68
(g69
g70
NtRp3955
(dp3956
g73
(dp3957
g81
I3
ssg82
g3951
sg75
(lp3958
S'None'
p3959
asbasbasbag68
(g84
g70
NtRp3960
(dp3961
g73
(dp3962
sg82
g3299
sg75
(lp3963
g68
(g89
g70
NtRp3964
(dp3965
g73
(dp3966
g93
g94
ssg82
g3960
sg75
(lp3967
S'reviewer'
p3968
asbag68
(g89
g70
NtRp3969
(dp3970
g73
(dp3971
g100
g101
ssg82
g3960
sg75
(lp3972
S':'
asbag68
(g89
g70
NtRp3973
(dp3974
g73
(dp3975
sg82
g3960
sg75
(lp3976
g68
(g69
g70
NtRp3977
(dp3978
g73
(dp3979
g81
I3
ssg82
g3973
sg75
(lp3980
g1689
asbasbasbag68
(g84
g70
NtRp3981
(dp3982
g73
(dp3983
sg82
g3299
sg75
(lp3984
g68
(g89
g70
NtRp3985
(dp3986
g73
(dp3987
g93
g94
ssg82
g3981
sg75
(lp3988
S'session_chair'
p3989
asbag68
(g89
g70
NtRp3990
(dp3991
g73
(dp3992
g100
g101
ssg82
g3981
sg75
(lp3993
S':'
asbag68
(g89
g70
NtRp3994
(dp3995
g73
(dp3996
sg82
g3981
sg75
(lp3997
g68
(g69
g70
NtRp3998
(dp3999
g73
(dp4000
g81
I3
ssg82
g3994
sg75
(lp4001
g111
asbasbasbag68
(g84
g70
NtRp4002
(dp4003
g73
(dp4004
sg82
g3299
sg75
(lp4005
g68
(g89
g70
NtRp4006
(dp4007
g73
(dp4008
g93
g94
ssg82
g4002
sg75
(lp4009
S'speaker'
p4010
asbag68
(g89
g70
NtRp4011
(dp4012
g73
(dp4013
g100
g101
ssg82
g4002
sg75
(lp4014
S':'
asbag68
(g89
g70
NtRp4015
(dp4016
g73
(dp4017
sg82
g4002
sg75
(lp4018
g68
(g69
g70
NtRp4019
(dp4020
g73
(dp4021
g81
I3
ssg82
g4015
sg75
(lp4022
g111
asbasbasbag68
(g84
g70
NtRp4023
(dp4024
g73
(dp4025
sg82
g3299
sg75
(lp4026
g68
(g89
g70
NtRp4027
(dp4028
g73
(dp4029
g93
g94
ssg82
g4023
sg75
(lp4030
S'state'
p4031
asbag68
(g89
g70
NtRp4032
(dp4033
g73
(dp4034
g100
g101
ssg82
g4023
sg75
(lp4035
S':'
asbag68
(g89
g70
NtRp4036
(dp4037
g73
(dp4038
sg82
g4023
sg75
(lp4039
g68
(g69
g70
NtRp4040
(dp4041
g73
(dp4042
g81
I3
ssg82
g4036
sg75
(lp4043
S'Salta'
p4044
asbasbasbag68
(g84
g70
NtRp4045
(dp4046
g73
(dp4047
sg82
g3299
sg75
(lp4048
g68
(g89
g70
NtRp4049
(dp4050
g73
(dp4051
g93
g94
ssg82
g4045
sg75
(lp4052
S'tutorials'
p4053
asbag68
(g89
g70
NtRp4054
(dp4055
g73
(dp4056
g100
g101
ssg82
g4045
sg75
(lp4057
S':'
asbag68
(g89
g70
NtRp4058
(dp4059
g73
(dp4060
sg82
g4045
sg75
(lp4061
g68
(g69
g70
NtRp4062
(dp4063
g73
(dp4064
g81
I3
ssg82
g4058
sg75
(lp4065
S'None'
p4066
asbasbasbag68
(g84
g70
NtRp4067
(dp4068
g73
(dp4069
sg82
g3299
sg75
(lp4070
g68
(g89
g70
NtRp4071
(dp4072
g73
(dp4073
g93
g94
ssg82
g4067
sg75
(lp4074
S'zip_code'
p4075
asbag68
(g89
g70
NtRp4076
(dp4077
g73
(dp4078
g100
g101
ssg82
g4067
sg75
(lp4079
S':'
asbag68
(g89
g70
NtRp4080
(dp4081
g73
(dp4082
sg82
g4067
sg75
(lp4083
g68
(g69
g70
NtRp4084
(dp4085
g73
(dp4086
g81
I3
ssg82
g4080
sg75
(lp4087
S'4400'
p4088
asbasbasbasbasbasbasbag68
(g84
g70
NtRp4089
(dp4090
g73
(dp4091
sg82
g3187
sg75
(lp4092
g68
(g89
g70
NtRp4093
(dp4094
g73
(dp4095
g93
g94
ssg82
g4089
sg75
(lp4096
S'user_groups'
p4097
asbag68
(g89
g70
NtRp4098
(dp4099
g73
(dp4100
g100
g101
ssg82
g4089
sg75
(lp4101
S':'
asbag68
(g89
g70
NtRp4102
(dp4103
g73
(dp4104
sg82
g4089
sg75
(lp4105
g68
(g69
g70
NtRp4106
(dp4107
g73
(dp4108
g81
I4
ssg82
g4102
sg75
(lp4109
g68
(g77
g70
NtRp4110
(dp4111
g73
(dp4112
g81
I3
ssg82
Nsg75
(lp4113
g68
(g84
g70
NtRp4114
(dp4115
g73
(dp4116
sg82
g4110
sg75
(lp4117
g68
(g89
g70
NtRp4118
(dp4119
g73
(dp4120
g93
g94
ssg82
g4114
sg75
(lp4121
S'15'
p4122
asbag68
(g89
g70
NtRp4123
(dp4124
g73
(dp4125
g100
g101
ssg82
g4114
sg75
(lp4126
S':'
asbag68
(g89
g70
NtRp4127
(dp4128
g73
(dp4129
sg82
g4114
sg75
(lp4130
g68
(g69
g70
NtRp4131
(dp4132
g73
(dp4133
g81
I3
ssg82
g4127
sg75
(lp4134
S'plugin_flatpages'
p4135
asbasbasbasbasbasbasbasbasbasbasbag68
(g84
g70
NtRp4136
(dp4137
g73
(dp4138
sg82
g3074
sg75
(lp4139
g68
(g89
g70
NtRp4140
(dp4141
g73
(dp4142
g93
g94
ssg82
g4136
sg75
(lp4143
S'balance'
p4144
asbag68
(g89
g70
NtRp4145
(dp4146
g73
(dp4147
g100
g101
ssg82
g4136
sg75
(lp4148
S':'
asbag68
(g89
g70
NtRp4149
(dp4150
g73
(dp4151
sg82
g4136
sg75
(lp4152
g68
(g69
g70
NtRp4153
(dp4154
g73
(dp4155
g81
I5
ssg82
g4149
sg75
(lp4156
S'0.0'
p4157
asbasbasbag68
(g84
g70
NtRp4158
(dp4159
g73
(dp4160
sg82
g3074
sg75
(lp4161
g68
(g89
g70
NtRp4162
(dp4163
g73
(dp4164
g93
g94
ssg82
g4158
sg75
(lp4165
S'manager'
p4166
asbag68
(g89
g70
NtRp4167
(dp4168
g73
(dp4169
g100
g101
ssg82
g4158
sg75
(lp4170
S':'
asbag68
(g89
g70
NtRp4171
(dp4172
g73
(dp4173
sg82
g4158
sg75
(lp4174
g68
(g69
g70
NtRp4175
(dp4176
g73
(dp4177
g81
I5
ssg82
g4171
sg75
(lp4178
g1689
asbasbasbag68
(g84
g70
NtRp4179
(dp4180
g73
(dp4181
sg82
g3074
sg75
(lp4182
g68
(g89
g70
NtRp4183
(dp4184
g73
(dp4185
g93
g94
ssg82
g4179
sg75
(lp4186
S't2'
p4187
asbag68
(g89
g70
NtRp4188
(dp4189
g73
(dp4190
g100
g101
ssg82
g4179
sg75
(lp4191
S':'
asbag68
(g89
g70
NtRp4192
(dp4193
g73
(dp4194
sg82
g4179
sg75
(lp4195
g68
(g69
g70
NtRp4196
(dp4197
g73
(dp4198
g81
I5
ssg82
g4192
sg75
(lp4199
g68
(g77
g70
NtRp4200
(dp4201
g73
(dp4202
g81
I4
ssg82
Nsg75
(lp4203
g68
(g84
g70
NtRp4204
(dp4205
g73
(dp4206
sg82
g4200
sg75
(lp4207
g68
(g89
g70
NtRp4208
(dp4209
g73
(dp4210
g93
g94
ssg82
g4204
sg75
(lp4211
S'my_groups_id'
p4212
asbag68
(g89
g70
NtRp4213
(dp4214
g73
(dp4215
g100
g101
ssg82
g4204
sg75
(lp4216
S':'
asbag68
(g89
g70
NtRp4217
(dp4218
g73
(dp4219
sg82
g4204
sg75
(lp4220
g68
(g69
g70
NtRp4221
(dp4222
g73
(dp4223
g81
I4
ssg82
g4217
sg75
(lp4224
g68
(g77
g70
NtRp4225
(dp4226
g73
(dp4227
g81
I3
ssg82
Nsg75
(lp4228
sbasbasbasbasbasbasbasbasbasbsS'etype'
p4229
S"<type 'exceptions.SyntaxError'>"
p4230
sS'date'
p4231
S'Fri Mar  9 15:03:39 2012'
p4232
sS'response'
p4233
g68
(g69
g70
NtRp4234
(dp4235
g73
(dp4236
sg75
(lp4237
g68
(g77
g70
NtRp4238
(dp4239
g73
(dp4240
g81
I5
ssg82
Nsg75
(lp4241
g68
(g84
g70
NtRp4242
(dp4243
g73
(dp4244
sg82
g4238
sg75
(lp4245
g68
(g89
g70
NtRp4246
(dp4247
g73
(dp4248
g93
g94
ssg82
g4242
sg75
(lp4249
g166
asbag68
(g89
g70
NtRp4250
(dp4251
g73
(dp4252
g100
g101
ssg82
g4242
sg75
(lp4253
S':'
asbag68
(g89
g70
NtRp4254
(dp4255
g73
(dp4256
sg82
g4242
sg75
(lp4257
g68
(g69
g70
NtRp4258
(dp4259
g73
(dp4260
g81
I5
ssg82
g4254
sg75
(lp4261
S'<cStringIO.StringO object at 0x42ebd50>'
p4262
asbasbasbag68
(g84
g70
NtRp4263
(dp4264
g73
(dp4265
sg82
g4238
sg75
(lp4266
g68
(g89
g70
NtRp4267
(dp4268
g73
(dp4269
g93
g94
ssg82
g4263
sg75
(lp4270
g232
asbag68
(g89
g70
NtRp4271
(dp4272
g73
(dp4273
g100
g101
ssg82
g4263
sg75
(lp4274
S':'
asbag68
(g89
g70
NtRp4275
(dp4276
g73
(dp4277
sg82
g4263
sg75
(lp4278
g68
(g69
g70
NtRp4279
(dp4280
g73
(dp4281
g81
I5
ssg82
g4275
sg75
(lp4282
g68
(g77
g70
NtRp4283
(dp4284
g73
(dp4285
g81
I4
ssg82
Nsg75
(lp4286
g68
(g84
g70
NtRp4287
(dp4288
g73
(dp4289
sg82
g4283
sg75
(lp4290
g68
(g89
g70
NtRp4291
(dp4292
g73
(dp4293
g93
g94
ssg82
g4287
sg75
(lp4294
S'session_id_flisol2012'
p4295
asbag68
(g89
g70
NtRp4296
(dp4297
g73
(dp4298
g100
g101
ssg82
g4287
sg75
(lp4299
S':'
asbag68
(g89
g70
NtRp4300
(dp4301
g73
(dp4302
sg82
g4287
sg75
(lp4303
g68
(g69
g70
NtRp4304
(dp4305
g73
(dp4306
g81
I4
ssg82
g4300
sg75
(lp4307
g68
(g77
g70
NtRp4308
(dp4309
g73
(dp4310
g81
I3
ssg82
Nsg75
(lp4311
g68
(g84
g70
NtRp4312
(dp4313
g73
(dp4314
sg82
g4308
sg75
(lp4315
g68
(g89
g70
NtRp4316
(dp4317
g73
(dp4318
g93
g94
ssg82
g4312
sg75
(lp4319
g282
asbag68
(g89
g70
NtRp4320
(dp4321
g73
(dp4322
g100
g101
ssg82
g4312
sg75
(lp4323
S':'
asbag68
(g89
g70
NtRp4324
(dp4325
g73
(dp4326
sg82
g4312
sg75
(lp4327
g68
(g69
g70
NtRp4328
(dp4329
g73
(dp4330
g81
I3
ssg82
g4324
sg75
(lp4331
S''
asbasbasbag68
(g84
g70
NtRp4332
(dp4333
g73
(dp4334
sg82
g4308
sg75
(lp4335
g68
(g89
g70
NtRp4336
(dp4337
g73
(dp4338
g93
g94
ssg82
g4332
sg75
(lp4339
g303
asbag68
(g89
g70
NtRp4340
(dp4341
g73
(dp4342
g100
g101
ssg82
g4332
sg75
(lp4343
S':'
asbag68
(g89
g70
NtRp4344
(dp4345
g73
(dp4346
sg82
g4332
sg75
(lp4347
g68
(g69
g70
NtRp4348
(dp4349
g73
(dp4350
g81
I3
ssg82
g4344
sg75
(lp4351
S''
asbasbasbag68
(g84
g70
NtRp4352
(dp4353
g73
(dp4354
sg82
g4308
sg75
(lp4355
g68
(g89
g70
NtRp4356
(dp4357
g73
(dp4358
g93
g94
ssg82
g4352
sg75
(lp4359
g324
asbag68
(g89
g70
NtRp4360
(dp4361
g73
(dp4362
g100
g101
ssg82
g4352
sg75
(lp4363
S':'
asbag68
(g89
g70
NtRp4364
(dp4365
g73
(dp4366
sg82
g4352
sg75
(lp4367
g68
(g69
g70
NtRp4368
(dp4369
g73
(dp4370
g81
I3
ssg82
g4364
sg75
(lp4371
S'2592000'
p4372
asbasbasbag68
(g84
g70
NtRp4373
(dp4374
g73
(dp4375
sg82
g4308
sg75
(lp4376
g68
(g89
g70
NtRp4377
(dp4378
g73
(dp4379
g93
g94
ssg82
g4373
sg75
(lp4380
g345
asbag68
(g89
g70
NtRp4381
(dp4382
g73
(dp4383
g100
g101
ssg82
g4373
sg75
(lp4384
S':'
asbag68
(g89
g70
NtRp4385
(dp4386
g73
(dp4387
sg82
g4373
sg75
(lp4388
g68
(g69
g70
NtRp4389
(dp4390
g73
(dp4391
g81
I3
ssg82
g4385
sg75
(lp4392
S''
asbasbasbag68
(g84
g70
NtRp4393
(dp4394
g73
(dp4395
sg82
g4308
sg75
(lp4396
g68
(g89
g70
NtRp4397
(dp4398
g73
(dp4399
g93
g94
ssg82
g4393
sg75
(lp4400
g366
asbag68
(g89
g70
NtRp4401
(dp4402
g73
(dp4403
g100
g101
ssg82
g4393
sg75
(lp4404
S':'
asbag68
(g89
g70
NtRp4405
(dp4406
g73
(dp4407
sg82
g4393
sg75
(lp4408
g68
(g69
g70
NtRp4409
(dp4410
g73
(dp4411
g81
I3
ssg82
g4405
sg75
(lp4412
S''
asbasbasbag68
(g84
g70
NtRp4413
(dp4414
g73
(dp4415
sg82
g4308
sg75
(lp4416
g68
(g89
g70
NtRp4417
(dp4418
g73
(dp4419
g93
g94
ssg82
g4413
sg75
(lp4420
g387
asbag68
(g89
g70
NtRp4421
(dp4422
g73
(dp4423
g100
g101
ssg82
g4413
sg75
(lp4424
S':'
asbag68
(g89
g70
NtRp4425
(dp4426
g73
(dp4427
sg82
g4413
sg75
(lp4428
g68
(g69
g70
NtRp4429
(dp4430
g73
(dp4431
g81
I3
ssg82
g4425
sg75
(lp4432
S'/'
asbasbasbag68
(g84
g70
NtRp4433
(dp4434
g73
(dp4435
sg82
g4308
sg75
(lp4436
g68
(g89
g70
NtRp4437
(dp4438
g73
(dp4439
g93
g94
ssg82
g4433
sg75
(lp4440
g408
asbag68
(g89
g70
NtRp4441
(dp4442
g73
(dp4443
g100
g101
ssg82
g4433
sg75
(lp4444
S':'
asbag68
(g89
g70
NtRp4445
(dp4446
g73
(dp4447
sg82
g4433
sg75
(lp4448
g68
(g69
g70
NtRp4449
(dp4450
g73
(dp4451
g81
I3
ssg82
g4445
sg75
(lp4452
S''
asbasbasbag68
(g84
g70
NtRp4453
(dp4454
g73
(dp4455
sg82
g4308
sg75
(lp4456
g68
(g89
g70
NtRp4457
(dp4458
g73
(dp4459
g93
g94
ssg82
g4453
sg75
(lp4460
g429
asbag68
(g89
g70
NtRp4461
(dp4462
g73
(dp4463
g100
g101
ssg82
g4453
sg75
(lp4464
S':'
asbag68
(g89
g70
NtRp4465
(dp4466
g73
(dp4467
sg82
g4453
sg75
(lp4468
g68
(g69
g70
NtRp4469
(dp4470
g73
(dp4471
g81
I3
ssg82
g4465
sg75
(lp4472
S''
asbasbasbasbasbasbasbasbasbasbasbag68
(g84
g70
NtRp4473
(dp4474
g73
(dp4475
sg82
g4238
sg75
(lp4476
g68
(g89
g70
NtRp4477
(dp4478
g73
(dp4479
g93
g94
ssg82
g4473
sg75
(lp4480
S'delimiters'
p4481
asbag68
(g89
g70
NtRp4482
(dp4483
g73
(dp4484
g100
g101
ssg82
g4473
sg75
(lp4485
S':'
asbag68
(g89
g70
NtRp4486
(dp4487
g73
(dp4488
sg82
g4473
sg75
(lp4489
g68
(g69
g70
NtRp4490
(dp4491
g73
(dp4492
g81
I5
ssg82
g4486
sg75
(lp4493
g68
(g77
g70
NtRp4494
(dp4495
g73
(dp4496
g81
I4
ssg82
Nsg75
(lp4497
g68
(g84
g70
NtRp4498
(dp4499
g73
(dp4500
sg82
g4494
sg75
(lp4501
g68
(g89
g70
NtRp4502
(dp4503
g73
(dp4504
sg82
g4498
sg75
(lp4505
g68
(g69
g70
NtRp4506
(dp4507
g73
(dp4508
g81
I4
ssg82
g4502
sg75
(lp4509
S'{{'
p4510
asbasbasbag68
(g84
g70
NtRp4511
(dp4512
g73
(dp4513
sg82
g4494
sg75
(lp4514
g68
(g89
g70
NtRp4515
(dp4516
g73
(dp4517
sg82
g4511
sg75
(lp4518
g68
(g69
g70
NtRp4519
(dp4520
g73
(dp4521
g81
I4
ssg82
g4515
sg75
(lp4522
S'}}'
p4523
asbasbasbasbasbasbasbag68
(g84
g70
NtRp4524
(dp4525
g73
(dp4526
sg82
g4238
sg75
(lp4527
g68
(g89
g70
NtRp4528
(dp4529
g73
(dp4530
g93
g94
ssg82
g4524
sg75
(lp4531
S'description'
p4532
asbag68
(g89
g70
NtRp4533
(dp4534
g73
(dp4535
g100
g101
ssg82
g4524
sg75
(lp4536
S':'
asbag68
(g89
g70
NtRp4537
(dp4538
g73
(dp4539
sg82
g4524
sg75
(lp4540
g68
(g69
g70
NtRp4541
(dp4542
g73
(dp4543
g81
I5
ssg82
g4537
sg75
(lp4544
S'Hecho con web2py'
p4545
asbasbasbag68
(g84
g70
NtRp4546
(dp4547
g73
(dp4548
sg82
g4238
sg75
(lp4549
g68
(g89
g70
NtRp4550
(dp4551
g73
(dp4552
g93
g94
ssg82
g4546
sg75
(lp4553
S'files'
p4554
asbag68
(g89
g70
NtRp4555
(dp4556
g73
(dp4557
g100
g101
ssg82
g4546
sg75
(lp4558
S':'
asbag68
(g89
g70
NtRp4559
(dp4560
g73
(dp4561
sg82
g4546
sg75
(lp4562
g68
(g69
g70
NtRp4563
(dp4564
g73
(dp4565
g81
I5
ssg82
g4559
sg75
(lp4566
g68
(g77
g70
NtRp4567
(dp4568
g73
(dp4569
g81
I4
ssg82
Nsg75
(lp4570
g68
(g84
g70
NtRp4571
(dp4572
g73
(dp4573
sg82
g4567
sg75
(lp4574
g68
(g89
g70
NtRp4575
(dp4576
g73
(dp4577
sg82
g4571
sg75
(lp4578
g68
(g69
g70
NtRp4579
(dp4580
g73
(dp4581
g81
I4
ssg82
g4575
sg75
(lp4582
S'/plugin_t2/static/t2/scripts/jquery.js'
p4583
asbasbasbag68
(g84
g70
NtRp4584
(dp4585
g73
(dp4586
sg82
g4567
sg75
(lp4587
g68
(g89
g70
NtRp4588
(dp4589
g73
(dp4590
sg82
g4584
sg75
(lp4591
g68
(g69
g70
NtRp4592
(dp4593
g73
(dp4594
g81
I4
ssg82
g4588
sg75
(lp4595
S'/plugin_t2/static/t2/styles/calendar.css'
p4596
asbasbasbag68
(g84
g70
NtRp4597
(dp4598
g73
(dp4599
sg82
g4567
sg75
(lp4600
g68
(g89
g70
NtRp4601
(dp4602
g73
(dp4603
sg82
g4597
sg75
(lp4604
g68
(g69
g70
NtRp4605
(dp4606
g73
(dp4607
g81
I4
ssg82
g4601
sg75
(lp4608
S'/plugin_t2/static/t2/scripts/calendar.js'
p4609
asbasbasbag68
(g84
g70
NtRp4610
(dp4611
g73
(dp4612
sg82
g4567
sg75
(lp4613
g68
(g89
g70
NtRp4614
(dp4615
g73
(dp4616
sg82
g4610
sg75
(lp4617
g68
(g69
g70
NtRp4618
(dp4619
g73
(dp4620
g81
I4
ssg82
g4614
sg75
(lp4621
S'/plugin_t2/static/t2/styles/sfmenu.css'
p4622
asbasbasbag68
(g84
g70
NtRp4623
(dp4624
g73
(dp4625
sg82
g4567
sg75
(lp4626
g68
(g89
g70
NtRp4627
(dp4628
g73
(dp4629
sg82
g4623
sg75
(lp4630
g68
(g69
g70
NtRp4631
(dp4632
g73
(dp4633
g81
I4
ssg82
g4627
sg75
(lp4634
S'/plugin_t2/static/t2/scripts/sfmenu.js'
p4635
asbasbasbag68
(g84
g70
NtRp4636
(dp4637
g73
(dp4638
sg82
g4567
sg75
(lp4639
g68
(g89
g70
NtRp4640
(dp4641
g73
(dp4642
sg82
g4636
sg75
(lp4643
g68
(g69
g70
NtRp4644
(dp4645
g73
(dp4646
g81
I4
ssg82
g4640
sg75
(lp4647
S'/plugin_t2/static/t2/scripts/fancyzoom.min.js'
p4648
asbasbasbag68
(g84
g70
NtRp4649
(dp4650
g73
(dp4651
sg82
g4567
sg75
(lp4652
g68
(g89
g70
NtRp4653
(dp4654
g73
(dp4655
sg82
g4649
sg75
(lp4656
g68
(g69
g70
NtRp4657
(dp4658
g73
(dp4659
g81
I4
ssg82
g4653
sg75
(lp4660
S'/plugin_t2/static/t2/styles/rating.css'
p4661
asbasbasbag68
(g84
g70
NtRp4662
(dp4663
g73
(dp4664
sg82
g4567
sg75
(lp4665
g68
(g89
g70
NtRp4666
(dp4667
g73
(dp4668
sg82
g4662
sg75
(lp4669
g68
(g69
g70
NtRp4670
(dp4671
g73
(dp4672
g81
I4
ssg82
g4666
sg75
(lp4673
S'/plugin_t2/static/t2/scripts/rating.js'
p4674
asbasbasbag68
(g84
g70
NtRp4675
(dp4676
g73
(dp4677
sg82
g4567
sg75
(lp4678
g68
(g89
g70
NtRp4679
(dp4680
g73
(dp4681
sg82
g4675
sg75
(lp4682
g68
(g69
g70
NtRp4683
(dp4684
g73
(dp4685
g81
I4
ssg82
g4679
sg75
(lp4686
S'/plugin_t2/static/t2/scripts/web2py.js'
p4687
asbasbasbasbasbasbasbag68
(g84
g70
NtRp4688
(dp4689
g73
(dp4690
sg82
g4238
sg75
(lp4691
g68
(g89
g70
NtRp4692
(dp4693
g73
(dp4694
g93
g94
ssg82
g4688
sg75
(lp4695
S'flash'
p4696
asbag68
(g89
g70
NtRp4697
(dp4698
g73
(dp4699
g100
g101
ssg82
g4688
sg75
(lp4700
S':'
asbag68
(g89
g70
NtRp4701
(dp4702
g73
(dp4703
sg82
g4688
sg75
(lp4704
g68
(g69
g70
NtRp4705
(dp4706
g73
(dp4707
g81
I5
ssg82
g4701
sg75
(lp4708
S''
asbasbasbag68
(g84
g70
NtRp4709
(dp4710
g73
(dp4711
sg82
g4238
sg75
(lp4712
g68
(g89
g70
NtRp4713
(dp4714
g73
(dp4715
g93
g94
ssg82
g4709
sg75
(lp4716
S'footer'
p4717
asbag68
(g89
g70
NtRp4718
(dp4719
g73
(dp4720
g100
g101
ssg82
g4709
sg75
(lp4721
S':'
asbag68
(g89
g70
NtRp4722
(dp4723
g73
(dp4724
sg82
g4709
sg75
(lp4725
g68
(g69
g70
NtRp4726
(dp4727
g73
(dp4728
g81
I5
ssg82
g4722
sg75
(lp4729
S'<p>InstallFest <a href="http://www.flisol.info/">FLISOL</a> <b>28 de abril de 2012</b> - <a href="http://www.unsa.edu.ar/">Universidad Nacional de Salta</a><br/>\n<a href="http://www.flisol.info/FLISOL2012/Argentina/Salta">http://www.flisol.info/FLISOL2012/Argentina/Salta</a> - organizacion@saltalug.org.ar</p>'
p4730
asbasbasbag68
(g84
g70
NtRp4731
(dp4732
g73
(dp4733
sg82
g4238
sg75
(lp4734
g68
(g89
g70
NtRp4735
(dp4736
g73
(dp4737
g93
g94
ssg82
g4731
sg75
(lp4738
S'generic_patterns'
p4739
asbag68
(g89
g70
NtRp4740
(dp4741
g73
(dp4742
g100
g101
ssg82
g4731
sg75
(lp4743
S':'
asbag68
(g89
g70
NtRp4744
(dp4745
g73
(dp4746
sg82
g4731
sg75
(lp4747
g68
(g69
g70
NtRp4748
(dp4749
g73
(dp4750
g81
I5
ssg82
g4744
sg75
(lp4751
g68
(g77
g70
NtRp4752
(dp4753
g73
(dp4754
g81
I4
ssg82
Nsg75
(lp4755
sbasbasbasbag68
(g84
g70
NtRp4756
(dp4757
g73
(dp4758
sg82
g4238
sg75
(lp4759
g68
(g89
g70
NtRp4760
(dp4761
g73
(dp4762
g93
g94
ssg82
g4756
sg75
(lp4763
S'headers'
p4764
asbag68
(g89
g70
NtRp4765
(dp4766
g73
(dp4767
g100
g101
ssg82
g4756
sg75
(lp4768
S':'
asbag68
(g89
g70
NtRp4769
(dp4770
g73
(dp4771
sg82
g4756
sg75
(lp4772
g68
(g69
g70
NtRp4773
(dp4774
g73
(dp4775
g81
I5
ssg82
g4769
sg75
(lp4776
g68
(g77
g70
NtRp4777
(dp4778
g73
(dp4779
g81
I4
ssg82
Nsg75
(lp4780
g68
(g84
g70
NtRp4781
(dp4782
g73
(dp4783
sg82
g4777
sg75
(lp4784
g68
(g89
g70
NtRp4785
(dp4786
g73
(dp4787
g93
g94
ssg82
g4781
sg75
(lp4788
S'Cache-Control'
p4789
asbag68
(g89
g70
NtRp4790
(dp4791
g73
(dp4792
g100
g101
ssg82
g4781
sg75
(lp4793
S':'
asbag68
(g89
g70
NtRp4794
(dp4795
g73
(dp4796
sg82
g4781
sg75
(lp4797
g68
(g69
g70
NtRp4798
(dp4799
g73
(dp4800
g81
I4
ssg82
g4794
sg75
(lp4801
S'no-store, no-cache, must-revalidate, post-check=0, pre-check=0'
p4802
asbasbasbag68
(g84
g70
NtRp4803
(dp4804
g73
(dp4805
sg82
g4777
sg75
(lp4806
g68
(g89
g70
NtRp4807
(dp4808
g73
(dp4809
g93
g94
ssg82
g4803
sg75
(lp4810
S'Content-Type'
p4811
asbag68
(g89
g70
NtRp4812
(dp4813
g73
(dp4814
g100
g101
ssg82
g4803
sg75
(lp4815
S':'
asbag68
(g89
g70
NtRp4816
(dp4817
g73
(dp4818
sg82
g4803
sg75
(lp4819
g68
(g69
g70
NtRp4820
(dp4821
g73
(dp4822
g81
I4
ssg82
g4816
sg75
(lp4823
S'text/html; charset=utf-8'
p4824
asbasbasbag68
(g84
g70
NtRp4825
(dp4826
g73
(dp4827
sg82
g4777
sg75
(lp4828
g68
(g89
g70
NtRp4829
(dp4830
g73
(dp4831
g93
g94
ssg82
g4825
sg75
(lp4832
S'Expires'
p4833
asbag68
(g89
g70
NtRp4834
(dp4835
g73
(dp4836
g100
g101
ssg82
g4825
sg75
(lp4837
S':'
asbag68
(g89
g70
NtRp4838
(dp4839
g73
(dp4840
sg82
g4825
sg75
(lp4841
g68
(g69
g70
NtRp4842
(dp4843
g73
(dp4844
g81
I4
ssg82
g4838
sg75
(lp4845
S'Fri, 09 Mar 2012 18:03:39 GMT'
p4846
asbasbasbag68
(g84
g70
NtRp4847
(dp4848
g73
(dp4849
sg82
g4777
sg75
(lp4850
g68
(g89
g70
NtRp4851
(dp4852
g73
(dp4853
g93
g94
ssg82
g4847
sg75
(lp4854
S'Pragma'
p4855
asbag68
(g89
g70
NtRp4856
(dp4857
g73
(dp4858
g100
g101
ssg82
g4847
sg75
(lp4859
S':'
asbag68
(g89
g70
NtRp4860
(dp4861
g73
(dp4862
sg82
g4847
sg75
(lp4863
g68
(g69
g70
NtRp4864
(dp4865
g73
(dp4866
g81
I4
ssg82
g4860
sg75
(lp4867
S'no-cache'
p4868
asbasbasbag68
(g84
g70
NtRp4869
(dp4870
g73
(dp4871
sg82
g4777
sg75
(lp4872
g68
(g89
g70
NtRp4873
(dp4874
g73
(dp4875
g93
g94
ssg82
g4869
sg75
(lp4876
S'X-Powered-By'
p4877
asbag68
(g89
g70
NtRp4878
(dp4879
g73
(dp4880
g100
g101
ssg82
g4869
sg75
(lp4881
S':'
asbag68
(g89
g70
NtRp4882
(dp4883
g73
(dp4884
sg82
g4869
sg75
(lp4885
g68
(g69
g70
NtRp4886
(dp4887
g73
(dp4888
g81
I4
ssg82
g4882
sg75
(lp4889
S'web2py'
p4890
asbasbasbasbasbasbasbag68
(g84
g70
NtRp4891
(dp4892
g73
(dp4893
sg82
g4238
sg75
(lp4894
g68
(g89
g70
NtRp4895
(dp4896
g73
(dp4897
g93
g94
ssg82
g4891
sg75
(lp4898
S'keywords'
p4899
asbag68
(g89
g70
NtRp4900
(dp4901
g73
(dp4902
g100
g101
ssg82
g4891
sg75
(lp4903
S':'
asbag68
(g89
g70
NtRp4904
(dp4905
g73
(dp4906
sg82
g4891
sg75
(lp4907
g68
(g69
g70
NtRp4908
(dp4909
g73
(dp4910
g81
I5
ssg82
g4904
sg75
(lp4911
S'festival, instalaci\xc3\xb3n, software libre, salta, argentina, flisol'
p4912
asbasbasbag68
(g84
g70
NtRp4913
(dp4914
g73
(dp4915
sg82
g4238
sg75
(lp4916
g68
(g89
g70
NtRp4917
(dp4918
g73
(dp4919
g93
g94
ssg82
g4913
sg75
(lp4920
S'menu'
p4921
asbag68
(g89
g70
NtRp4922
(dp4923
g73
(dp4924
g100
g101
ssg82
g4913
sg75
(lp4925
S':'
asbag68
(g89
g70
NtRp4926
(dp4927
g73
(dp4928
sg82
g4913
sg75
(lp4929
g68
(g69
g70
NtRp4930
(dp4931
g73
(dp4932
g81
I5
ssg82
g4926
sg75
(lp4933
g68
(g77
g70
NtRp4934
(dp4935
g73
(dp4936
g81
I4
ssg82
Nsg75
(lp4937
sbasbasbasbag68
(g84
g70
NtRp4938
(dp4939
g73
(dp4940
sg82
g4238
sg75
(lp4941
g68
(g89
g70
NtRp4942
(dp4943
g73
(dp4944
g93
g94
ssg82
g4938
sg75
(lp4945
S'meta'
p4946
asbag68
(g89
g70
NtRp4947
(dp4948
g73
(dp4949
g100
g101
ssg82
g4938
sg75
(lp4950
S':'
asbag68
(g89
g70
NtRp4951
(dp4952
g73
(dp4953
sg82
g4938
sg75
(lp4954
g68
(g69
g70
NtRp4955
(dp4956
g73
(dp4957
g81
I5
ssg82
g4951
sg75
(lp4958
g68
(g77
g70
NtRp4959
(dp4960
g73
(dp4961
g81
I4
ssg82
Nsg75
(lp4962
sbasbasbasbag68
(g84
g70
NtRp4963
(dp4964
g73
(dp4965
sg82
g4238
sg75
(lp4966
g68
(g89
g70
NtRp4967
(dp4968
g73
(dp4969
g93
g94
ssg82
g4963
sg75
(lp4970
S'postprocessing'
p4971
asbag68
(g89
g70
NtRp4972
(dp4973
g73
(dp4974
g100
g101
ssg82
g4963
sg75
(lp4975
S':'
asbag68
(g89
g70
NtRp4976
(dp4977
g73
(dp4978
sg82
g4963
sg75
(lp4979
g68
(g69
g70
NtRp4980
(dp4981
g73
(dp4982
g81
I5
ssg82
g4976
sg75
(lp4983
g68
(g77
g70
NtRp4984
(dp4985
g73
(dp4986
g81
I4
ssg82
Nsg75
(lp4987
sbasbasbasbag68
(g84
g70
NtRp4988
(dp4989
g73
(dp4990
sg82
g4238
sg75
(lp4991
g68
(g89
g70
NtRp4992
(dp4993
g73
(dp4994
g93
g94
ssg82
g4988
sg75
(lp4995
S'session_file'
p4996
asbag68
(g89
g70
NtRp4997
(dp4998
g73
(dp4999
g100
g101
ssg82
g4988
sg75
(lp5000
S':'
asbag68
(g89
g70
NtRp5001
(dp5002
g73
(dp5003
sg82
g4988
sg75
(lp5004
g68
(g69
g70
NtRp5005
(dp5006
g73
(dp5007
g81
I5
ssg82
g5001
sg75
(lp5008
S"<open file '/home/marco/flisol2012/web2py/applications/flisol2012/sessions/127.0.0.1-52b5dd6f-efb7-4104-a68b-859b9ffc61cb', mode 'rb+' at 0x2d689c0>"
p5009
asbasbasbag68
(g84
g70
NtRp5010
(dp5011
g73
(dp5012
sg82
g4238
sg75
(lp5013
g68
(g89
g70
NtRp5014
(dp5015
g73
(dp5016
g93
g94
ssg82
g5010
sg75
(lp5017
S'session_filename'
p5018
asbag68
(g89
g70
NtRp5019
(dp5020
g73
(dp5021
g100
g101
ssg82
g5010
sg75
(lp5022
S':'
asbag68
(g89
g70
NtRp5023
(dp5024
g73
(dp5025
sg82
g5010
sg75
(lp5026
g68
(g69
g70
NtRp5027
(dp5028
g73
(dp5029
g81
I5
ssg82
g5023
sg75
(lp5030
S'/home/marco/flisol2012/web2py/applications/flisol2012/sessions/127.0.0.1-52b5dd6f-efb7-4104-a68b-859b9ffc61cb'
p5031
asbasbasbag68
(g84
g70
NtRp5032
(dp5033
g73
(dp5034
sg82
g4238
sg75
(lp5035
g68
(g89
g70
NtRp5036
(dp5037
g73
(dp5038
g93
g94
ssg82
g5032
sg75
(lp5039
S'session_id'
p5040
asbag68
(g89
g70
NtRp5041
(dp5042
g73
(dp5043
g100
g101
ssg82
g5032
sg75
(lp5044
S':'
asbag68
(g89
g70
NtRp5045
(dp5046
g73
(dp5047
sg82
g5032
sg75
(lp5048
g68
(g69
g70
NtRp5049
(dp5050
g73
(dp5051
g81
I5
ssg82
g5045
sg75
(lp5052
S'127.0.0.1-52b5dd6f-efb7-4104-a68b-859b9ffc61cb'
p5053
asbasbasbag68
(g84
g70
NtRp5054
(dp5055
g73
(dp5056
sg82
g4238
sg75
(lp5057
g68
(g89
g70
NtRp5058
(dp5059
g73
(dp5060
g93
g94
ssg82
g5054
sg75
(lp5061
S'session_id_name'
p5062
asbag68
(g89
g70
NtRp5063
(dp5064
g73
(dp5065
g100
g101
ssg82
g5054
sg75
(lp5066
S':'
asbag68
(g89
g70
NtRp5067
(dp5068
g73
(dp5069
sg82
g5054
sg75
(lp5070
g68
(g69
g70
NtRp5071
(dp5072
g73
(dp5073
g81
I5
ssg82
g5067
sg75
(lp5074
g4295
asbasbasbag68
(g84
g70
NtRp5075
(dp5076
g73
(dp5077
sg82
g4238
sg75
(lp5078
g68
(g89
g70
NtRp5079
(dp5080
g73
(dp5081
g93
g94
ssg82
g5075
sg75
(lp5082
S'session_locked'
p5083
asbag68
(g89
g70
NtRp5084
(dp5085
g73
(dp5086
g100
g101
ssg82
g5075
sg75
(lp5087
S':'
asbag68
(g89
g70
NtRp5088
(dp5089
g73
(dp5090
sg82
g5075
sg75
(lp5091
g68
(g69
g70
NtRp5092
(dp5093
g73
(dp5094
g81
I5
ssg82
g5088
sg75
(lp5095
g1689
asbasbasbag68
(g84
g70
NtRp5096
(dp5097
g73
(dp5098
sg82
g4238
sg75
(lp5099
g68
(g89
g70
NtRp5100
(dp5101
g73
(dp5102
g93
g94
ssg82
g5096
sg75
(lp5103
S'session_new'
p5104
asbag68
(g89
g70
NtRp5105
(dp5106
g73
(dp5107
g100
g101
ssg82
g5096
sg75
(lp5108
S':'
asbag68
(g89
g70
NtRp5109
(dp5110
g73
(dp5111
sg82
g5096
sg75
(lp5112
g68
(g69
g70
NtRp5113
(dp5114
g73
(dp5115
g81
I5
ssg82
g5109
sg75
(lp5116
g111
asbasbasbag68
(g84
g70
NtRp5117
(dp5118
g73
(dp5119
sg82
g4238
sg75
(lp5120
g68
(g89
g70
NtRp5121
(dp5122
g73
(dp5123
g93
g94
ssg82
g5117
sg75
(lp5124
S'status'
p5125
asbag68
(g89
g70
NtRp5126
(dp5127
g73
(dp5128
g100
g101
ssg82
g5117
sg75
(lp5129
S':'
asbag68
(g89
g70
NtRp5130
(dp5131
g73
(dp5132
sg82
g5117
sg75
(lp5133
g68
(g69
g70
NtRp5134
(dp5135
g73
(dp5136
g81
I5
ssg82
g5130
sg75
(lp5137
S'200'
p5138
asbasbasbag68
(g84
g70
NtRp5139
(dp5140
g73
(dp5141
sg82
g4238
sg75
(lp5142
g68
(g89
g70
NtRp5143
(dp5144
g73
(dp5145
g93
g94
ssg82
g5139
sg75
(lp5146
S'subtitle'
p5147
asbag68
(g89
g70
NtRp5148
(dp5149
g73
(dp5150
g100
g101
ssg82
g5139
sg75
(lp5151
S':'
asbag68
(g89
g70
NtRp5152
(dp5153
g73
(dp5154
sg82
g5139
sg75
(lp5155
g68
(g69
g70
NtRp5156
(dp5157
g73
(dp5158
g81
I5
ssg82
g5152
sg75
(lp5159
S''
asbasbasbag68
(g84
g70
NtRp5160
(dp5161
g73
(dp5162
sg82
g4238
sg75
(lp5163
g68
(g89
g70
NtRp5164
(dp5165
g73
(dp5166
g93
g94
ssg82
g5160
sg75
(lp5167
S'title'
p5168
asbag68
(g89
g70
NtRp5169
(dp5170
g73
(dp5171
g100
g101
ssg82
g5160
sg75
(lp5172
S':'
asbag68
(g89
g70
NtRp5173
(dp5174
g73
(dp5175
sg82
g5160
sg75
(lp5176
g68
(g69
g70
NtRp5177
(dp5178
g73
(dp5179
g81
I5
ssg82
g5173
sg75
(lp5180
S'FLISOL 2012 - Salta'
p5181
asbasbasbag68
(g84
g70
NtRp5182
(dp5183
g73
(dp5184
sg82
g4238
sg75
(lp5185
g68
(g89
g70
NtRp5186
(dp5187
g73
(dp5188
g93
g94
ssg82
g5182
sg75
(lp5189
g2353
asbag68
(g89
g70
NtRp5190
(dp5191
g73
(dp5192
g100
g101
ssg82
g5182
sg75
(lp5193
S':'
asbag68
(g89
g70
NtRp5194
(dp5195
g73
(dp5196
sg82
g5182
sg75
(lp5197
g68
(g69
g70
NtRp5198
(dp5199
g73
(dp5200
g81
I5
ssg82
g5194
sg75
(lp5201
g2366
asbasbasbag68
(g84
g70
NtRp5202
(dp5203
g73
(dp5204
sg82
g4238
sg75
(lp5205
g68
(g89
g70
NtRp5206
(dp5207
g73
(dp5208
g93
g94
ssg82
g5202
sg75
(lp5209
S'view'
p5210
asbag68
(g89
g70
NtRp5211
(dp5212
g73
(dp5213
g100
g101
ssg82
g5202
sg75
(lp5214
S':'
asbag68
(g89
g70
NtRp5215
(dp5216
g73
(dp5217
sg82
g5202
sg75
(lp5218
g68
(g69
g70
NtRp5219
(dp5220
g73
(dp5221
g81
I5
ssg82
g5215
sg75
(lp5222
S'conference/staff.html'
p5223
asbasbasbasbasbsS'locals'
p5224
(dp5225
g4
S"'/home/marco/flisol2012/web2py/applications/flisol2012/models/db_asistentes.py'"
p5226
sg6
S'"# -*- coding: utf-8 -*-\\n\\ndb.define_table(\'asiste...uerido)\')\\ndb.asistente.email.requires=IS_EMAIL()\\n"'
p5227
sssS'traceback'
p5228
S'Traceback (most recent call last):\n  File "/home/marco/flisol2012/web2py/gluon/restricted.py", line 204, in restricted\n    ccode = compile2(code,layer)\n  File "/home/marco/flisol2012/web2py/gluon/restricted.py", line 189, in compile2\n    return compile(code.rstrip().replace(\'\\r\\n\',\'\\n\')+\'\\n\', layer, \'exec\')\n  File "/home/marco/flisol2012/web2py/applications/flisol2012/models/db_asistentes.py", line 4\n    Field(\'nombre\',\'string\',length=30);\n                                      ^\nSyntaxError: invalid syntax\n'
p5229
s.