(dp1
S'output'
p2
S"<type 'exceptions.KeyError'> 'name'"
p3
sS'layer'
p4
S'/home/marco/flisol2012/web2py/applications/flisol2012/controllers/default.py'
p5
sS'code'
p6
S'#############################################\n### general variables\n#############################################\n\nfrom gluon.sqlhtml import form_factory\n\n#############################################\n# The main public page\n#############################################\n\ndef index():\n    return plugin_flatpage()\n\n#############################################\n# Manage Authentication\n#############################################\n\ndef login():\n    return dict(form=auth.login(next=\'index\',\n                                onaccept=lambda form:update_pay(auth.user)))\n\ndef verify():\n    return auth.verify_email(next=URL(r=request,f=\'login\'))\n\ndef register():\n    form=auth.register(next=\'index\',\n                       onaccept=update_person)\n    return dict(form=form)\n\ndef registrar():\n    form = SQLFORM(db.asistente)\n\n    if form.process().accepted:\n        response.flash=\'Se ha registrado exitosamente\'\n    elif form.errors:\n        response.flash=\'El formulario tiene errores\'\n    else:\n        response.flash=\'Por favor complete el formulario\'\n    \n    return dict(form=form)\n\ndef password():\n    return dict(form=auth.retrieve_password(next=\'login\'))\n\n@auth.requires_login()\ndef logout(): auth.logout(next=\'index\')\n\n@auth.requires_login()\ndef profile():\n    you=db.auth_user.id==auth.user.id\n    person=db(you).select()[0]\n    require_address(person)\n    if person.amount_paid>0 or person.amount_subtracted>0:\n        db.auth_user.donation_to_PSF.writable=False\n        db.auth_user.attendee_type.writable=False\n        db.auth_user.discount_coupon.writable=False\n    form=crud.update(db.auth_user,auth.user.id,\n                     onaccept=update_person,\n                     next=\'pay\')\n    return dict(form=form)\n\n\n\n#############################################\n# Submit Financial Aid Application\n#############################################\n\n@auth.requires_login()\ndef fa_app():\n    # following idiom from Massimo\'s profile():\n    try:\n        you=db.fa.person==auth.user.id\n        db.fa[\'exposes\']=db.fa.fields[4:]\n        person=db(you).select()[0]\n    except:\n        if datetime.datetime.today() > FACUTOFF_DATE:\n            t2.redirect(\'index\',flash=XML(T(\'<b><font color="red">Applications are no longer being accepted.</b><br>(Financial Aid Application deadline: 23 February 2009)</font>\')))\n        form=t2.create(db.fa,vars=dict(person=auth.user.id),onaccept=lambda form: email_fa(\'created\'),next=\'fa_app\')\n    else:\n        form=t2.update(db.fa,query=you,deletable=False,onaccept=lambda form: email_fa(\'updated\'),next=\'fa_app\')\n    # email from here...\n    return dict(form=form)\n    \n\n#############################################\n# Submit payment\n#############################################\n\n@auth.requires_login()\ndef pay():\n    person=db(db.auth_user.id==auth.user.id).select()[0]\n    balance=session.balance\n    pay=H2(T(\'No payment due at this time\'))\n    return dict(person=person,transfers_in=[],\n                transfers_out=[],payments=[],\n                pay=pay,balance=balance)\n\n@auth.requires_login()\ndef cancel_transfer():\n    try:\n         db((db.money_transfer.id==request.args[0])&(db.money_transfer.to_person==auth.user.id)&(db.money_transfer.approved==False)).delete()\n         t2.redirect(\'pay\',flash=T(\'Transfer cancelled\'))\n    except Exception:\n         t2.redirect(\'pay\',flash=T(\'Invalid operation\'))\n\n\n#############################################\n# Allow registered visitors to download\n#############################################\n\n@auth.requires_login()\ndef download(): return response.download(request,db)\n\n@auth.requires_login()\ndef proposed_talks():\n    talks=db(db.talk.id>0).select(orderby=db.talk.title)\n    return dict(talks=talks)\n\ndef accepted_talks():\n    db.talk[\'represent\']=lambda talk: A(\'%s by %s\' % (talk.title,talk.authors),\n       _href=URL(r=request,f=\'talk_info\',args=[talk.id]))\n    rows=db((db.talk.status==\'accepted\')&(db.auth_user.id==db.talk.created_by)).select(orderby=db.talk.title)\n    return dict(rows=rows)\n\n@auth.requires_login()\ndef propose_talk():\n    return dict(form=crud.create(db.talk, next=\'display_talk/[id]\'))\n\n@auth.requires_login()\ndef update_talk():\n    if not db(db.talk.created_by==auth.user.id and db.talk.id==request.args[0]).count():\n        redirect(URL(r=reuqest,f=\'index\'))\n    form=crud.update(db.talk, request.args[0],\n                     next=\'display_talk/[id]\',\n                     ondelete=lambda form: redirect(URL(r=request,f=\'index\')))\n    return dict(form=form)\n\n#@auth.requires_login()\ndef display_talk(): \n    item=t2.display(db.talk)\n    comments=t2.comments(db.talk)\n    rows=db(db.talk.id==auth.user.id).select()\n    if rows and rows[0].created_by==auth.user.id:\n        writable=True\n    else:\n        writable=False\n    attachments=t2.attachments(db.talk,writable=writable)\n    return dict(item=item,comments=comments,attachments=attachments)\n\ndef talk_info(): \n    item=t2.display(db.talk,query=(db.talk.id==auth.user.id)&(db.talk.status==\'accepted\'))\n    return dict(item=item)\n\n@auth.requires_login()\ndef review_talk(): \n    item=t2.display(db.talk)\n    rows=db(db.talk.id==auth.user.id).select()\n    if session.reviewer and rows and not rows[0].created_by==auth.user.id:\n        writable=True\n    else:\n        writable=True\n    attachments=t2.attachments(db.talk,writable=True)\n    reviews=t2.reviews(db.talk,writable=writable)\n    return dict(item=item,reviews=reviews,attachments=attachments)\n\n\n\n#############################################\n### FOR ALL ATTENDEES\n#############################################\n\n@cache(request.env.path_info,time_expire=60,cache_model=cache.ram)\ndef companies():\n    if session.manager: s=db()\n    else: s=db(db.auth_user.include_in_delegate_listing==True)\n    rows=s.select(db.auth_user.company_name,\n                  db.auth_user.company_home_page,\n                  orderby=db.auth_user.company_name,distinct=True)\n    return dict(rows=rows)\n    \n@cache(request.env.path_info,time_expire=60,cache_model=cache.ram)\ndef attendees():\n    if session.manager: s=db(db.auth_user.attendee_type!=\'non_attending\')\n    else: s=db((db.auth_user.include_in_delegate_listing==True)&(db.auth_user.attendee_type!=\'non_attending\')&(db.auth_user.amount_due==0.0))\n    rows=s.select(db.auth_user.ALL,\n                  orderby=db.auth_user.first_name|db.auth_user.last_name)\n    return dict(rows=rows)\n\n##@cache(request.env.path_info,time_expire=60,cache_model=cache.ram)\ndef charts():    \n    cn=[]\n    colors=[\'#ff0000\',\'#ff0033\',\'#ff0066\',\'#ff0099\',\'#ff00cc\',\'#ff00ff\',\n            \'#996600\',\'#996633\',\'#996666\',\'#996699\',\'#9966cc\',\'#9966ff\',\n            \'#669900\',\'#669933\',\'#669966\',\'#669999\',\'#6699cc\',\'#cc99ff\',\n            \'#33cc00\',\'#33cc33\',\'#33cc66\',\'#33cc99\',\'#33cccc\',\'#33ccff\',\n            \'#00ff00\',\'#00ff33\',\'#00ff66\',\'#00ff99\',\'#00ffcc\',\'#00ffff\',\n            \'#996600\',\'#996633\',\'#996666\',\'#996699\',\'#9966cc\',\'#9966ff\',\n            \'#669900\',\'#669933\',\'#669966\',\'#669999\',\'#6699cc\',\'#cc99ff\',\n            \'#33cc00\',\'#33cc33\',\'#33cc66\',\'#33cc99\',\'#33cccc\',\'#33ccff\',\n            \'#00ff00\',\'#00ff33\',\'#00ff66\',\'#00ff99\',\'#00ffcc\',\'#00ffff\']\n    if not is_gae:\n        for k,item in enumerate(sorted(TUTORIALS.keys())):\n            m=db(db.auth_user.tutorials.like(\'%%|%s|%%\'%item)).count()\n            cn.append((TUTORIALS[item],colors[k],m))\n    else:        \n        cn2={}\n        for row in db(db.auth_user.id>0).select(db.auth_user.tutorials):\n            for item in sorted(TUTORIALS.keys()):\n                    if not cn2.has_key(item): cn2[item]=0\n                    if row.tutorials.find(\'|%s|\'%item)>=0: cn2[item]+=1\n        for k,item in enumerate(sorted(TUTORIALS.keys())):\n                cn.append((TUTORIALS[item],colors[k],cn2[item]))\n                k+=1\n    chart_tutorials=None #t2.barchart(cn,label_width=150)\n    def colorize(d):\n        s=[(m,n) for n,m in d.items()]\n        s.sort()\n        s.reverse()\n        t=[(x[1],colors[i % len(colors)],x[0]) for i,x in enumerate(s)]\n        return t2.barchart(t,label_width=150)   \n    country={}\n    city={}\n    food_preference={}\n    t_shirt_size={}\n    attendee_type={}\n    installfest_os={}\n    for row in db().select(db.auth_user.ALL):\n        country[row.country]=country.get(row.country,0)+1\n        city[row.city.lower()]=city.get(row.city.lower(),0)+1\n        installfest_os[row.installfest_os]=installfest_os.get(row.installfest_os,0)+1\n        #food_preference[row.food_preference]=food_preference.get(row.food_preference,0)+1\n        #t_shirt_size[row.t_shirt_size]=t_shirt_size.get(row.t_shirt_size,0)+1\n        attendee_type[row.attendee_type]=attendee_type.get(row.attendee_type,0)+1\n    chart_country=colorize(country)\n    chart_city=colorize(city)\n    chart_installfest_os=colorize(installfest_os)\n    chart_food_preference=None #colorize(food_preference)\n    chart_t_shirt_size=None #colorize(t_shirt_size)\n    chart_attendee_type=None #colorize(attendee_type)\n    return dict(chart_tutorials=chart_tutorials,\n                chart_country=chart_country,\n                chart_food_preference=chart_food_preference,\n                chart_t_shirt_size=chart_t_shirt_size,\n                chart_city=chart_city,\n                chart_installfest_os=chart_installfest_os,\n                chart_attendee_type=chart_attendee_type)\n\n@cache(request.env.path_info,time_expire=60,cache_model=cache.ram)\ndef maps():\n    rows=db(db.auth_user.id>0).select(\n            db.auth_user.first_name,\n            db.auth_user.last_name,\n            db.auth_user.latitude,\n            db.auth_user.longitude,\n            db.auth_user.personal_home_page)\n    x0,y0=CONFERENCE_COORDS\n    return dict(googlemap_key=GOOGLEMAP_KEY,x0=x0,y0=y0,rows=rows)\n\n#############################################\n### FOR MANAGERS\n#############################################\n\n@auth.requires_login()\ndef badges():\n    if not session.manager: t2.redirect(\'index\')\n    rows=db().select(db.auth_user.first_name,\n                db.auth_user.first_name,\n                db.auth_user.last_name,\n                db.auth_user.company_name,\n                db.auth_user.state,\n                db.auth_user.country, \n                db.auth_user.food_preference,\n                db.auth_user.speaker,\n                db.auth_user.session_chair,\n                db.auth_user.manager,\n                db.auth_user.reviewer)\n    return str(rows)\n    \n@auth.requires_login()\ndef maillist():\n    \'\'\'\n    Create a comma-separated mail list of attendees;\n    could expand to create many different lists.\n    \'\'\'\n    if not session.manager: t2.redirect(\'index\')\n    rec=db((db.auth_user.amount_due<=0)&(db.auth_user.attendee_type!=\'non_attending\')).select(db.auth_user.email,orderby=db.auth_user.email)\n    response.headers[\'Content-Type\']=\'text/csv\'\n    ## BUG: (yarko:) str calls csv-writer,\n    ##   which on both Ubuntu & Win returns \\r\\n for newline; need to find & fix\n    buggy_newline=\'\\r\\n\'\n    # rec renders column header I don\'t want:\n    return str(rec).partition(\'\\n\')[-1].replace(buggy_newline,\',\\n\')\n\n@auth.requires_login()\ndef financials():\n    if not session.manager: t2.redirect(\'index\')\n    rows=db().select(db.auth_user.ALL,orderby=db.auth_user.first_name|db.auth_user.last_name)\n    billed=sum([x.amount_billed for x in rows])\n    paid=sum([x.amount_paid for x in rows])\n    due=billed-paid\n    return dict(rows=rows,billed=billed,paid=paid,due=due)\n\n@auth.requires_login()\ndef financials_csv():\n    if not session.manager: t2.redirect(\'index\')\n    t=db.auth_user\n    rows=db().select(t.id,t.first_name,t.last_name,t.donation_to_PSF,t.amount_billed,t.amount_added,t.amount_subtracted,t.amount_paid,orderby=t.last_name)\n    response.headers[\'Content-Type\']=\'text/csv\'\n    return str(rows)\n\n@auth.requires_login()\ndef payments():\n    if not session.manager: t2.redirect(\'index\')\n    rows=db(db.payment.status!=\'PRE-PROCESSING\')(db.payment.from_person==db.auth_user.id).select(orderby=~db.payment.created_on)\n    return dict(payments=rows)\n\n@auth.requires_login()\ndef create():\n    if not (session.manager and request.args and request.args[0] in db.tables):\n         t2.redirect(\'index\')\n    table=request.args[0]\n    db[table][\'exposes\']=db[table].fields\n    form=t2.create(db[table])\n    db[table][\'represent\']=lambda item: A(item.id,\':\',\n        item[db[table].fields[1]],_href=t2.action(\'update\',[table,item.id]))\n    search=t2.search(db[table])\n    return dict(form=form,search=search)\n\n@auth.requires_login()\ndef update():\n    if not (session.manager and request.args and request.args[0] in db.tables):\n         t2.redirect(\'index\')\n    table=request.args[0]\n    if table==\'auth_user\':\n        ##db[table][\'exposes\']=db.auth_user.exposes[:-1]\n        form=t2.update(db[table],next=\'impersonate/[id]\')\n    else:\n        db[table][\'exposes\']=db[table].fields\n        form=t2.update(db[table],next=\'create/%s\' % table)\n    if table==\'auth_user\' and form.vars.id:\n        balance=session.balance\n        update_pay(form.record)\n        session.balance=balance\n    return dict(form=form)\n\n# Select records for badge\n@auth.requires_login()\ndef badge():\n    if not (session.manager and request.args and request.args[0] in db.tables):\n         t2.redirect(\'index\')\n    table=request.args[0]\n    db[table][\'exposes\']=db[table].fields\n    # this is for t2.search; it will start with person.name contains, which is good\n    #   (will disable searching by id - oh well ;-)\n    db[table][\'displays\']=db[table].fields[1:]\n    db[table][\'represent\']=lambda item: A(item.id,\' :   \',\n        item[db[table].fields[1]],\n    _href=URL(r=request, c=\'badge\', f=\'badge_pdf\', args=[table, item.id]))\n    search=t2.search(db[table])\n    return dict(search=search)\n\n\n@auth.requires_login()\ndef fa_csv():\n    if not session.manager: t2.redirect(\'index\')\n    person=db.asistente\n    fa=db.fa\n    who=(person.id==fa.person)\n    rows=db(db.fa.id>0).select(person.nombre,person.apellido,person.id,person.dni,person.provincia,\n                     person.email, fa.registration_amount, fa.hotel_nights, \n                     fa.total_lodging_amount, fa.roommates, fa.transportation_details, fa.transportation_amount,\n                     fa.total_amount_requested, fa.minimum_amount_requested,fa.rationale,\n                     left=db.fa.on(who))  # the all important "join"\n    response.headers[\'Content-Type\']=\'text/csv\'\n    return str(rows)\n\n@auth.requires_login()\ndef fa_email_all():\n    if not session.manager: t2.redirect(\'index\')\n    email_fa_select()\n    session.flash="FA Records emailed to %s." % FA_EMAIL_TO\n    t2.redirect(\'index\')\n    \n\ndef about():\n    return dict()\n\n@auth.requires_login()\ndef pay_check(): return dict()\n\n@auth.requires_login()\ndef pay_other():\n    transfers_in=db(db.money_transfer.to_person==auth.user.id).select()\n    form=FORM(\'Tokens: \',INPUT(_name=\'codes\',requires=IS_NOT_EMPTY()),INPUT(_type=\'submit\'))\n    errors=[]\n    due=0.0\n    if form.accepts(request.vars,session):\n        for code in request.vars.codes.split(\',\'):\n            try:\n                id,pay_token=code.strip().split(\'-\')\n                if id==auth.user.id: raise Exception\n                if int(id) in [r.from_person for r in transfers_in]: raise Exception\n                row=db(db.auth_user.id==id).select()[0]\n                if not row.pay_token.upper()==pay_token.upper(): raise Exception                \n                amount=max(0.0,row.amount_billed-row.amount_paid)\n                db.money_transfer.insert(from_person=row.id,\n                        to_person=auth.user.id,amount=amount,approved=False,\n                        description="%s %s (%s)\'s Fees transferred to %s %s (%s)" % (row.first_name, row.last-name, row.id, auth.user.first_name, auth.user.last_name, auth.user.id))\n                transfers_in=db(db.money_transfer.to_person==auth.user.id).select()\n            except:\n                errors.append(code.strip())\n        if not errors: t2.redirect(\'pay\',flash=T(\'Balance transferred\'))\n        else: response.flash=\'Invalid Tokens: \'+\', \'.join(errors)\n    return dict(form=form,transfers_in=transfers_in)\n\n@auth.requires_login()\ndef register_other():\n    transfers_in=db(db.money_transfer.to_person==auth.user.id).select()\n    form=SQLFORM(db.auth_user,fields=[\'first_name\',\'last_name\',\'email\',\'attendee_type\',\'tutorials\',\'discount_coupon\'])\n    errors=[]\n    due=0.0\n    if form.accepts(request.vars,session):\n        amount=update_person(form)\n        db.money_transfer.insert(from_person=form.vars.id,\n                   to_person=auth.user.id,amount=amount,approved=False,\n                   description="%s %s (%s) \'s Fees transferred to %s %s (%s)" % (form.vars.first_name, form.vars.last_name, form.vars.id, auth.user.first_name,auth.user.last_name,auth.user.id))\n        transfers_in=db(db.money_transfer.to_person==auth.user.id).select()\n        t2.redirect(\'pay\',flash=T(\'Attendee registered and balance transferred\'))\n    return dict(form=form,transfers_in=transfers_in)\n\n@auth.requires_login()\ndef pay_other_info():\n    return dict(person=db(db.auth_user.id==auth.user.id).select()[0])\n\n@auth.requires_login()\ndef invoice(): return dict(balance=session.balance)\n\n@auth.requires_login()\ndef badges():\n    p=db.auth_user\n    rows=db().select(p.first_name,p.last_name,p.company_name,orderby=p.last_name|p.first_name)\n    response.headers[\'Content-Type\']=\'text/csv\'\n    return str(rows)\n\ndef notify():\n    response.headers[\'Content-Type\']=\'text/xml\'\n    return l2controller.receive_xml(request.body.read())\n\n@auth.requires_login()\ndef list_by_tutorial():\n    if not session.manager: t2.redirect(\'index\')\n    page=[]\n    for key,name in TUTORIALS_LIST:\n        rows=db(db.auth_user.tutorials.like(\'%%|%s|%%\'%key)).select(db.auth_user.id,db.auth_user.first_name,db.auth_user.last_name,db.auth_user.food_preference,orderby=db.auth_user.first_name|db.auth_user.last_name)\n        page.append(H1(name))\n        page.append(rows)\n    return HTML(BODY(page))\n\ndef list_by_tutorial_with_food():\n    page=[]\n    for key,name in TUTORIALS_LIST:\n        rows=db(db.auth_user.tutorials.like(\'%%|%s|%%\'%key)).select(db.auth_user.id,db.auth_user.first_name,db.auth_user.last_name,db.auth_user.food_preference,orderby=db.auth_user.first_name|db.auth_user.last_name)\n        page.append(H1(name))\n        page.append(rows)\n    return HTML(BODY(page))\n\n@auth.requires_login()\ndef by_tutorial_csv():\n    if not session.manager: t2.redirect(\'index\')\n    page=[]\n    for key,name in TUTORIALS_LIST:\n        rows=db(db.auth_user.tutorials.like(\'%%|%s|%%\'%key)).select(db.auth_user.id,db.auth_user.first_name,db.auth_user.last_name,db.auth_user.food_preference,orderby=db.auth_user.first_name|db.auth_user.last_name)\n        page.append(name)\n        page.append(str(rows))\n        page.append(\'\\n\')\n    response.headers[\'Content-Type\']=\'text/plain\'\n    return str(page)\n\n@auth.requires_login()\ndef impersonate():\n    if not session.manager or not request.args: t2.redirect(\'index\')\n    person=db(db.auth_user.id==request.args[0]).select()[0]\n    balance2=session.balance #trick\n    transfers_in,transfers_out,payments=update_pay(person)\n    balance=session.balance\n    session.balance=balance2 #trick\n    charged_payments=[row for row in payments if row.status.lower()==\'charged\']\n    pending_payments=[row for row in payments if row.status.lower()==\'submitted\']\n    ### this is HORRIBLE but las minute change asked by Kurt\n    ### donations is (name,email,amount)\n    ### amounts is (name,email,conference_fees)\n    ### contained in this one payment\n    if not charged_payments:\n          donations=[(person.first_name+\' \'+person.last_name,person.id,person.donation_to_PSF)]\n          amounts=[(row.auth_user.first_name+\' \'+row.auth_user.last_name,row.auth_user.id,row.money_transfer.amount) for row in transfers_in]\n          amounts.append((person.first_name+\' \'+person.last_name,person.id,person.amount_billed-donations[0][2]))\n    else:\n          last_payment_datetime=person.created_on\n          for payment in charged_payments:\n              if payment.created_on>last_payment_datetime:\n                  last_payment_datetime=payment.created_on\n          donations=[]\n          amounts=[(row.auth_user.first_name+\' \'+row.auth_user.last_name,row.auth_user.id,row.money_transfer.amount) for row in transfers_in if row.money_transfer.created_on>last_payment_datetime]\n          samounts=sum([row[2] for row in amounts])\n          amounts.append((person.first_name+\' \'+person.last_name,person.id,session.balance-samounts))\n    transfers_in=[row.money_transfer for row in transfers_in]\n    if balance<=0.0: pay=H2(T(\'No payment due at this time\'))\n    elif not pending_payments: pay=H2(T(\'Payment expected\'))\n    else: pay=H2(T(\'Your payment is being processed... (read below)\'))\n    return dict(person=person,transfers_in=transfers_in,\n                transfers_out=transfers_out,payments=payments,\n                pay=pay,balance=balance)\n\n\n@auth.requires_login()\ndef cancel_transfer2():\n    if not session.manager or len(request.args)<2: t2.redirect(\'index\')\n    try:\n         db(db.money_transfer.id==request.args[1]).delete()\n         t2.redirect(\'impersonate/%s\'%request.args[0],flash=T(\'Transfer cancelled\'))\n    except Exception:\n         t2.redirect(\'impersonate/%s\'%request.args[0],flash=T(\'Invalid operation\'))\n\n@auth.requires_login()\ndef cancel_payment2():\n    if not session.manager or len(request.args)<2: t2.redirect(\'index\')\n    try:\n         db(db.payment.id==request.args[1]).update(status=\'CANCELLED\')\n         t2.redirect(\'impersonate/%s\'%request.args[0],flash=T(\'Payment cancelled\'))\n    except Exception:\n         t2.redirect(\'impersonate/%s\'%request.args[0],flash=T(\'Invalid operation\'))\n\nresponse._vars=response._caller(create)\n'
p7
sS'snapshot'
p8
(dp9
S'exception'
p10
(dp11
S'__hash__'
p12
S"<method-wrapper '__hash__' of exceptions.KeyError object>"
p13
sS'__setattr__'
p14
S"<method-wrapper '__setattr__' of exceptions.KeyError object>"
p15
sS'__reduce_ex__'
p16
S'<built-in method __reduce_ex__ of exceptions.KeyError object>'
p17
sS'__getslice__'
p18
S"<method-wrapper '__getslice__' of exceptions.KeyError object>"
p19
sS'__getitem__'
p20
S"<method-wrapper '__getitem__' of exceptions.KeyError object>"
p21
sS'__setstate__'
p22
S'<built-in method __setstate__ of exceptions.KeyError object>'
p23
sS'args'
p24
S"('name',)"
p25
sS'__reduce__'
p26
S'<built-in method __reduce__ of exceptions.KeyError object>'
p27
sS'__str__'
p28
S"<method-wrapper '__str__' of exceptions.KeyError object>"
p29
sS'__format__'
p30
S'<built-in method __format__ of exceptions.KeyError object>'
p31
sS'__getattribute__'
p32
S"<method-wrapper '__getattribute__' of exceptions.KeyError object>"
p33
sS'__class__'
p34
S"<type 'exceptions.KeyError'>"
p35
sS'__unicode__'
p36
S'<built-in method __unicode__ of exceptions.KeyError object>'
p37
sS'__delattr__'
p38
S"<method-wrapper '__delattr__' of exceptions.KeyError object>"
p39
sS'__subclasshook__'
p40
S'<built-in method __subclasshook__ of type object>'
p41
sS'__repr__'
p42
S"<method-wrapper '__repr__' of exceptions.KeyError object>"
p43
sS'__dict__'
p44
S'{}'
p45
sS'__sizeof__'
p46
S'<built-in method __sizeof__ of exceptions.KeyError object>'
p47
sS'__doc__'
p48
S"'Mapping key not found.'"
p49
sS'__init__'
p50
S"<method-wrapper '__init__' of exceptions.KeyError object>"
p51
sS'__new__'
p52
S'<built-in method __new__ of type object>'
p53
ssS'evalue'
p54
S"'name'"
p55
sS'request'
p56
ccopy_reg
_reconstructor
p57
(cgluon.html
BEAUTIFY
p58
c__builtin__
object
p59
NtRp60
(dp61
S'attributes'
p62
(dp63
sS'components'
p64
(lp65
g57
(cgluon.html
TABLE
p66
g59
NtRp67
(dp68
g62
(dp69
S'level'
p70
I5
ssS'parent'
p71
Nsg64
(lp72
g57
(cgluon.html
TR
p73
g59
NtRp74
(dp75
g62
(dp76
sg71
g67
sg64
(lp77
g57
(cgluon.html
TD
p78
g59
NtRp79
(dp80
g62
(dp81
S'_style'
p82
S'font-weight:bold;vertical-align:top'
p83
ssg71
g74
sg64
(lp84
S'ajax'
p85
asbag57
(g78
g59
NtRp86
(dp87
g62
(dp88
S'_valign'
p89
S'top'
p90
ssg71
g74
sg64
(lp91
S':'
asbag57
(g78
g59
NtRp92
(dp93
g62
(dp94
sg71
g74
sg64
(lp95
g57
(g58
g59
NtRp96
(dp97
g62
(dp98
g70
I5
ssg71
g92
sg64
(lp99
S'False'
p100
asbasbasbag57
(g73
g59
NtRp101
(dp102
g62
(dp103
sg71
g67
sg64
(lp104
g57
(g78
g59
NtRp105
(dp106
g62
(dp107
g82
g83
ssg71
g101
sg64
(lp108
S'application'
p109
asbag57
(g78
g59
NtRp110
(dp111
g62
(dp112
g89
g90
ssg71
g101
sg64
(lp113
S':'
asbag57
(g78
g59
NtRp114
(dp115
g62
(dp116
sg71
g101
sg64
(lp117
g57
(g58
g59
NtRp118
(dp119
g62
(dp120
g70
I5
ssg71
g114
sg64
(lp121
S'flisol2012'
p122
asbasbasbag57
(g73
g59
NtRp123
(dp124
g62
(dp125
sg71
g67
sg64
(lp126
g57
(g78
g59
NtRp127
(dp128
g62
(dp129
g82
g83
ssg71
g123
sg64
(lp130
g24
asbag57
(g78
g59
NtRp131
(dp132
g62
(dp133
g89
g90
ssg71
g123
sg64
(lp134
S':'
asbag57
(g78
g59
NtRp135
(dp136
g62
(dp137
sg71
g123
sg64
(lp138
g57
(g58
g59
NtRp139
(dp140
g62
(dp141
g70
I5
ssg71
g135
sg64
(lp142
g57
(g66
g59
NtRp143
(dp144
g62
(dp145
g70
I4
ssg71
Nsg64
(lp146
g57
(g73
g59
NtRp147
(dp148
g62
(dp149
sg71
g143
sg64
(lp150
g57
(g78
g59
NtRp151
(dp152
g62
(dp153
sg71
g147
sg64
(lp154
g57
(g58
g59
NtRp155
(dp156
g62
(dp157
g70
I4
ssg71
g151
sg64
(lp158
S'fa'
p159
asbasbasbasbasbasbasbag57
(g73
g59
NtRp160
(dp161
g62
(dp162
sg71
g67
sg64
(lp163
g57
(g78
g59
NtRp164
(dp165
g62
(dp166
g82
g83
ssg71
g160
sg64
(lp167
S'body'
p168
asbag57
(g78
g59
NtRp169
(dp170
g62
(dp171
g89
g90
ssg71
g160
sg64
(lp172
S':'
asbag57
(g78
g59
NtRp173
(dp174
g62
(dp175
sg71
g160
sg64
(lp176
g57
(g58
g59
NtRp177
(dp178
g62
(dp179
g70
I5
ssg71
g173
sg64
(lp180
S'<cStringIO.StringO object at 0x7f4f10150c70>'
p181
asbasbasbag57
(g73
g59
NtRp182
(dp183
g62
(dp184
sg71
g67
sg64
(lp185
g57
(g78
g59
NtRp186
(dp187
g62
(dp188
g82
g83
ssg71
g182
sg64
(lp189
S'client'
p190
asbag57
(g78
g59
NtRp191
(dp192
g62
(dp193
g89
g90
ssg71
g182
sg64
(lp194
S':'
asbag57
(g78
g59
NtRp195
(dp196
g62
(dp197
sg71
g182
sg64
(lp198
g57
(g58
g59
NtRp199
(dp200
g62
(dp201
g70
I5
ssg71
g195
sg64
(lp202
S'127.0.0.1'
p203
asbasbasbag57
(g73
g59
NtRp204
(dp205
g62
(dp206
sg71
g67
sg64
(lp207
g57
(g78
g59
NtRp208
(dp209
g62
(dp210
g82
g83
ssg71
g204
sg64
(lp211
S'controller'
p212
asbag57
(g78
g59
NtRp213
(dp214
g62
(dp215
g89
g90
ssg71
g204
sg64
(lp216
S':'
asbag57
(g78
g59
NtRp217
(dp218
g62
(dp219
sg71
g204
sg64
(lp220
g57
(g58
g59
NtRp221
(dp222
g62
(dp223
g70
I5
ssg71
g217
sg64
(lp224
S'default'
p225
asbasbasbag57
(g73
g59
NtRp226
(dp227
g62
(dp228
sg71
g67
sg64
(lp229
g57
(g78
g59
NtRp230
(dp231
g62
(dp232
g82
g83
ssg71
g226
sg64
(lp233
S'cookies'
p234
asbag57
(g78
g59
NtRp235
(dp236
g62
(dp237
g89
g90
ssg71
g226
sg64
(lp238
S':'
asbag57
(g78
g59
NtRp239
(dp240
g62
(dp241
sg71
g226
sg64
(lp242
g57
(g58
g59
NtRp243
(dp244
g62
(dp245
g70
I5
ssg71
g239
sg64
(lp246
g57
(g66
g59
NtRp247
(dp248
g62
(dp249
g70
I4
ssg71
Nsg64
(lp250
g57
(g73
g59
NtRp251
(dp252
g62
(dp253
sg71
g247
sg64
(lp254
g57
(g78
g59
NtRp255
(dp256
g62
(dp257
g82
g83
ssg71
g251
sg64
(lp258
S'session_id_admin'
p259
asbag57
(g78
g59
NtRp260
(dp261
g62
(dp262
g89
g90
ssg71
g251
sg64
(lp263
S':'
asbag57
(g78
g59
NtRp264
(dp265
g62
(dp266
sg71
g251
sg64
(lp267
g57
(g58
g59
NtRp268
(dp269
g62
(dp270
g70
I4
ssg71
g264
sg64
(lp271
g57
(g66
g59
NtRp272
(dp273
g62
(dp274
g70
I3
ssg71
Nsg64
(lp275
g57
(g73
g59
NtRp276
(dp277
g62
(dp278
sg71
g272
sg64
(lp279
g57
(g78
g59
NtRp280
(dp281
g62
(dp282
g82
g83
ssg71
g276
sg64
(lp283
S'comment'
p284
asbag57
(g78
g59
NtRp285
(dp286
g62
(dp287
g89
g90
ssg71
g276
sg64
(lp288
S':'
asbag57
(g78
g59
NtRp289
(dp290
g62
(dp291
sg71
g276
sg64
(lp292
g57
(g58
g59
NtRp293
(dp294
g62
(dp295
g70
I3
ssg71
g289
sg64
(lp296
S''
asbasbasbag57
(g73
g59
NtRp297
(dp298
g62
(dp299
sg71
g272
sg64
(lp300
g57
(g78
g59
NtRp301
(dp302
g62
(dp303
g82
g83
ssg71
g297
sg64
(lp304
S'domain'
p305
asbag57
(g78
g59
NtRp306
(dp307
g62
(dp308
g89
g90
ssg71
g297
sg64
(lp309
S':'
asbag57
(g78
g59
NtRp310
(dp311
g62
(dp312
sg71
g297
sg64
(lp313
g57
(g58
g59
NtRp314
(dp315
g62
(dp316
g70
I3
ssg71
g310
sg64
(lp317
S''
asbasbasbag57
(g73
g59
NtRp318
(dp319
g62
(dp320
sg71
g272
sg64
(lp321
g57
(g78
g59
NtRp322
(dp323
g62
(dp324
g82
g83
ssg71
g318
sg64
(lp325
S'expires'
p326
asbag57
(g78
g59
NtRp327
(dp328
g62
(dp329
g89
g90
ssg71
g318
sg64
(lp330
S':'
asbag57
(g78
g59
NtRp331
(dp332
g62
(dp333
sg71
g318
sg64
(lp334
g57
(g58
g59
NtRp335
(dp336
g62
(dp337
g70
I3
ssg71
g331
sg64
(lp338
S''
asbasbasbag57
(g73
g59
NtRp339
(dp340
g62
(dp341
sg71
g272
sg64
(lp342
g57
(g78
g59
NtRp343
(dp344
g62
(dp345
g82
g83
ssg71
g339
sg64
(lp346
S'httponly'
p347
asbag57
(g78
g59
NtRp348
(dp349
g62
(dp350
g89
g90
ssg71
g339
sg64
(lp351
S':'
asbag57
(g78
g59
NtRp352
(dp353
g62
(dp354
sg71
g339
sg64
(lp355
g57
(g58
g59
NtRp356
(dp357
g62
(dp358
g70
I3
ssg71
g352
sg64
(lp359
S''
asbasbasbag57
(g73
g59
NtRp360
(dp361
g62
(dp362
sg71
g272
sg64
(lp363
g57
(g78
g59
NtRp364
(dp365
g62
(dp366
g82
g83
ssg71
g360
sg64
(lp367
S'max-age'
p368
asbag57
(g78
g59
NtRp369
(dp370
g62
(dp371
g89
g90
ssg71
g360
sg64
(lp372
S':'
asbag57
(g78
g59
NtRp373
(dp374
g62
(dp375
sg71
g360
sg64
(lp376
g57
(g58
g59
NtRp377
(dp378
g62
(dp379
g70
I3
ssg71
g373
sg64
(lp380
S''
asbasbasbag57
(g73
g59
NtRp381
(dp382
g62
(dp383
sg71
g272
sg64
(lp384
g57
(g78
g59
NtRp385
(dp386
g62
(dp387
g82
g83
ssg71
g381
sg64
(lp388
S'path'
p389
asbag57
(g78
g59
NtRp390
(dp391
g62
(dp392
g89
g90
ssg71
g381
sg64
(lp393
S':'
asbag57
(g78
g59
NtRp394
(dp395
g62
(dp396
sg71
g381
sg64
(lp397
g57
(g58
g59
NtRp398
(dp399
g62
(dp400
g70
I3
ssg71
g394
sg64
(lp401
S''
asbasbasbag57
(g73
g59
NtRp402
(dp403
g62
(dp404
sg71
g272
sg64
(lp405
g57
(g78
g59
NtRp406
(dp407
g62
(dp408
g82
g83
ssg71
g402
sg64
(lp409
S'secure'
p410
asbag57
(g78
g59
NtRp411
(dp412
g62
(dp413
g89
g90
ssg71
g402
sg64
(lp414
S':'
asbag57
(g78
g59
NtRp415
(dp416
g62
(dp417
sg71
g402
sg64
(lp418
g57
(g58
g59
NtRp419
(dp420
g62
(dp421
g70
I3
ssg71
g415
sg64
(lp422
S''
asbasbasbag57
(g73
g59
NtRp423
(dp424
g62
(dp425
sg71
g272
sg64
(lp426
g57
(g78
g59
NtRp427
(dp428
g62
(dp429
g82
g83
ssg71
g423
sg64
(lp430
S'version'
p431
asbag57
(g78
g59
NtRp432
(dp433
g62
(dp434
g89
g90
ssg71
g423
sg64
(lp435
S':'
asbag57
(g78
g59
NtRp436
(dp437
g62
(dp438
sg71
g423
sg64
(lp439
g57
(g58
g59
NtRp440
(dp441
g62
(dp442
g70
I3
ssg71
g436
sg64
(lp443
S''
asbasbasbasbasbasbasbag57
(g73
g59
NtRp444
(dp445
g62
(dp446
sg71
g247
sg64
(lp447
g57
(g78
g59
NtRp448
(dp449
g62
(dp450
g82
g83
ssg71
g444
sg64
(lp451
S'session_id_flisol2012'
p452
asbag57
(g78
g59
NtRp453
(dp454
g62
(dp455
g89
g90
ssg71
g444
sg64
(lp456
S':'
asbag57
(g78
g59
NtRp457
(dp458
g62
(dp459
sg71
g444
sg64
(lp460
g57
(g58
g59
NtRp461
(dp462
g62
(dp463
g70
I4
ssg71
g457
sg64
(lp464
g57
(g66
g59
NtRp465
(dp466
g62
(dp467
g70
I3
ssg71
Nsg64
(lp468
g57
(g73
g59
NtRp469
(dp470
g62
(dp471
sg71
g465
sg64
(lp472
g57
(g78
g59
NtRp473
(dp474
g62
(dp475
g82
g83
ssg71
g469
sg64
(lp476
g284
asbag57
(g78
g59
NtRp477
(dp478
g62
(dp479
g89
g90
ssg71
g469
sg64
(lp480
S':'
asbag57
(g78
g59
NtRp481
(dp482
g62
(dp483
sg71
g469
sg64
(lp484
g57
(g58
g59
NtRp485
(dp486
g62
(dp487
g70
I3
ssg71
g481
sg64
(lp488
S''
asbasbasbag57
(g73
g59
NtRp489
(dp490
g62
(dp491
sg71
g465
sg64
(lp492
g57
(g78
g59
NtRp493
(dp494
g62
(dp495
g82
g83
ssg71
g489
sg64
(lp496
g305
asbag57
(g78
g59
NtRp497
(dp498
g62
(dp499
g89
g90
ssg71
g489
sg64
(lp500
S':'
asbag57
(g78
g59
NtRp501
(dp502
g62
(dp503
sg71
g489
sg64
(lp504
g57
(g58
g59
NtRp505
(dp506
g62
(dp507
g70
I3
ssg71
g501
sg64
(lp508
S''
asbasbasbag57
(g73
g59
NtRp509
(dp510
g62
(dp511
sg71
g465
sg64
(lp512
g57
(g78
g59
NtRp513
(dp514
g62
(dp515
g82
g83
ssg71
g509
sg64
(lp516
g326
asbag57
(g78
g59
NtRp517
(dp518
g62
(dp519
g89
g90
ssg71
g509
sg64
(lp520
S':'
asbag57
(g78
g59
NtRp521
(dp522
g62
(dp523
sg71
g509
sg64
(lp524
g57
(g58
g59
NtRp525
(dp526
g62
(dp527
g70
I3
ssg71
g521
sg64
(lp528
S''
asbasbasbag57
(g73
g59
NtRp529
(dp530
g62
(dp531
sg71
g465
sg64
(lp532
g57
(g78
g59
NtRp533
(dp534
g62
(dp535
g82
g83
ssg71
g529
sg64
(lp536
g347
asbag57
(g78
g59
NtRp537
(dp538
g62
(dp539
g89
g90
ssg71
g529
sg64
(lp540
S':'
asbag57
(g78
g59
NtRp541
(dp542
g62
(dp543
sg71
g529
sg64
(lp544
g57
(g58
g59
NtRp545
(dp546
g62
(dp547
g70
I3
ssg71
g541
sg64
(lp548
S''
asbasbasbag57
(g73
g59
NtRp549
(dp550
g62
(dp551
sg71
g465
sg64
(lp552
g57
(g78
g59
NtRp553
(dp554
g62
(dp555
g82
g83
ssg71
g549
sg64
(lp556
g368
asbag57
(g78
g59
NtRp557
(dp558
g62
(dp559
g89
g90
ssg71
g549
sg64
(lp560
S':'
asbag57
(g78
g59
NtRp561
(dp562
g62
(dp563
sg71
g549
sg64
(lp564
g57
(g58
g59
NtRp565
(dp566
g62
(dp567
g70
I3
ssg71
g561
sg64
(lp568
S''
asbasbasbag57
(g73
g59
NtRp569
(dp570
g62
(dp571
sg71
g465
sg64
(lp572
g57
(g78
g59
NtRp573
(dp574
g62
(dp575
g82
g83
ssg71
g569
sg64
(lp576
g389
asbag57
(g78
g59
NtRp577
(dp578
g62
(dp579
g89
g90
ssg71
g569
sg64
(lp580
S':'
asbag57
(g78
g59
NtRp581
(dp582
g62
(dp583
sg71
g569
sg64
(lp584
g57
(g58
g59
NtRp585
(dp586
g62
(dp587
g70
I3
ssg71
g581
sg64
(lp588
S''
asbasbasbag57
(g73
g59
NtRp589
(dp590
g62
(dp591
sg71
g465
sg64
(lp592
g57
(g78
g59
NtRp593
(dp594
g62
(dp595
g82
g83
ssg71
g589
sg64
(lp596
g410
asbag57
(g78
g59
NtRp597
(dp598
g62
(dp599
g89
g90
ssg71
g589
sg64
(lp600
S':'
asbag57
(g78
g59
NtRp601
(dp602
g62
(dp603
sg71
g589
sg64
(lp604
g57
(g58
g59
NtRp605
(dp606
g62
(dp607
g70
I3
ssg71
g601
sg64
(lp608
S''
asbasbasbag57
(g73
g59
NtRp609
(dp610
g62
(dp611
sg71
g465
sg64
(lp612
g57
(g78
g59
NtRp613
(dp614
g62
(dp615
g82
g83
ssg71
g609
sg64
(lp616
g431
asbag57
(g78
g59
NtRp617
(dp618
g62
(dp619
g89
g90
ssg71
g609
sg64
(lp620
S':'
asbag57
(g78
g59
NtRp621
(dp622
g62
(dp623
sg71
g609
sg64
(lp624
g57
(g58
g59
NtRp625
(dp626
g62
(dp627
g70
I3
ssg71
g621
sg64
(lp628
S''
asbasbasbasbasbasbasbag57
(g73
g59
NtRp629
(dp630
g62
(dp631
sg71
g247
sg64
(lp632
g57
(g78
g59
NtRp633
(dp634
g62
(dp635
g82
g83
ssg71
g629
sg64
(lp636
S'session_id_reingart'
p637
asbag57
(g78
g59
NtRp638
(dp639
g62
(dp640
g89
g90
ssg71
g629
sg64
(lp641
S':'
asbag57
(g78
g59
NtRp642
(dp643
g62
(dp644
sg71
g629
sg64
(lp645
g57
(g58
g59
NtRp646
(dp647
g62
(dp648
g70
I4
ssg71
g642
sg64
(lp649
g57
(g66
g59
NtRp650
(dp651
g62
(dp652
g70
I3
ssg71
Nsg64
(lp653
g57
(g73
g59
NtRp654
(dp655
g62
(dp656
sg71
g650
sg64
(lp657
g57
(g78
g59
NtRp658
(dp659
g62
(dp660
g82
g83
ssg71
g654
sg64
(lp661
g284
asbag57
(g78
g59
NtRp662
(dp663
g62
(dp664
g89
g90
ssg71
g654
sg64
(lp665
S':'
asbag57
(g78
g59
NtRp666
(dp667
g62
(dp668
sg71
g654
sg64
(lp669
g57
(g58
g59
NtRp670
(dp671
g62
(dp672
g70
I3
ssg71
g666
sg64
(lp673
S''
asbasbasbag57
(g73
g59
NtRp674
(dp675
g62
(dp676
sg71
g650
sg64
(lp677
g57
(g78
g59
NtRp678
(dp679
g62
(dp680
g82
g83
ssg71
g674
sg64
(lp681
g305
asbag57
(g78
g59
NtRp682
(dp683
g62
(dp684
g89
g90
ssg71
g674
sg64
(lp685
S':'
asbag57
(g78
g59
NtRp686
(dp687
g62
(dp688
sg71
g674
sg64
(lp689
g57
(g58
g59
NtRp690
(dp691
g62
(dp692
g70
I3
ssg71
g686
sg64
(lp693
S''
asbasbasbag57
(g73
g59
NtRp694
(dp695
g62
(dp696
sg71
g650
sg64
(lp697
g57
(g78
g59
NtRp698
(dp699
g62
(dp700
g82
g83
ssg71
g694
sg64
(lp701
g326
asbag57
(g78
g59
NtRp702
(dp703
g62
(dp704
g89
g90
ssg71
g694
sg64
(lp705
S':'
asbag57
(g78
g59
NtRp706
(dp707
g62
(dp708
sg71
g694
sg64
(lp709
g57
(g58
g59
NtRp710
(dp711
g62
(dp712
g70
I3
ssg71
g706
sg64
(lp713
S''
asbasbasbag57
(g73
g59
NtRp714
(dp715
g62
(dp716
sg71
g650
sg64
(lp717
g57
(g78
g59
NtRp718
(dp719
g62
(dp720
g82
g83
ssg71
g714
sg64
(lp721
g347
asbag57
(g78
g59
NtRp722
(dp723
g62
(dp724
g89
g90
ssg71
g714
sg64
(lp725
S':'
asbag57
(g78
g59
NtRp726
(dp727
g62
(dp728
sg71
g714
sg64
(lp729
g57
(g58
g59
NtRp730
(dp731
g62
(dp732
g70
I3
ssg71
g726
sg64
(lp733
S''
asbasbasbag57
(g73
g59
NtRp734
(dp735
g62
(dp736
sg71
g650
sg64
(lp737
g57
(g78
g59
NtRp738
(dp739
g62
(dp740
g82
g83
ssg71
g734
sg64
(lp741
g368
asbag57
(g78
g59
NtRp742
(dp743
g62
(dp744
g89
g90
ssg71
g734
sg64
(lp745
S':'
asbag57
(g78
g59
NtRp746
(dp747
g62
(dp748
sg71
g734
sg64
(lp749
g57
(g58
g59
NtRp750
(dp751
g62
(dp752
g70
I3
ssg71
g746
sg64
(lp753
S''
asbasbasbag57
(g73
g59
NtRp754
(dp755
g62
(dp756
sg71
g650
sg64
(lp757
g57
(g78
g59
NtRp758
(dp759
g62
(dp760
g82
g83
ssg71
g754
sg64
(lp761
g389
asbag57
(g78
g59
NtRp762
(dp763
g62
(dp764
g89
g90
ssg71
g754
sg64
(lp765
S':'
asbag57
(g78
g59
NtRp766
(dp767
g62
(dp768
sg71
g754
sg64
(lp769
g57
(g58
g59
NtRp770
(dp771
g62
(dp772
g70
I3
ssg71
g766
sg64
(lp773
S''
asbasbasbag57
(g73
g59
NtRp774
(dp775
g62
(dp776
sg71
g650
sg64
(lp777
g57
(g78
g59
NtRp778
(dp779
g62
(dp780
g82
g83
ssg71
g774
sg64
(lp781
g410
asbag57
(g78
g59
NtRp782
(dp783
g62
(dp784
g89
g90
ssg71
g774
sg64
(lp785
S':'
asbag57
(g78
g59
NtRp786
(dp787
g62
(dp788
sg71
g774
sg64
(lp789
g57
(g58
g59
NtRp790
(dp791
g62
(dp792
g70
I3
ssg71
g786
sg64
(lp793
S''
asbasbasbag57
(g73
g59
NtRp794
(dp795
g62
(dp796
sg71
g650
sg64
(lp797
g57
(g78
g59
NtRp798
(dp799
g62
(dp800
g82
g83
ssg71
g794
sg64
(lp801
g431
asbag57
(g78
g59
NtRp802
(dp803
g62
(dp804
g89
g90
ssg71
g794
sg64
(lp805
S':'
asbag57
(g78
g59
NtRp806
(dp807
g62
(dp808
sg71
g794
sg64
(lp809
g57
(g58
g59
NtRp810
(dp811
g62
(dp812
g70
I3
ssg71
g806
sg64
(lp813
S''
asbasbasbasbasbasbasbag57
(g73
g59
NtRp814
(dp815
g62
(dp816
sg71
g247
sg64
(lp817
g57
(g78
g59
NtRp818
(dp819
g62
(dp820
g82
g83
ssg71
g814
sg64
(lp821
S'session_id_welcome'
p822
asbag57
(g78
g59
NtRp823
(dp824
g62
(dp825
g89
g90
ssg71
g814
sg64
(lp826
S':'
asbag57
(g78
g59
NtRp827
(dp828
g62
(dp829
sg71
g814
sg64
(lp830
g57
(g58
g59
NtRp831
(dp832
g62
(dp833
g70
I4
ssg71
g827
sg64
(lp834
g57
(g66
g59
NtRp835
(dp836
g62
(dp837
g70
I3
ssg71
Nsg64
(lp838
g57
(g73
g59
NtRp839
(dp840
g62
(dp841
sg71
g835
sg64
(lp842
g57
(g78
g59
NtRp843
(dp844
g62
(dp845
g82
g83
ssg71
g839
sg64
(lp846
g284
asbag57
(g78
g59
NtRp847
(dp848
g62
(dp849
g89
g90
ssg71
g839
sg64
(lp850
S':'
asbag57
(g78
g59
NtRp851
(dp852
g62
(dp853
sg71
g839
sg64
(lp854
g57
(g58
g59
NtRp855
(dp856
g62
(dp857
g70
I3
ssg71
g851
sg64
(lp858
S''
asbasbasbag57
(g73
g59
NtRp859
(dp860
g62
(dp861
sg71
g835
sg64
(lp862
g57
(g78
g59
NtRp863
(dp864
g62
(dp865
g82
g83
ssg71
g859
sg64
(lp866
g305
asbag57
(g78
g59
NtRp867
(dp868
g62
(dp869
g89
g90
ssg71
g859
sg64
(lp870
S':'
asbag57
(g78
g59
NtRp871
(dp872
g62
(dp873
sg71
g859
sg64
(lp874
g57
(g58
g59
NtRp875
(dp876
g62
(dp877
g70
I3
ssg71
g871
sg64
(lp878
S''
asbasbasbag57
(g73
g59
NtRp879
(dp880
g62
(dp881
sg71
g835
sg64
(lp882
g57
(g78
g59
NtRp883
(dp884
g62
(dp885
g82
g83
ssg71
g879
sg64
(lp886
g326
asbag57
(g78
g59
NtRp887
(dp888
g62
(dp889
g89
g90
ssg71
g879
sg64
(lp890
S':'
asbag57
(g78
g59
NtRp891
(dp892
g62
(dp893
sg71
g879
sg64
(lp894
g57
(g58
g59
NtRp895
(dp896
g62
(dp897
g70
I3
ssg71
g891
sg64
(lp898
S''
asbasbasbag57
(g73
g59
NtRp899
(dp900
g62
(dp901
sg71
g835
sg64
(lp902
g57
(g78
g59
NtRp903
(dp904
g62
(dp905
g82
g83
ssg71
g899
sg64
(lp906
g347
asbag57
(g78
g59
NtRp907
(dp908
g62
(dp909
g89
g90
ssg71
g899
sg64
(lp910
S':'
asbag57
(g78
g59
NtRp911
(dp912
g62
(dp913
sg71
g899
sg64
(lp914
g57
(g58
g59
NtRp915
(dp916
g62
(dp917
g70
I3
ssg71
g911
sg64
(lp918
S''
asbasbasbag57
(g73
g59
NtRp919
(dp920
g62
(dp921
sg71
g835
sg64
(lp922
g57
(g78
g59
NtRp923
(dp924
g62
(dp925
g82
g83
ssg71
g919
sg64
(lp926
g368
asbag57
(g78
g59
NtRp927
(dp928
g62
(dp929
g89
g90
ssg71
g919
sg64
(lp930
S':'
asbag57
(g78
g59
NtRp931
(dp932
g62
(dp933
sg71
g919
sg64
(lp934
g57
(g58
g59
NtRp935
(dp936
g62
(dp937
g70
I3
ssg71
g931
sg64
(lp938
S''
asbasbasbag57
(g73
g59
NtRp939
(dp940
g62
(dp941
sg71
g835
sg64
(lp942
g57
(g78
g59
NtRp943
(dp944
g62
(dp945
g82
g83
ssg71
g939
sg64
(lp946
g389
asbag57
(g78
g59
NtRp947
(dp948
g62
(dp949
g89
g90
ssg71
g939
sg64
(lp950
S':'
asbag57
(g78
g59
NtRp951
(dp952
g62
(dp953
sg71
g939
sg64
(lp954
g57
(g58
g59
NtRp955
(dp956
g62
(dp957
g70
I3
ssg71
g951
sg64
(lp958
S''
asbasbasbag57
(g73
g59
NtRp959
(dp960
g62
(dp961
sg71
g835
sg64
(lp962
g57
(g78
g59
NtRp963
(dp964
g62
(dp965
g82
g83
ssg71
g959
sg64
(lp966
g410
asbag57
(g78
g59
NtRp967
(dp968
g62
(dp969
g89
g90
ssg71
g959
sg64
(lp970
S':'
asbag57
(g78
g59
NtRp971
(dp972
g62
(dp973
sg71
g959
sg64
(lp974
g57
(g58
g59
NtRp975
(dp976
g62
(dp977
g70
I3
ssg71
g971
sg64
(lp978
S''
asbasbasbag57
(g73
g59
NtRp979
(dp980
g62
(dp981
sg71
g835
sg64
(lp982
g57
(g78
g59
NtRp983
(dp984
g62
(dp985
g82
g83
ssg71
g979
sg64
(lp986
g431
asbag57
(g78
g59
NtRp987
(dp988
g62
(dp989
g89
g90
ssg71
g979
sg64
(lp990
S':'
asbag57
(g78
g59
NtRp991
(dp992
g62
(dp993
sg71
g979
sg64
(lp994
g57
(g58
g59
NtRp995
(dp996
g62
(dp997
g70
I3
ssg71
g991
sg64
(lp998
S''
asbasbasbasbasbasbasbasbasbasbasbag57
(g73
g59
NtRp999
(dp1000
g62
(dp1001
sg71
g67
sg64
(lp1002
g57
(g78
g59
NtRp1003
(dp1004
g62
(dp1005
g82
g83
ssg71
g999
sg64
(lp1006
S'env'
p1007
asbag57
(g78
g59
NtRp1008
(dp1009
g62
(dp1010
g89
g90
ssg71
g999
sg64
(lp1011
S':'
asbag57
(g78
g59
NtRp1012
(dp1013
g62
(dp1014
sg71
g999
sg64
(lp1015
g57
(g58
g59
NtRp1016
(dp1017
g62
(dp1018
g70
I5
ssg71
g1012
sg64
(lp1019
g57
(g66
g59
NtRp1020
(dp1021
g62
(dp1022
g70
I4
ssg71
Nsg64
(lp1023
g57
(g73
g59
NtRp1024
(dp1025
g62
(dp1026
sg71
g1020
sg64
(lp1027
g57
(g78
g59
NtRp1028
(dp1029
g62
(dp1030
g82
g83
ssg71
g1024
sg64
(lp1031
S'app_folders'
p1032
asbag57
(g78
g59
NtRp1033
(dp1034
g62
(dp1035
g89
g90
ssg71
g1024
sg64
(lp1036
S':'
asbag57
(g78
g59
NtRp1037
(dp1038
g62
(dp1039
sg71
g1024
sg64
(lp1040
g57
(g58
g59
NtRp1041
(dp1042
g62
(dp1043
g70
I4
ssg71
g1037
sg64
(lp1044
S"set(['/home/marco/flisol2012/web2py/applications/welcome/', '/home/marco/flisol2012/web2py/applications/flisol2012/', '/home/marco/flisol2012/web2py/applications/admin/'])"
p1045
asbasbasbag57
(g73
g59
NtRp1046
(dp1047
g62
(dp1048
sg71
g1020
sg64
(lp1049
g57
(g78
g59
NtRp1050
(dp1051
g62
(dp1052
g82
g83
ssg71
g1046
sg64
(lp1053
S'applications_parent'
p1054
asbag57
(g78
g59
NtRp1055
(dp1056
g62
(dp1057
g89
g90
ssg71
g1046
sg64
(lp1058
S':'
asbag57
(g78
g59
NtRp1059
(dp1060
g62
(dp1061
sg71
g1046
sg64
(lp1062
g57
(g58
g59
NtRp1063
(dp1064
g62
(dp1065
g70
I4
ssg71
g1059
sg64
(lp1066
S'/home/marco/flisol2012/web2py'
p1067
asbasbasbag57
(g73
g59
NtRp1068
(dp1069
g62
(dp1070
sg71
g1020
sg64
(lp1071
g57
(g78
g59
NtRp1072
(dp1073
g62
(dp1074
g82
g83
ssg71
g1068
sg64
(lp1075
S'cmd_args'
p1076
asbag57
(g78
g59
NtRp1077
(dp1078
g62
(dp1079
g89
g90
ssg71
g1068
sg64
(lp1080
S':'
asbag57
(g78
g59
NtRp1081
(dp1082
g62
(dp1083
sg71
g1068
sg64
(lp1084
g57
(g58
g59
NtRp1085
(dp1086
g62
(dp1087
g70
I4
ssg71
g1081
sg64
(lp1088
g57
(g66
g59
NtRp1089
(dp1090
g62
(dp1091
g70
I3
ssg71
Nsg64
(lp1092
sbasbasbasbag57
(g73
g59
NtRp1093
(dp1094
g62
(dp1095
sg71
g1020
sg64
(lp1096
g57
(g78
g59
NtRp1097
(dp1098
g62
(dp1099
g82
g83
ssg71
g1093
sg64
(lp1100
S'cmd_options'
p1101
asbag57
(g78
g59
NtRp1102
(dp1103
g62
(dp1104
g89
g90
ssg71
g1093
sg64
(lp1105
S':'
asbag57
(g78
g59
NtRp1106
(dp1107
g62
(dp1108
sg71
g1093
sg64
(lp1109
g57
(g58
g59
NtRp1110
(dp1111
g62
(dp1112
g70
I4
ssg71
g1106
sg64
(lp1113
S"<Values at 0x1bd6908: {'verbose': False, 'ip': '127.0.0.1', 'shutdown_timeout': 5, 'taskbar': False, 'nocron': False, 'pid_filename': 'httpserver.pid', 'maxthreads': None, 'softcron': False, 'server_name': 'malena', 'bpython': False, 'nogui': False, 'port': 8000, 'extcron': False, 'debuglevel': 30, 'test': None, 'folder': '/home/marco/flisol2012/web2py', 'config': '', 'import_models': False, 'winservice': '', 'shell': None, 'run': '', 'log_filename': 'httpserver.log', 'args': [''], 'socket_timeout': 5, 'ssl_ca_certificate': None, 'scheduler': None, 'profiler_filename': None, 'ssl_private_key': '', 'password': 'asd', 'request_queue_size': 5, 'ssl_certificate': '', 'cronjob': False, 'numthreads': None, 'quiet': False, 'interfaces': None, 'minthreads': None, 'timeout': 10, 'plain': False, 'nobanner': False}>"
p1114
asbasbasbag57
(g73
g59
NtRp1115
(dp1116
g62
(dp1117
sg71
g1020
sg64
(lp1118
g57
(g78
g59
NtRp1119
(dp1120
g62
(dp1121
g82
g83
ssg71
g1115
sg64
(lp1122
S'db_sessions'
p1123
asbag57
(g78
g59
NtRp1124
(dp1125
g62
(dp1126
g89
g90
ssg71
g1115
sg64
(lp1127
S':'
asbag57
(g78
g59
NtRp1128
(dp1129
g62
(dp1130
sg71
g1115
sg64
(lp1131
g57
(g58
g59
NtRp1132
(dp1133
g62
(dp1134
g70
I4
ssg71
g1128
sg64
(lp1135
S'set([])'
p1136
asbasbasbag57
(g73
g59
NtRp1137
(dp1138
g62
(dp1139
sg71
g1020
sg64
(lp1140
g57
(g78
g59
NtRp1141
(dp1142
g62
(dp1143
g82
g83
ssg71
g1137
sg64
(lp1144
S'debugging'
p1145
asbag57
(g78
g59
NtRp1146
(dp1147
g62
(dp1148
g89
g90
ssg71
g1137
sg64
(lp1149
S':'
asbag57
(g78
g59
NtRp1150
(dp1151
g62
(dp1152
sg71
g1137
sg64
(lp1153
g57
(g58
g59
NtRp1154
(dp1155
g62
(dp1156
g70
I4
ssg71
g1150
sg64
(lp1157
g100
asbasbasbag57
(g73
g59
NtRp1158
(dp1159
g62
(dp1160
sg71
g1020
sg64
(lp1161
g57
(g78
g59
NtRp1162
(dp1163
g62
(dp1164
g82
g83
ssg71
g1158
sg64
(lp1165
S'gluon_parent'
p1166
asbag57
(g78
g59
NtRp1167
(dp1168
g62
(dp1169
g89
g90
ssg71
g1158
sg64
(lp1170
S':'
asbag57
(g78
g59
NtRp1171
(dp1172
g62
(dp1173
sg71
g1158
sg64
(lp1174
g57
(g58
g59
NtRp1175
(dp1176
g62
(dp1177
g70
I4
ssg71
g1171
sg64
(lp1178
S'/home/marco/flisol2012/web2py'
p1179
asbasbasbag57
(g73
g59
NtRp1180
(dp1181
g62
(dp1182
sg71
g1020
sg64
(lp1183
g57
(g78
g59
NtRp1184
(dp1185
g62
(dp1186
g82
g83
ssg71
g1180
sg64
(lp1187
S'http_accept'
p1188
asbag57
(g78
g59
NtRp1189
(dp1190
g62
(dp1191
g89
g90
ssg71
g1180
sg64
(lp1192
S':'
asbag57
(g78
g59
NtRp1193
(dp1194
g62
(dp1195
sg71
g1180
sg64
(lp1196
g57
(g58
g59
NtRp1197
(dp1198
g62
(dp1199
g70
I4
ssg71
g1193
sg64
(lp1200
S'text/html,application/xhtml+xml,application/xml;q=0.9,*/*;q=0.8'
p1201
asbasbasbag57
(g73
g59
NtRp1202
(dp1203
g62
(dp1204
sg71
g1020
sg64
(lp1205
g57
(g78
g59
NtRp1206
(dp1207
g62
(dp1208
g82
g83
ssg71
g1202
sg64
(lp1209
S'http_accept_encoding'
p1210
asbag57
(g78
g59
NtRp1211
(dp1212
g62
(dp1213
g89
g90
ssg71
g1202
sg64
(lp1214
S':'
asbag57
(g78
g59
NtRp1215
(dp1216
g62
(dp1217
sg71
g1202
sg64
(lp1218
g57
(g58
g59
NtRp1219
(dp1220
g62
(dp1221
g70
I4
ssg71
g1215
sg64
(lp1222
S'gzip, deflate'
p1223
asbasbasbag57
(g73
g59
NtRp1224
(dp1225
g62
(dp1226
sg71
g1020
sg64
(lp1227
g57
(g78
g59
NtRp1228
(dp1229
g62
(dp1230
g82
g83
ssg71
g1224
sg64
(lp1231
S'http_accept_language'
p1232
asbag57
(g78
g59
NtRp1233
(dp1234
g62
(dp1235
g89
g90
ssg71
g1224
sg64
(lp1236
S':'
asbag57
(g78
g59
NtRp1237
(dp1238
g62
(dp1239
sg71
g1224
sg64
(lp1240
g57
(g58
g59
NtRp1241
(dp1242
g62
(dp1243
g70
I4
ssg71
g1237
sg64
(lp1244
S'es-ar,es;q=0.8,en-us;q=0.5,en;q=0.3'
p1245
asbasbasbag57
(g73
g59
NtRp1246
(dp1247
g62
(dp1248
sg71
g1020
sg64
(lp1249
g57
(g78
g59
NtRp1250
(dp1251
g62
(dp1252
g82
g83
ssg71
g1246
sg64
(lp1253
S'http_connection'
p1254
asbag57
(g78
g59
NtRp1255
(dp1256
g62
(dp1257
g89
g90
ssg71
g1246
sg64
(lp1258
S':'
asbag57
(g78
g59
NtRp1259
(dp1260
g62
(dp1261
sg71
g1246
sg64
(lp1262
g57
(g58
g59
NtRp1263
(dp1264
g62
(dp1265
g70
I4
ssg71
g1259
sg64
(lp1266
S'keep-alive'
p1267
asbasbasbag57
(g73
g59
NtRp1268
(dp1269
g62
(dp1270
sg71
g1020
sg64
(lp1271
g57
(g78
g59
NtRp1272
(dp1273
g62
(dp1274
g82
g83
ssg71
g1268
sg64
(lp1275
S'http_cookie'
p1276
asbag57
(g78
g59
NtRp1277
(dp1278
g62
(dp1279
g89
g90
ssg71
g1268
sg64
(lp1280
S':'
asbag57
(g78
g59
NtRp1281
(dp1282
g62
(dp1283
sg71
g1268
sg64
(lp1284
g57
(g58
g59
NtRp1285
(dp1286
g62
(dp1287
g70
I4
ssg71
g1281
sg64
(lp1288
S'__utma=96992031.1881515701.1331265087.1331309329.1331316385.4; __utmc=96992031; __utmz=96992031.1331265087.1.1.utmcsr=(direct)|utmccn=(direct)|utmcmd=(none); session_id_admin=127.0.0.1-9f819232-d34d-431b-a66d-efef7821a17b; session_id_reingart=127.0.0.1-c638efce-62e3-46b3-bb1a-e04405c01702; session_id_flisol2012=127.0.0.1-2ede3a58-f97e-48e1-8d0e-90e5ecfe16bf; __utmb=96992031.125.10.1331316385; session_id_welcome=127.0.0.1-d9714dec-041d-4a2a-a113-75a39351e0db'
p1289
asbasbasbag57
(g73
g59
NtRp1290
(dp1291
g62
(dp1292
sg71
g1020
sg64
(lp1293
g57
(g78
g59
NtRp1294
(dp1295
g62
(dp1296
g82
g83
ssg71
g1290
sg64
(lp1297
S'http_host'
p1298
asbag57
(g78
g59
NtRp1299
(dp1300
g62
(dp1301
g89
g90
ssg71
g1290
sg64
(lp1302
S':'
asbag57
(g78
g59
NtRp1303
(dp1304
g62
(dp1305
sg71
g1290
sg64
(lp1306
g57
(g58
g59
NtRp1307
(dp1308
g62
(dp1309
g70
I4
ssg71
g1303
sg64
(lp1310
S'127.0.0.1:8000'
p1311
asbasbasbag57
(g73
g59
NtRp1312
(dp1313
g62
(dp1314
sg71
g1020
sg64
(lp1315
g57
(g78
g59
NtRp1316
(dp1317
g62
(dp1318
g82
g83
ssg71
g1312
sg64
(lp1319
S'http_referer'
p1320
asbag57
(g78
g59
NtRp1321
(dp1322
g62
(dp1323
g89
g90
ssg71
g1312
sg64
(lp1324
S':'
asbag57
(g78
g59
NtRp1325
(dp1326
g62
(dp1327
sg71
g1312
sg64
(lp1328
g57
(g58
g59
NtRp1329
(dp1330
g62
(dp1331
g70
I4
ssg71
g1325
sg64
(lp1332
S'http://127.0.0.1:8000/flisol2012/default/create/t2_person'
p1333
asbasbasbag57
(g73
g59
NtRp1334
(dp1335
g62
(dp1336
sg71
g1020
sg64
(lp1337
g57
(g78
g59
NtRp1338
(dp1339
g62
(dp1340
g82
g83
ssg71
g1334
sg64
(lp1341
S'http_user_agent'
p1342
asbag57
(g78
g59
NtRp1343
(dp1344
g62
(dp1345
g89
g90
ssg71
g1334
sg64
(lp1346
S':'
asbag57
(g78
g59
NtRp1347
(dp1348
g62
(dp1349
sg71
g1334
sg64
(lp1350
g57
(g58
g59
NtRp1351
(dp1352
g62
(dp1353
g70
I4
ssg71
g1347
sg64
(lp1354
S'Mozilla/5.0 (X11; Linux x86_64; rv:11.0) Gecko/20100101 Firefox/11.0 Iceweasel/11.0'
p1355
asbasbasbag57
(g73
g59
NtRp1356
(dp1357
g62
(dp1358
sg71
g1020
sg64
(lp1359
g57
(g78
g59
NtRp1360
(dp1361
g62
(dp1362
g82
g83
ssg71
g1356
sg64
(lp1363
S'is_jython'
p1364
asbag57
(g78
g59
NtRp1365
(dp1366
g62
(dp1367
g89
g90
ssg71
g1356
sg64
(lp1368
S':'
asbag57
(g78
g59
NtRp1369
(dp1370
g62
(dp1371
sg71
g1356
sg64
(lp1372
g57
(g58
g59
NtRp1373
(dp1374
g62
(dp1375
g70
I4
ssg71
g1369
sg64
(lp1376
g100
asbasbasbag57
(g73
g59
NtRp1377
(dp1378
g62
(dp1379
sg71
g1020
sg64
(lp1380
g57
(g78
g59
NtRp1381
(dp1382
g62
(dp1383
g82
g83
ssg71
g1377
sg64
(lp1384
S'is_pypy'
p1385
asbag57
(g78
g59
NtRp1386
(dp1387
g62
(dp1388
g89
g90
ssg71
g1377
sg64
(lp1389
S':'
asbag57
(g78
g59
NtRp1390
(dp1391
g62
(dp1392
sg71
g1377
sg64
(lp1393
g57
(g58
g59
NtRp1394
(dp1395
g62
(dp1396
g70
I4
ssg71
g1390
sg64
(lp1397
g100
asbasbasbag57
(g73
g59
NtRp1398
(dp1399
g62
(dp1400
sg71
g1020
sg64
(lp1401
g57
(g78
g59
NtRp1402
(dp1403
g62
(dp1404
g82
g83
ssg71
g1398
sg64
(lp1405
S'path_info'
p1406
asbag57
(g78
g59
NtRp1407
(dp1408
g62
(dp1409
g89
g90
ssg71
g1398
sg64
(lp1410
S':'
asbag57
(g78
g59
NtRp1411
(dp1412
g62
(dp1413
sg71
g1398
sg64
(lp1414
g57
(g58
g59
NtRp1415
(dp1416
g62
(dp1417
g70
I4
ssg71
g1411
sg64
(lp1418
S'/flisol2012/default/create/fa'
p1419
asbasbasbag57
(g73
g59
NtRp1420
(dp1421
g62
(dp1422
sg71
g1020
sg64
(lp1423
g57
(g78
g59
NtRp1424
(dp1425
g62
(dp1426
g82
g83
ssg71
g1420
sg64
(lp1427
S'query_string'
p1428
asbag57
(g78
g59
NtRp1429
(dp1430
g62
(dp1431
g89
g90
ssg71
g1420
sg64
(lp1432
S':'
asbag57
(g78
g59
NtRp1433
(dp1434
g62
(dp1435
sg71
g1420
sg64
(lp1436
g57
(g58
g59
NtRp1437
(dp1438
g62
(dp1439
g70
I4
ssg71
g1433
sg64
(lp1440
S''
asbasbasbag57
(g73
g59
NtRp1441
(dp1442
g62
(dp1443
sg71
g1020
sg64
(lp1444
g57
(g78
g59
NtRp1445
(dp1446
g62
(dp1447
g82
g83
ssg71
g1441
sg64
(lp1448
S'remote_addr'
p1449
asbag57
(g78
g59
NtRp1450
(dp1451
g62
(dp1452
g89
g90
ssg71
g1441
sg64
(lp1453
S':'
asbag57
(g78
g59
NtRp1454
(dp1455
g62
(dp1456
sg71
g1441
sg64
(lp1457
g57
(g58
g59
NtRp1458
(dp1459
g62
(dp1460
g70
I4
ssg71
g1454
sg64
(lp1461
g203
asbasbasbag57
(g73
g59
NtRp1462
(dp1463
g62
(dp1464
sg71
g1020
sg64
(lp1465
g57
(g78
g59
NtRp1466
(dp1467
g62
(dp1468
g82
g83
ssg71
g1462
sg64
(lp1469
S'remote_port'
p1470
asbag57
(g78
g59
NtRp1471
(dp1472
g62
(dp1473
g89
g90
ssg71
g1462
sg64
(lp1474
S':'
asbag57
(g78
g59
NtRp1475
(dp1476
g62
(dp1477
sg71
g1462
sg64
(lp1478
g57
(g58
g59
NtRp1479
(dp1480
g62
(dp1481
g70
I4
ssg71
g1475
sg64
(lp1482
S'40758'
p1483
asbasbasbag57
(g73
g59
NtRp1484
(dp1485
g62
(dp1486
sg71
g1020
sg64
(lp1487
g57
(g78
g59
NtRp1488
(dp1489
g62
(dp1490
g82
g83
ssg71
g1484
sg64
(lp1491
S'request_method'
p1492
asbag57
(g78
g59
NtRp1493
(dp1494
g62
(dp1495
g89
g90
ssg71
g1484
sg64
(lp1496
S':'
asbag57
(g78
g59
NtRp1497
(dp1498
g62
(dp1499
sg71
g1484
sg64
(lp1500
g57
(g58
g59
NtRp1501
(dp1502
g62
(dp1503
g70
I4
ssg71
g1497
sg64
(lp1504
S'GET'
p1505
asbasbasbag57
(g73
g59
NtRp1506
(dp1507
g62
(dp1508
sg71
g1020
sg64
(lp1509
g57
(g78
g59
NtRp1510
(dp1511
g62
(dp1512
g82
g83
ssg71
g1506
sg64
(lp1513
S'script_name'
p1514
asbag57
(g78
g59
NtRp1515
(dp1516
g62
(dp1517
g89
g90
ssg71
g1506
sg64
(lp1518
S':'
asbag57
(g78
g59
NtRp1519
(dp1520
g62
(dp1521
sg71
g1506
sg64
(lp1522
g57
(g58
g59
NtRp1523
(dp1524
g62
(dp1525
g70
I4
ssg71
g1519
sg64
(lp1526
S''
asbasbasbag57
(g73
g59
NtRp1527
(dp1528
g62
(dp1529
sg71
g1020
sg64
(lp1530
g57
(g78
g59
NtRp1531
(dp1532
g62
(dp1533
g82
g83
ssg71
g1527
sg64
(lp1534
S'server_name'
p1535
asbag57
(g78
g59
NtRp1536
(dp1537
g62
(dp1538
g89
g90
ssg71
g1527
sg64
(lp1539
S':'
asbag57
(g78
g59
NtRp1540
(dp1541
g62
(dp1542
sg71
g1527
sg64
(lp1543
g57
(g58
g59
NtRp1544
(dp1545
g62
(dp1546
g70
I4
ssg71
g1540
sg64
(lp1547
S'malena'
p1548
asbasbasbag57
(g73
g59
NtRp1549
(dp1550
g62
(dp1551
sg71
g1020
sg64
(lp1552
g57
(g78
g59
NtRp1553
(dp1554
g62
(dp1555
g82
g83
ssg71
g1549
sg64
(lp1556
S'server_port'
p1557
asbag57
(g78
g59
NtRp1558
(dp1559
g62
(dp1560
g89
g90
ssg71
g1549
sg64
(lp1561
S':'
asbag57
(g78
g59
NtRp1562
(dp1563
g62
(dp1564
sg71
g1549
sg64
(lp1565
g57
(g58
g59
NtRp1566
(dp1567
g62
(dp1568
g70
I4
ssg71
g1562
sg64
(lp1569
S'8000'
p1570
asbasbasbag57
(g73
g59
NtRp1571
(dp1572
g62
(dp1573
sg71
g1020
sg64
(lp1574
g57
(g78
g59
NtRp1575
(dp1576
g62
(dp1577
g82
g83
ssg71
g1571
sg64
(lp1578
S'server_protocol'
p1579
asbag57
(g78
g59
NtRp1580
(dp1581
g62
(dp1582
g89
g90
ssg71
g1571
sg64
(lp1583
S':'
asbag57
(g78
g59
NtRp1584
(dp1585
g62
(dp1586
sg71
g1571
sg64
(lp1587
g57
(g58
g59
NtRp1588
(dp1589
g62
(dp1590
g70
I4
ssg71
g1584
sg64
(lp1591
S'HTTP/1.1'
p1592
asbasbasbag57
(g73
g59
NtRp1593
(dp1594
g62
(dp1595
sg71
g1020
sg64
(lp1596
g57
(g78
g59
NtRp1597
(dp1598
g62
(dp1599
g82
g83
ssg71
g1593
sg64
(lp1600
S'server_software'
p1601
asbag57
(g78
g59
NtRp1602
(dp1603
g62
(dp1604
g89
g90
ssg71
g1593
sg64
(lp1605
S':'
asbag57
(g78
g59
NtRp1606
(dp1607
g62
(dp1608
sg71
g1593
sg64
(lp1609
g57
(g58
g59
NtRp1610
(dp1611
g62
(dp1612
g70
I4
ssg71
g1606
sg64
(lp1613
S'Rocket 1.2.4'
p1614
asbasbasbag57
(g73
g59
NtRp1615
(dp1616
g62
(dp1617
sg71
g1020
sg64
(lp1618
g57
(g78
g59
NtRp1619
(dp1620
g62
(dp1621
g82
g83
ssg71
g1615
sg64
(lp1622
S'web2py_crontype'
p1623
asbag57
(g78
g59
NtRp1624
(dp1625
g62
(dp1626
g89
g90
ssg71
g1615
sg64
(lp1627
S':'
asbag57
(g78
g59
NtRp1628
(dp1629
g62
(dp1630
sg71
g1615
sg64
(lp1631
g57
(g58
g59
NtRp1632
(dp1633
g62
(dp1634
g70
I4
ssg71
g1628
sg64
(lp1635
S'hard'
p1636
asbasbasbag57
(g73
g59
NtRp1637
(dp1638
g62
(dp1639
sg71
g1020
sg64
(lp1640
g57
(g78
g59
NtRp1641
(dp1642
g62
(dp1643
g82
g83
ssg71
g1637
sg64
(lp1644
S'web2py_path'
p1645
asbag57
(g78
g59
NtRp1646
(dp1647
g62
(dp1648
g89
g90
ssg71
g1637
sg64
(lp1649
S':'
asbag57
(g78
g59
NtRp1650
(dp1651
g62
(dp1652
sg71
g1637
sg64
(lp1653
g57
(g58
g59
NtRp1654
(dp1655
g62
(dp1656
g70
I4
ssg71
g1650
sg64
(lp1657
g1067
asbasbasbag57
(g73
g59
NtRp1658
(dp1659
g62
(dp1660
sg71
g1020
sg64
(lp1661
g57
(g78
g59
NtRp1662
(dp1663
g62
(dp1664
g82
g83
ssg71
g1658
sg64
(lp1665
S'web2py_version'
p1666
asbag57
(g78
g59
NtRp1667
(dp1668
g62
(dp1669
g89
g90
ssg71
g1658
sg64
(lp1670
S':'
asbag57
(g78
g59
NtRp1671
(dp1672
g62
(dp1673
sg71
g1658
sg64
(lp1674
g57
(g58
g59
NtRp1675
(dp1676
g62
(dp1677
g70
I4
ssg71
g1671
sg64
(lp1678
g57
(g66
g59
NtRp1679
(dp1680
g62
(dp1681
g70
I3
ssg71
Nsg64
(lp1682
g57
(g73
g59
NtRp1683
(dp1684
g62
(dp1685
sg71
g1679
sg64
(lp1686
g57
(g78
g59
NtRp1687
(dp1688
g62
(dp1689
sg71
g1683
sg64
(lp1690
g57
(g58
g59
NtRp1691
(dp1692
g62
(dp1693
g70
I3
ssg71
g1687
sg64
(lp1694
S'1'
asbasbasbag57
(g73
g59
NtRp1695
(dp1696
g62
(dp1697
sg71
g1679
sg64
(lp1698
g57
(g78
g59
NtRp1699
(dp1700
g62
(dp1701
sg71
g1695
sg64
(lp1702
g57
(g58
g59
NtRp1703
(dp1704
g62
(dp1705
g70
I3
ssg71
g1699
sg64
(lp1706
S'99'
p1707
asbasbasbag57
(g73
g59
NtRp1708
(dp1709
g62
(dp1710
sg71
g1679
sg64
(lp1711
g57
(g78
g59
NtRp1712
(dp1713
g62
(dp1714
sg71
g1708
sg64
(lp1715
g57
(g58
g59
NtRp1716
(dp1717
g62
(dp1718
g70
I3
ssg71
g1712
sg64
(lp1719
S'7'
asbasbasbag57
(g73
g59
NtRp1720
(dp1721
g62
(dp1722
sg71
g1679
sg64
(lp1723
g57
(g78
g59
NtRp1724
(dp1725
g62
(dp1726
sg71
g1720
sg64
(lp1727
g57
(g58
g59
NtRp1728
(dp1729
g62
(dp1730
g70
I3
ssg71
g1724
sg64
(lp1731
S'datetime.datetime(2012, 3, 4, 22, 12, 8)'
p1732
asbasbasbag57
(g73
g59
NtRp1733
(dp1734
g62
(dp1735
sg71
g1679
sg64
(lp1736
g57
(g78
g59
NtRp1737
(dp1738
g62
(dp1739
sg71
g1733
sg64
(lp1740
g57
(g58
g59
NtRp1741
(dp1742
g62
(dp1743
g70
I3
ssg71
g1737
sg64
(lp1744
S'stable'
p1745
asbasbasbasbasbasbasbag57
(g73
g59
NtRp1746
(dp1747
g62
(dp1748
sg71
g1020
sg64
(lp1749
g57
(g78
g59
NtRp1750
(dp1751
g62
(dp1752
g82
g83
ssg71
g1746
sg64
(lp1753
S'wsgi_errors'
p1754
asbag57
(g78
g59
NtRp1755
(dp1756
g62
(dp1757
g89
g90
ssg71
g1746
sg64
(lp1758
S':'
asbag57
(g78
g59
NtRp1759
(dp1760
g62
(dp1761
sg71
g1746
sg64
(lp1762
g57
(g58
g59
NtRp1763
(dp1764
g62
(dp1765
g70
I4
ssg71
g1759
sg64
(lp1766
S"<open file '<stderr>', mode 'w' at 0x7f4f2366f270>"
p1767
asbasbasbag57
(g73
g59
NtRp1768
(dp1769
g62
(dp1770
sg71
g1020
sg64
(lp1771
g57
(g78
g59
NtRp1772
(dp1773
g62
(dp1774
g82
g83
ssg71
g1768
sg64
(lp1775
S'wsgi_file_wrapper'
p1776
asbag57
(g78
g59
NtRp1777
(dp1778
g62
(dp1779
g89
g90
ssg71
g1768
sg64
(lp1780
S':'
asbag57
(g78
g59
NtRp1781
(dp1782
g62
(dp1783
sg71
g1768
sg64
(lp1784
g57
(g58
g59
NtRp1785
(dp1786
g62
(dp1787
g70
I4
ssg71
g1781
sg64
(lp1788
S'<class wsgiref.util.FileWrapper at 0x1abc460>'
p1789
asbasbasbag57
(g73
g59
NtRp1790
(dp1791
g62
(dp1792
sg71
g1020
sg64
(lp1793
g57
(g78
g59
NtRp1794
(dp1795
g62
(dp1796
g82
g83
ssg71
g1790
sg64
(lp1797
S'wsgi_input'
p1798
asbag57
(g78
g59
NtRp1799
(dp1800
g62
(dp1801
g89
g90
ssg71
g1790
sg64
(lp1802
S':'
asbag57
(g78
g59
NtRp1803
(dp1804
g62
(dp1805
sg71
g1790
sg64
(lp1806
g57
(g58
g59
NtRp1807
(dp1808
g62
(dp1809
g70
I4
ssg71
g1803
sg64
(lp1810
S'<socket._fileobject object at 0x4e25350>'
p1811
asbasbasbag57
(g73
g59
NtRp1812
(dp1813
g62
(dp1814
sg71
g1020
sg64
(lp1815
g57
(g78
g59
NtRp1816
(dp1817
g62
(dp1818
g82
g83
ssg71
g1812
sg64
(lp1819
S'wsgi_multiprocess'
p1820
asbag57
(g78
g59
NtRp1821
(dp1822
g62
(dp1823
g89
g90
ssg71
g1812
sg64
(lp1824
S':'
asbag57
(g78
g59
NtRp1825
(dp1826
g62
(dp1827
sg71
g1812
sg64
(lp1828
g57
(g58
g59
NtRp1829
(dp1830
g62
(dp1831
g70
I4
ssg71
g1825
sg64
(lp1832
g100
asbasbasbag57
(g73
g59
NtRp1833
(dp1834
g62
(dp1835
sg71
g1020
sg64
(lp1836
g57
(g78
g59
NtRp1837
(dp1838
g62
(dp1839
g82
g83
ssg71
g1833
sg64
(lp1840
S'wsgi_multithread'
p1841
asbag57
(g78
g59
NtRp1842
(dp1843
g62
(dp1844
g89
g90
ssg71
g1833
sg64
(lp1845
S':'
asbag57
(g78
g59
NtRp1846
(dp1847
g62
(dp1848
sg71
g1833
sg64
(lp1849
g57
(g58
g59
NtRp1850
(dp1851
g62
(dp1852
g70
I4
ssg71
g1846
sg64
(lp1853
S'True'
p1854
asbasbasbag57
(g73
g59
NtRp1855
(dp1856
g62
(dp1857
sg71
g1020
sg64
(lp1858
g57
(g78
g59
NtRp1859
(dp1860
g62
(dp1861
g82
g83
ssg71
g1855
sg64
(lp1862
S'wsgi_run_once'
p1863
asbag57
(g78
g59
NtRp1864
(dp1865
g62
(dp1866
g89
g90
ssg71
g1855
sg64
(lp1867
S':'
asbag57
(g78
g59
NtRp1868
(dp1869
g62
(dp1870
sg71
g1855
sg64
(lp1871
g57
(g58
g59
NtRp1872
(dp1873
g62
(dp1874
g70
I4
ssg71
g1868
sg64
(lp1875
g100
asbasbasbag57
(g73
g59
NtRp1876
(dp1877
g62
(dp1878
sg71
g1020
sg64
(lp1879
g57
(g78
g59
NtRp1880
(dp1881
g62
(dp1882
g82
g83
ssg71
g1876
sg64
(lp1883
S'wsgi_url_scheme'
p1884
asbag57
(g78
g59
NtRp1885
(dp1886
g62
(dp1887
g89
g90
ssg71
g1876
sg64
(lp1888
S':'
asbag57
(g78
g59
NtRp1889
(dp1890
g62
(dp1891
sg71
g1876
sg64
(lp1892
g57
(g58
g59
NtRp1893
(dp1894
g62
(dp1895
g70
I4
ssg71
g1889
sg64
(lp1896
S'http'
p1897
asbasbasbag57
(g73
g59
NtRp1898
(dp1899
g62
(dp1900
sg71
g1020
sg64
(lp1901
g57
(g78
g59
NtRp1902
(dp1903
g62
(dp1904
g82
g83
ssg71
g1898
sg64
(lp1905
S'wsgi_version'
p1906
asbag57
(g78
g59
NtRp1907
(dp1908
g62
(dp1909
g89
g90
ssg71
g1898
sg64
(lp1910
S':'
asbag57
(g78
g59
NtRp1911
(dp1912
g62
(dp1913
sg71
g1898
sg64
(lp1914
g57
(g58
g59
NtRp1915
(dp1916
g62
(dp1917
g70
I4
ssg71
g1911
sg64
(lp1918
g57
(g66
g59
NtRp1919
(dp1920
g62
(dp1921
g70
I3
ssg71
Nsg64
(lp1922
g57
(g73
g59
NtRp1923
(dp1924
g62
(dp1925
sg71
g1919
sg64
(lp1926
g57
(g78
g59
NtRp1927
(dp1928
g62
(dp1929
sg71
g1923
sg64
(lp1930
g57
(g58
g59
NtRp1931
(dp1932
g62
(dp1933
g70
I3
ssg71
g1927
sg64
(lp1934
S'1'
asbasbasbag57
(g73
g59
NtRp1935
(dp1936
g62
(dp1937
sg71
g1919
sg64
(lp1938
g57
(g78
g59
NtRp1939
(dp1940
g62
(dp1941
sg71
g1935
sg64
(lp1942
g57
(g58
g59
NtRp1943
(dp1944
g62
(dp1945
g70
I3
ssg71
g1939
sg64
(lp1946
S'0'
asbasbasbasbasbasbasbasbasbasbasbag57
(g73
g59
NtRp1947
(dp1948
g62
(dp1949
sg71
g67
sg64
(lp1950
g57
(g78
g59
NtRp1951
(dp1952
g62
(dp1953
g82
g83
ssg71
g1947
sg64
(lp1954
S'extension'
p1955
asbag57
(g78
g59
NtRp1956
(dp1957
g62
(dp1958
g89
g90
ssg71
g1947
sg64
(lp1959
S':'
asbag57
(g78
g59
NtRp1960
(dp1961
g62
(dp1962
sg71
g1947
sg64
(lp1963
g57
(g58
g59
NtRp1964
(dp1965
g62
(dp1966
g70
I5
ssg71
g1960
sg64
(lp1967
S'html'
p1968
asbasbasbag57
(g73
g59
NtRp1969
(dp1970
g62
(dp1971
sg71
g67
sg64
(lp1972
g57
(g78
g59
NtRp1973
(dp1974
g62
(dp1975
g82
g83
ssg71
g1969
sg64
(lp1976
S'folder'
p1977
asbag57
(g78
g59
NtRp1978
(dp1979
g62
(dp1980
g89
g90
ssg71
g1969
sg64
(lp1981
S':'
asbag57
(g78
g59
NtRp1982
(dp1983
g62
(dp1984
sg71
g1969
sg64
(lp1985
g57
(g58
g59
NtRp1986
(dp1987
g62
(dp1988
g70
I5
ssg71
g1982
sg64
(lp1989
S'/home/marco/flisol2012/web2py/applications/flisol2012/'
p1990
asbasbasbag57
(g73
g59
NtRp1991
(dp1992
g62
(dp1993
sg71
g67
sg64
(lp1994
g57
(g78
g59
NtRp1995
(dp1996
g62
(dp1997
g82
g83
ssg71
g1991
sg64
(lp1998
S'function'
p1999
asbag57
(g78
g59
NtRp2000
(dp2001
g62
(dp2002
g89
g90
ssg71
g1991
sg64
(lp2003
S':'
asbag57
(g78
g59
NtRp2004
(dp2005
g62
(dp2006
sg71
g1991
sg64
(lp2007
g57
(g58
g59
NtRp2008
(dp2009
g62
(dp2010
g70
I5
ssg71
g2004
sg64
(lp2011
S'create'
p2012
asbasbasbag57
(g73
g59
NtRp2013
(dp2014
g62
(dp2015
sg71
g67
sg64
(lp2016
g57
(g78
g59
NtRp2017
(dp2018
g62
(dp2019
g82
g83
ssg71
g2013
sg64
(lp2020
S'get_vars'
p2021
asbag57
(g78
g59
NtRp2022
(dp2023
g62
(dp2024
g89
g90
ssg71
g2013
sg64
(lp2025
S':'
asbag57
(g78
g59
NtRp2026
(dp2027
g62
(dp2028
sg71
g2013
sg64
(lp2029
g57
(g58
g59
NtRp2030
(dp2031
g62
(dp2032
g70
I5
ssg71
g2026
sg64
(lp2033
g57
(g66
g59
NtRp2034
(dp2035
g62
(dp2036
g70
I4
ssg71
Nsg64
(lp2037
sbasbasbasbag57
(g73
g59
NtRp2038
(dp2039
g62
(dp2040
sg71
g67
sg64
(lp2041
g57
(g78
g59
NtRp2042
(dp2043
g62
(dp2044
g82
g83
ssg71
g2038
sg64
(lp2045
S'global_settings'
p2046
asbag57
(g78
g59
NtRp2047
(dp2048
g62
(dp2049
g89
g90
ssg71
g2038
sg64
(lp2050
S':'
asbag57
(g78
g59
NtRp2051
(dp2052
g62
(dp2053
sg71
g2038
sg64
(lp2054
g57
(g58
g59
NtRp2055
(dp2056
g62
(dp2057
g70
I5
ssg71
g2051
sg64
(lp2058
g57
(g66
g59
NtRp2059
(dp2060
g62
(dp2061
g70
I4
ssg71
Nsg64
(lp2062
g57
(g73
g59
NtRp2063
(dp2064
g62
(dp2065
sg71
g2059
sg64
(lp2066
g57
(g78
g59
NtRp2067
(dp2068
g62
(dp2069
g82
g83
ssg71
g2063
sg64
(lp2070
g1032
asbag57
(g78
g59
NtRp2071
(dp2072
g62
(dp2073
g89
g90
ssg71
g2063
sg64
(lp2074
S':'
asbag57
(g78
g59
NtRp2075
(dp2076
g62
(dp2077
sg71
g2063
sg64
(lp2078
g57
(g58
g59
NtRp2079
(dp2080
g62
(dp2081
g70
I4
ssg71
g2075
sg64
(lp2082
S"set(['/home/marco/flisol2012/web2py/applications/welcome/', '/home/marco/flisol2012/web2py/applications/flisol2012/', '/home/marco/flisol2012/web2py/applications/admin/'])"
p2083
asbasbasbag57
(g73
g59
NtRp2084
(dp2085
g62
(dp2086
sg71
g2059
sg64
(lp2087
g57
(g78
g59
NtRp2088
(dp2089
g62
(dp2090
g82
g83
ssg71
g2084
sg64
(lp2091
g1054
asbag57
(g78
g59
NtRp2092
(dp2093
g62
(dp2094
g89
g90
ssg71
g2084
sg64
(lp2095
S':'
asbag57
(g78
g59
NtRp2096
(dp2097
g62
(dp2098
sg71
g2084
sg64
(lp2099
g57
(g58
g59
NtRp2100
(dp2101
g62
(dp2102
g70
I4
ssg71
g2096
sg64
(lp2103
g1067
asbasbasbag57
(g73
g59
NtRp2104
(dp2105
g62
(dp2106
sg71
g2059
sg64
(lp2107
g57
(g78
g59
NtRp2108
(dp2109
g62
(dp2110
g82
g83
ssg71
g2104
sg64
(lp2111
g1076
asbag57
(g78
g59
NtRp2112
(dp2113
g62
(dp2114
g89
g90
ssg71
g2104
sg64
(lp2115
S':'
asbag57
(g78
g59
NtRp2116
(dp2117
g62
(dp2118
sg71
g2104
sg64
(lp2119
g57
(g58
g59
NtRp2120
(dp2121
g62
(dp2122
g70
I4
ssg71
g2116
sg64
(lp2123
g57
(g66
g59
NtRp2124
(dp2125
g62
(dp2126
g70
I3
ssg71
Nsg64
(lp2127
sbasbasbasbag57
(g73
g59
NtRp2128
(dp2129
g62
(dp2130
sg71
g2059
sg64
(lp2131
g57
(g78
g59
NtRp2132
(dp2133
g62
(dp2134
g82
g83
ssg71
g2128
sg64
(lp2135
g1101
asbag57
(g78
g59
NtRp2136
(dp2137
g62
(dp2138
g89
g90
ssg71
g2128
sg64
(lp2139
S':'
asbag57
(g78
g59
NtRp2140
(dp2141
g62
(dp2142
sg71
g2128
sg64
(lp2143
g57
(g58
g59
NtRp2144
(dp2145
g62
(dp2146
g70
I4
ssg71
g2140
sg64
(lp2147
S"<Values at 0x1bd6908: {'verbose': False, 'ip': '127.0.0.1', 'shutdown_timeout': 5, 'taskbar': False, 'nocron': False, 'pid_filename': 'httpserver.pid', 'maxthreads': None, 'softcron': False, 'server_name': 'malena', 'bpython': False, 'nogui': False, 'port': 8000, 'extcron': False, 'debuglevel': 30, 'test': None, 'folder': '/home/marco/flisol2012/web2py', 'config': '', 'import_models': False, 'winservice': '', 'shell': None, 'run': '', 'log_filename': 'httpserver.log', 'args': [''], 'socket_timeout': 5, 'ssl_ca_certificate': None, 'scheduler': None, 'profiler_filename': None, 'ssl_private_key': '', 'password': 'asd', 'request_queue_size': 5, 'ssl_certificate': '', 'cronjob': False, 'numthreads': None, 'quiet': False, 'interfaces': None, 'minthreads': None, 'timeout': 10, 'plain': False, 'nobanner': False}>"
p2148
asbasbasbag57
(g73
g59
NtRp2149
(dp2150
g62
(dp2151
sg71
g2059
sg64
(lp2152
g57
(g78
g59
NtRp2153
(dp2154
g62
(dp2155
g82
g83
ssg71
g2149
sg64
(lp2156
g1123
asbag57
(g78
g59
NtRp2157
(dp2158
g62
(dp2159
g89
g90
ssg71
g2149
sg64
(lp2160
S':'
asbag57
(g78
g59
NtRp2161
(dp2162
g62
(dp2163
sg71
g2149
sg64
(lp2164
g57
(g58
g59
NtRp2165
(dp2166
g62
(dp2167
g70
I4
ssg71
g2161
sg64
(lp2168
S'set([])'
p2169
asbasbasbag57
(g73
g59
NtRp2170
(dp2171
g62
(dp2172
sg71
g2059
sg64
(lp2173
g57
(g78
g59
NtRp2174
(dp2175
g62
(dp2176
g82
g83
ssg71
g2170
sg64
(lp2177
g1145
asbag57
(g78
g59
NtRp2178
(dp2179
g62
(dp2180
g89
g90
ssg71
g2170
sg64
(lp2181
S':'
asbag57
(g78
g59
NtRp2182
(dp2183
g62
(dp2184
sg71
g2170
sg64
(lp2185
g57
(g58
g59
NtRp2186
(dp2187
g62
(dp2188
g70
I4
ssg71
g2182
sg64
(lp2189
g100
asbasbasbag57
(g73
g59
NtRp2190
(dp2191
g62
(dp2192
sg71
g2059
sg64
(lp2193
g57
(g78
g59
NtRp2194
(dp2195
g62
(dp2196
g82
g83
ssg71
g2190
sg64
(lp2197
g1166
asbag57
(g78
g59
NtRp2198
(dp2199
g62
(dp2200
g89
g90
ssg71
g2190
sg64
(lp2201
S':'
asbag57
(g78
g59
NtRp2202
(dp2203
g62
(dp2204
sg71
g2190
sg64
(lp2205
g57
(g58
g59
NtRp2206
(dp2207
g62
(dp2208
g70
I4
ssg71
g2202
sg64
(lp2209
g1179
asbasbasbag57
(g73
g59
NtRp2210
(dp2211
g62
(dp2212
sg71
g2059
sg64
(lp2213
g57
(g78
g59
NtRp2214
(dp2215
g62
(dp2216
g82
g83
ssg71
g2210
sg64
(lp2217
g1364
asbag57
(g78
g59
NtRp2218
(dp2219
g62
(dp2220
g89
g90
ssg71
g2210
sg64
(lp2221
S':'
asbag57
(g78
g59
NtRp2222
(dp2223
g62
(dp2224
sg71
g2210
sg64
(lp2225
g57
(g58
g59
NtRp2226
(dp2227
g62
(dp2228
g70
I4
ssg71
g2222
sg64
(lp2229
g100
asbasbasbag57
(g73
g59
NtRp2230
(dp2231
g62
(dp2232
sg71
g2059
sg64
(lp2233
g57
(g78
g59
NtRp2234
(dp2235
g62
(dp2236
g82
g83
ssg71
g2230
sg64
(lp2237
g1385
asbag57
(g78
g59
NtRp2238
(dp2239
g62
(dp2240
g89
g90
ssg71
g2230
sg64
(lp2241
S':'
asbag57
(g78
g59
NtRp2242
(dp2243
g62
(dp2244
sg71
g2230
sg64
(lp2245
g57
(g58
g59
NtRp2246
(dp2247
g62
(dp2248
g70
I4
ssg71
g2242
sg64
(lp2249
g100
asbasbasbag57
(g73
g59
NtRp2250
(dp2251
g62
(dp2252
sg71
g2059
sg64
(lp2253
g57
(g78
g59
NtRp2254
(dp2255
g62
(dp2256
g82
g83
ssg71
g2250
sg64
(lp2257
g1623
asbag57
(g78
g59
NtRp2258
(dp2259
g62
(dp2260
g89
g90
ssg71
g2250
sg64
(lp2261
S':'
asbag57
(g78
g59
NtRp2262
(dp2263
g62
(dp2264
sg71
g2250
sg64
(lp2265
g57
(g58
g59
NtRp2266
(dp2267
g62
(dp2268
g70
I4
ssg71
g2262
sg64
(lp2269
g1636
asbasbasbag57
(g73
g59
NtRp2270
(dp2271
g62
(dp2272
sg71
g2059
sg64
(lp2273
g57
(g78
g59
NtRp2274
(dp2275
g62
(dp2276
g82
g83
ssg71
g2270
sg64
(lp2277
g1666
asbag57
(g78
g59
NtRp2278
(dp2279
g62
(dp2280
g89
g90
ssg71
g2270
sg64
(lp2281
S':'
asbag57
(g78
g59
NtRp2282
(dp2283
g62
(dp2284
sg71
g2270
sg64
(lp2285
g57
(g58
g59
NtRp2286
(dp2287
g62
(dp2288
g70
I4
ssg71
g2282
sg64
(lp2289
g57
(g66
g59
NtRp2290
(dp2291
g62
(dp2292
g70
I3
ssg71
Nsg64
(lp2293
g57
(g73
g59
NtRp2294
(dp2295
g62
(dp2296
sg71
g2290
sg64
(lp2297
g57
(g78
g59
NtRp2298
(dp2299
g62
(dp2300
sg71
g2294
sg64
(lp2301
g57
(g58
g59
NtRp2302
(dp2303
g62
(dp2304
g70
I3
ssg71
g2298
sg64
(lp2305
S'1'
asbasbasbag57
(g73
g59
NtRp2306
(dp2307
g62
(dp2308
sg71
g2290
sg64
(lp2309
g57
(g78
g59
NtRp2310
(dp2311
g62
(dp2312
sg71
g2306
sg64
(lp2313
g57
(g58
g59
NtRp2314
(dp2315
g62
(dp2316
g70
I3
ssg71
g2310
sg64
(lp2317
S'99'
p2318
asbasbasbag57
(g73
g59
NtRp2319
(dp2320
g62
(dp2321
sg71
g2290
sg64
(lp2322
g57
(g78
g59
NtRp2323
(dp2324
g62
(dp2325
sg71
g2319
sg64
(lp2326
g57
(g58
g59
NtRp2327
(dp2328
g62
(dp2329
g70
I3
ssg71
g2323
sg64
(lp2330
S'7'
asbasbasbag57
(g73
g59
NtRp2331
(dp2332
g62
(dp2333
sg71
g2290
sg64
(lp2334
g57
(g78
g59
NtRp2335
(dp2336
g62
(dp2337
sg71
g2331
sg64
(lp2338
g57
(g58
g59
NtRp2339
(dp2340
g62
(dp2341
g70
I3
ssg71
g2335
sg64
(lp2342
S'datetime.datetime(2012, 3, 4, 22, 12, 8)'
p2343
asbasbasbag57
(g73
g59
NtRp2344
(dp2345
g62
(dp2346
sg71
g2290
sg64
(lp2347
g57
(g78
g59
NtRp2348
(dp2349
g62
(dp2350
sg71
g2344
sg64
(lp2351
g57
(g58
g59
NtRp2352
(dp2353
g62
(dp2354
g70
I3
ssg71
g2348
sg64
(lp2355
g1745
asbasbasbasbasbasbasbasbasbasbasbag57
(g73
g59
NtRp2356
(dp2357
g62
(dp2358
sg71
g67
sg64
(lp2359
g57
(g78
g59
NtRp2360
(dp2361
g62
(dp2362
g82
g83
ssg71
g2356
sg64
(lp2363
S'is_https'
p2364
asbag57
(g78
g59
NtRp2365
(dp2366
g62
(dp2367
g89
g90
ssg71
g2356
sg64
(lp2368
S':'
asbag57
(g78
g59
NtRp2369
(dp2370
g62
(dp2371
sg71
g2356
sg64
(lp2372
g57
(g58
g59
NtRp2373
(dp2374
g62
(dp2375
g70
I5
ssg71
g2369
sg64
(lp2376
g100
asbasbasbag57
(g73
g59
NtRp2377
(dp2378
g62
(dp2379
sg71
g67
sg64
(lp2380
g57
(g78
g59
NtRp2381
(dp2382
g62
(dp2383
g82
g83
ssg71
g2377
sg64
(lp2384
S'is_local'
p2385
asbag57
(g78
g59
NtRp2386
(dp2387
g62
(dp2388
g89
g90
ssg71
g2377
sg64
(lp2389
S':'
asbag57
(g78
g59
NtRp2390
(dp2391
g62
(dp2392
sg71
g2377
sg64
(lp2393
g57
(g58
g59
NtRp2394
(dp2395
g62
(dp2396
g70
I5
ssg71
g2390
sg64
(lp2397
g1854
asbasbasbag57
(g73
g59
NtRp2398
(dp2399
g62
(dp2400
sg71
g67
sg64
(lp2401
g57
(g78
g59
NtRp2402
(dp2403
g62
(dp2404
g82
g83
ssg71
g2398
sg64
(lp2405
S'is_restful'
p2406
asbag57
(g78
g59
NtRp2407
(dp2408
g62
(dp2409
g89
g90
ssg71
g2398
sg64
(lp2410
S':'
asbag57
(g78
g59
NtRp2411
(dp2412
g62
(dp2413
sg71
g2398
sg64
(lp2414
g57
(g58
g59
NtRp2415
(dp2416
g62
(dp2417
g70
I5
ssg71
g2411
sg64
(lp2418
g100
asbasbasbag57
(g73
g59
NtRp2419
(dp2420
g62
(dp2421
sg71
g67
sg64
(lp2422
g57
(g78
g59
NtRp2423
(dp2424
g62
(dp2425
g82
g83
ssg71
g2419
sg64
(lp2426
S'now'
p2427
asbag57
(g78
g59
NtRp2428
(dp2429
g62
(dp2430
g89
g90
ssg71
g2419
sg64
(lp2431
S':'
asbag57
(g78
g59
NtRp2432
(dp2433
g62
(dp2434
sg71
g2419
sg64
(lp2435
g57
(g58
g59
NtRp2436
(dp2437
g62
(dp2438
g70
I5
ssg71
g2432
sg64
(lp2439
S'datetime.datetime(2012, 3, 9, 19, 17, 9, 418648)'
p2440
asbasbasbag57
(g73
g59
NtRp2441
(dp2442
g62
(dp2443
sg71
g67
sg64
(lp2444
g57
(g78
g59
NtRp2445
(dp2446
g62
(dp2447
g82
g83
ssg71
g2441
sg64
(lp2448
S'post_vars'
p2449
asbag57
(g78
g59
NtRp2450
(dp2451
g62
(dp2452
g89
g90
ssg71
g2441
sg64
(lp2453
S':'
asbag57
(g78
g59
NtRp2454
(dp2455
g62
(dp2456
sg71
g2441
sg64
(lp2457
g57
(g58
g59
NtRp2458
(dp2459
g62
(dp2460
g70
I5
ssg71
g2454
sg64
(lp2461
g57
(g66
g59
NtRp2462
(dp2463
g62
(dp2464
g70
I4
ssg71
Nsg64
(lp2465
sbasbasbasbag57
(g73
g59
NtRp2466
(dp2467
g62
(dp2468
sg71
g67
sg64
(lp2469
g57
(g78
g59
NtRp2470
(dp2471
g62
(dp2472
g82
g83
ssg71
g2466
sg64
(lp2473
S'raw_args'
p2474
asbag57
(g78
g59
NtRp2475
(dp2476
g62
(dp2477
g89
g90
ssg71
g2466
sg64
(lp2478
S':'
asbag57
(g78
g59
NtRp2479
(dp2480
g62
(dp2481
sg71
g2466
sg64
(lp2482
g57
(g58
g59
NtRp2483
(dp2484
g62
(dp2485
g70
I5
ssg71
g2479
sg64
(lp2486
g159
asbasbasbag57
(g73
g59
NtRp2487
(dp2488
g62
(dp2489
sg71
g67
sg64
(lp2490
g57
(g78
g59
NtRp2491
(dp2492
g62
(dp2493
g82
g83
ssg71
g2487
sg64
(lp2494
S'url'
p2495
asbag57
(g78
g59
NtRp2496
(dp2497
g62
(dp2498
g89
g90
ssg71
g2487
sg64
(lp2499
S':'
asbag57
(g78
g59
NtRp2500
(dp2501
g62
(dp2502
sg71
g2487
sg64
(lp2503
g57
(g58
g59
NtRp2504
(dp2505
g62
(dp2506
g70
I5
ssg71
g2500
sg64
(lp2507
S'/flisol2012/default/create/fa'
p2508
asbasbasbag57
(g73
g59
NtRp2509
(dp2510
g62
(dp2511
sg71
g67
sg64
(lp2512
g57
(g78
g59
NtRp2513
(dp2514
g62
(dp2515
g82
g83
ssg71
g2509
sg64
(lp2516
S'utcnow'
p2517
asbag57
(g78
g59
NtRp2518
(dp2519
g62
(dp2520
g89
g90
ssg71
g2509
sg64
(lp2521
S':'
asbag57
(g78
g59
NtRp2522
(dp2523
g62
(dp2524
sg71
g2509
sg64
(lp2525
g57
(g58
g59
NtRp2526
(dp2527
g62
(dp2528
g70
I5
ssg71
g2522
sg64
(lp2529
S'datetime.datetime(2012, 3, 9, 22, 17, 9, 418685)'
p2530
asbasbasbag57
(g73
g59
NtRp2531
(dp2532
g62
(dp2533
sg71
g67
sg64
(lp2534
g57
(g78
g59
NtRp2535
(dp2536
g62
(dp2537
g82
g83
ssg71
g2531
sg64
(lp2538
S'uuid'
p2539
asbag57
(g78
g59
NtRp2540
(dp2541
g62
(dp2542
g89
g90
ssg71
g2531
sg64
(lp2543
S':'
asbag57
(g78
g59
NtRp2544
(dp2545
g62
(dp2546
sg71
g2531
sg64
(lp2547
g57
(g58
g59
NtRp2548
(dp2549
g62
(dp2550
g70
I5
ssg71
g2544
sg64
(lp2551
S'flisol2012/127.0.0.1.2012-03-09.19-17-09.1be4e5ba-360f-4903-aebb-3b6a259b61c4'
p2552
asbasbasbag57
(g73
g59
NtRp2553
(dp2554
g62
(dp2555
sg71
g67
sg64
(lp2556
g57
(g78
g59
NtRp2557
(dp2558
g62
(dp2559
g82
g83
ssg71
g2553
sg64
(lp2560
S'vars'
p2561
asbag57
(g78
g59
NtRp2562
(dp2563
g62
(dp2564
g89
g90
ssg71
g2553
sg64
(lp2565
S':'
asbag57
(g78
g59
NtRp2566
(dp2567
g62
(dp2568
sg71
g2553
sg64
(lp2569
g57
(g58
g59
NtRp2570
(dp2571
g62
(dp2572
g70
I5
ssg71
g2566
sg64
(lp2573
g57
(g66
g59
NtRp2574
(dp2575
g62
(dp2576
g70
I4
ssg71
Nsg64
(lp2577
sbasbasbasbag57
(g73
g59
NtRp2578
(dp2579
g62
(dp2580
sg71
g67
sg64
(lp2581
g57
(g78
g59
NtRp2582
(dp2583
g62
(dp2584
g82
g83
ssg71
g2578
sg64
(lp2585
S'wsgi'
p2586
asbag57
(g78
g59
NtRp2587
(dp2588
g62
(dp2589
g89
g90
ssg71
g2578
sg64
(lp2590
S':'
asbag57
(g78
g59
NtRp2591
(dp2592
g62
(dp2593
sg71
g2578
sg64
(lp2594
g57
(g58
g59
NtRp2595
(dp2596
g62
(dp2597
g70
I5
ssg71
g2591
sg64
(lp2598
g57
(g66
g59
NtRp2599
(dp2600
g62
(dp2601
g70
I4
ssg71
Nsg64
(lp2602
g57
(g73
g59
NtRp2603
(dp2604
g62
(dp2605
sg71
g2599
sg64
(lp2606
g57
(g78
g59
NtRp2607
(dp2608
g62
(dp2609
g82
g83
ssg71
g2603
sg64
(lp2610
S'environ'
p2611
asbag57
(g78
g59
NtRp2612
(dp2613
g62
(dp2614
g89
g90
ssg71
g2603
sg64
(lp2615
S':'
asbag57
(g78
g59
NtRp2616
(dp2617
g62
(dp2618
sg71
g2603
sg64
(lp2619
g57
(g58
g59
NtRp2620
(dp2621
g62
(dp2622
g70
I4
ssg71
g2616
sg64
(lp2623
g57
(g66
g59
NtRp2624
(dp2625
g62
(dp2626
g70
I3
ssg71
Nsg64
(lp2627
g57
(g73
g59
NtRp2628
(dp2629
g62
(dp2630
sg71
g2624
sg64
(lp2631
g57
(g78
g59
NtRp2632
(dp2633
g62
(dp2634
g82
g83
ssg71
g2628
sg64
(lp2635
S'HTTP_ACCEPT'
p2636
asbag57
(g78
g59
NtRp2637
(dp2638
g62
(dp2639
g89
g90
ssg71
g2628
sg64
(lp2640
S':'
asbag57
(g78
g59
NtRp2641
(dp2642
g62
(dp2643
sg71
g2628
sg64
(lp2644
g57
(g58
g59
NtRp2645
(dp2646
g62
(dp2647
g70
I3
ssg71
g2641
sg64
(lp2648
g1201
asbasbasbag57
(g73
g59
NtRp2649
(dp2650
g62
(dp2651
sg71
g2624
sg64
(lp2652
g57
(g78
g59
NtRp2653
(dp2654
g62
(dp2655
g82
g83
ssg71
g2649
sg64
(lp2656
S'HTTP_ACCEPT_ENCODING'
p2657
asbag57
(g78
g59
NtRp2658
(dp2659
g62
(dp2660
g89
g90
ssg71
g2649
sg64
(lp2661
S':'
asbag57
(g78
g59
NtRp2662
(dp2663
g62
(dp2664
sg71
g2649
sg64
(lp2665
g57
(g58
g59
NtRp2666
(dp2667
g62
(dp2668
g70
I3
ssg71
g2662
sg64
(lp2669
g1223
asbasbasbag57
(g73
g59
NtRp2670
(dp2671
g62
(dp2672
sg71
g2624
sg64
(lp2673
g57
(g78
g59
NtRp2674
(dp2675
g62
(dp2676
g82
g83
ssg71
g2670
sg64
(lp2677
S'HTTP_ACCEPT_LANGUAGE'
p2678
asbag57
(g78
g59
NtRp2679
(dp2680
g62
(dp2681
g89
g90
ssg71
g2670
sg64
(lp2682
S':'
asbag57
(g78
g59
NtRp2683
(dp2684
g62
(dp2685
sg71
g2670
sg64
(lp2686
g57
(g58
g59
NtRp2687
(dp2688
g62
(dp2689
g70
I3
ssg71
g2683
sg64
(lp2690
g1245
asbasbasbag57
(g73
g59
NtRp2691
(dp2692
g62
(dp2693
sg71
g2624
sg64
(lp2694
g57
(g78
g59
NtRp2695
(dp2696
g62
(dp2697
g82
g83
ssg71
g2691
sg64
(lp2698
S'HTTP_CONNECTION'
p2699
asbag57
(g78
g59
NtRp2700
(dp2701
g62
(dp2702
g89
g90
ssg71
g2691
sg64
(lp2703
S':'
asbag57
(g78
g59
NtRp2704
(dp2705
g62
(dp2706
sg71
g2691
sg64
(lp2707
g57
(g58
g59
NtRp2708
(dp2709
g62
(dp2710
g70
I3
ssg71
g2704
sg64
(lp2711
g1267
asbasbasbag57
(g73
g59
NtRp2712
(dp2713
g62
(dp2714
sg71
g2624
sg64
(lp2715
g57
(g78
g59
NtRp2716
(dp2717
g62
(dp2718
g82
g83
ssg71
g2712
sg64
(lp2719
S'HTTP_COOKIE'
p2720
asbag57
(g78
g59
NtRp2721
(dp2722
g62
(dp2723
g89
g90
ssg71
g2712
sg64
(lp2724
S':'
asbag57
(g78
g59
NtRp2725
(dp2726
g62
(dp2727
sg71
g2712
sg64
(lp2728
g57
(g58
g59
NtRp2729
(dp2730
g62
(dp2731
g70
I3
ssg71
g2725
sg64
(lp2732
g1289
asbasbasbag57
(g73
g59
NtRp2733
(dp2734
g62
(dp2735
sg71
g2624
sg64
(lp2736
g57
(g78
g59
NtRp2737
(dp2738
g62
(dp2739
g82
g83
ssg71
g2733
sg64
(lp2740
S'HTTP_HOST'
p2741
asbag57
(g78
g59
NtRp2742
(dp2743
g62
(dp2744
g89
g90
ssg71
g2733
sg64
(lp2745
S':'
asbag57
(g78
g59
NtRp2746
(dp2747
g62
(dp2748
sg71
g2733
sg64
(lp2749
g57
(g58
g59
NtRp2750
(dp2751
g62
(dp2752
g70
I3
ssg71
g2746
sg64
(lp2753
g1311
asbasbasbag57
(g73
g59
NtRp2754
(dp2755
g62
(dp2756
sg71
g2624
sg64
(lp2757
g57
(g78
g59
NtRp2758
(dp2759
g62
(dp2760
g82
g83
ssg71
g2754
sg64
(lp2761
S'HTTP_REFERER'
p2762
asbag57
(g78
g59
NtRp2763
(dp2764
g62
(dp2765
g89
g90
ssg71
g2754
sg64
(lp2766
S':'
asbag57
(g78
g59
NtRp2767
(dp2768
g62
(dp2769
sg71
g2754
sg64
(lp2770
g57
(g58
g59
NtRp2771
(dp2772
g62
(dp2773
g70
I3
ssg71
g2767
sg64
(lp2774
g1333
asbasbasbag57
(g73
g59
NtRp2775
(dp2776
g62
(dp2777
sg71
g2624
sg64
(lp2778
g57
(g78
g59
NtRp2779
(dp2780
g62
(dp2781
g82
g83
ssg71
g2775
sg64
(lp2782
S'HTTP_USER_AGENT'
p2783
asbag57
(g78
g59
NtRp2784
(dp2785
g62
(dp2786
g89
g90
ssg71
g2775
sg64
(lp2787
S':'
asbag57
(g78
g59
NtRp2788
(dp2789
g62
(dp2790
sg71
g2775
sg64
(lp2791
g57
(g58
g59
NtRp2792
(dp2793
g62
(dp2794
g70
I3
ssg71
g2788
sg64
(lp2795
g1355
asbasbasbag57
(g73
g59
NtRp2796
(dp2797
g62
(dp2798
sg71
g2624
sg64
(lp2799
g57
(g78
g59
NtRp2800
(dp2801
g62
(dp2802
g82
g83
ssg71
g2796
sg64
(lp2803
S'PATH_INFO'
p2804
asbag57
(g78
g59
NtRp2805
(dp2806
g62
(dp2807
g89
g90
ssg71
g2796
sg64
(lp2808
S':'
asbag57
(g78
g59
NtRp2809
(dp2810
g62
(dp2811
sg71
g2796
sg64
(lp2812
g57
(g58
g59
NtRp2813
(dp2814
g62
(dp2815
g70
I3
ssg71
g2809
sg64
(lp2816
g1419
asbasbasbag57
(g73
g59
NtRp2817
(dp2818
g62
(dp2819
sg71
g2624
sg64
(lp2820
g57
(g78
g59
NtRp2821
(dp2822
g62
(dp2823
g82
g83
ssg71
g2817
sg64
(lp2824
S'QUERY_STRING'
p2825
asbag57
(g78
g59
NtRp2826
(dp2827
g62
(dp2828
g89
g90
ssg71
g2817
sg64
(lp2829
S':'
asbag57
(g78
g59
NtRp2830
(dp2831
g62
(dp2832
sg71
g2817
sg64
(lp2833
g57
(g58
g59
NtRp2834
(dp2835
g62
(dp2836
g70
I3
ssg71
g2830
sg64
(lp2837
S''
asbasbasbag57
(g73
g59
NtRp2838
(dp2839
g62
(dp2840
sg71
g2624
sg64
(lp2841
g57
(g78
g59
NtRp2842
(dp2843
g62
(dp2844
g82
g83
ssg71
g2838
sg64
(lp2845
S'REMOTE_ADDR'
p2846
asbag57
(g78
g59
NtRp2847
(dp2848
g62
(dp2849
g89
g90
ssg71
g2838
sg64
(lp2850
S':'
asbag57
(g78
g59
NtRp2851
(dp2852
g62
(dp2853
sg71
g2838
sg64
(lp2854
g57
(g58
g59
NtRp2855
(dp2856
g62
(dp2857
g70
I3
ssg71
g2851
sg64
(lp2858
g203
asbasbasbag57
(g73
g59
NtRp2859
(dp2860
g62
(dp2861
sg71
g2624
sg64
(lp2862
g57
(g78
g59
NtRp2863
(dp2864
g62
(dp2865
g82
g83
ssg71
g2859
sg64
(lp2866
S'REMOTE_PORT'
p2867
asbag57
(g78
g59
NtRp2868
(dp2869
g62
(dp2870
g89
g90
ssg71
g2859
sg64
(lp2871
S':'
asbag57
(g78
g59
NtRp2872
(dp2873
g62
(dp2874
sg71
g2859
sg64
(lp2875
g57
(g58
g59
NtRp2876
(dp2877
g62
(dp2878
g70
I3
ssg71
g2872
sg64
(lp2879
g1483
asbasbasbag57
(g73
g59
NtRp2880
(dp2881
g62
(dp2882
sg71
g2624
sg64
(lp2883
g57
(g78
g59
NtRp2884
(dp2885
g62
(dp2886
g82
g83
ssg71
g2880
sg64
(lp2887
S'REQUEST_METHOD'
p2888
asbag57
(g78
g59
NtRp2889
(dp2890
g62
(dp2891
g89
g90
ssg71
g2880
sg64
(lp2892
S':'
asbag57
(g78
g59
NtRp2893
(dp2894
g62
(dp2895
sg71
g2880
sg64
(lp2896
g57
(g58
g59
NtRp2897
(dp2898
g62
(dp2899
g70
I3
ssg71
g2893
sg64
(lp2900
g1505
asbasbasbag57
(g73
g59
NtRp2901
(dp2902
g62
(dp2903
sg71
g2624
sg64
(lp2904
g57
(g78
g59
NtRp2905
(dp2906
g62
(dp2907
g82
g83
ssg71
g2901
sg64
(lp2908
S'SCRIPT_NAME'
p2909
asbag57
(g78
g59
NtRp2910
(dp2911
g62
(dp2912
g89
g90
ssg71
g2901
sg64
(lp2913
S':'
asbag57
(g78
g59
NtRp2914
(dp2915
g62
(dp2916
sg71
g2901
sg64
(lp2917
g57
(g58
g59
NtRp2918
(dp2919
g62
(dp2920
g70
I3
ssg71
g2914
sg64
(lp2921
S''
asbasbasbag57
(g73
g59
NtRp2922
(dp2923
g62
(dp2924
sg71
g2624
sg64
(lp2925
g57
(g78
g59
NtRp2926
(dp2927
g62
(dp2928
g82
g83
ssg71
g2922
sg64
(lp2929
S'SERVER_NAME'
p2930
asbag57
(g78
g59
NtRp2931
(dp2932
g62
(dp2933
g89
g90
ssg71
g2922
sg64
(lp2934
S':'
asbag57
(g78
g59
NtRp2935
(dp2936
g62
(dp2937
sg71
g2922
sg64
(lp2938
g57
(g58
g59
NtRp2939
(dp2940
g62
(dp2941
g70
I3
ssg71
g2935
sg64
(lp2942
g1548
asbasbasbag57
(g73
g59
NtRp2943
(dp2944
g62
(dp2945
sg71
g2624
sg64
(lp2946
g57
(g78
g59
NtRp2947
(dp2948
g62
(dp2949
g82
g83
ssg71
g2943
sg64
(lp2950
S'SERVER_PORT'
p2951
asbag57
(g78
g59
NtRp2952
(dp2953
g62
(dp2954
g89
g90
ssg71
g2943
sg64
(lp2955
S':'
asbag57
(g78
g59
NtRp2956
(dp2957
g62
(dp2958
sg71
g2943
sg64
(lp2959
g57
(g58
g59
NtRp2960
(dp2961
g62
(dp2962
g70
I3
ssg71
g2956
sg64
(lp2963
g1570
asbasbasbag57
(g73
g59
NtRp2964
(dp2965
g62
(dp2966
sg71
g2624
sg64
(lp2967
g57
(g78
g59
NtRp2968
(dp2969
g62
(dp2970
g82
g83
ssg71
g2964
sg64
(lp2971
S'SERVER_PROTOCOL'
p2972
asbag57
(g78
g59
NtRp2973
(dp2974
g62
(dp2975
g89
g90
ssg71
g2964
sg64
(lp2976
S':'
asbag57
(g78
g59
NtRp2977
(dp2978
g62
(dp2979
sg71
g2964
sg64
(lp2980
g57
(g58
g59
NtRp2981
(dp2982
g62
(dp2983
g70
I3
ssg71
g2977
sg64
(lp2984
g1592
asbasbasbag57
(g73
g59
NtRp2985
(dp2986
g62
(dp2987
sg71
g2624
sg64
(lp2988
g57
(g78
g59
NtRp2989
(dp2990
g62
(dp2991
g82
g83
ssg71
g2985
sg64
(lp2992
S'SERVER_SOFTWARE'
p2993
asbag57
(g78
g59
NtRp2994
(dp2995
g62
(dp2996
g89
g90
ssg71
g2985
sg64
(lp2997
S':'
asbag57
(g78
g59
NtRp2998
(dp2999
g62
(dp3000
sg71
g2985
sg64
(lp3001
g57
(g58
g59
NtRp3002
(dp3003
g62
(dp3004
g70
I3
ssg71
g2998
sg64
(lp3005
g1614
asbasbasbag57
(g73
g59
NtRp3006
(dp3007
g62
(dp3008
sg71
g2624
sg64
(lp3009
g57
(g78
g59
NtRp3010
(dp3011
g62
(dp3012
g82
g83
ssg71
g3006
sg64
(lp3013
S'wsgi.errors'
p3014
asbag57
(g78
g59
NtRp3015
(dp3016
g62
(dp3017
g89
g90
ssg71
g3006
sg64
(lp3018
S':'
asbag57
(g78
g59
NtRp3019
(dp3020
g62
(dp3021
sg71
g3006
sg64
(lp3022
g57
(g58
g59
NtRp3023
(dp3024
g62
(dp3025
g70
I3
ssg71
g3019
sg64
(lp3026
S"<open file '<stderr>', mode 'w' at 0x7f4f2366f270>"
p3027
asbasbasbag57
(g73
g59
NtRp3028
(dp3029
g62
(dp3030
sg71
g2624
sg64
(lp3031
g57
(g78
g59
NtRp3032
(dp3033
g62
(dp3034
g82
g83
ssg71
g3028
sg64
(lp3035
S'wsgi.file_wrapper'
p3036
asbag57
(g78
g59
NtRp3037
(dp3038
g62
(dp3039
g89
g90
ssg71
g3028
sg64
(lp3040
S':'
asbag57
(g78
g59
NtRp3041
(dp3042
g62
(dp3043
sg71
g3028
sg64
(lp3044
g57
(g58
g59
NtRp3045
(dp3046
g62
(dp3047
g70
I3
ssg71
g3041
sg64
(lp3048
S'<class wsgiref.util.FileWrapper at 0x1abc460>'
p3049
asbasbasbag57
(g73
g59
NtRp3050
(dp3051
g62
(dp3052
sg71
g2624
sg64
(lp3053
g57
(g78
g59
NtRp3054
(dp3055
g62
(dp3056
g82
g83
ssg71
g3050
sg64
(lp3057
S'wsgi.input'
p3058
asbag57
(g78
g59
NtRp3059
(dp3060
g62
(dp3061
g89
g90
ssg71
g3050
sg64
(lp3062
S':'
asbag57
(g78
g59
NtRp3063
(dp3064
g62
(dp3065
sg71
g3050
sg64
(lp3066
g57
(g58
g59
NtRp3067
(dp3068
g62
(dp3069
g70
I3
ssg71
g3063
sg64
(lp3070
S'<cStringIO.StringO object at 0x7f4f10150c70>'
p3071
asbasbasbag57
(g73
g59
NtRp3072
(dp3073
g62
(dp3074
sg71
g2624
sg64
(lp3075
g57
(g78
g59
NtRp3076
(dp3077
g62
(dp3078
g82
g83
ssg71
g3072
sg64
(lp3079
S'wsgi.multiprocess'
p3080
asbag57
(g78
g59
NtRp3081
(dp3082
g62
(dp3083
g89
g90
ssg71
g3072
sg64
(lp3084
S':'
asbag57
(g78
g59
NtRp3085
(dp3086
g62
(dp3087
sg71
g3072
sg64
(lp3088
g57
(g58
g59
NtRp3089
(dp3090
g62
(dp3091
g70
I3
ssg71
g3085
sg64
(lp3092
g100
asbasbasbag57
(g73
g59
NtRp3093
(dp3094
g62
(dp3095
sg71
g2624
sg64
(lp3096
g57
(g78
g59
NtRp3097
(dp3098
g62
(dp3099
g82
g83
ssg71
g3093
sg64
(lp3100
S'wsgi.multithread'
p3101
asbag57
(g78
g59
NtRp3102
(dp3103
g62
(dp3104
g89
g90
ssg71
g3093
sg64
(lp3105
S':'
asbag57
(g78
g59
NtRp3106
(dp3107
g62
(dp3108
sg71
g3093
sg64
(lp3109
g57
(g58
g59
NtRp3110
(dp3111
g62
(dp3112
g70
I3
ssg71
g3106
sg64
(lp3113
g1854
asbasbasbag57
(g73
g59
NtRp3114
(dp3115
g62
(dp3116
sg71
g2624
sg64
(lp3117
g57
(g78
g59
NtRp3118
(dp3119
g62
(dp3120
g82
g83
ssg71
g3114
sg64
(lp3121
S'wsgi.run_once'
p3122
asbag57
(g78
g59
NtRp3123
(dp3124
g62
(dp3125
g89
g90
ssg71
g3114
sg64
(lp3126
S':'
asbag57
(g78
g59
NtRp3127
(dp3128
g62
(dp3129
sg71
g3114
sg64
(lp3130
g57
(g58
g59
NtRp3131
(dp3132
g62
(dp3133
g70
I3
ssg71
g3127
sg64
(lp3134
g100
asbasbasbag57
(g73
g59
NtRp3135
(dp3136
g62
(dp3137
sg71
g2624
sg64
(lp3138
g57
(g78
g59
NtRp3139
(dp3140
g62
(dp3141
g82
g83
ssg71
g3135
sg64
(lp3142
S'wsgi.url_scheme'
p3143
asbag57
(g78
g59
NtRp3144
(dp3145
g62
(dp3146
g89
g90
ssg71
g3135
sg64
(lp3147
S':'
asbag57
(g78
g59
NtRp3148
(dp3149
g62
(dp3150
sg71
g3135
sg64
(lp3151
g57
(g58
g59
NtRp3152
(dp3153
g62
(dp3154
g70
I3
ssg71
g3148
sg64
(lp3155
g1897
asbasbasbag57
(g73
g59
NtRp3156
(dp3157
g62
(dp3158
sg71
g2624
sg64
(lp3159
g57
(g78
g59
NtRp3160
(dp3161
g62
(dp3162
g82
g83
ssg71
g3156
sg64
(lp3163
S'wsgi.version'
p3164
asbag57
(g78
g59
NtRp3165
(dp3166
g62
(dp3167
g89
g90
ssg71
g3156
sg64
(lp3168
S':'
asbag57
(g78
g59
NtRp3169
(dp3170
g62
(dp3171
sg71
g3156
sg64
(lp3172
g57
(g58
g59
NtRp3173
(dp3174
g62
(dp3175
g70
I3
ssg71
g3169
sg64
(lp3176
S'1'
asbasbasbasbasbasbasbasbasbasbasbasbasbsS'frames'
p3177
(lp3178
(dp3179
S'file'
p3180
S'/home/marco/flisol2012/web2py/gluon/restricted.py'
p3181
sS'dump'
p3182
(dp3183
S'environment'
p3184
S"{'A': <class 'gluon.html.A'>, 'ATTENDEE_TYPES': (('gratis', <lazyT 'Gratuito, $0'>),), 'ATTENDEE_TYPE_COST': {None: 0.0, 'gratis': 0.0}, 'Auth': <class 'gluon.tools.Auth'>, 'B': <class 'gluon.html.B'>, 'BEAUTIFY': <class 'gluon.html.BEAUTIFY'>, 'BODY': <class 'gluon.html.BODY'>, 'BR': <class 'gluon.html.BR'>, 'BUTTON': <class 'gluon.html.BUTTON'>, 'CAT': <class 'gluon.html.CAT'>, ...}"
p3185
sS'ccode'
p3186
S'<code object <module> at 0x7f4f101738b0, file "/...tions/flisol2012/controllers/default.py", line 5>'
p3187
ssS'lnum'
p3188
I205
sS'lines'
p3189
(dp3190
I200
S'    try:'
p3191
sI201
S'        if type(code) == types.CodeType:'
p3192
sI202
S'            ccode = code'
p3193
sI203
S'        else:'
p3194
sI204
S'            ccode = compile2(code,layer)'
p3195
sI205
S'        exec ccode in environment'
p3196
sI206
S'    except HTTP:'
p3197
sI207
S'        raise'
p3198
sI208
S'    except RestrictedError:'
p3199
sI209
S'        # do not encapsulate (obfuscate) the original RestrictedError'
p3200
ssS'call'
p3201
S'(code="#############################################\\n##...tion\'))\\n\\nresponse._vars=response._caller(create)\\n", environment={\'A\': <class \'gluon.html.A\'>, \'ATTENDEE_TYPES\': ((\'gratis\', <lazyT \'Gratuito, $0\'>),), \'ATTENDEE_TYPE_COST\': {None: 0.0, \'gratis\': 0.0}, \'Auth\': <class \'gluon.tools.Auth\'>, \'B\': <class \'gluon.html.B\'>, \'BEAUTIFY\': <class \'gluon.html.BEAUTIFY\'>, \'BODY\': <class \'gluon.html.BODY\'>, \'BR\': <class \'gluon.html.BR\'>, \'BUTTON\': <class \'gluon.html.BUTTON\'>, \'CAT\': <class \'gluon.html.CAT\'>, ...}, layer=\'/home/marco/flisol2012/web2py/applications/flisol2012/controllers/default.py\')'
p3202
sS'func'
p3203
S'restricted'
p3204
sa(dp3205
g3180
S'/home/marco/flisol2012/web2py/applications/flisol2012/controllers/default.py'
p3206
sg3182
(dp3207
sg3188
I533
sg3189
(dp3208
I522
S"         t2.redirect('impersonate/%s'%request.args[0],flash=T('Invalid operation'))"
p3209
sI523
S''
sI524
S'@auth.requires_login()'
p3210
sI525
S'def cancel_payment2():'
p3211
sI526
S"    if not session.manager or len(request.args)<2: t2.redirect('index')"
p3212
sI527
S'    try:'
p3213
sI528
S"         db(db.payment.id==request.args[1]).update(status='CANCELLED')"
p3214
sI529
S"         t2.redirect('impersonate/%s'%request.args[0],flash=T('Payment cancelled'))"
p3215
sI530
S'    except Exception:'
p3216
sI531
S"         t2.redirect('impersonate/%s'%request.args[0],flash=T('Invalid operation'))"
p3217
ssg3201
S'()'
p3218
sg3203
S'<module>'
p3219
sa(dp3220
g3180
S'/home/marco/flisol2012/web2py/gluon/globals.py'
p3221
sg3182
(dp3222
S'self'
p3223
S'undefined'
p3224
sS'f'
S'<function create>'
p3225
ssg3188
I173
sg3189
(dp3226
I168
S'        self.menu = []             # used by the default view layout'
p3227
sI169
S'        self.files = []            # used by web2py_ajax.html'
p3228
sI170
S'        self.generic_patterns = [] # patterns to allow generic views'
p3229
sI171
S"        self.delimiters = ('{{','}}')"
p3230
sI172
S'        self._vars = None'
p3231
sI173
S'        self._caller = lambda f: f()'
p3232
sI174
S'        self._view_environment = None'
p3233
sI175
S'        self._custom_commit = None'
p3234
sI176
S'        self._custom_rollback = None'
p3235
sI177
S''
ssg3201
S'(f=<function create>)'
p3236
sg3203
S'<lambda>'
p3237
sa(dp3238
g3180
S'/home/marco/flisol2012/web2py/gluon/tools.py'
p3239
sg3182
(dp3240
S'action'
p3241
S'<function create>'
p3242
sS'a'
S'()'
p3243
sS'b'
g45
ssg3188
I2575
sg3189
(dp3244
I2570
S'                    flag = condition'
p3245
sI2571
S'                if not flag:'
p3246
sI2572
S'                    current.session.flash = self.messages.access_denied'
p3247
sI2573
S'                    return call_or_redirect('
p3248
sI2574
S'                        self.settings.on_failed_authorization)'
p3249
sI2575
S'                return action(*a, **b)'
p3250
sI2576
S'            f.__doc__ = action.__doc__'
p3251
sI2577
S'            f.__name__ = action.__name__'
p3252
sI2578
S'            f.__dict__.update(action.__dict__)'
p3253
sI2579
S'            return f'
p3254
ssg3201
S'(*a=(), **b={})'
p3255
sg3203
S'f'
sa(dp3256
g3180
S'/home/marco/flisol2012/web2py/applications/flisol2012/controllers/default.py'
p3257
sg3182
(dp3258
S'global t2'
p3259
S'<applications.flisol2012.modules.t2.T2 instance>'
p3260
sS't2.create'
p3261
S'<bound method T2.create of <applications.flisol2012.modules.t2.T2 instance>>'
p3262
sS'global db'
p3263
S"<DAL {'auth_event': <Table {'origin': <gluon.dal... '_id': <gluon.dal.Field object at 0x42fda50>}>}>"
p3264
sS'form'
p3265
g3224
sS'table'
p3266
S"'fa'"
p3267
ssg3188
I323
sg3189
(dp3268
I320
S"         t2.redirect('index')"
p3269
sI321
S'    table=request.args[0]'
p3270
sI322
S"    db[table]['exposes']=db[table].fields"
p3271
sI323
S'    form=t2.create(db[table])'
p3272
sI324
S"    db[table]['represent']=lambda item: A(item.id,':',"
p3273
sI325
S"        item[db[table].fields[1]],_href=t2.action('update',[table,item.id]))"
p3274
sI326
S'    search=t2.search(db[table])'
p3275
sI327
S'    return dict(form=form,search=search)'
p3276
sI318
S'def create():'
p3277
sI319
S'    if not (session.manager and request.args and request.args[0] in db.tables):'
p3278
ssg3201
S'()'
p3279
sg3203
S'create'
p3280
sa(dp3281
g3180
S'/home/marco/flisol2012/web2py/applications/flisol2012/modules/t2.py'
p3282
sg3182
(dp3283
S'showid'
p3284
g3224
sS'_class'
p3285
g3224
sS'col3'
p3286
S"{'created_on': None, 'hotel_nights': <gluon.html.XML object>, 'id': None, 'minimum_amount_requested': <gluon.html.XML object>, 'modified_on': None, 'person': None, 'rationale': <gluon.html.XML object>, 'registration_amount': <gluon.html.XML object>, 'roommates': <gluon.html.XML object>, 'total_amount_requested': <gluon.html.XML object>, ...}"
p3287
sS'builtinFalse'
p3288
g100
ssg3188
I417
sg3189
(dp3289
I416
S'        form=SQLFORM(table,fields=fields,labels=labels,\\'
p3290
sI417
S"                     showid=False,col3=col3,_class='t2-create')"
p3291
sI418
S'        self._stamp(table,form,create=True)'
p3292
sI419
S'        if type(vars)==type(lambda:0): vars(form)'
p3293
sI420
S'        else: form.vars.update(vars)'
p3294
sI421
S'        if form.accepts(request.vars,session):'
p3295
sI412
S'        if not next: next=request.function'
p3296
sI413
S"        fields=self._filter_fields(table.get('exposes',table.fields))"
p3297
sI414
S'        labels=self._get_labels(table)'
p3298
sI415
S'        col3=self._get_col3(table)'
p3299
ssg3201
S"(self=<applications.flisol2012.modules.t2.T2 instance>, table=<Table {'_db': <DAL {'auth_event': <Table {'orig...>, '_id': <gluon.dal.Field object at 0x2fda2d0>}>, next='create', vars={}, onaccept=None)"
p3300
sg3203
g3280
sa(dp3301
g3180
S'/home/marco/flisol2012/web2py/gluon/sqlhtml.py'
p3302
sg3182
(dp3303
S'default'
p3304
S'None'
p3305
sS'self.widgets.options.widget'
p3306
S"<bound method type.widget of <class 'gluon.sqlhtml.OptionsWidget'>>"
p3307
sS'self'
p3308
S'<gluon.sqlhtml.SQLFORM object>'
p3309
sS'inp'
p3310
g3224
sS'self.widgets'
p3311
S"<Storage {'multiple': <class 'gluon.sqlhtml.Mult...ss 'gluon.sqlhtml.OptionsWidget'>, 'blob': None}>"
p3312
sS'field'
p3313
S'<gluon.dal.Field object>'
p3314
sS'self.widgets.options'
p3315
S"<class 'gluon.sqlhtml.OptionsWidget'>"
p3316
ssg3188
I868
sg3189
(dp3317
I864
S'                else:'
p3318
sI865
S"                    inpval = ''"
p3319
sI866
S'            elif OptionsWidget.has_options(field):'
p3320
sI867
S'                if not field.requires.multiple:'
p3321
sI868
S'                    inp = self.widgets.options.widget(field, default)'
p3322
sI869
S'                else:'
p3323
sI870
S'                    inp = self.widgets.multiple.widget(field, default)'
p3324
sI871
S'                if fieldname in keepopts:'
p3325
sI872
S"                    inpval = TAG[''](*inp.components)"
p3326
sI863
S"                    inpval = 'checked'"
p3327
ssg3201
S"(self=<gluon.sqlhtml.SQLFORM object>, table=<Table {'_db': <DAL {'auth_event': <Table {'orig...>, '_id': <gluon.dal.Field object at 0x2fda2d0>}>, record=None, deletable=False, linkto=None, upload=None, fields=['id', 'person', 'registration_amount', 'hotel_nights', 'total_lodging_amount', 'roommates', 'transportation_details', 'transportation_amount', 'total_amount_requested', 'minimum_amount_requested', 'rationale'], labels={'created_on': 'Created On', 'hotel_nights': 'Hotel Nights', 'id': 'Id', 'minimum_amount_requested': 'Minimum Amount Requested', 'modified_on': 'Modified On', 'person': 'Person', 'rationale': 'Rationale', 'registration_amount': 'Registration Amount', 'roommates': 'Roommates', 'total_amount_requested': 'Total Amount Requested', ...}, col3={'created_on': None, 'hotel_nights': <gluon.html.XML object>, 'id': None, 'minimum_amount_requested': <gluon.html.XML object>, 'modified_on': None, 'person': None, 'rationale': <gluon.html.XML object>, 'registration_amount': <gluon.html.XML object>, 'roommates': <gluon.html.XML object>, 'total_amount_requested': <gluon.html.XML object>, ...}, submit_button='Submit', delete_label='Check to delete', showid=False, readonly=False, comments=True, keepopts=[], ignore_rw=False, record_id=None, formstyle='table3cols', buttons=['submit'], separator=': ', **attributes={'_class': 't2-create'})"
p3328
sg3203
g50
sa(dp3329
g3180
S'/home/marco/flisol2012/web2py/gluon/sqlhtml.py'
p3330
sg3182
(dp3331
S'].options'
p3332
g3224
sS'requires'
p3333
S'[<gluon.validators.IS_IN_DB object>]'
p3334
sS'options'
p3335
g3224
ssg3188
I216
sg3189
(dp3336
I211
S'        requires = field.requires'
p3337
sI212
S'        if not isinstance(requires, (list, tuple)):'
p3338
sI213
S'            requires = [requires]'
p3339
sI214
S'        if requires:'
p3340
sI215
S"            if hasattr(requires[0], 'options'):"
p3341
sI216
S'                options = requires[0].options()'
p3342
sI217
S'            else:'
p3343
sI218
S"                raise SyntaxError, 'widget cannot determine options of %s' % field"
p3344
sI219
S'        opts = [OPTION(v, _value=k) for (k, v) in options]'
p3345
sI220
S''
ssg3201
S"(cls=<class 'gluon.sqlhtml.OptionsWidget'>, field=<gluon.dal.Field object>, value=None, **attributes={})"
p3346
sg3203
S'widget'
p3347
sa(dp3348
g3180
S'/home/marco/flisol2012/web2py/gluon/validators.py'
p3349
sg3182
(dp3350
S'self'
p3351
S'<gluon.validators.IS_IN_DB object>'
p3352
sS'self.build_set'
p3353
S'<bound method IS_IN_DB.build_set of <gluon.validators.IS_IN_DB object>>'
p3354
ssg3188
I465
sg3189
(dp3355
I460
S'            self.labels = [self.label % dict(r) for r in records]'
p3356
sI461
S'        else:'
p3357
sI462
S'            self.labels = [self.label(r) for r in records]'
p3358
sI463
S''
sI464
S'    def options(self, zero=True):'
p3359
sI465
S'        self.build_set()'
p3360
sI466
S'        items = [(k, self.labels[i]) for (i, k) in enumerate(self.theset)]'
p3361
sI467
S'        if self.sort:'
p3362
sI468
S'            items.sort(options_sorter)'
p3363
sI469
S'        if zero and not self.zero is None and not self.multiple:'
p3364
ssg3201
S'(self=<gluon.validators.IS_IN_DB object>, zero=True)'
p3365
sg3203
S'options'
p3366
sa(dp3367
g3180
S'/home/marco/flisol2012/web2py/gluon/validators.py'
p3368
sg3182
(dp3369
S'self.fields'
p3370
S"['name', 'id']"
p3371
sS'fields'
p3372
g3224
sS'k'
S"'name'"
p3373
sS'self'
p3374
S'<gluon.validators.IS_IN_DB object>'
p3375
sS'table'
p3376
S"<Table {'last_name': <gluon.dal.Field object at ...ion_key': <gluon.dal.Field object at 0x43d5b50>}>"
p3377
ssg3188
I447
sg3189
(dp3378
I448
S"        if self.dbset.db._dbname != 'gae':"
p3379
sI449
S'            orderby = self.orderby or reduce(lambda a,b:a|b,fields)'
p3380
sI450
S'            groupby = self.groupby'
p3381
sI451
S'            dd = dict(orderby=orderby, groupby=groupby, cache=self.cache)'
p3382
sI442
S'    def build_set(self):'
p3383
sI443
S'        table = self.dbset.db[self.ktable]'
p3384
sI444
S"        if self.fields == 'all':"
p3385
sI445
S'            fields = [f for f in table]'
p3386
sI446
S'        else:'
p3387
sI447
S'            fields = [table[k] for k in self.fields]'
p3388
ssg3201
S'(self=<gluon.validators.IS_IN_DB object>)'
p3389
sg3203
S'build_set'
p3390
sa(dp3391
g3180
S'/home/marco/flisol2012/web2py/gluon/dal.py'
p3392
sg3182
(dp3393
S'builtinstr'
p3394
S"<type 'str'>"
p3395
sS'self'
p3396
S"<Table {'last_name': <gluon.dal.Field object at ...ion_key': <gluon.dal.Field object at 0x43d5b50>}>"
p3397
sS'dict.__getitem__'
p3398
S"<method '__getitem__' of 'dict' objects>"
p3399
sS'key'
p3400
S"'name'"
p3401
sS'builtindict'
p3402
S"<type 'dict'>"
p3403
ssg3188
I6714
sg3189
(dp3404
I6709
S'                return rows[0]'
p3405
sI6710
S'            return None'
p3406
sI6711
S'        elif str(key).isdigit():'
p3407
sI6712
S'            return self._db(self._id == key).select(limitby=(0,1)).first()'
p3408
sI6713
S'        elif key:'
p3409
sI6714
S'            return dict.__getitem__(self, str(key))'
p3410
sI6715
S''
sI6716
S'    def __call__(self, key=DEFAULT, **kwargs):'
p3411
sI6717
S"        for_update = kwargs.get('_for_update',False)"
p3412
sI6718
S"        if '_for_update' in kwargs: del kwargs['_for_update']"
p3413
ssg3201
S"(self=<Table {'last_name': <gluon.dal.Field object at ...ion_key': <gluon.dal.Field object at 0x43d5b50>}>, key='name')"
p3414
sg3203
g20
sasS'pyver'
p3415
S'Python 2.7.2+: /usr/bin/python'
p3416
sS'session'
p3417
g57
(g58
g59
NtRp3418
(dp3419
g62
(dp3420
sg64
(lp3421
g57
(g66
g59
NtRp3422
(dp3423
g62
(dp3424
g70
I5
ssg71
Nsg64
(lp3425
g57
(g73
g59
NtRp3426
(dp3427
g62
(dp3428
sg71
g3422
sg64
(lp3429
g57
(g78
g59
NtRp3430
(dp3431
g62
(dp3432
g82
g83
ssg71
g3426
sg64
(lp3433
S'amount_added'
p3434
asbag57
(g78
g59
NtRp3435
(dp3436
g62
(dp3437
g89
g90
ssg71
g3426
sg64
(lp3438
S':'
asbag57
(g78
g59
NtRp3439
(dp3440
g62
(dp3441
sg71
g3426
sg64
(lp3442
g57
(g58
g59
NtRp3443
(dp3444
g62
(dp3445
g70
I5
ssg71
g3439
sg64
(lp3446
S'0.0'
p3447
asbasbasbag57
(g73
g59
NtRp3448
(dp3449
g62
(dp3450
sg71
g3422
sg64
(lp3451
g57
(g78
g59
NtRp3452
(dp3453
g62
(dp3454
g82
g83
ssg71
g3448
sg64
(lp3455
S'amount_billed'
p3456
asbag57
(g78
g59
NtRp3457
(dp3458
g62
(dp3459
g89
g90
ssg71
g3448
sg64
(lp3460
S':'
asbag57
(g78
g59
NtRp3461
(dp3462
g62
(dp3463
sg71
g3448
sg64
(lp3464
g57
(g58
g59
NtRp3465
(dp3466
g62
(dp3467
g70
I5
ssg71
g3461
sg64
(lp3468
S'0.0'
p3469
asbasbasbag57
(g73
g59
NtRp3470
(dp3471
g62
(dp3472
sg71
g3422
sg64
(lp3473
g57
(g78
g59
NtRp3474
(dp3475
g62
(dp3476
g82
g83
ssg71
g3470
sg64
(lp3477
S'amount_paid'
p3478
asbag57
(g78
g59
NtRp3479
(dp3480
g62
(dp3481
g89
g90
ssg71
g3470
sg64
(lp3482
S':'
asbag57
(g78
g59
NtRp3483
(dp3484
g62
(dp3485
sg71
g3470
sg64
(lp3486
g57
(g58
g59
NtRp3487
(dp3488
g62
(dp3489
g70
I5
ssg71
g3483
sg64
(lp3490
S'0.0'
p3491
asbasbasbag57
(g73
g59
NtRp3492
(dp3493
g62
(dp3494
sg71
g3422
sg64
(lp3495
g57
(g78
g59
NtRp3496
(dp3497
g62
(dp3498
g82
g83
ssg71
g3492
sg64
(lp3499
S'amount_subtracted'
p3500
asbag57
(g78
g59
NtRp3501
(dp3502
g62
(dp3503
g89
g90
ssg71
g3492
sg64
(lp3504
S':'
asbag57
(g78
g59
NtRp3505
(dp3506
g62
(dp3507
sg71
g3492
sg64
(lp3508
g57
(g58
g59
NtRp3509
(dp3510
g62
(dp3511
g70
I5
ssg71
g3505
sg64
(lp3512
S'0.0'
p3513
asbasbasbag57
(g73
g59
NtRp3514
(dp3515
g62
(dp3516
sg71
g3422
sg64
(lp3517
g57
(g78
g59
NtRp3518
(dp3519
g62
(dp3520
g82
g83
ssg71
g3514
sg64
(lp3521
S'auth'
p3522
asbag57
(g78
g59
NtRp3523
(dp3524
g62
(dp3525
g89
g90
ssg71
g3514
sg64
(lp3526
S':'
asbag57
(g78
g59
NtRp3527
(dp3528
g62
(dp3529
sg71
g3514
sg64
(lp3530
g57
(g58
g59
NtRp3531
(dp3532
g62
(dp3533
g70
I5
ssg71
g3527
sg64
(lp3534
g57
(g66
g59
NtRp3535
(dp3536
g62
(dp3537
g70
I4
ssg71
Nsg64
(lp3538
g57
(g73
g59
NtRp3539
(dp3540
g62
(dp3541
sg71
g3535
sg64
(lp3542
g57
(g78
g59
NtRp3543
(dp3544
g62
(dp3545
g82
g83
ssg71
g3539
sg64
(lp3546
S'expiration'
p3547
asbag57
(g78
g59
NtRp3548
(dp3549
g62
(dp3550
g89
g90
ssg71
g3539
sg64
(lp3551
S':'
asbag57
(g78
g59
NtRp3552
(dp3553
g62
(dp3554
sg71
g3539
sg64
(lp3555
g57
(g58
g59
NtRp3556
(dp3557
g62
(dp3558
g70
I4
ssg71
g3552
sg64
(lp3559
S'3600'
p3560
asbasbasbag57
(g73
g59
NtRp3561
(dp3562
g62
(dp3563
sg71
g3535
sg64
(lp3564
g57
(g78
g59
NtRp3565
(dp3566
g62
(dp3567
g82
g83
ssg71
g3561
sg64
(lp3568
S'hmac_key'
p3569
asbag57
(g78
g59
NtRp3570
(dp3571
g62
(dp3572
g89
g90
ssg71
g3561
sg64
(lp3573
S':'
asbag57
(g78
g59
NtRp3574
(dp3575
g62
(dp3576
sg71
g3561
sg64
(lp3577
g57
(g58
g59
NtRp3578
(dp3579
g62
(dp3580
g70
I4
ssg71
g3574
sg64
(lp3581
S'44c6d752-de8b-48d9-afcc-44f40944cf09'
p3582
asbasbasbag57
(g73
g59
NtRp3583
(dp3584
g62
(dp3585
sg71
g3535
sg64
(lp3586
g57
(g78
g59
NtRp3587
(dp3588
g62
(dp3589
g82
g83
ssg71
g3583
sg64
(lp3590
S'last_visit'
p3591
asbag57
(g78
g59
NtRp3592
(dp3593
g62
(dp3594
g89
g90
ssg71
g3583
sg64
(lp3595
S':'
asbag57
(g78
g59
NtRp3596
(dp3597
g62
(dp3598
sg71
g3583
sg64
(lp3599
g57
(g58
g59
NtRp3600
(dp3601
g62
(dp3602
g70
I4
ssg71
g3596
sg64
(lp3603
S'datetime.datetime(2012, 3, 9, 19, 16, 42, 212239)'
p3604
asbasbasbag57
(g73
g59
NtRp3605
(dp3606
g62
(dp3607
sg71
g3535
sg64
(lp3608
g57
(g78
g59
NtRp3609
(dp3610
g62
(dp3611
g82
g83
ssg71
g3605
sg64
(lp3612
S'remember'
p3613
asbag57
(g78
g59
NtRp3614
(dp3615
g62
(dp3616
g89
g90
ssg71
g3605
sg64
(lp3617
S':'
asbag57
(g78
g59
NtRp3618
(dp3619
g62
(dp3620
sg71
g3605
sg64
(lp3621
g57
(g58
g59
NtRp3622
(dp3623
g62
(dp3624
g70
I4
ssg71
g3618
sg64
(lp3625
g100
asbasbasbag57
(g73
g59
NtRp3626
(dp3627
g62
(dp3628
sg71
g3535
sg64
(lp3629
g57
(g78
g59
NtRp3630
(dp3631
g62
(dp3632
g82
g83
ssg71
g3626
sg64
(lp3633
S'user'
p3634
asbag57
(g78
g59
NtRp3635
(dp3636
g62
(dp3637
g89
g90
ssg71
g3626
sg64
(lp3638
S':'
asbag57
(g78
g59
NtRp3639
(dp3640
g62
(dp3641
sg71
g3626
sg64
(lp3642
g57
(g58
g59
NtRp3643
(dp3644
g62
(dp3645
g70
I4
ssg71
g3639
sg64
(lp3646
g57
(g66
g59
NtRp3647
(dp3648
g62
(dp3649
g70
I3
ssg71
Nsg64
(lp3650
g57
(g73
g59
NtRp3651
(dp3652
g62
(dp3653
sg71
g3647
sg64
(lp3654
g57
(g78
g59
NtRp3655
(dp3656
g62
(dp3657
g82
g83
ssg71
g3651
sg64
(lp3658
S'address'
p3659
asbag57
(g78
g59
NtRp3660
(dp3661
g62
(dp3662
g89
g90
ssg71
g3651
sg64
(lp3663
S':'
asbag57
(g78
g59
NtRp3664
(dp3665
g62
(dp3666
sg71
g3651
sg64
(lp3667
g57
(g58
g59
NtRp3668
(dp3669
g62
(dp3670
g70
I3
ssg71
g3664
sg64
(lp3671
S'Santa Lucia S/N'
p3672
asbasbasbag57
(g73
g59
NtRp3673
(dp3674
g62
(dp3675
sg71
g3647
sg64
(lp3676
g57
(g78
g59
NtRp3677
(dp3678
g62
(dp3679
g82
g83
ssg71
g3673
sg64
(lp3680
S'amount_added'
p3681
asbag57
(g78
g59
NtRp3682
(dp3683
g62
(dp3684
g89
g90
ssg71
g3673
sg64
(lp3685
S':'
asbag57
(g78
g59
NtRp3686
(dp3687
g62
(dp3688
sg71
g3673
sg64
(lp3689
g57
(g58
g59
NtRp3690
(dp3691
g62
(dp3692
g70
I3
ssg71
g3686
sg64
(lp3693
S'0.0'
p3694
asbasbasbag57
(g73
g59
NtRp3695
(dp3696
g62
(dp3697
sg71
g3647
sg64
(lp3698
g57
(g78
g59
NtRp3699
(dp3700
g62
(dp3701
g82
g83
ssg71
g3695
sg64
(lp3702
S'amount_billed'
p3703
asbag57
(g78
g59
NtRp3704
(dp3705
g62
(dp3706
g89
g90
ssg71
g3695
sg64
(lp3707
S':'
asbag57
(g78
g59
NtRp3708
(dp3709
g62
(dp3710
sg71
g3695
sg64
(lp3711
g57
(g58
g59
NtRp3712
(dp3713
g62
(dp3714
g70
I3
ssg71
g3708
sg64
(lp3715
S'0.0'
p3716
asbasbasbag57
(g73
g59
NtRp3717
(dp3718
g62
(dp3719
sg71
g3647
sg64
(lp3720
g57
(g78
g59
NtRp3721
(dp3722
g62
(dp3723
g82
g83
ssg71
g3717
sg64
(lp3724
S'amount_due'
p3725
asbag57
(g78
g59
NtRp3726
(dp3727
g62
(dp3728
g89
g90
ssg71
g3717
sg64
(lp3729
S':'
asbag57
(g78
g59
NtRp3730
(dp3731
g62
(dp3732
sg71
g3717
sg64
(lp3733
g57
(g58
g59
NtRp3734
(dp3735
g62
(dp3736
g70
I3
ssg71
g3730
sg64
(lp3737
S'0.0'
p3738
asbasbasbag57
(g73
g59
NtRp3739
(dp3740
g62
(dp3741
sg71
g3647
sg64
(lp3742
g57
(g78
g59
NtRp3743
(dp3744
g62
(dp3745
g82
g83
ssg71
g3739
sg64
(lp3746
S'amount_paid'
p3747
asbag57
(g78
g59
NtRp3748
(dp3749
g62
(dp3750
g89
g90
ssg71
g3739
sg64
(lp3751
S':'
asbag57
(g78
g59
NtRp3752
(dp3753
g62
(dp3754
sg71
g3739
sg64
(lp3755
g57
(g58
g59
NtRp3756
(dp3757
g62
(dp3758
g70
I3
ssg71
g3752
sg64
(lp3759
S'0.0'
p3760
asbasbasbag57
(g73
g59
NtRp3761
(dp3762
g62
(dp3763
sg71
g3647
sg64
(lp3764
g57
(g78
g59
NtRp3765
(dp3766
g62
(dp3767
g82
g83
ssg71
g3761
sg64
(lp3768
S'amount_subtracted'
p3769
asbag57
(g78
g59
NtRp3770
(dp3771
g62
(dp3772
g89
g90
ssg71
g3761
sg64
(lp3773
S':'
asbag57
(g78
g59
NtRp3774
(dp3775
g62
(dp3776
sg71
g3761
sg64
(lp3777
g57
(g58
g59
NtRp3778
(dp3779
g62
(dp3780
g70
I3
ssg71
g3774
sg64
(lp3781
S'0.0'
p3782
asbasbasbag57
(g73
g59
NtRp3783
(dp3784
g62
(dp3785
sg71
g3647
sg64
(lp3786
g57
(g78
g59
NtRp3787
(dp3788
g62
(dp3789
g82
g83
ssg71
g3783
sg64
(lp3790
S'attendee_type'
p3791
asbag57
(g78
g59
NtRp3792
(dp3793
g62
(dp3794
g89
g90
ssg71
g3783
sg64
(lp3795
S':'
asbag57
(g78
g59
NtRp3796
(dp3797
g62
(dp3798
sg71
g3783
sg64
(lp3799
g57
(g58
g59
NtRp3800
(dp3801
g62
(dp3802
g70
I3
ssg71
g3796
sg64
(lp3803
S'gratis'
p3804
asbasbasbag57
(g73
g59
NtRp3805
(dp3806
g62
(dp3807
sg71
g3647
sg64
(lp3808
g57
(g78
g59
NtRp3809
(dp3810
g62
(dp3811
g82
g83
ssg71
g3805
sg64
(lp3812
S'city'
p3813
asbag57
(g78
g59
NtRp3814
(dp3815
g62
(dp3816
g89
g90
ssg71
g3805
sg64
(lp3817
S':'
asbag57
(g78
g59
NtRp3818
(dp3819
g62
(dp3820
sg71
g3805
sg64
(lp3821
g57
(g58
g59
NtRp3822
(dp3823
g62
(dp3824
g70
I3
ssg71
g3818
sg64
(lp3825
S'Salta'
p3826
asbasbasbag57
(g73
g59
NtRp3827
(dp3828
g62
(dp3829
sg71
g3647
sg64
(lp3830
g57
(g78
g59
NtRp3831
(dp3832
g62
(dp3833
g82
g83
ssg71
g3827
sg64
(lp3834
S'company_home_page'
p3835
asbag57
(g78
g59
NtRp3836
(dp3837
g62
(dp3838
g89
g90
ssg71
g3827
sg64
(lp3839
S':'
asbag57
(g78
g59
NtRp3840
(dp3841
g62
(dp3842
sg71
g3827
sg64
(lp3843
g57
(g58
g59
NtRp3844
(dp3845
g62
(dp3846
g70
I3
ssg71
g3840
sg64
(lp3847
S'http://www.esdebian.org'
p3848
asbasbasbag57
(g73
g59
NtRp3849
(dp3850
g62
(dp3851
sg71
g3647
sg64
(lp3852
g57
(g78
g59
NtRp3853
(dp3854
g62
(dp3855
g82
g83
ssg71
g3849
sg64
(lp3856
S'company_name'
p3857
asbag57
(g78
g59
NtRp3858
(dp3859
g62
(dp3860
g89
g90
ssg71
g3849
sg64
(lp3861
S':'
asbag57
(g78
g59
NtRp3862
(dp3863
g62
(dp3864
sg71
g3849
sg64
(lp3865
g57
(g58
g59
NtRp3866
(dp3867
g62
(dp3868
g70
I3
ssg71
g3862
sg64
(lp3869
S'Debian OS'
p3870
asbasbasbag57
(g73
g59
NtRp3871
(dp3872
g62
(dp3873
sg71
g3647
sg64
(lp3874
g57
(g78
g59
NtRp3875
(dp3876
g62
(dp3877
g82
g83
ssg71
g3871
sg64
(lp3878
S'country'
p3879
asbag57
(g78
g59
NtRp3880
(dp3881
g62
(dp3882
g89
g90
ssg71
g3871
sg64
(lp3883
S':'
asbag57
(g78
g59
NtRp3884
(dp3885
g62
(dp3886
sg71
g3871
sg64
(lp3887
g57
(g58
g59
NtRp3888
(dp3889
g62
(dp3890
g70
I3
ssg71
g3884
sg64
(lp3891
S'Argentina'
p3892
asbasbasbag57
(g73
g59
NtRp3893
(dp3894
g62
(dp3895
sg71
g3647
sg64
(lp3896
g57
(g78
g59
NtRp3897
(dp3898
g62
(dp3899
g82
g83
ssg71
g3893
sg64
(lp3900
S'created_by_ip'
p3901
asbag57
(g78
g59
NtRp3902
(dp3903
g62
(dp3904
g89
g90
ssg71
g3893
sg64
(lp3905
S':'
asbag57
(g78
g59
NtRp3906
(dp3907
g62
(dp3908
sg71
g3893
sg64
(lp3909
g57
(g58
g59
NtRp3910
(dp3911
g62
(dp3912
g70
I3
ssg71
g3906
sg64
(lp3913
S'127.0.0.1'
p3914
asbasbasbag57
(g73
g59
NtRp3915
(dp3916
g62
(dp3917
sg71
g3647
sg64
(lp3918
g57
(g78
g59
NtRp3919
(dp3920
g62
(dp3921
g82
g83
ssg71
g3915
sg64
(lp3922
S'created_on'
p3923
asbag57
(g78
g59
NtRp3924
(dp3925
g62
(dp3926
g89
g90
ssg71
g3915
sg64
(lp3927
S':'
asbag57
(g78
g59
NtRp3928
(dp3929
g62
(dp3930
sg71
g3915
sg64
(lp3931
g57
(g58
g59
NtRp3932
(dp3933
g62
(dp3934
g70
I3
ssg71
g3928
sg64
(lp3935
S'datetime.datetime(2012, 3, 9, 2, 56, 49)'
p3936
asbasbasbag57
(g73
g59
NtRp3937
(dp3938
g62
(dp3939
sg71
g3647
sg64
(lp3940
g57
(g78
g59
NtRp3941
(dp3942
g62
(dp3943
g82
g83
ssg71
g3937
sg64
(lp3944
S'discount_coupon'
p3945
asbag57
(g78
g59
NtRp3946
(dp3947
g62
(dp3948
g89
g90
ssg71
g3937
sg64
(lp3949
S':'
asbag57
(g78
g59
NtRp3950
(dp3951
g62
(dp3952
sg71
g3937
sg64
(lp3953
g57
(g58
g59
NtRp3954
(dp3955
g62
(dp3956
g70
I3
ssg71
g3950
sg64
(lp3957
S'None'
p3958
asbasbasbag57
(g73
g59
NtRp3959
(dp3960
g62
(dp3961
sg71
g3647
sg64
(lp3962
g57
(g78
g59
NtRp3963
(dp3964
g62
(dp3965
g82
g83
ssg71
g3959
sg64
(lp3966
S'donation'
p3967
asbag57
(g78
g59
NtRp3968
(dp3969
g62
(dp3970
g89
g90
ssg71
g3959
sg64
(lp3971
S':'
asbag57
(g78
g59
NtRp3972
(dp3973
g62
(dp3974
sg71
g3959
sg64
(lp3975
g57
(g58
g59
NtRp3976
(dp3977
g62
(dp3978
g70
I3
ssg71
g3972
sg64
(lp3979
S'0.0'
p3980
asbasbasbag57
(g73
g59
NtRp3981
(dp3982
g62
(dp3983
sg71
g3647
sg64
(lp3984
g57
(g78
g59
NtRp3985
(dp3986
g62
(dp3987
g82
g83
ssg71
g3981
sg64
(lp3988
S'email'
p3989
asbag57
(g78
g59
NtRp3990
(dp3991
g62
(dp3992
g89
g90
ssg71
g3981
sg64
(lp3993
S':'
asbag57
(g78
g59
NtRp3994
(dp3995
g62
(dp3996
sg71
g3981
sg64
(lp3997
g57
(g58
g59
NtRp3998
(dp3999
g62
(dp4000
g70
I3
ssg71
g3994
sg64
(lp4001
S'marco@saltalug.org.ar'
p4002
asbasbasbag57
(g73
g59
NtRp4003
(dp4004
g62
(dp4005
sg71
g3647
sg64
(lp4006
g57
(g78
g59
NtRp4007
(dp4008
g62
(dp4009
g82
g83
ssg71
g4003
sg64
(lp4010
S'first_name'
p4011
asbag57
(g78
g59
NtRp4012
(dp4013
g62
(dp4014
g89
g90
ssg71
g4003
sg64
(lp4015
S':'
asbag57
(g78
g59
NtRp4016
(dp4017
g62
(dp4018
sg71
g4003
sg64
(lp4019
g57
(g58
g59
NtRp4020
(dp4021
g62
(dp4022
g70
I3
ssg71
g4016
sg64
(lp4023
S'Marco'
p4024
asbasbasbag57
(g73
g59
NtRp4025
(dp4026
g62
(dp4027
sg71
g3647
sg64
(lp4028
g57
(g78
g59
NtRp4029
(dp4030
g62
(dp4031
g82
g83
ssg71
g4025
sg64
(lp4032
S'id'
p4033
asbag57
(g78
g59
NtRp4034
(dp4035
g62
(dp4036
g89
g90
ssg71
g4025
sg64
(lp4037
S':'
asbag57
(g78
g59
NtRp4038
(dp4039
g62
(dp4040
sg71
g4025
sg64
(lp4041
g57
(g58
g59
NtRp4042
(dp4043
g62
(dp4044
g70
I3
ssg71
g4038
sg64
(lp4045
S'55'
p4046
asbasbasbag57
(g73
g59
NtRp4047
(dp4048
g62
(dp4049
sg71
g3647
sg64
(lp4050
g57
(g78
g59
NtRp4051
(dp4052
g62
(dp4053
g82
g83
ssg71
g4047
sg64
(lp4054
S'include_in_delegate_listing'
p4055
asbag57
(g78
g59
NtRp4056
(dp4057
g62
(dp4058
g89
g90
ssg71
g4047
sg64
(lp4059
S':'
asbag57
(g78
g59
NtRp4060
(dp4061
g62
(dp4062
sg71
g4047
sg64
(lp4063
g57
(g58
g59
NtRp4064
(dp4065
g62
(dp4066
g70
I3
ssg71
g4060
sg64
(lp4067
g1854
asbasbasbag57
(g73
g59
NtRp4068
(dp4069
g62
(dp4070
sg71
g3647
sg64
(lp4071
g57
(g78
g59
NtRp4072
(dp4073
g62
(dp4074
g82
g83
ssg71
g4068
sg64
(lp4075
S'installfest_hardware'
p4076
asbag57
(g78
g59
NtRp4077
(dp4078
g62
(dp4079
g89
g90
ssg71
g4068
sg64
(lp4080
S':'
asbag57
(g78
g59
NtRp4081
(dp4082
g62
(dp4083
sg71
g4068
sg64
(lp4084
g57
(g58
g59
NtRp4085
(dp4086
g62
(dp4087
g70
I3
ssg71
g4081
sg64
(lp4088
S'kakafono'
p4089
asbasbasbag57
(g73
g59
NtRp4090
(dp4091
g62
(dp4092
sg71
g3647
sg64
(lp4093
g57
(g78
g59
NtRp4094
(dp4095
g62
(dp4096
g82
g83
ssg71
g4090
sg64
(lp4097
S'installfest_os'
p4098
asbag57
(g78
g59
NtRp4099
(dp4100
g62
(dp4101
g89
g90
ssg71
g4090
sg64
(lp4102
S':'
asbag57
(g78
g59
NtRp4103
(dp4104
g62
(dp4105
sg71
g4090
sg64
(lp4106
g57
(g58
g59
NtRp4107
(dp4108
g62
(dp4109
g70
I3
ssg71
g4103
sg64
(lp4110
S'Debian'
p4111
asbasbasbag57
(g73
g59
NtRp4112
(dp4113
g62
(dp4114
sg71
g3647
sg64
(lp4115
g57
(g78
g59
NtRp4116
(dp4117
g62
(dp4118
g82
g83
ssg71
g4112
sg64
(lp4119
S'last_name'
p4120
asbag57
(g78
g59
NtRp4121
(dp4122
g62
(dp4123
g89
g90
ssg71
g4112
sg64
(lp4124
S':'
asbag57
(g78
g59
NtRp4125
(dp4126
g62
(dp4127
sg71
g4112
sg64
(lp4128
g57
(g58
g59
NtRp4129
(dp4130
g62
(dp4131
g70
I3
ssg71
g4125
sg64
(lp4132
S'Mansilla'
p4133
asbasbasbag57
(g73
g59
NtRp4134
(dp4135
g62
(dp4136
sg71
g3647
sg64
(lp4137
g57
(g78
g59
NtRp4138
(dp4139
g62
(dp4140
g82
g83
ssg71
g4134
sg64
(lp4141
S'latitude'
p4142
asbag57
(g78
g59
NtRp4143
(dp4144
g62
(dp4145
g89
g90
ssg71
g4134
sg64
(lp4146
S':'
asbag57
(g78
g59
NtRp4147
(dp4148
g62
(dp4149
sg71
g4134
sg64
(lp4150
g57
(g58
g59
NtRp4151
(dp4152
g62
(dp4153
g70
I3
ssg71
g4147
sg64
(lp4154
S'-24.8442777'
p4155
asbasbasbag57
(g73
g59
NtRp4156
(dp4157
g62
(dp4158
sg71
g3647
sg64
(lp4159
g57
(g78
g59
NtRp4160
(dp4161
g62
(dp4162
g82
g83
ssg71
g4156
sg64
(lp4163
S'longitude'
p4164
asbag57
(g78
g59
NtRp4165
(dp4166
g62
(dp4167
g89
g90
ssg71
g4156
sg64
(lp4168
S':'
asbag57
(g78
g59
NtRp4169
(dp4170
g62
(dp4171
sg71
g4156
sg64
(lp4172
g57
(g58
g59
NtRp4173
(dp4174
g62
(dp4175
g70
I3
ssg71
g4169
sg64
(lp4176
S'-65.4787676'
p4177
asbasbasbag57
(g73
g59
NtRp4178
(dp4179
g62
(dp4180
sg71
g3647
sg64
(lp4181
g57
(g78
g59
NtRp4182
(dp4183
g62
(dp4184
g82
g83
ssg71
g4178
sg64
(lp4185
S'manager'
p4186
asbag57
(g78
g59
NtRp4187
(dp4188
g62
(dp4189
g89
g90
ssg71
g4178
sg64
(lp4190
S':'
asbag57
(g78
g59
NtRp4191
(dp4192
g62
(dp4193
sg71
g4178
sg64
(lp4194
g57
(g58
g59
NtRp4195
(dp4196
g62
(dp4197
g70
I3
ssg71
g4191
sg64
(lp4198
g1854
asbasbasbag57
(g73
g59
NtRp4199
(dp4200
g62
(dp4201
sg71
g3647
sg64
(lp4202
g57
(g78
g59
NtRp4203
(dp4204
g62
(dp4205
g82
g83
ssg71
g4199
sg64
(lp4206
S'password'
p4207
asbag57
(g78
g59
NtRp4208
(dp4209
g62
(dp4210
g89
g90
ssg71
g4199
sg64
(lp4211
S':'
asbag57
(g78
g59
NtRp4212
(dp4213
g62
(dp4214
sg71
g4199
sg64
(lp4215
g57
(g58
g59
NtRp4216
(dp4217
g62
(dp4218
g70
I3
ssg71
g4212
sg64
(lp4219
S'121c120f6831e94b12b41d853c3f672b'
p4220
asbasbasbag57
(g73
g59
NtRp4221
(dp4222
g62
(dp4223
sg71
g3647
sg64
(lp4224
g57
(g78
g59
NtRp4225
(dp4226
g62
(dp4227
g82
g83
ssg71
g4221
sg64
(lp4228
S'personal_home_page'
p4229
asbag57
(g78
g59
NtRp4230
(dp4231
g62
(dp4232
g89
g90
ssg71
g4221
sg64
(lp4233
S':'
asbag57
(g78
g59
NtRp4234
(dp4235
g62
(dp4236
sg71
g4221
sg64
(lp4237
g57
(g58
g59
NtRp4238
(dp4239
g62
(dp4240
g70
I3
ssg71
g4234
sg64
(lp4241
S'http://www.esdebian.org'
p4242
asbasbasbag57
(g73
g59
NtRp4243
(dp4244
g62
(dp4245
sg71
g3647
sg64
(lp4246
g57
(g78
g59
NtRp4247
(dp4248
g62
(dp4249
g82
g83
ssg71
g4243
sg64
(lp4250
S'phone_number'
p4251
asbag57
(g78
g59
NtRp4252
(dp4253
g62
(dp4254
g89
g90
ssg71
g4243
sg64
(lp4255
S':'
asbag57
(g78
g59
NtRp4256
(dp4257
g62
(dp4258
sg71
g4243
sg64
(lp4259
g57
(g58
g59
NtRp4260
(dp4261
g62
(dp4262
g70
I3
ssg71
g4256
sg64
(lp4263
S'76543456789'
p4264
asbasbasbag57
(g73
g59
NtRp4265
(dp4266
g62
(dp4267
sg71
g3647
sg64
(lp4268
g57
(g78
g59
NtRp4269
(dp4270
g62
(dp4271
g82
g83
ssg71
g4265
sg64
(lp4272
S'registration_key'
p4273
asbag57
(g78
g59
NtRp4274
(dp4275
g62
(dp4276
g89
g90
ssg71
g4265
sg64
(lp4277
S':'
asbag57
(g78
g59
NtRp4278
(dp4279
g62
(dp4280
sg71
g4265
sg64
(lp4281
g57
(g58
g59
NtRp4282
(dp4283
g62
(dp4284
g70
I3
ssg71
g4278
sg64
(lp4285
S''
asbasbasbag57
(g73
g59
NtRp4286
(dp4287
g62
(dp4288
sg71
g3647
sg64
(lp4289
g57
(g78
g59
NtRp4290
(dp4291
g62
(dp4292
g82
g83
ssg71
g4286
sg64
(lp4293
S'resume'
p4294
asbag57
(g78
g59
NtRp4295
(dp4296
g62
(dp4297
g89
g90
ssg71
g4286
sg64
(lp4298
S':'
asbag57
(g78
g59
NtRp4299
(dp4300
g62
(dp4301
sg71
g4286
sg64
(lp4302
g57
(g58
g59
NtRp4303
(dp4304
g62
(dp4305
g70
I3
ssg71
g4299
sg64
(lp4306
S'None'
p4307
asbasbasbag57
(g73
g59
NtRp4308
(dp4309
g62
(dp4310
sg71
g3647
sg64
(lp4311
g57
(g78
g59
NtRp4312
(dp4313
g62
(dp4314
g82
g83
ssg71
g4308
sg64
(lp4315
S'reviewer'
p4316
asbag57
(g78
g59
NtRp4317
(dp4318
g62
(dp4319
g89
g90
ssg71
g4308
sg64
(lp4320
S':'
asbag57
(g78
g59
NtRp4321
(dp4322
g62
(dp4323
sg71
g4308
sg64
(lp4324
g57
(g58
g59
NtRp4325
(dp4326
g62
(dp4327
g70
I3
ssg71
g4321
sg64
(lp4328
g1854
asbasbasbag57
(g73
g59
NtRp4329
(dp4330
g62
(dp4331
sg71
g3647
sg64
(lp4332
g57
(g78
g59
NtRp4333
(dp4334
g62
(dp4335
g82
g83
ssg71
g4329
sg64
(lp4336
S'session_chair'
p4337
asbag57
(g78
g59
NtRp4338
(dp4339
g62
(dp4340
g89
g90
ssg71
g4329
sg64
(lp4341
S':'
asbag57
(g78
g59
NtRp4342
(dp4343
g62
(dp4344
sg71
g4329
sg64
(lp4345
g57
(g58
g59
NtRp4346
(dp4347
g62
(dp4348
g70
I3
ssg71
g4342
sg64
(lp4349
g100
asbasbasbag57
(g73
g59
NtRp4350
(dp4351
g62
(dp4352
sg71
g3647
sg64
(lp4353
g57
(g78
g59
NtRp4354
(dp4355
g62
(dp4356
g82
g83
ssg71
g4350
sg64
(lp4357
S'speaker'
p4358
asbag57
(g78
g59
NtRp4359
(dp4360
g62
(dp4361
g89
g90
ssg71
g4350
sg64
(lp4362
S':'
asbag57
(g78
g59
NtRp4363
(dp4364
g62
(dp4365
sg71
g4350
sg64
(lp4366
g57
(g58
g59
NtRp4367
(dp4368
g62
(dp4369
g70
I3
ssg71
g4363
sg64
(lp4370
g100
asbasbasbag57
(g73
g59
NtRp4371
(dp4372
g62
(dp4373
sg71
g3647
sg64
(lp4374
g57
(g78
g59
NtRp4375
(dp4376
g62
(dp4377
g82
g83
ssg71
g4371
sg64
(lp4378
S'state'
p4379
asbag57
(g78
g59
NtRp4380
(dp4381
g62
(dp4382
g89
g90
ssg71
g4371
sg64
(lp4383
S':'
asbag57
(g78
g59
NtRp4384
(dp4385
g62
(dp4386
sg71
g4371
sg64
(lp4387
g57
(g58
g59
NtRp4388
(dp4389
g62
(dp4390
g70
I3
ssg71
g4384
sg64
(lp4391
S'Salta'
p4392
asbasbasbag57
(g73
g59
NtRp4393
(dp4394
g62
(dp4395
sg71
g3647
sg64
(lp4396
g57
(g78
g59
NtRp4397
(dp4398
g62
(dp4399
g82
g83
ssg71
g4393
sg64
(lp4400
S'tutorials'
p4401
asbag57
(g78
g59
NtRp4402
(dp4403
g62
(dp4404
g89
g90
ssg71
g4393
sg64
(lp4405
S':'
asbag57
(g78
g59
NtRp4406
(dp4407
g62
(dp4408
sg71
g4393
sg64
(lp4409
g57
(g58
g59
NtRp4410
(dp4411
g62
(dp4412
g70
I3
ssg71
g4406
sg64
(lp4413
S'None'
p4414
asbasbasbag57
(g73
g59
NtRp4415
(dp4416
g62
(dp4417
sg71
g3647
sg64
(lp4418
g57
(g78
g59
NtRp4419
(dp4420
g62
(dp4421
g82
g83
ssg71
g4415
sg64
(lp4422
S'zip_code'
p4423
asbag57
(g78
g59
NtRp4424
(dp4425
g62
(dp4426
g89
g90
ssg71
g4415
sg64
(lp4427
S':'
asbag57
(g78
g59
NtRp4428
(dp4429
g62
(dp4430
sg71
g4415
sg64
(lp4431
g57
(g58
g59
NtRp4432
(dp4433
g62
(dp4434
g70
I3
ssg71
g4428
sg64
(lp4435
S'4400'
p4436
asbasbasbasbasbasbasbag57
(g73
g59
NtRp4437
(dp4438
g62
(dp4439
sg71
g3535
sg64
(lp4440
g57
(g78
g59
NtRp4441
(dp4442
g62
(dp4443
g82
g83
ssg71
g4437
sg64
(lp4444
S'user_groups'
p4445
asbag57
(g78
g59
NtRp4446
(dp4447
g62
(dp4448
g89
g90
ssg71
g4437
sg64
(lp4449
S':'
asbag57
(g78
g59
NtRp4450
(dp4451
g62
(dp4452
sg71
g4437
sg64
(lp4453
g57
(g58
g59
NtRp4454
(dp4455
g62
(dp4456
g70
I4
ssg71
g4450
sg64
(lp4457
g57
(g66
g59
NtRp4458
(dp4459
g62
(dp4460
g70
I3
ssg71
Nsg64
(lp4461
g57
(g73
g59
NtRp4462
(dp4463
g62
(dp4464
sg71
g4458
sg64
(lp4465
g57
(g78
g59
NtRp4466
(dp4467
g62
(dp4468
g82
g83
ssg71
g4462
sg64
(lp4469
S'15'
p4470
asbag57
(g78
g59
NtRp4471
(dp4472
g62
(dp4473
g89
g90
ssg71
g4462
sg64
(lp4474
S':'
asbag57
(g78
g59
NtRp4475
(dp4476
g62
(dp4477
sg71
g4462
sg64
(lp4478
g57
(g58
g59
NtRp4479
(dp4480
g62
(dp4481
g70
I3
ssg71
g4475
sg64
(lp4482
S'plugin_flatpages'
p4483
asbasbasbasbasbasbasbasbasbasbasbag57
(g73
g59
NtRp4484
(dp4485
g62
(dp4486
sg71
g3422
sg64
(lp4487
g57
(g78
g59
NtRp4488
(dp4489
g62
(dp4490
g82
g83
ssg71
g4484
sg64
(lp4491
S'balance'
p4492
asbag57
(g78
g59
NtRp4493
(dp4494
g62
(dp4495
g89
g90
ssg71
g4484
sg64
(lp4496
S':'
asbag57
(g78
g59
NtRp4497
(dp4498
g62
(dp4499
sg71
g4484
sg64
(lp4500
g57
(g58
g59
NtRp4501
(dp4502
g62
(dp4503
g70
I5
ssg71
g4497
sg64
(lp4504
S'0.0'
p4505
asbasbasbag57
(g73
g59
NtRp4506
(dp4507
g62
(dp4508
sg71
g3422
sg64
(lp4509
g57
(g78
g59
NtRp4510
(dp4511
g62
(dp4512
g82
g83
ssg71
g4506
sg64
(lp4513
S'manager'
p4514
asbag57
(g78
g59
NtRp4515
(dp4516
g62
(dp4517
g89
g90
ssg71
g4506
sg64
(lp4518
S':'
asbag57
(g78
g59
NtRp4519
(dp4520
g62
(dp4521
sg71
g4506
sg64
(lp4522
g57
(g58
g59
NtRp4523
(dp4524
g62
(dp4525
g70
I5
ssg71
g4519
sg64
(lp4526
g1854
asbasbasbag57
(g73
g59
NtRp4527
(dp4528
g62
(dp4529
sg71
g3422
sg64
(lp4530
g57
(g78
g59
NtRp4531
(dp4532
g62
(dp4533
g82
g83
ssg71
g4527
sg64
(lp4534
S't2'
p4535
asbag57
(g78
g59
NtRp4536
(dp4537
g62
(dp4538
g89
g90
ssg71
g4527
sg64
(lp4539
S':'
asbag57
(g78
g59
NtRp4540
(dp4541
g62
(dp4542
sg71
g4527
sg64
(lp4543
g57
(g58
g59
NtRp4544
(dp4545
g62
(dp4546
g70
I5
ssg71
g4540
sg64
(lp4547
g57
(g66
g59
NtRp4548
(dp4549
g62
(dp4550
g70
I4
ssg71
Nsg64
(lp4551
g57
(g73
g59
NtRp4552
(dp4553
g62
(dp4554
sg71
g4548
sg64
(lp4555
g57
(g78
g59
NtRp4556
(dp4557
g62
(dp4558
g82
g83
ssg71
g4552
sg64
(lp4559
S'my_groups_id'
p4560
asbag57
(g78
g59
NtRp4561
(dp4562
g62
(dp4563
g89
g90
ssg71
g4552
sg64
(lp4564
S':'
asbag57
(g78
g59
NtRp4565
(dp4566
g62
(dp4567
sg71
g4552
sg64
(lp4568
g57
(g58
g59
NtRp4569
(dp4570
g62
(dp4571
g70
I4
ssg71
g4565
sg64
(lp4572
g57
(g66
g59
NtRp4573
(dp4574
g62
(dp4575
g70
I3
ssg71
Nsg64
(lp4576
sbasbasbasbag57
(g73
g59
NtRp4577
(dp4578
g62
(dp4579
sg71
g4548
sg64
(lp4580
g57
(g78
g59
NtRp4581
(dp4582
g62
(dp4583
g82
g83
ssg71
g4577
sg64
(lp4584
S'query'
p4585
asbag57
(g78
g59
NtRp4586
(dp4587
g62
(dp4588
g89
g90
ssg71
g4577
sg64
(lp4589
S':'
asbag57
(g78
g59
NtRp4590
(dp4591
g62
(dp4592
sg71
g4577
sg64
(lp4593
g57
(g58
g59
NtRp4594
(dp4595
g62
(dp4596
g70
I4
ssg71
g4590
sg64
(lp4597
g57
(g66
g59
NtRp4598
(dp4599
g62
(dp4600
g70
I3
ssg71
Nsg64
(lp4601
sbasbasbasbasbasbasbasbasbasbsS'etype'
p4602
S"<type 'exceptions.KeyError'>"
p4603
sS'date'
p4604
S'Fri Mar  9 19:17:09 2012'
p4605
sS'response'
p4606
g57
(g58
g59
NtRp4607
(dp4608
g62
(dp4609
sg64
(lp4610
g57
(g66
g59
NtRp4611
(dp4612
g62
(dp4613
g70
I5
ssg71
Nsg64
(lp4614
g57
(g73
g59
NtRp4615
(dp4616
g62
(dp4617
sg71
g4611
sg64
(lp4618
g57
(g78
g59
NtRp4619
(dp4620
g62
(dp4621
g82
g83
ssg71
g4615
sg64
(lp4622
g168
asbag57
(g78
g59
NtRp4623
(dp4624
g62
(dp4625
g89
g90
ssg71
g4615
sg64
(lp4626
S':'
asbag57
(g78
g59
NtRp4627
(dp4628
g62
(dp4629
sg71
g4615
sg64
(lp4630
g57
(g58
g59
NtRp4631
(dp4632
g62
(dp4633
g70
I5
ssg71
g4627
sg64
(lp4634
S'<cStringIO.StringO object at 0x3effd50>'
p4635
asbasbasbag57
(g73
g59
NtRp4636
(dp4637
g62
(dp4638
sg71
g4611
sg64
(lp4639
g57
(g78
g59
NtRp4640
(dp4641
g62
(dp4642
g82
g83
ssg71
g4636
sg64
(lp4643
g234
asbag57
(g78
g59
NtRp4644
(dp4645
g62
(dp4646
g89
g90
ssg71
g4636
sg64
(lp4647
S':'
asbag57
(g78
g59
NtRp4648
(dp4649
g62
(dp4650
sg71
g4636
sg64
(lp4651
g57
(g58
g59
NtRp4652
(dp4653
g62
(dp4654
g70
I5
ssg71
g4648
sg64
(lp4655
g57
(g66
g59
NtRp4656
(dp4657
g62
(dp4658
g70
I4
ssg71
Nsg64
(lp4659
g57
(g73
g59
NtRp4660
(dp4661
g62
(dp4662
sg71
g4656
sg64
(lp4663
g57
(g78
g59
NtRp4664
(dp4665
g62
(dp4666
g82
g83
ssg71
g4660
sg64
(lp4667
S'session_id_flisol2012'
p4668
asbag57
(g78
g59
NtRp4669
(dp4670
g62
(dp4671
g89
g90
ssg71
g4660
sg64
(lp4672
S':'
asbag57
(g78
g59
NtRp4673
(dp4674
g62
(dp4675
sg71
g4660
sg64
(lp4676
g57
(g58
g59
NtRp4677
(dp4678
g62
(dp4679
g70
I4
ssg71
g4673
sg64
(lp4680
g57
(g66
g59
NtRp4681
(dp4682
g62
(dp4683
g70
I3
ssg71
Nsg64
(lp4684
g57
(g73
g59
NtRp4685
(dp4686
g62
(dp4687
sg71
g4681
sg64
(lp4688
g57
(g78
g59
NtRp4689
(dp4690
g62
(dp4691
g82
g83
ssg71
g4685
sg64
(lp4692
g284
asbag57
(g78
g59
NtRp4693
(dp4694
g62
(dp4695
g89
g90
ssg71
g4685
sg64
(lp4696
S':'
asbag57
(g78
g59
NtRp4697
(dp4698
g62
(dp4699
sg71
g4685
sg64
(lp4700
g57
(g58
g59
NtRp4701
(dp4702
g62
(dp4703
g70
I3
ssg71
g4697
sg64
(lp4704
S''
asbasbasbag57
(g73
g59
NtRp4705
(dp4706
g62
(dp4707
sg71
g4681
sg64
(lp4708
g57
(g78
g59
NtRp4709
(dp4710
g62
(dp4711
g82
g83
ssg71
g4705
sg64
(lp4712
g305
asbag57
(g78
g59
NtRp4713
(dp4714
g62
(dp4715
g89
g90
ssg71
g4705
sg64
(lp4716
S':'
asbag57
(g78
g59
NtRp4717
(dp4718
g62
(dp4719
sg71
g4705
sg64
(lp4720
g57
(g58
g59
NtRp4721
(dp4722
g62
(dp4723
g70
I3
ssg71
g4717
sg64
(lp4724
S''
asbasbasbag57
(g73
g59
NtRp4725
(dp4726
g62
(dp4727
sg71
g4681
sg64
(lp4728
g57
(g78
g59
NtRp4729
(dp4730
g62
(dp4731
g82
g83
ssg71
g4725
sg64
(lp4732
g326
asbag57
(g78
g59
NtRp4733
(dp4734
g62
(dp4735
g89
g90
ssg71
g4725
sg64
(lp4736
S':'
asbag57
(g78
g59
NtRp4737
(dp4738
g62
(dp4739
sg71
g4725
sg64
(lp4740
g57
(g58
g59
NtRp4741
(dp4742
g62
(dp4743
g70
I3
ssg71
g4737
sg64
(lp4744
S''
asbasbasbag57
(g73
g59
NtRp4745
(dp4746
g62
(dp4747
sg71
g4681
sg64
(lp4748
g57
(g78
g59
NtRp4749
(dp4750
g62
(dp4751
g82
g83
ssg71
g4745
sg64
(lp4752
g347
asbag57
(g78
g59
NtRp4753
(dp4754
g62
(dp4755
g89
g90
ssg71
g4745
sg64
(lp4756
S':'
asbag57
(g78
g59
NtRp4757
(dp4758
g62
(dp4759
sg71
g4745
sg64
(lp4760
g57
(g58
g59
NtRp4761
(dp4762
g62
(dp4763
g70
I3
ssg71
g4757
sg64
(lp4764
S''
asbasbasbag57
(g73
g59
NtRp4765
(dp4766
g62
(dp4767
sg71
g4681
sg64
(lp4768
g57
(g78
g59
NtRp4769
(dp4770
g62
(dp4771
g82
g83
ssg71
g4765
sg64
(lp4772
g368
asbag57
(g78
g59
NtRp4773
(dp4774
g62
(dp4775
g89
g90
ssg71
g4765
sg64
(lp4776
S':'
asbag57
(g78
g59
NtRp4777
(dp4778
g62
(dp4779
sg71
g4765
sg64
(lp4780
g57
(g58
g59
NtRp4781
(dp4782
g62
(dp4783
g70
I3
ssg71
g4777
sg64
(lp4784
S''
asbasbasbag57
(g73
g59
NtRp4785
(dp4786
g62
(dp4787
sg71
g4681
sg64
(lp4788
g57
(g78
g59
NtRp4789
(dp4790
g62
(dp4791
g82
g83
ssg71
g4785
sg64
(lp4792
g389
asbag57
(g78
g59
NtRp4793
(dp4794
g62
(dp4795
g89
g90
ssg71
g4785
sg64
(lp4796
S':'
asbag57
(g78
g59
NtRp4797
(dp4798
g62
(dp4799
sg71
g4785
sg64
(lp4800
g57
(g58
g59
NtRp4801
(dp4802
g62
(dp4803
g70
I3
ssg71
g4797
sg64
(lp4804
S'/'
asbasbasbag57
(g73
g59
NtRp4805
(dp4806
g62
(dp4807
sg71
g4681
sg64
(lp4808
g57
(g78
g59
NtRp4809
(dp4810
g62
(dp4811
g82
g83
ssg71
g4805
sg64
(lp4812
g410
asbag57
(g78
g59
NtRp4813
(dp4814
g62
(dp4815
g89
g90
ssg71
g4805
sg64
(lp4816
S':'
asbag57
(g78
g59
NtRp4817
(dp4818
g62
(dp4819
sg71
g4805
sg64
(lp4820
g57
(g58
g59
NtRp4821
(dp4822
g62
(dp4823
g70
I3
ssg71
g4817
sg64
(lp4824
S''
asbasbasbag57
(g73
g59
NtRp4825
(dp4826
g62
(dp4827
sg71
g4681
sg64
(lp4828
g57
(g78
g59
NtRp4829
(dp4830
g62
(dp4831
g82
g83
ssg71
g4825
sg64
(lp4832
g431
asbag57
(g78
g59
NtRp4833
(dp4834
g62
(dp4835
g89
g90
ssg71
g4825
sg64
(lp4836
S':'
asbag57
(g78
g59
NtRp4837
(dp4838
g62
(dp4839
sg71
g4825
sg64
(lp4840
g57
(g58
g59
NtRp4841
(dp4842
g62
(dp4843
g70
I3
ssg71
g4837
sg64
(lp4844
S''
asbasbasbasbasbasbasbasbasbasbasbag57
(g73
g59
NtRp4845
(dp4846
g62
(dp4847
sg71
g4611
sg64
(lp4848
g57
(g78
g59
NtRp4849
(dp4850
g62
(dp4851
g82
g83
ssg71
g4845
sg64
(lp4852
S'delimiters'
p4853
asbag57
(g78
g59
NtRp4854
(dp4855
g62
(dp4856
g89
g90
ssg71
g4845
sg64
(lp4857
S':'
asbag57
(g78
g59
NtRp4858
(dp4859
g62
(dp4860
sg71
g4845
sg64
(lp4861
g57
(g58
g59
NtRp4862
(dp4863
g62
(dp4864
g70
I5
ssg71
g4858
sg64
(lp4865
g57
(g66
g59
NtRp4866
(dp4867
g62
(dp4868
g70
I4
ssg71
Nsg64
(lp4869
g57
(g73
g59
NtRp4870
(dp4871
g62
(dp4872
sg71
g4866
sg64
(lp4873
g57
(g78
g59
NtRp4874
(dp4875
g62
(dp4876
sg71
g4870
sg64
(lp4877
g57
(g58
g59
NtRp4878
(dp4879
g62
(dp4880
g70
I4
ssg71
g4874
sg64
(lp4881
S'{{'
p4882
asbasbasbag57
(g73
g59
NtRp4883
(dp4884
g62
(dp4885
sg71
g4866
sg64
(lp4886
g57
(g78
g59
NtRp4887
(dp4888
g62
(dp4889
sg71
g4883
sg64
(lp4890
g57
(g58
g59
NtRp4891
(dp4892
g62
(dp4893
g70
I4
ssg71
g4887
sg64
(lp4894
S'}}'
p4895
asbasbasbasbasbasbasbag57
(g73
g59
NtRp4896
(dp4897
g62
(dp4898
sg71
g4611
sg64
(lp4899
g57
(g78
g59
NtRp4900
(dp4901
g62
(dp4902
g82
g83
ssg71
g4896
sg64
(lp4903
S'description'
p4904
asbag57
(g78
g59
NtRp4905
(dp4906
g62
(dp4907
g89
g90
ssg71
g4896
sg64
(lp4908
S':'
asbag57
(g78
g59
NtRp4909
(dp4910
g62
(dp4911
sg71
g4896
sg64
(lp4912
g57
(g58
g59
NtRp4913
(dp4914
g62
(dp4915
g70
I5
ssg71
g4909
sg64
(lp4916
S'Hecho con web2py'
p4917
asbasbasbag57
(g73
g59
NtRp4918
(dp4919
g62
(dp4920
sg71
g4611
sg64
(lp4921
g57
(g78
g59
NtRp4922
(dp4923
g62
(dp4924
g82
g83
ssg71
g4918
sg64
(lp4925
S'files'
p4926
asbag57
(g78
g59
NtRp4927
(dp4928
g62
(dp4929
g89
g90
ssg71
g4918
sg64
(lp4930
S':'
asbag57
(g78
g59
NtRp4931
(dp4932
g62
(dp4933
sg71
g4918
sg64
(lp4934
g57
(g58
g59
NtRp4935
(dp4936
g62
(dp4937
g70
I5
ssg71
g4931
sg64
(lp4938
g57
(g66
g59
NtRp4939
(dp4940
g62
(dp4941
g70
I4
ssg71
Nsg64
(lp4942
g57
(g73
g59
NtRp4943
(dp4944
g62
(dp4945
sg71
g4939
sg64
(lp4946
g57
(g78
g59
NtRp4947
(dp4948
g62
(dp4949
sg71
g4943
sg64
(lp4950
g57
(g58
g59
NtRp4951
(dp4952
g62
(dp4953
g70
I4
ssg71
g4947
sg64
(lp4954
S'/plugin_t2/static/t2/scripts/jquery.js'
p4955
asbasbasbag57
(g73
g59
NtRp4956
(dp4957
g62
(dp4958
sg71
g4939
sg64
(lp4959
g57
(g78
g59
NtRp4960
(dp4961
g62
(dp4962
sg71
g4956
sg64
(lp4963
g57
(g58
g59
NtRp4964
(dp4965
g62
(dp4966
g70
I4
ssg71
g4960
sg64
(lp4967
S'/plugin_t2/static/t2/styles/calendar.css'
p4968
asbasbasbag57
(g73
g59
NtRp4969
(dp4970
g62
(dp4971
sg71
g4939
sg64
(lp4972
g57
(g78
g59
NtRp4973
(dp4974
g62
(dp4975
sg71
g4969
sg64
(lp4976
g57
(g58
g59
NtRp4977
(dp4978
g62
(dp4979
g70
I4
ssg71
g4973
sg64
(lp4980
S'/plugin_t2/static/t2/scripts/calendar.js'
p4981
asbasbasbag57
(g73
g59
NtRp4982
(dp4983
g62
(dp4984
sg71
g4939
sg64
(lp4985
g57
(g78
g59
NtRp4986
(dp4987
g62
(dp4988
sg71
g4982
sg64
(lp4989
g57
(g58
g59
NtRp4990
(dp4991
g62
(dp4992
g70
I4
ssg71
g4986
sg64
(lp4993
S'/plugin_t2/static/t2/styles/sfmenu.css'
p4994
asbasbasbag57
(g73
g59
NtRp4995
(dp4996
g62
(dp4997
sg71
g4939
sg64
(lp4998
g57
(g78
g59
NtRp4999
(dp5000
g62
(dp5001
sg71
g4995
sg64
(lp5002
g57
(g58
g59
NtRp5003
(dp5004
g62
(dp5005
g70
I4
ssg71
g4999
sg64
(lp5006
S'/plugin_t2/static/t2/scripts/sfmenu.js'
p5007
asbasbasbag57
(g73
g59
NtRp5008
(dp5009
g62
(dp5010
sg71
g4939
sg64
(lp5011
g57
(g78
g59
NtRp5012
(dp5013
g62
(dp5014
sg71
g5008
sg64
(lp5015
g57
(g58
g59
NtRp5016
(dp5017
g62
(dp5018
g70
I4
ssg71
g5012
sg64
(lp5019
S'/plugin_t2/static/t2/scripts/fancyzoom.min.js'
p5020
asbasbasbag57
(g73
g59
NtRp5021
(dp5022
g62
(dp5023
sg71
g4939
sg64
(lp5024
g57
(g78
g59
NtRp5025
(dp5026
g62
(dp5027
sg71
g5021
sg64
(lp5028
g57
(g58
g59
NtRp5029
(dp5030
g62
(dp5031
g70
I4
ssg71
g5025
sg64
(lp5032
S'/plugin_t2/static/t2/styles/rating.css'
p5033
asbasbasbag57
(g73
g59
NtRp5034
(dp5035
g62
(dp5036
sg71
g4939
sg64
(lp5037
g57
(g78
g59
NtRp5038
(dp5039
g62
(dp5040
sg71
g5034
sg64
(lp5041
g57
(g58
g59
NtRp5042
(dp5043
g62
(dp5044
g70
I4
ssg71
g5038
sg64
(lp5045
S'/plugin_t2/static/t2/scripts/rating.js'
p5046
asbasbasbag57
(g73
g59
NtRp5047
(dp5048
g62
(dp5049
sg71
g4939
sg64
(lp5050
g57
(g78
g59
NtRp5051
(dp5052
g62
(dp5053
sg71
g5047
sg64
(lp5054
g57
(g58
g59
NtRp5055
(dp5056
g62
(dp5057
g70
I4
ssg71
g5051
sg64
(lp5058
S'/plugin_t2/static/t2/scripts/web2py.js'
p5059
asbasbasbasbasbasbasbag57
(g73
g59
NtRp5060
(dp5061
g62
(dp5062
sg71
g4611
sg64
(lp5063
g57
(g78
g59
NtRp5064
(dp5065
g62
(dp5066
g82
g83
ssg71
g5060
sg64
(lp5067
S'flash'
p5068
asbag57
(g78
g59
NtRp5069
(dp5070
g62
(dp5071
g89
g90
ssg71
g5060
sg64
(lp5072
S':'
asbag57
(g78
g59
NtRp5073
(dp5074
g62
(dp5075
sg71
g5060
sg64
(lp5076
g57
(g58
g59
NtRp5077
(dp5078
g62
(dp5079
g70
I5
ssg71
g5073
sg64
(lp5080
S''
asbasbasbag57
(g73
g59
NtRp5081
(dp5082
g62
(dp5083
sg71
g4611
sg64
(lp5084
g57
(g78
g59
NtRp5085
(dp5086
g62
(dp5087
g82
g83
ssg71
g5081
sg64
(lp5088
S'footer'
p5089
asbag57
(g78
g59
NtRp5090
(dp5091
g62
(dp5092
g89
g90
ssg71
g5081
sg64
(lp5093
S':'
asbag57
(g78
g59
NtRp5094
(dp5095
g62
(dp5096
sg71
g5081
sg64
(lp5097
g57
(g58
g59
NtRp5098
(dp5099
g62
(dp5100
g70
I5
ssg71
g5094
sg64
(lp5101
S'<p>InstallFest <a href="http://www.flisol.info/">FLISOL</a> <b>28 de abril de 2012</b> - <a href="http://www.unsa.edu.ar/">Universidad Nacional de Salta</a><br/>\n<a href="http://www.flisol.info/FLISOL2012/Argentina/Salta">http://www.flisol.info/FLISOL2012/Argentina/Salta</a> - organizacion@saltalug.org.ar</p>'
p5102
asbasbasbag57
(g73
g59
NtRp5103
(dp5104
g62
(dp5105
sg71
g4611
sg64
(lp5106
g57
(g78
g59
NtRp5107
(dp5108
g62
(dp5109
g82
g83
ssg71
g5103
sg64
(lp5110
S'generic_patterns'
p5111
asbag57
(g78
g59
NtRp5112
(dp5113
g62
(dp5114
g89
g90
ssg71
g5103
sg64
(lp5115
S':'
asbag57
(g78
g59
NtRp5116
(dp5117
g62
(dp5118
sg71
g5103
sg64
(lp5119
g57
(g58
g59
NtRp5120
(dp5121
g62
(dp5122
g70
I5
ssg71
g5116
sg64
(lp5123
g57
(g66
g59
NtRp5124
(dp5125
g62
(dp5126
g70
I4
ssg71
Nsg64
(lp5127
sbasbasbasbag57
(g73
g59
NtRp5128
(dp5129
g62
(dp5130
sg71
g4611
sg64
(lp5131
g57
(g78
g59
NtRp5132
(dp5133
g62
(dp5134
g82
g83
ssg71
g5128
sg64
(lp5135
S'headers'
p5136
asbag57
(g78
g59
NtRp5137
(dp5138
g62
(dp5139
g89
g90
ssg71
g5128
sg64
(lp5140
S':'
asbag57
(g78
g59
NtRp5141
(dp5142
g62
(dp5143
sg71
g5128
sg64
(lp5144
g57
(g58
g59
NtRp5145
(dp5146
g62
(dp5147
g70
I5
ssg71
g5141
sg64
(lp5148
g57
(g66
g59
NtRp5149
(dp5150
g62
(dp5151
g70
I4
ssg71
Nsg64
(lp5152
g57
(g73
g59
NtRp5153
(dp5154
g62
(dp5155
sg71
g5149
sg64
(lp5156
g57
(g78
g59
NtRp5157
(dp5158
g62
(dp5159
g82
g83
ssg71
g5153
sg64
(lp5160
S'Cache-Control'
p5161
asbag57
(g78
g59
NtRp5162
(dp5163
g62
(dp5164
g89
g90
ssg71
g5153
sg64
(lp5165
S':'
asbag57
(g78
g59
NtRp5166
(dp5167
g62
(dp5168
sg71
g5153
sg64
(lp5169
g57
(g58
g59
NtRp5170
(dp5171
g62
(dp5172
g70
I4
ssg71
g5166
sg64
(lp5173
S'no-store, no-cache, must-revalidate, post-check=0, pre-check=0'
p5174
asbasbasbag57
(g73
g59
NtRp5175
(dp5176
g62
(dp5177
sg71
g5149
sg64
(lp5178
g57
(g78
g59
NtRp5179
(dp5180
g62
(dp5181
g82
g83
ssg71
g5175
sg64
(lp5182
S'Content-Type'
p5183
asbag57
(g78
g59
NtRp5184
(dp5185
g62
(dp5186
g89
g90
ssg71
g5175
sg64
(lp5187
S':'
asbag57
(g78
g59
NtRp5188
(dp5189
g62
(dp5190
sg71
g5175
sg64
(lp5191
g57
(g58
g59
NtRp5192
(dp5193
g62
(dp5194
g70
I4
ssg71
g5188
sg64
(lp5195
S'text/html; charset=utf-8'
p5196
asbasbasbag57
(g73
g59
NtRp5197
(dp5198
g62
(dp5199
sg71
g5149
sg64
(lp5200
g57
(g78
g59
NtRp5201
(dp5202
g62
(dp5203
g82
g83
ssg71
g5197
sg64
(lp5204
S'Expires'
p5205
asbag57
(g78
g59
NtRp5206
(dp5207
g62
(dp5208
g89
g90
ssg71
g5197
sg64
(lp5209
S':'
asbag57
(g78
g59
NtRp5210
(dp5211
g62
(dp5212
sg71
g5197
sg64
(lp5213
g57
(g58
g59
NtRp5214
(dp5215
g62
(dp5216
g70
I4
ssg71
g5210
sg64
(lp5217
S'Fri, 09 Mar 2012 22:17:09 GMT'
p5218
asbasbasbag57
(g73
g59
NtRp5219
(dp5220
g62
(dp5221
sg71
g5149
sg64
(lp5222
g57
(g78
g59
NtRp5223
(dp5224
g62
(dp5225
g82
g83
ssg71
g5219
sg64
(lp5226
S'Pragma'
p5227
asbag57
(g78
g59
NtRp5228
(dp5229
g62
(dp5230
g89
g90
ssg71
g5219
sg64
(lp5231
S':'
asbag57
(g78
g59
NtRp5232
(dp5233
g62
(dp5234
sg71
g5219
sg64
(lp5235
g57
(g58
g59
NtRp5236
(dp5237
g62
(dp5238
g70
I4
ssg71
g5232
sg64
(lp5239
S'no-cache'
p5240
asbasbasbag57
(g73
g59
NtRp5241
(dp5242
g62
(dp5243
sg71
g5149
sg64
(lp5244
g57
(g78
g59
NtRp5245
(dp5246
g62
(dp5247
g82
g83
ssg71
g5241
sg64
(lp5248
S'X-Powered-By'
p5249
asbag57
(g78
g59
NtRp5250
(dp5251
g62
(dp5252
g89
g90
ssg71
g5241
sg64
(lp5253
S':'
asbag57
(g78
g59
NtRp5254
(dp5255
g62
(dp5256
sg71
g5241
sg64
(lp5257
g57
(g58
g59
NtRp5258
(dp5259
g62
(dp5260
g70
I4
ssg71
g5254
sg64
(lp5261
S'web2py'
p5262
asbasbasbasbasbasbasbag57
(g73
g59
NtRp5263
(dp5264
g62
(dp5265
sg71
g4611
sg64
(lp5266
g57
(g78
g59
NtRp5267
(dp5268
g62
(dp5269
g82
g83
ssg71
g5263
sg64
(lp5270
S'keywords'
p5271
asbag57
(g78
g59
NtRp5272
(dp5273
g62
(dp5274
g89
g90
ssg71
g5263
sg64
(lp5275
S':'
asbag57
(g78
g59
NtRp5276
(dp5277
g62
(dp5278
sg71
g5263
sg64
(lp5279
g57
(g58
g59
NtRp5280
(dp5281
g62
(dp5282
g70
I5
ssg71
g5276
sg64
(lp5283
S'festival, instalaci\xc3\xb3n, software libre, salta, argentina, flisol'
p5284
asbasbasbag57
(g73
g59
NtRp5285
(dp5286
g62
(dp5287
sg71
g4611
sg64
(lp5288
g57
(g78
g59
NtRp5289
(dp5290
g62
(dp5291
g82
g83
ssg71
g5285
sg64
(lp5292
S'menu'
p5293
asbag57
(g78
g59
NtRp5294
(dp5295
g62
(dp5296
g89
g90
ssg71
g5285
sg64
(lp5297
S':'
asbag57
(g78
g59
NtRp5298
(dp5299
g62
(dp5300
sg71
g5285
sg64
(lp5301
g57
(g58
g59
NtRp5302
(dp5303
g62
(dp5304
g70
I5
ssg71
g5298
sg64
(lp5305
g57
(g66
g59
NtRp5306
(dp5307
g62
(dp5308
g70
I4
ssg71
Nsg64
(lp5309
g57
(g73
g59
NtRp5310
(dp5311
g62
(dp5312
sg71
g5306
sg64
(lp5313
g57
(g78
g59
NtRp5314
(dp5315
g62
(dp5316
sg71
g5310
sg64
(lp5317
g57
(g58
g59
NtRp5318
(dp5319
g62
(dp5320
g70
I4
ssg71
g5314
sg64
(lp5321
g57
(g66
g59
NtRp5322
(dp5323
g62
(dp5324
g70
I3
ssg71
Nsg64
(lp5325
g57
(g73
g59
NtRp5326
(dp5327
g62
(dp5328
sg71
g5322
sg64
(lp5329
g57
(g78
g59
NtRp5330
(dp5331
g62
(dp5332
sg71
g5326
sg64
(lp5333
g57
(g58
g59
NtRp5334
(dp5335
g62
(dp5336
g70
I3
ssg71
g5330
sg64
(lp5337
cgluon.languages
lazyT_unpickle
p5338
(S't\t\x00\x00\x00Principal'
tRp5339
asbasbasbag57
(g73
g59
NtRp5340
(dp5341
g62
(dp5342
sg71
g5322
sg64
(lp5343
g57
(g78
g59
NtRp5344
(dp5345
g62
(dp5346
sg71
g5340
sg64
(lp5347
g57
(g58
g59
NtRp5348
(dp5349
g62
(dp5350
g70
I3
ssg71
g5344
sg64
(lp5351
g100
asbasbasbag57
(g73
g59
NtRp5352
(dp5353
g62
(dp5354
sg71
g5322
sg64
(lp5355
g57
(g78
g59
NtRp5356
(dp5357
g62
(dp5358
sg71
g5352
sg64
(lp5359
g57
(g58
g59
NtRp5360
(dp5361
g62
(dp5362
g70
I3
ssg71
g5356
sg64
(lp5363
S'/flisol2012/default/index'
p5364
asbasbasbasbasbasbasbag57
(g73
g59
NtRp5365
(dp5366
g62
(dp5367
sg71
g5306
sg64
(lp5368
g57
(g78
g59
NtRp5369
(dp5370
g62
(dp5371
sg71
g5365
sg64
(lp5372
g57
(g58
g59
NtRp5373
(dp5374
g62
(dp5375
g70
I4
ssg71
g5369
sg64
(lp5376
g57
(g66
g59
NtRp5377
(dp5378
g62
(dp5379
g70
I3
ssg71
Nsg64
(lp5380
g57
(g73
g59
NtRp5381
(dp5382
g62
(dp5383
sg71
g5377
sg64
(lp5384
g57
(g78
g59
NtRp5385
(dp5386
g62
(dp5387
sg71
g5381
sg64
(lp5388
g57
(g58
g59
NtRp5389
(dp5390
g62
(dp5391
g70
I3
ssg71
g5385
sg64
(lp5392
g5338
(S't\x0b\x00\x00\x00Conferencia'
tRp5393
asbasbasbag57
(g73
g59
NtRp5394
(dp5395
g62
(dp5396
sg71
g5377
sg64
(lp5397
g57
(g78
g59
NtRp5398
(dp5399
g62
(dp5400
sg71
g5394
sg64
(lp5401
g57
(g58
g59
NtRp5402
(dp5403
g62
(dp5404
g70
I3
ssg71
g5398
sg64
(lp5405
g100
asbasbasbag57
(g73
g59
NtRp5406
(dp5407
g62
(dp5408
sg71
g5377
sg64
(lp5409
g57
(g78
g59
NtRp5410
(dp5411
g62
(dp5412
sg71
g5406
sg64
(lp5413
g57
(g58
g59
NtRp5414
(dp5415
g62
(dp5416
g70
I3
ssg71
g5410
sg64
(lp5417
S'#'
asbasbasbag57
(g73
g59
NtRp5418
(dp5419
g62
(dp5420
sg71
g5377
sg64
(lp5421
g57
(g78
g59
NtRp5422
(dp5423
g62
(dp5424
sg71
g5418
sg64
(lp5425
g57
(g58
g59
NtRp5426
(dp5427
g62
(dp5428
g70
I3
ssg71
g5422
sg64
(lp5429
g57
(g66
g59
NtRp5430
(dp5431
g62
(dp5432
g70
I2
ssg71
Nsg64
(lp5433
g57
(g73
g59
NtRp5434
(dp5435
g62
(dp5436
sg71
g5430
sg64
(lp5437
g57
(g78
g59
NtRp5438
(dp5439
g62
(dp5440
sg71
g5434
sg64
(lp5441
g57
(g58
g59
NtRp5442
(dp5443
g62
(dp5444
g70
I2
ssg71
g5438
sg64
(lp5445
g57
(g66
g59
NtRp5446
(dp5447
g62
(dp5448
g70
I1
ssg71
Nsg64
(lp5449
g57
(g73
g59
NtRp5450
(dp5451
g62
(dp5452
sg71
g5446
sg64
(lp5453
g57
(g78
g59
NtRp5454
(dp5455
g62
(dp5456
sg71
g5450
sg64
(lp5457
g57
(g58
g59
NtRp5458
(dp5459
g62
(dp5460
g70
I1
ssg71
g5454
sg64
(lp5461
g5338
(S's\t\x00\x00\x00Acerca de'
tRp5462
asbasbasbag57
(g73
g59
NtRp5463
(dp5464
g62
(dp5465
sg71
g5446
sg64
(lp5466
g57
(g78
g59
NtRp5467
(dp5468
g62
(dp5469
sg71
g5463
sg64
(lp5470
g57
(g58
g59
NtRp5471
(dp5472
g62
(dp5473
g70
I1
ssg71
g5467
sg64
(lp5474
I01
asbasbasbag57
(g73
g59
NtRp5475
(dp5476
g62
(dp5477
sg71
g5446
sg64
(lp5478
g57
(g78
g59
NtRp5479
(dp5480
g62
(dp5481
sg71
g5475
sg64
(lp5482
g57
(g58
g59
NtRp5483
(dp5484
g62
(dp5485
g70
I1
ssg71
g5479
sg64
(lp5486
S'/flisol2012/conference/about'
p5487
asbasbasbasbasbasbasbag57
(g73
g59
NtRp5488
(dp5489
g62
(dp5490
sg71
g5430
sg64
(lp5491
g57
(g78
g59
NtRp5492
(dp5493
g62
(dp5494
sg71
g5488
sg64
(lp5495
g57
(g58
g59
NtRp5496
(dp5497
g62
(dp5498
g70
I2
ssg71
g5492
sg64
(lp5499
g57
(g66
g59
NtRp5500
(dp5501
g62
(dp5502
g70
I1
ssg71
Nsg64
(lp5503
g57
(g73
g59
NtRp5504
(dp5505
g62
(dp5506
sg71
g5500
sg64
(lp5507
g57
(g78
g59
NtRp5508
(dp5509
g62
(dp5510
sg71
g5504
sg64
(lp5511
g57
(g58
g59
NtRp5512
(dp5513
g62
(dp5514
g70
I1
ssg71
g5508
sg64
(lp5515
g5338
(S't\x05\x00\x00\x00Lugar'
tRp5516
asbasbasbag57
(g73
g59
NtRp5517
(dp5518
g62
(dp5519
sg71
g5500
sg64
(lp5520
g57
(g78
g59
NtRp5521
(dp5522
g62
(dp5523
sg71
g5517
sg64
(lp5524
g57
(g58
g59
NtRp5525
(dp5526
g62
(dp5527
g70
I1
ssg71
g5521
sg64
(lp5528
I01
asbasbasbag57
(g73
g59
NtRp5529
(dp5530
g62
(dp5531
sg71
g5500
sg64
(lp5532
g57
(g78
g59
NtRp5533
(dp5534
g62
(dp5535
sg71
g5529
sg64
(lp5536
g57
(g58
g59
NtRp5537
(dp5538
g62
(dp5539
g70
I1
ssg71
g5533
sg64
(lp5540
S'/flisol2012/conference/venue'
p5541
asbasbasbasbasbasbasbag57
(g73
g59
NtRp5542
(dp5543
g62
(dp5544
sg71
g5430
sg64
(lp5545
g57
(g78
g59
NtRp5546
(dp5547
g62
(dp5548
sg71
g5542
sg64
(lp5549
g57
(g58
g59
NtRp5550
(dp5551
g62
(dp5552
g70
I2
ssg71
g5546
sg64
(lp5553
g57
(g66
g59
NtRp5554
(dp5555
g62
(dp5556
g70
I1
ssg71
Nsg64
(lp5557
g57
(g73
g59
NtRp5558
(dp5559
g62
(dp5560
sg71
g5554
sg64
(lp5561
g57
(g78
g59
NtRp5562
(dp5563
g62
(dp5564
sg71
g5558
sg64
(lp5565
g57
(g58
g59
NtRp5566
(dp5567
g62
(dp5568
g70
I1
ssg71
g5562
sg64
(lp5569
g5338
(S't\x08\x00\x00\x00Software'
tRp5570
asbasbasbag57
(g73
g59
NtRp5571
(dp5572
g62
(dp5573
sg71
g5554
sg64
(lp5574
g57
(g78
g59
NtRp5575
(dp5576
g62
(dp5577
sg71
g5571
sg64
(lp5578
g57
(g58
g59
NtRp5579
(dp5580
g62
(dp5581
g70
I1
ssg71
g5575
sg64
(lp5582
I01
asbasbasbag57
(g73
g59
NtRp5583
(dp5584
g62
(dp5585
sg71
g5554
sg64
(lp5586
g57
(g78
g59
NtRp5587
(dp5588
g62
(dp5589
sg71
g5583
sg64
(lp5590
g57
(g58
g59
NtRp5591
(dp5592
g62
(dp5593
g70
I1
ssg71
g5587
sg64
(lp5594
S'/flisol2012/conference/software'
p5595
asbasbasbasbasbasbasbag57
(g73
g59
NtRp5596
(dp5597
g62
(dp5598
sg71
g5430
sg64
(lp5599
g57
(g78
g59
NtRp5600
(dp5601
g62
(dp5602
sg71
g5596
sg64
(lp5603
g57
(g58
g59
NtRp5604
(dp5605
g62
(dp5606
g70
I2
ssg71
g5600
sg64
(lp5607
g57
(g66
g59
NtRp5608
(dp5609
g62
(dp5610
g70
I1
ssg71
Nsg64
(lp5611
g57
(g73
g59
NtRp5612
(dp5613
g62
(dp5614
sg71
g5608
sg64
(lp5615
g57
(g78
g59
NtRp5616
(dp5617
g62
(dp5618
sg71
g5612
sg64
(lp5619
g57
(g58
g59
NtRp5620
(dp5621
g62
(dp5622
g70
I1
ssg71
g5616
sg64
(lp5623
g5338
(S't\x06\x00\x00\x00Agenda'
tRp5624
asbasbasbag57
(g73
g59
NtRp5625
(dp5626
g62
(dp5627
sg71
g5608
sg64
(lp5628
g57
(g78
g59
NtRp5629
(dp5630
g62
(dp5631
sg71
g5625
sg64
(lp5632
g57
(g58
g59
NtRp5633
(dp5634
g62
(dp5635
g70
I1
ssg71
g5629
sg64
(lp5636
I01
asbasbasbag57
(g73
g59
NtRp5637
(dp5638
g62
(dp5639
sg71
g5608
sg64
(lp5640
g57
(g78
g59
NtRp5641
(dp5642
g62
(dp5643
sg71
g5637
sg64
(lp5644
g57
(g58
g59
NtRp5645
(dp5646
g62
(dp5647
g70
I1
ssg71
g5641
sg64
(lp5648
S'/flisol2012/conference/schedule'
p5649
asbasbasbasbasbasbasbag57
(g73
g59
NtRp5650
(dp5651
g62
(dp5652
sg71
g5430
sg64
(lp5653
g57
(g78
g59
NtRp5654
(dp5655
g62
(dp5656
sg71
g5650
sg64
(lp5657
g57
(g58
g59
NtRp5658
(dp5659
g62
(dp5660
g70
I2
ssg71
g5654
sg64
(lp5661
g57
(g66
g59
NtRp5662
(dp5663
g62
(dp5664
g70
I1
ssg71
Nsg64
(lp5665
g57
(g73
g59
NtRp5666
(dp5667
g62
(dp5668
sg71
g5662
sg64
(lp5669
g57
(g78
g59
NtRp5670
(dp5671
g62
(dp5672
sg71
g5666
sg64
(lp5673
g57
(g58
g59
NtRp5674
(dp5675
g62
(dp5676
g70
I1
ssg71
g5670
sg64
(lp5677
g5338
(S's\x15\x00\x00\x00Propuestas de charlas'
tRp5678
asbasbasbag57
(g73
g59
NtRp5679
(dp5680
g62
(dp5681
sg71
g5662
sg64
(lp5682
g57
(g78
g59
NtRp5683
(dp5684
g62
(dp5685
sg71
g5679
sg64
(lp5686
g57
(g58
g59
NtRp5687
(dp5688
g62
(dp5689
g70
I1
ssg71
g5683
sg64
(lp5690
I01
asbasbasbag57
(g73
g59
NtRp5691
(dp5692
g62
(dp5693
sg71
g5662
sg64
(lp5694
g57
(g78
g59
NtRp5695
(dp5696
g62
(dp5697
sg71
g5691
sg64
(lp5698
g57
(g58
g59
NtRp5699
(dp5700
g62
(dp5701
g70
I1
ssg71
g5695
sg64
(lp5702
S'/flisol2012/conference/proposals'
p5703
asbasbasbasbasbasbasbag57
(g73
g59
NtRp5704
(dp5705
g62
(dp5706
sg71
g5430
sg64
(lp5707
g57
(g78
g59
NtRp5708
(dp5709
g62
(dp5710
sg71
g5704
sg64
(lp5711
g57
(g58
g59
NtRp5712
(dp5713
g62
(dp5714
g70
I2
ssg71
g5708
sg64
(lp5715
g57
(g66
g59
NtRp5716
(dp5717
g62
(dp5718
g70
I1
ssg71
Nsg64
(lp5719
g57
(g73
g59
NtRp5720
(dp5721
g62
(dp5722
sg71
g5716
sg64
(lp5723
g57
(g78
g59
NtRp5724
(dp5725
g62
(dp5726
sg71
g5720
sg64
(lp5727
g57
(g58
g59
NtRp5728
(dp5729
g62
(dp5730
g70
I1
ssg71
g5724
sg64
(lp5731
g5338
(S't\r\x00\x00\x00Organizadores'
tRp5732
asbasbasbag57
(g73
g59
NtRp5733
(dp5734
g62
(dp5735
sg71
g5716
sg64
(lp5736
g57
(g78
g59
NtRp5737
(dp5738
g62
(dp5739
sg71
g5733
sg64
(lp5740
g57
(g58
g59
NtRp5741
(dp5742
g62
(dp5743
g70
I1
ssg71
g5737
sg64
(lp5744
I01
asbasbasbag57
(g73
g59
NtRp5745
(dp5746
g62
(dp5747
sg71
g5716
sg64
(lp5748
g57
(g78
g59
NtRp5749
(dp5750
g62
(dp5751
sg71
g5745
sg64
(lp5752
g57
(g58
g59
NtRp5753
(dp5754
g62
(dp5755
g70
I1
ssg71
g5749
sg64
(lp5756
S'/flisol2012/conference/staff'
p5757
asbasbasbasbasbasbasbasbasbasbasbasbasbasbasbag57
(g73
g59
NtRp5758
(dp5759
g62
(dp5760
sg71
g5306
sg64
(lp5761
g57
(g78
g59
NtRp5762
(dp5763
g62
(dp5764
sg71
g5758
sg64
(lp5765
g57
(g58
g59
NtRp5766
(dp5767
g62
(dp5768
g70
I4
ssg71
g5762
sg64
(lp5769
g57
(g66
g59
NtRp5770
(dp5771
g62
(dp5772
g70
I3
ssg71
Nsg64
(lp5773
g57
(g73
g59
NtRp5774
(dp5775
g62
(dp5776
sg71
g5770
sg64
(lp5777
g57
(g78
g59
NtRp5778
(dp5779
g62
(dp5780
sg71
g5774
sg64
(lp5781
g57
(g58
g59
NtRp5782
(dp5783
g62
(dp5784
g70
I3
ssg71
g5778
sg64
(lp5785
g5338
(S's\t\x00\x00\x00Acerca de'
tRp5786
asbasbasbag57
(g73
g59
NtRp5787
(dp5788
g62
(dp5789
sg71
g5770
sg64
(lp5790
g57
(g78
g59
NtRp5791
(dp5792
g62
(dp5793
sg71
g5787
sg64
(lp5794
g57
(g58
g59
NtRp5795
(dp5796
g62
(dp5797
g70
I3
ssg71
g5791
sg64
(lp5798
g100
asbasbasbag57
(g73
g59
NtRp5799
(dp5800
g62
(dp5801
sg71
g5770
sg64
(lp5802
g57
(g78
g59
NtRp5803
(dp5804
g62
(dp5805
sg71
g5799
sg64
(lp5806
g57
(g58
g59
NtRp5807
(dp5808
g62
(dp5809
g70
I3
ssg71
g5803
sg64
(lp5810
S'/flisol2012/default/about'
p5811
asbasbasbasbasbasbasbag57
(g73
g59
NtRp5812
(dp5813
g62
(dp5814
sg71
g5306
sg64
(lp5815
g57
(g78
g59
NtRp5816
(dp5817
g62
(dp5818
sg71
g5812
sg64
(lp5819
g57
(g58
g59
NtRp5820
(dp5821
g62
(dp5822
g70
I4
ssg71
g5816
sg64
(lp5823
g57
(g66
g59
NtRp5824
(dp5825
g62
(dp5826
g70
I3
ssg71
Nsg64
(lp5827
g57
(g73
g59
NtRp5828
(dp5829
g62
(dp5830
sg71
g5824
sg64
(lp5831
g57
(g78
g59
NtRp5832
(dp5833
g62
(dp5834
sg71
g5828
sg64
(lp5835
g57
(g58
g59
NtRp5836
(dp5837
g62
(dp5838
g70
I3
ssg71
g5832
sg64
(lp5839
g5338
(S't\x08\x00\x00\x00Expenses'
tRp5840
asbasbasbag57
(g73
g59
NtRp5841
(dp5842
g62
(dp5843
sg71
g5824
sg64
(lp5844
g57
(g78
g59
NtRp5845
(dp5846
g62
(dp5847
sg71
g5841
sg64
(lp5848
g57
(g58
g59
NtRp5849
(dp5850
g62
(dp5851
g70
I3
ssg71
g5845
sg64
(lp5852
g1854
asbasbasbag57
(g73
g59
NtRp5853
(dp5854
g62
(dp5855
sg71
g5824
sg64
(lp5856
g57
(g78
g59
NtRp5857
(dp5858
g62
(dp5859
sg71
g5853
sg64
(lp5860
g57
(g58
g59
NtRp5861
(dp5862
g62
(dp5863
g70
I3
ssg71
g5857
sg64
(lp5864
S'/flisol2012/expenses/index'
p5865
asbasbasbasbasbasbasbag57
(g73
g59
NtRp5866
(dp5867
g62
(dp5868
sg71
g5306
sg64
(lp5869
g57
(g78
g59
NtRp5870
(dp5871
g62
(dp5872
sg71
g5866
sg64
(lp5873
g57
(g58
g59
NtRp5874
(dp5875
g62
(dp5876
g70
I4
ssg71
g5870
sg64
(lp5877
g57
(g66
g59
NtRp5878
(dp5879
g62
(dp5880
g70
I3
ssg71
Nsg64
(lp5881
g57
(g73
g59
NtRp5882
(dp5883
g62
(dp5884
sg71
g5878
sg64
(lp5885
g57
(g78
g59
NtRp5886
(dp5887
g62
(dp5888
sg71
g5882
sg64
(lp5889
g57
(g58
g59
NtRp5890
(dp5891
g62
(dp5892
g70
I3
ssg71
g5886
sg64
(lp5893
g5338
(S't\x06\x00\x00\x00Perfil'
tRp5894
asbasbasbag57
(g73
g59
NtRp5895
(dp5896
g62
(dp5897
sg71
g5878
sg64
(lp5898
g57
(g78
g59
NtRp5899
(dp5900
g62
(dp5901
sg71
g5895
sg64
(lp5902
g57
(g58
g59
NtRp5903
(dp5904
g62
(dp5905
g70
I3
ssg71
g5899
sg64
(lp5906
g100
asbasbasbag57
(g73
g59
NtRp5907
(dp5908
g62
(dp5909
sg71
g5878
sg64
(lp5910
g57
(g78
g59
NtRp5911
(dp5912
g62
(dp5913
sg71
g5907
sg64
(lp5914
g57
(g58
g59
NtRp5915
(dp5916
g62
(dp5917
g70
I3
ssg71
g5911
sg64
(lp5918
S'/flisol2012/default/profile'
p5919
asbasbasbasbasbasbasbag57
(g73
g59
NtRp5920
(dp5921
g62
(dp5922
sg71
g5306
sg64
(lp5923
g57
(g78
g59
NtRp5924
(dp5925
g62
(dp5926
sg71
g5920
sg64
(lp5927
g57
(g58
g59
NtRp5928
(dp5929
g62
(dp5930
g70
I4
ssg71
g5924
sg64
(lp5931
g57
(g66
g59
NtRp5932
(dp5933
g62
(dp5934
g70
I3
ssg71
Nsg64
(lp5935
g57
(g73
g59
NtRp5936
(dp5937
g62
(dp5938
sg71
g5932
sg64
(lp5939
g57
(g78
g59
NtRp5940
(dp5941
g62
(dp5942
sg71
g5936
sg64
(lp5943
g57
(g58
g59
NtRp5944
(dp5945
g62
(dp5946
g70
I3
ssg71
g5940
sg64
(lp5947
g5338
(S's\x0e\x00\x00\x00Cerrar Sesi\xc3\xb3n'
tRp5948
asbasbasbag57
(g73
g59
NtRp5949
(dp5950
g62
(dp5951
sg71
g5932
sg64
(lp5952
g57
(g78
g59
NtRp5953
(dp5954
g62
(dp5955
sg71
g5949
sg64
(lp5956
g57
(g58
g59
NtRp5957
(dp5958
g62
(dp5959
g70
I3
ssg71
g5953
sg64
(lp5960
g100
asbasbasbag57
(g73
g59
NtRp5961
(dp5962
g62
(dp5963
sg71
g5932
sg64
(lp5964
g57
(g78
g59
NtRp5965
(dp5966
g62
(dp5967
sg71
g5961
sg64
(lp5968
g57
(g58
g59
NtRp5969
(dp5970
g62
(dp5971
g70
I3
ssg71
g5965
sg64
(lp5972
S'/flisol2012/default/logout'
p5973
asbasbasbasbasbasbasbag57
(g73
g59
NtRp5974
(dp5975
g62
(dp5976
sg71
g5306
sg64
(lp5977
g57
(g78
g59
NtRp5978
(dp5979
g62
(dp5980
sg71
g5974
sg64
(lp5981
g57
(g58
g59
NtRp5982
(dp5983
g62
(dp5984
g70
I4
ssg71
g5978
sg64
(lp5985
g57
(g66
g59
NtRp5986
(dp5987
g62
(dp5988
g70
I3
ssg71
Nsg64
(lp5989
g57
(g73
g59
NtRp5990
(dp5991
g62
(dp5992
sg71
g5986
sg64
(lp5993
g57
(g78
g59
NtRp5994
(dp5995
g62
(dp5996
sg71
g5990
sg64
(lp5997
g57
(g58
g59
NtRp5998
(dp5999
g62
(dp6000
g70
I3
ssg71
g5994
sg64
(lp6001
g5338
(S't\n\x00\x00\x00Administre'
tRp6002
asbasbasbag57
(g73
g59
NtRp6003
(dp6004
g62
(dp6005
sg71
g5986
sg64
(lp6006
g57
(g78
g59
NtRp6007
(dp6008
g62
(dp6009
sg71
g6003
sg64
(lp6010
g57
(g58
g59
NtRp6011
(dp6012
g62
(dp6013
g70
I3
ssg71
g6007
sg64
(lp6014
g100
asbasbasbag57
(g73
g59
NtRp6015
(dp6016
g62
(dp6017
sg71
g5986
sg64
(lp6018
g57
(g78
g59
NtRp6019
(dp6020
g62
(dp6021
sg71
g6015
sg64
(lp6022
g57
(g58
g59
NtRp6023
(dp6024
g62
(dp6025
g70
I3
ssg71
g6019
sg64
(lp6026
S'#'
asbasbasbag57
(g73
g59
NtRp6027
(dp6028
g62
(dp6029
sg71
g5986
sg64
(lp6030
g57
(g78
g59
NtRp6031
(dp6032
g62
(dp6033
sg71
g6027
sg64
(lp6034
g57
(g58
g59
NtRp6035
(dp6036
g62
(dp6037
g70
I3
ssg71
g6031
sg64
(lp6038
g57
(g66
g59
NtRp6039
(dp6040
g62
(dp6041
g70
I2
ssg71
Nsg64
(lp6042
g57
(g73
g59
NtRp6043
(dp6044
g62
(dp6045
sg71
g6039
sg64
(lp6046
g57
(g78
g59
NtRp6047
(dp6048
g62
(dp6049
sg71
g6043
sg64
(lp6050
g57
(g58
g59
NtRp6051
(dp6052
g62
(dp6053
g70
I2
ssg71
g6047
sg64
(lp6054
g57
(g66
g59
NtRp6055
(dp6056
g62
(dp6057
g70
I1
ssg71
Nsg64
(lp6058
g57
(g73
g59
NtRp6059
(dp6060
g62
(dp6061
sg71
g6055
sg64
(lp6062
g57
(g78
g59
NtRp6063
(dp6064
g62
(dp6065
sg71
g6059
sg64
(lp6066
g57
(g58
g59
NtRp6067
(dp6068
g62
(dp6069
g70
I1
ssg71
g6063
sg64
(lp6070
g5338
(S't\x08\x00\x00\x00Finanzas'
tRp6071
asbasbasbag57
(g73
g59
NtRp6072
(dp6073
g62
(dp6074
sg71
g6055
sg64
(lp6075
g57
(g78
g59
NtRp6076
(dp6077
g62
(dp6078
sg71
g6072
sg64
(lp6079
g57
(g58
g59
NtRp6080
(dp6081
g62
(dp6082
g70
I1
ssg71
g6076
sg64
(lp6083
I00
asbasbasbag57
(g73
g59
NtRp6084
(dp6085
g62
(dp6086
sg71
g6055
sg64
(lp6087
g57
(g78
g59
NtRp6088
(dp6089
g62
(dp6090
sg71
g6084
sg64
(lp6091
g57
(g58
g59
NtRp6092
(dp6093
g62
(dp6094
g70
I1
ssg71
g6088
sg64
(lp6095
S'/flisol2012/default/financials'
p6096
asbasbasbasbasbasbasbag57
(g73
g59
NtRp6097
(dp6098
g62
(dp6099
sg71
g6039
sg64
(lp6100
g57
(g78
g59
NtRp6101
(dp6102
g62
(dp6103
sg71
g6097
sg64
(lp6104
g57
(g58
g59
NtRp6105
(dp6106
g62
(dp6107
g70
I2
ssg71
g6101
sg64
(lp6108
g57
(g66
g59
NtRp6109
(dp6110
g62
(dp6111
g70
I1
ssg71
Nsg64
(lp6112
g57
(g73
g59
NtRp6113
(dp6114
g62
(dp6115
sg71
g6109
sg64
(lp6116
g57
(g78
g59
NtRp6117
(dp6118
g62
(dp6119
sg71
g6113
sg64
(lp6120
g57
(g58
g59
NtRp6121
(dp6122
g62
(dp6123
g70
I1
ssg71
g6117
sg64
(lp6124
g5338
(S't\x05\x00\x00\x00Pagos'
tRp6125
asbasbasbag57
(g73
g59
NtRp6126
(dp6127
g62
(dp6128
sg71
g6109
sg64
(lp6129
g57
(g78
g59
NtRp6130
(dp6131
g62
(dp6132
sg71
g6126
sg64
(lp6133
g57
(g58
g59
NtRp6134
(dp6135
g62
(dp6136
g70
I1
ssg71
g6130
sg64
(lp6137
I00
asbasbasbag57
(g73
g59
NtRp6138
(dp6139
g62
(dp6140
sg71
g6109
sg64
(lp6141
g57
(g78
g59
NtRp6142
(dp6143
g62
(dp6144
sg71
g6138
sg64
(lp6145
g57
(g58
g59
NtRp6146
(dp6147
g62
(dp6148
g70
I1
ssg71
g6142
sg64
(lp6149
S'/flisol2012/default/payments'
p6150
asbasbasbasbasbasbasbag57
(g73
g59
NtRp6151
(dp6152
g62
(dp6153
sg71
g6039
sg64
(lp6154
g57
(g78
g59
NtRp6155
(dp6156
g62
(dp6157
sg71
g6151
sg64
(lp6158
g57
(g58
g59
NtRp6159
(dp6160
g62
(dp6161
g70
I2
ssg71
g6155
sg64
(lp6162
g57
(g66
g59
NtRp6163
(dp6164
g62
(dp6165
g70
I1
ssg71
Nsg64
(lp6166
g57
(g73
g59
NtRp6167
(dp6168
g62
(dp6169
sg71
g6163
sg64
(lp6170
g57
(g78
g59
NtRp6171
(dp6172
g62
(dp6173
sg71
g6167
sg64
(lp6174
g57
(g58
g59
NtRp6175
(dp6176
g62
(dp6177
g70
I1
ssg71
g6171
sg64
(lp6178
g5338
(S's!\x00\x00\x00Lista de correos de Participantes'
tRp6179
asbasbasbag57
(g73
g59
NtRp6180
(dp6181
g62
(dp6182
sg71
g6163
sg64
(lp6183
g57
(g78
g59
NtRp6184
(dp6185
g62
(dp6186
sg71
g6180
sg64
(lp6187
g57
(g58
g59
NtRp6188
(dp6189
g62
(dp6190
g70
I1
ssg71
g6184
sg64
(lp6191
I00
asbasbasbag57
(g73
g59
NtRp6192
(dp6193
g62
(dp6194
sg71
g6163
sg64
(lp6195
g57
(g78
g59
NtRp6196
(dp6197
g62
(dp6198
sg71
g6192
sg64
(lp6199
g57
(g58
g59
NtRp6200
(dp6201
g62
(dp6202
g70
I1
ssg71
g6196
sg64
(lp6203
S'/flisol2012/default/maillist'
p6204
asbasbasbasbasbasbasbag57
(g73
g59
NtRp6205
(dp6206
g62
(dp6207
sg71
g6039
sg64
(lp6208
g57
(g78
g59
NtRp6209
(dp6210
g62
(dp6211
sg71
g6205
sg64
(lp6212
g57
(g58
g59
NtRp6213
(dp6214
g62
(dp6215
g70
I2
ssg71
g6209
sg64
(lp6216
g57
(g66
g59
NtRp6217
(dp6218
g62
(dp6219
g70
I1
ssg71
Nsg64
(lp6220
g57
(g73
g59
NtRp6221
(dp6222
g62
(dp6223
sg71
g6217
sg64
(lp6224
g57
(g78
g59
NtRp6225
(dp6226
g62
(dp6227
sg71
g6221
sg64
(lp6228
g57
(g58
g59
NtRp6229
(dp6230
g62
(dp6231
g70
I1
ssg71
g6225
sg64
(lp6232
g5338
(S't\x10\x00\x00\x00Identificaciones'
tRp6233
asbasbasbag57
(g73
g59
NtRp6234
(dp6235
g62
(dp6236
sg71
g6217
sg64
(lp6237
g57
(g78
g59
NtRp6238
(dp6239
g62
(dp6240
sg71
g6234
sg64
(lp6241
g57
(g58
g59
NtRp6242
(dp6243
g62
(dp6244
g70
I1
ssg71
g6238
sg64
(lp6245
I00
asbasbasbag57
(g73
g59
NtRp6246
(dp6247
g62
(dp6248
sg71
g6217
sg64
(lp6249
g57
(g78
g59
NtRp6250
(dp6251
g62
(dp6252
sg71
g6246
sg64
(lp6253
g57
(g58
g59
NtRp6254
(dp6255
g62
(dp6256
g70
I1
ssg71
g6250
sg64
(lp6257
S'/flisol2012/default/badge/auth_user'
p6258
asbasbasbasbasbasbasbag57
(g73
g59
NtRp6259
(dp6260
g62
(dp6261
sg71
g6039
sg64
(lp6262
g57
(g78
g59
NtRp6263
(dp6264
g62
(dp6265
sg71
g6259
sg64
(lp6266
g57
(g58
g59
NtRp6267
(dp6268
g62
(dp6269
g70
I2
ssg71
g6263
sg64
(lp6270
g57
(g66
g59
NtRp6271
(dp6272
g62
(dp6273
g70
I1
ssg71
Nsg64
(lp6274
g57
(g73
g59
NtRp6275
(dp6276
g62
(dp6277
sg71
g6271
sg64
(lp6278
g57
(g78
g59
NtRp6279
(dp6280
g62
(dp6281
sg71
g6275
sg64
(lp6282
g57
(g58
g59
NtRp6283
(dp6284
g62
(dp6285
g70
I1
ssg71
g6279
sg64
(lp6286
g5338
(S't\n\x00\x00\x00Tutoriales'
tRp6287
asbasbasbag57
(g73
g59
NtRp6288
(dp6289
g62
(dp6290
sg71
g6271
sg64
(lp6291
g57
(g78
g59
NtRp6292
(dp6293
g62
(dp6294
sg71
g6288
sg64
(lp6295
g57
(g58
g59
NtRp6296
(dp6297
g62
(dp6298
g70
I1
ssg71
g6292
sg64
(lp6299
I00
asbasbasbag57
(g73
g59
NtRp6300
(dp6301
g62
(dp6302
sg71
g6271
sg64
(lp6303
g57
(g78
g59
NtRp6304
(dp6305
g62
(dp6306
sg71
g6300
sg64
(lp6307
g57
(g58
g59
NtRp6308
(dp6309
g62
(dp6310
g70
I1
ssg71
g6304
sg64
(lp6311
S'/flisol2012/default/list_by_tutorial'
p6312
asbasbasbasbasbasbasbag57
(g73
g59
NtRp6313
(dp6314
g62
(dp6315
sg71
g6039
sg64
(lp6316
g57
(g78
g59
NtRp6317
(dp6318
g62
(dp6319
sg71
g6313
sg64
(lp6320
g57
(g58
g59
NtRp6321
(dp6322
g62
(dp6323
g70
I2
ssg71
g6317
sg64
(lp6324
g57
(g66
g59
NtRp6325
(dp6326
g62
(dp6327
g70
I1
ssg71
Nsg64
(lp6328
g57
(g73
g59
NtRp6329
(dp6330
g62
(dp6331
sg71
g6325
sg64
(lp6332
g57
(g78
g59
NtRp6333
(dp6334
g62
(dp6335
sg71
g6329
sg64
(lp6336
g57
(g58
g59
NtRp6337
(dp6338
g62
(dp6339
g70
I1
ssg71
g6333
sg64
(lp6340
g5338
(S's\x0e\x00\x00\x00*** FA-CSV ???'
tRp6341
asbasbasbag57
(g73
g59
NtRp6342
(dp6343
g62
(dp6344
sg71
g6325
sg64
(lp6345
g57
(g78
g59
NtRp6346
(dp6347
g62
(dp6348
sg71
g6342
sg64
(lp6349
g57
(g58
g59
NtRp6350
(dp6351
g62
(dp6352
g70
I1
ssg71
g6346
sg64
(lp6353
I00
asbasbasbag57
(g73
g59
NtRp6354
(dp6355
g62
(dp6356
sg71
g6325
sg64
(lp6357
g57
(g78
g59
NtRp6358
(dp6359
g62
(dp6360
sg71
g6354
sg64
(lp6361
g57
(g58
g59
NtRp6362
(dp6363
g62
(dp6364
g70
I1
ssg71
g6358
sg64
(lp6365
S'/flisol2012/default/fa_csv'
p6366
asbasbasbasbasbasbasbag57
(g73
g59
NtRp6367
(dp6368
g62
(dp6369
sg71
g6039
sg64
(lp6370
g57
(g78
g59
NtRp6371
(dp6372
g62
(dp6373
sg71
g6367
sg64
(lp6374
g57
(g58
g59
NtRp6375
(dp6376
g62
(dp6377
g70
I2
ssg71
g6371
sg64
(lp6378
g57
(g66
g59
NtRp6379
(dp6380
g62
(dp6381
g70
I1
ssg71
Nsg64
(lp6382
g57
(g73
g59
NtRp6383
(dp6384
g62
(dp6385
sg71
g6379
sg64
(lp6386
g57
(g78
g59
NtRp6387
(dp6388
g62
(dp6389
sg71
g6383
sg64
(lp6390
g57
(g58
g59
NtRp6391
(dp6392
g62
(dp6393
g70
I1
ssg71
g6387
sg64
(lp6394
g5338
(S's\x16\x00\x00\x00*** FA-(email all) ???'
tRp6395
asbasbasbag57
(g73
g59
NtRp6396
(dp6397
g62
(dp6398
sg71
g6379
sg64
(lp6399
g57
(g78
g59
NtRp6400
(dp6401
g62
(dp6402
sg71
g6396
sg64
(lp6403
g57
(g58
g59
NtRp6404
(dp6405
g62
(dp6406
g70
I1
ssg71
g6400
sg64
(lp6407
I00
asbasbasbag57
(g73
g59
NtRp6408
(dp6409
g62
(dp6410
sg71
g6379
sg64
(lp6411
g57
(g78
g59
NtRp6412
(dp6413
g62
(dp6414
sg71
g6408
sg64
(lp6415
g57
(g58
g59
NtRp6416
(dp6417
g62
(dp6418
g70
I1
ssg71
g6412
sg64
(lp6419
S'/flisol2012/default/fa_email_all'
p6420
asbasbasbasbasbasbasbag57
(g73
g59
NtRp6421
(dp6422
g62
(dp6423
sg71
g6039
sg64
(lp6424
g57
(g78
g59
NtRp6425
(dp6426
g62
(dp6427
sg71
g6421
sg64
(lp6428
g57
(g58
g59
NtRp6429
(dp6430
g62
(dp6431
g70
I2
ssg71
g6425
sg64
(lp6432
g57
(g66
g59
NtRp6433
(dp6434
g62
(dp6435
g70
I1
ssg71
Nsg64
(lp6436
g57
(g73
g59
NtRp6437
(dp6438
g62
(dp6439
sg71
g6433
sg64
(lp6440
g57
(g78
g59
NtRp6441
(dp6442
g62
(dp6443
sg71
g6437
sg64
(lp6444
g57
(g58
g59
NtRp6445
(dp6446
g62
(dp6447
g70
I1
ssg71
g6441
sg64
(lp6448
S'[auth_user]'
p6449
asbasbasbag57
(g73
g59
NtRp6450
(dp6451
g62
(dp6452
sg71
g6433
sg64
(lp6453
g57
(g78
g59
NtRp6454
(dp6455
g62
(dp6456
sg71
g6450
sg64
(lp6457
g57
(g58
g59
NtRp6458
(dp6459
g62
(dp6460
g70
I1
ssg71
g6454
sg64
(lp6461
I00
asbasbasbag57
(g73
g59
NtRp6462
(dp6463
g62
(dp6464
sg71
g6433
sg64
(lp6465
g57
(g78
g59
NtRp6466
(dp6467
g62
(dp6468
sg71
g6462
sg64
(lp6469
g57
(g58
g59
NtRp6470
(dp6471
g62
(dp6472
g70
I1
ssg71
g6466
sg64
(lp6473
S'/flisol2012/default/create/auth_user'
p6474
asbasbasbasbasbasbasbag57
(g73
g59
NtRp6475
(dp6476
g62
(dp6477
sg71
g6039
sg64
(lp6478
g57
(g78
g59
NtRp6479
(dp6480
g62
(dp6481
sg71
g6475
sg64
(lp6482
g57
(g58
g59
NtRp6483
(dp6484
g62
(dp6485
g70
I2
ssg71
g6479
sg64
(lp6486
g57
(g66
g59
NtRp6487
(dp6488
g62
(dp6489
g70
I1
ssg71
Nsg64
(lp6490
g57
(g73
g59
NtRp6491
(dp6492
g62
(dp6493
sg71
g6487
sg64
(lp6494
g57
(g78
g59
NtRp6495
(dp6496
g62
(dp6497
sg71
g6491
sg64
(lp6498
g57
(g58
g59
NtRp6499
(dp6500
g62
(dp6501
g70
I1
ssg71
g6495
sg64
(lp6502
S'[auth_group]'
p6503
asbasbasbag57
(g73
g59
NtRp6504
(dp6505
g62
(dp6506
sg71
g6487
sg64
(lp6507
g57
(g78
g59
NtRp6508
(dp6509
g62
(dp6510
sg71
g6504
sg64
(lp6511
g57
(g58
g59
NtRp6512
(dp6513
g62
(dp6514
g70
I1
ssg71
g6508
sg64
(lp6515
I00
asbasbasbag57
(g73
g59
NtRp6516
(dp6517
g62
(dp6518
sg71
g6487
sg64
(lp6519
g57
(g78
g59
NtRp6520
(dp6521
g62
(dp6522
sg71
g6516
sg64
(lp6523
g57
(g58
g59
NtRp6524
(dp6525
g62
(dp6526
g70
I1
ssg71
g6520
sg64
(lp6527
S'/flisol2012/default/create/auth_group'
p6528
asbasbasbasbasbasbasbag57
(g73
g59
NtRp6529
(dp6530
g62
(dp6531
sg71
g6039
sg64
(lp6532
g57
(g78
g59
NtRp6533
(dp6534
g62
(dp6535
sg71
g6529
sg64
(lp6536
g57
(g58
g59
NtRp6537
(dp6538
g62
(dp6539
g70
I2
ssg71
g6533
sg64
(lp6540
g57
(g66
g59
NtRp6541
(dp6542
g62
(dp6543
g70
I1
ssg71
Nsg64
(lp6544
g57
(g73
g59
NtRp6545
(dp6546
g62
(dp6547
sg71
g6541
sg64
(lp6548
g57
(g78
g59
NtRp6549
(dp6550
g62
(dp6551
sg71
g6545
sg64
(lp6552
g57
(g58
g59
NtRp6553
(dp6554
g62
(dp6555
g70
I1
ssg71
g6549
sg64
(lp6556
S'[auth_membership]'
p6557
asbasbasbag57
(g73
g59
NtRp6558
(dp6559
g62
(dp6560
sg71
g6541
sg64
(lp6561
g57
(g78
g59
NtRp6562
(dp6563
g62
(dp6564
sg71
g6558
sg64
(lp6565
g57
(g58
g59
NtRp6566
(dp6567
g62
(dp6568
g70
I1
ssg71
g6562
sg64
(lp6569
I00
asbasbasbag57
(g73
g59
NtRp6570
(dp6571
g62
(dp6572
sg71
g6541
sg64
(lp6573
g57
(g78
g59
NtRp6574
(dp6575
g62
(dp6576
sg71
g6570
sg64
(lp6577
g57
(g58
g59
NtRp6578
(dp6579
g62
(dp6580
g70
I1
ssg71
g6574
sg64
(lp6581
S'/flisol2012/default/create/auth_membership'
p6582
asbasbasbasbasbasbasbag57
(g73
g59
NtRp6583
(dp6584
g62
(dp6585
sg71
g6039
sg64
(lp6586
g57
(g78
g59
NtRp6587
(dp6588
g62
(dp6589
sg71
g6583
sg64
(lp6590
g57
(g58
g59
NtRp6591
(dp6592
g62
(dp6593
g70
I2
ssg71
g6587
sg64
(lp6594
g57
(g66
g59
NtRp6595
(dp6596
g62
(dp6597
g70
I1
ssg71
Nsg64
(lp6598
g57
(g73
g59
NtRp6599
(dp6600
g62
(dp6601
sg71
g6595
sg64
(lp6602
g57
(g78
g59
NtRp6603
(dp6604
g62
(dp6605
sg71
g6599
sg64
(lp6606
g57
(g58
g59
NtRp6607
(dp6608
g62
(dp6609
g70
I1
ssg71
g6603
sg64
(lp6610
S'[auth_permission]'
p6611
asbasbasbag57
(g73
g59
NtRp6612
(dp6613
g62
(dp6614
sg71
g6595
sg64
(lp6615
g57
(g78
g59
NtRp6616
(dp6617
g62
(dp6618
sg71
g6612
sg64
(lp6619
g57
(g58
g59
NtRp6620
(dp6621
g62
(dp6622
g70
I1
ssg71
g6616
sg64
(lp6623
I00
asbasbasbag57
(g73
g59
NtRp6624
(dp6625
g62
(dp6626
sg71
g6595
sg64
(lp6627
g57
(g78
g59
NtRp6628
(dp6629
g62
(dp6630
sg71
g6624
sg64
(lp6631
g57
(g58
g59
NtRp6632
(dp6633
g62
(dp6634
g70
I1
ssg71
g6628
sg64
(lp6635
S'/flisol2012/default/create/auth_permission'
p6636
asbasbasbasbasbasbasbag57
(g73
g59
NtRp6637
(dp6638
g62
(dp6639
sg71
g6039
sg64
(lp6640
g57
(g78
g59
NtRp6641
(dp6642
g62
(dp6643
sg71
g6637
sg64
(lp6644
g57
(g58
g59
NtRp6645
(dp6646
g62
(dp6647
g70
I2
ssg71
g6641
sg64
(lp6648
g57
(g66
g59
NtRp6649
(dp6650
g62
(dp6651
g70
I1
ssg71
Nsg64
(lp6652
g57
(g73
g59
NtRp6653
(dp6654
g62
(dp6655
sg71
g6649
sg64
(lp6656
g57
(g78
g59
NtRp6657
(dp6658
g62
(dp6659
sg71
g6653
sg64
(lp6660
g57
(g58
g59
NtRp6661
(dp6662
g62
(dp6663
g70
I1
ssg71
g6657
sg64
(lp6664
S'[auth_event]'
p6665
asbasbasbag57
(g73
g59
NtRp6666
(dp6667
g62
(dp6668
sg71
g6649
sg64
(lp6669
g57
(g78
g59
NtRp6670
(dp6671
g62
(dp6672
sg71
g6666
sg64
(lp6673
g57
(g58
g59
NtRp6674
(dp6675
g62
(dp6676
g70
I1
ssg71
g6670
sg64
(lp6677
I00
asbasbasbag57
(g73
g59
NtRp6678
(dp6679
g62
(dp6680
sg71
g6649
sg64
(lp6681
g57
(g78
g59
NtRp6682
(dp6683
g62
(dp6684
sg71
g6678
sg64
(lp6685
g57
(g58
g59
NtRp6686
(dp6687
g62
(dp6688
g70
I1
ssg71
g6682
sg64
(lp6689
S'/flisol2012/default/create/auth_event'
p6690
asbasbasbasbasbasbasbag57
(g73
g59
NtRp6691
(dp6692
g62
(dp6693
sg71
g6039
sg64
(lp6694
g57
(g78
g59
NtRp6695
(dp6696
g62
(dp6697
sg71
g6691
sg64
(lp6698
g57
(g58
g59
NtRp6699
(dp6700
g62
(dp6701
g70
I2
ssg71
g6695
sg64
(lp6702
g57
(g66
g59
NtRp6703
(dp6704
g62
(dp6705
g70
I1
ssg71
Nsg64
(lp6706
g57
(g73
g59
NtRp6707
(dp6708
g62
(dp6709
sg71
g6703
sg64
(lp6710
g57
(g78
g59
NtRp6711
(dp6712
g62
(dp6713
sg71
g6707
sg64
(lp6714
g57
(g58
g59
NtRp6715
(dp6716
g62
(dp6717
g70
I1
ssg71
g6711
sg64
(lp6718
S'[auth_cas]'
p6719
asbasbasbag57
(g73
g59
NtRp6720
(dp6721
g62
(dp6722
sg71
g6703
sg64
(lp6723
g57
(g78
g59
NtRp6724
(dp6725
g62
(dp6726
sg71
g6720
sg64
(lp6727
g57
(g58
g59
NtRp6728
(dp6729
g62
(dp6730
g70
I1
ssg71
g6724
sg64
(lp6731
I00
asbasbasbag57
(g73
g59
NtRp6732
(dp6733
g62
(dp6734
sg71
g6703
sg64
(lp6735
g57
(g78
g59
NtRp6736
(dp6737
g62
(dp6738
sg71
g6732
sg64
(lp6739
g57
(g58
g59
NtRp6740
(dp6741
g62
(dp6742
g70
I1
ssg71
g6736
sg64
(lp6743
S'/flisol2012/default/create/auth_cas'
p6744
asbasbasbasbasbasbasbag57
(g73
g59
NtRp6745
(dp6746
g62
(dp6747
sg71
g6039
sg64
(lp6748
g57
(g78
g59
NtRp6749
(dp6750
g62
(dp6751
sg71
g6745
sg64
(lp6752
g57
(g58
g59
NtRp6753
(dp6754
g62
(dp6755
g70
I2
ssg71
g6749
sg64
(lp6756
g57
(g66
g59
NtRp6757
(dp6758
g62
(dp6759
g70
I1
ssg71
Nsg64
(lp6760
g57
(g73
g59
NtRp6761
(dp6762
g62
(dp6763
sg71
g6757
sg64
(lp6764
g57
(g78
g59
NtRp6765
(dp6766
g62
(dp6767
sg71
g6761
sg64
(lp6768
g57
(g58
g59
NtRp6769
(dp6770
g62
(dp6771
g70
I1
ssg71
g6765
sg64
(lp6772
S'[payment]'
p6773
asbasbasbag57
(g73
g59
NtRp6774
(dp6775
g62
(dp6776
sg71
g6757
sg64
(lp6777
g57
(g78
g59
NtRp6778
(dp6779
g62
(dp6780
sg71
g6774
sg64
(lp6781
g57
(g58
g59
NtRp6782
(dp6783
g62
(dp6784
g70
I1
ssg71
g6778
sg64
(lp6785
I00
asbasbasbag57
(g73
g59
NtRp6786
(dp6787
g62
(dp6788
sg71
g6757
sg64
(lp6789
g57
(g78
g59
NtRp6790
(dp6791
g62
(dp6792
sg71
g6786
sg64
(lp6793
g57
(g58
g59
NtRp6794
(dp6795
g62
(dp6796
g70
I1
ssg71
g6790
sg64
(lp6797
S'/flisol2012/default/create/payment'
p6798
asbasbasbasbasbasbasbag57
(g73
g59
NtRp6799
(dp6800
g62
(dp6801
sg71
g6039
sg64
(lp6802
g57
(g78
g59
NtRp6803
(dp6804
g62
(dp6805
sg71
g6799
sg64
(lp6806
g57
(g58
g59
NtRp6807
(dp6808
g62
(dp6809
g70
I2
ssg71
g6803
sg64
(lp6810
g57
(g66
g59
NtRp6811
(dp6812
g62
(dp6813
g70
I1
ssg71
Nsg64
(lp6814
g57
(g73
g59
NtRp6815
(dp6816
g62
(dp6817
sg71
g6811
sg64
(lp6818
g57
(g78
g59
NtRp6819
(dp6820
g62
(dp6821
sg71
g6815
sg64
(lp6822
g57
(g58
g59
NtRp6823
(dp6824
g62
(dp6825
g70
I1
ssg71
g6819
sg64
(lp6826
S'[money_transfer]'
p6827
asbasbasbag57
(g73
g59
NtRp6828
(dp6829
g62
(dp6830
sg71
g6811
sg64
(lp6831
g57
(g78
g59
NtRp6832
(dp6833
g62
(dp6834
sg71
g6828
sg64
(lp6835
g57
(g58
g59
NtRp6836
(dp6837
g62
(dp6838
g70
I1
ssg71
g6832
sg64
(lp6839
I00
asbasbasbag57
(g73
g59
NtRp6840
(dp6841
g62
(dp6842
sg71
g6811
sg64
(lp6843
g57
(g78
g59
NtRp6844
(dp6845
g62
(dp6846
sg71
g6840
sg64
(lp6847
g57
(g58
g59
NtRp6848
(dp6849
g62
(dp6850
g70
I1
ssg71
g6844
sg64
(lp6851
S'/flisol2012/default/create/money_transfer'
p6852
asbasbasbasbasbasbasbag57
(g73
g59
NtRp6853
(dp6854
g62
(dp6855
sg71
g6039
sg64
(lp6856
g57
(g78
g59
NtRp6857
(dp6858
g62
(dp6859
sg71
g6853
sg64
(lp6860
g57
(g58
g59
NtRp6861
(dp6862
g62
(dp6863
g70
I2
ssg71
g6857
sg64
(lp6864
g57
(g66
g59
NtRp6865
(dp6866
g62
(dp6867
g70
I1
ssg71
Nsg64
(lp6868
g57
(g73
g59
NtRp6869
(dp6870
g62
(dp6871
sg71
g6865
sg64
(lp6872
g57
(g78
g59
NtRp6873
(dp6874
g62
(dp6875
sg71
g6869
sg64
(lp6876
g57
(g58
g59
NtRp6877
(dp6878
g62
(dp6879
g70
I1
ssg71
g6873
sg64
(lp6880
S'[coupon]'
p6881
asbasbasbag57
(g73
g59
NtRp6882
(dp6883
g62
(dp6884
sg71
g6865
sg64
(lp6885
g57
(g78
g59
NtRp6886
(dp6887
g62
(dp6888
sg71
g6882
sg64
(lp6889
g57
(g58
g59
NtRp6890
(dp6891
g62
(dp6892
g70
I1
ssg71
g6886
sg64
(lp6893
I00
asbasbasbag57
(g73
g59
NtRp6894
(dp6895
g62
(dp6896
sg71
g6865
sg64
(lp6897
g57
(g78
g59
NtRp6898
(dp6899
g62
(dp6900
sg71
g6894
sg64
(lp6901
g57
(g58
g59
NtRp6902
(dp6903
g62
(dp6904
g70
I1
ssg71
g6898
sg64
(lp6905
S'/flisol2012/default/create/coupon'
p6906
asbasbasbasbasbasbasbag57
(g73
g59
NtRp6907
(dp6908
g62
(dp6909
sg71
g6039
sg64
(lp6910
g57
(g78
g59
NtRp6911
(dp6912
g62
(dp6913
sg71
g6907
sg64
(lp6914
g57
(g58
g59
NtRp6915
(dp6916
g62
(dp6917
g70
I2
ssg71
g6911
sg64
(lp6918
g57
(g66
g59
NtRp6919
(dp6920
g62
(dp6921
g70
I1
ssg71
Nsg64
(lp6922
g57
(g73
g59
NtRp6923
(dp6924
g62
(dp6925
sg71
g6919
sg64
(lp6926
g57
(g78
g59
NtRp6927
(dp6928
g62
(dp6929
sg71
g6923
sg64
(lp6930
g57
(g58
g59
NtRp6931
(dp6932
g62
(dp6933
g70
I1
ssg71
g6927
sg64
(lp6934
S'[talk]'
p6935
asbasbasbag57
(g73
g59
NtRp6936
(dp6937
g62
(dp6938
sg71
g6919
sg64
(lp6939
g57
(g78
g59
NtRp6940
(dp6941
g62
(dp6942
sg71
g6936
sg64
(lp6943
g57
(g58
g59
NtRp6944
(dp6945
g62
(dp6946
g70
I1
ssg71
g6940
sg64
(lp6947
I00
asbasbasbag57
(g73
g59
NtRp6948
(dp6949
g62
(dp6950
sg71
g6919
sg64
(lp6951
g57
(g78
g59
NtRp6952
(dp6953
g62
(dp6954
sg71
g6948
sg64
(lp6955
g57
(g58
g59
NtRp6956
(dp6957
g62
(dp6958
g70
I1
ssg71
g6952
sg64
(lp6959
S'/flisol2012/default/create/talk'
p6960
asbasbasbasbasbasbasbag57
(g73
g59
NtRp6961
(dp6962
g62
(dp6963
sg71
g6039
sg64
(lp6964
g57
(g78
g59
NtRp6965
(dp6966
g62
(dp6967
sg71
g6961
sg64
(lp6968
g57
(g58
g59
NtRp6969
(dp6970
g62
(dp6971
g70
I2
ssg71
g6965
sg64
(lp6972
g57
(g66
g59
NtRp6973
(dp6974
g62
(dp6975
g70
I1
ssg71
Nsg64
(lp6976
g57
(g73
g59
NtRp6977
(dp6978
g62
(dp6979
sg71
g6973
sg64
(lp6980
g57
(g78
g59
NtRp6981
(dp6982
g62
(dp6983
sg71
g6977
sg64
(lp6984
g57
(g58
g59
NtRp6985
(dp6986
g62
(dp6987
g70
I1
ssg71
g6981
sg64
(lp6988
S'[talk_archived]'
p6989
asbasbasbag57
(g73
g59
NtRp6990
(dp6991
g62
(dp6992
sg71
g6973
sg64
(lp6993
g57
(g78
g59
NtRp6994
(dp6995
g62
(dp6996
sg71
g6990
sg64
(lp6997
g57
(g58
g59
NtRp6998
(dp6999
g62
(dp7000
g70
I1
ssg71
g6994
sg64
(lp7001
I00
asbasbasbag57
(g73
g59
NtRp7002
(dp7003
g62
(dp7004
sg71
g6973
sg64
(lp7005
g57
(g78
g59
NtRp7006
(dp7007
g62
(dp7008
sg71
g7002
sg64
(lp7009
g57
(g58
g59
NtRp7010
(dp7011
g62
(dp7012
g70
I1
ssg71
g7006
sg64
(lp7013
S'/flisol2012/default/create/talk_archived'
p7014
asbasbasbasbasbasbasbag57
(g73
g59
NtRp7015
(dp7016
g62
(dp7017
sg71
g6039
sg64
(lp7018
g57
(g78
g59
NtRp7019
(dp7020
g62
(dp7021
sg71
g7015
sg64
(lp7022
g57
(g58
g59
NtRp7023
(dp7024
g62
(dp7025
g70
I2
ssg71
g7019
sg64
(lp7026
g57
(g66
g59
NtRp7027
(dp7028
g62
(dp7029
g70
I1
ssg71
Nsg64
(lp7030
g57
(g73
g59
NtRp7031
(dp7032
g62
(dp7033
sg71
g7027
sg64
(lp7034
g57
(g78
g59
NtRp7035
(dp7036
g62
(dp7037
sg71
g7031
sg64
(lp7038
g57
(g58
g59
NtRp7039
(dp7040
g62
(dp7041
g70
I1
ssg71
g7035
sg64
(lp7042
S'[fa]'
p7043
asbasbasbag57
(g73
g59
NtRp7044
(dp7045
g62
(dp7046
sg71
g7027
sg64
(lp7047
g57
(g78
g59
NtRp7048
(dp7049
g62
(dp7050
sg71
g7044
sg64
(lp7051
g57
(g58
g59
NtRp7052
(dp7053
g62
(dp7054
g70
I1
ssg71
g7048
sg64
(lp7055
I00
asbasbasbag57
(g73
g59
NtRp7056
(dp7057
g62
(dp7058
sg71
g7027
sg64
(lp7059
g57
(g78
g59
NtRp7060
(dp7061
g62
(dp7062
sg71
g7056
sg64
(lp7063
g57
(g58
g59
NtRp7064
(dp7065
g62
(dp7066
g70
I1
ssg71
g7060
sg64
(lp7067
S'/flisol2012/default/create/fa'
p7068
asbasbasbasbasbasbasbag57
(g73
g59
NtRp7069
(dp7070
g62
(dp7071
sg71
g6039
sg64
(lp7072
g57
(g78
g59
NtRp7073
(dp7074
g62
(dp7075
sg71
g7069
sg64
(lp7076
g57
(g58
g59
NtRp7077
(dp7078
g62
(dp7079
g70
I2
ssg71
g7073
sg64
(lp7080
g57
(g66
g59
NtRp7081
(dp7082
g62
(dp7083
g70
I1
ssg71
Nsg64
(lp7084
g57
(g73
g59
NtRp7085
(dp7086
g62
(dp7087
sg71
g7081
sg64
(lp7088
g57
(g78
g59
NtRp7089
(dp7090
g62
(dp7091
sg71
g7085
sg64
(lp7092
g57
(g58
g59
NtRp7093
(dp7094
g62
(dp7095
g70
I1
ssg71
g7089
sg64
(lp7096
S'[person]'
p7097
asbasbasbag57
(g73
g59
NtRp7098
(dp7099
g62
(dp7100
sg71
g7081
sg64
(lp7101
g57
(g78
g59
NtRp7102
(dp7103
g62
(dp7104
sg71
g7098
sg64
(lp7105
g57
(g58
g59
NtRp7106
(dp7107
g62
(dp7108
g70
I1
ssg71
g7102
sg64
(lp7109
I00
asbasbasbag57
(g73
g59
NtRp7110
(dp7111
g62
(dp7112
sg71
g7081
sg64
(lp7113
g57
(g78
g59
NtRp7114
(dp7115
g62
(dp7116
sg71
g7110
sg64
(lp7117
g57
(g58
g59
NtRp7118
(dp7119
g62
(dp7120
g70
I1
ssg71
g7114
sg64
(lp7121
S'/flisol2012/default/create/t2_person'
p7122
asbasbasbasbasbasbasbag57
(g73
g59
NtRp7123
(dp7124
g62
(dp7125
sg71
g6039
sg64
(lp7126
g57
(g78
g59
NtRp7127
(dp7128
g62
(dp7129
sg71
g7123
sg64
(lp7130
g57
(g58
g59
NtRp7131
(dp7132
g62
(dp7133
g70
I2
ssg71
g7127
sg64
(lp7134
g57
(g66
g59
NtRp7135
(dp7136
g62
(dp7137
g70
I1
ssg71
Nsg64
(lp7138
g57
(g73
g59
NtRp7139
(dp7140
g62
(dp7141
sg71
g7135
sg64
(lp7142
g57
(g78
g59
NtRp7143
(dp7144
g62
(dp7145
sg71
g7139
sg64
(lp7146
g57
(g58
g59
NtRp7147
(dp7148
g62
(dp7149
g70
I1
ssg71
g7143
sg64
(lp7150
S'[group]'
p7151
asbasbasbag57
(g73
g59
NtRp7152
(dp7153
g62
(dp7154
sg71
g7135
sg64
(lp7155
g57
(g78
g59
NtRp7156
(dp7157
g62
(dp7158
sg71
g7152
sg64
(lp7159
g57
(g58
g59
NtRp7160
(dp7161
g62
(dp7162
g70
I1
ssg71
g7156
sg64
(lp7163
I00
asbasbasbag57
(g73
g59
NtRp7164
(dp7165
g62
(dp7166
sg71
g7135
sg64
(lp7167
g57
(g78
g59
NtRp7168
(dp7169
g62
(dp7170
sg71
g7164
sg64
(lp7171
g57
(g58
g59
NtRp7172
(dp7173
g62
(dp7174
g70
I1
ssg71
g7168
sg64
(lp7175
S'/flisol2012/default/create/t2_group'
p7176
asbasbasbasbasbasbasbag57
(g73
g59
NtRp7177
(dp7178
g62
(dp7179
sg71
g6039
sg64
(lp7180
g57
(g78
g59
NtRp7181
(dp7182
g62
(dp7183
sg71
g7177
sg64
(lp7184
g57
(g58
g59
NtRp7185
(dp7186
g62
(dp7187
g70
I2
ssg71
g7181
sg64
(lp7188
g57
(g66
g59
NtRp7189
(dp7190
g62
(dp7191
g70
I1
ssg71
Nsg64
(lp7192
g57
(g73
g59
NtRp7193
(dp7194
g62
(dp7195
sg71
g7189
sg64
(lp7196
g57
(g78
g59
NtRp7197
(dp7198
g62
(dp7199
sg71
g7193
sg64
(lp7200
g57
(g58
g59
NtRp7201
(dp7202
g62
(dp7203
g70
I1
ssg71
g7197
sg64
(lp7204
S'[membership]'
p7205
asbasbasbag57
(g73
g59
NtRp7206
(dp7207
g62
(dp7208
sg71
g7189
sg64
(lp7209
g57
(g78
g59
NtRp7210
(dp7211
g62
(dp7212
sg71
g7206
sg64
(lp7213
g57
(g58
g59
NtRp7214
(dp7215
g62
(dp7216
g70
I1
ssg71
g7210
sg64
(lp7217
I00
asbasbasbag57
(g73
g59
NtRp7218
(dp7219
g62
(dp7220
sg71
g7189
sg64
(lp7221
g57
(g78
g59
NtRp7222
(dp7223
g62
(dp7224
sg71
g7218
sg64
(lp7225
g57
(g58
g59
NtRp7226
(dp7227
g62
(dp7228
g70
I1
ssg71
g7222
sg64
(lp7229
S'/flisol2012/default/create/t2_membership'
p7230
asbasbasbasbasbasbasbag57
(g73
g59
NtRp7231
(dp7232
g62
(dp7233
sg71
g6039
sg64
(lp7234
g57
(g78
g59
NtRp7235
(dp7236
g62
(dp7237
sg71
g7231
sg64
(lp7238
g57
(g58
g59
NtRp7239
(dp7240
g62
(dp7241
g70
I2
ssg71
g7235
sg64
(lp7242
g57
(g66
g59
NtRp7243
(dp7244
g62
(dp7245
g70
I1
ssg71
Nsg64
(lp7246
g57
(g73
g59
NtRp7247
(dp7248
g62
(dp7249
sg71
g7243
sg64
(lp7250
g57
(g78
g59
NtRp7251
(dp7252
g62
(dp7253
sg71
g7247
sg64
(lp7254
g57
(g58
g59
NtRp7255
(dp7256
g62
(dp7257
g70
I1
ssg71
g7251
sg64
(lp7258
S'[access]'
p7259
asbasbasbag57
(g73
g59
NtRp7260
(dp7261
g62
(dp7262
sg71
g7243
sg64
(lp7263
g57
(g78
g59
NtRp7264
(dp7265
g62
(dp7266
sg71
g7260
sg64
(lp7267
g57
(g58
g59
NtRp7268
(dp7269
g62
(dp7270
g70
I1
ssg71
g7264
sg64
(lp7271
I00
asbasbasbag57
(g73
g59
NtRp7272
(dp7273
g62
(dp7274
sg71
g7243
sg64
(lp7275
g57
(g78
g59
NtRp7276
(dp7277
g62
(dp7278
sg71
g7272
sg64
(lp7279
g57
(g58
g59
NtRp7280
(dp7281
g62
(dp7282
g70
I1
ssg71
g7276
sg64
(lp7283
S'/flisol2012/default/create/t2_access'
p7284
asbasbasbasbasbasbasbag57
(g73
g59
NtRp7285
(dp7286
g62
(dp7287
sg71
g6039
sg64
(lp7288
g57
(g78
g59
NtRp7289
(dp7290
g62
(dp7291
sg71
g7285
sg64
(lp7292
g57
(g58
g59
NtRp7293
(dp7294
g62
(dp7295
g70
I2
ssg71
g7289
sg64
(lp7296
g57
(g66
g59
NtRp7297
(dp7298
g62
(dp7299
g70
I1
ssg71
Nsg64
(lp7300
g57
(g73
g59
NtRp7301
(dp7302
g62
(dp7303
sg71
g7297
sg64
(lp7304
g57
(g78
g59
NtRp7305
(dp7306
g62
(dp7307
sg71
g7301
sg64
(lp7308
g57
(g58
g59
NtRp7309
(dp7310
g62
(dp7311
g70
I1
ssg71
g7305
sg64
(lp7312
S'[attachment]'
p7313
asbasbasbag57
(g73
g59
NtRp7314
(dp7315
g62
(dp7316
sg71
g7297
sg64
(lp7317
g57
(g78
g59
NtRp7318
(dp7319
g62
(dp7320
sg71
g7314
sg64
(lp7321
g57
(g58
g59
NtRp7322
(dp7323
g62
(dp7324
g70
I1
ssg71
g7318
sg64
(lp7325
I00
asbasbasbag57
(g73
g59
NtRp7326
(dp7327
g62
(dp7328
sg71
g7297
sg64
(lp7329
g57
(g78
g59
NtRp7330
(dp7331
g62
(dp7332
sg71
g7326
sg64
(lp7333
g57
(g58
g59
NtRp7334
(dp7335
g62
(dp7336
g70
I1
ssg71
g7330
sg64
(lp7337
S'/flisol2012/default/create/t2_attachment'
p7338
asbasbasbasbasbasbasbag57
(g73
g59
NtRp7339
(dp7340
g62
(dp7341
sg71
g6039
sg64
(lp7342
g57
(g78
g59
NtRp7343
(dp7344
g62
(dp7345
sg71
g7339
sg64
(lp7346
g57
(g58
g59
NtRp7347
(dp7348
g62
(dp7349
g70
I2
ssg71
g7343
sg64
(lp7350
g57
(g66
g59
NtRp7351
(dp7352
g62
(dp7353
g70
I1
ssg71
Nsg64
(lp7354
g57
(g73
g59
NtRp7355
(dp7356
g62
(dp7357
sg71
g7351
sg64
(lp7358
g57
(g78
g59
NtRp7359
(dp7360
g62
(dp7361
sg71
g7355
sg64
(lp7362
g57
(g58
g59
NtRp7363
(dp7364
g62
(dp7365
g70
I1
ssg71
g7359
sg64
(lp7366
S'[comment]'
p7367
asbasbasbag57
(g73
g59
NtRp7368
(dp7369
g62
(dp7370
sg71
g7351
sg64
(lp7371
g57
(g78
g59
NtRp7372
(dp7373
g62
(dp7374
sg71
g7368
sg64
(lp7375
g57
(g58
g59
NtRp7376
(dp7377
g62
(dp7378
g70
I1
ssg71
g7372
sg64
(lp7379
I00
asbasbasbag57
(g73
g59
NtRp7380
(dp7381
g62
(dp7382
sg71
g7351
sg64
(lp7383
g57
(g78
g59
NtRp7384
(dp7385
g62
(dp7386
sg71
g7380
sg64
(lp7387
g57
(g58
g59
NtRp7388
(dp7389
g62
(dp7390
g70
I1
ssg71
g7384
sg64
(lp7391
S'/flisol2012/default/create/t2_comment'
p7392
asbasbasbasbasbasbasbag57
(g73
g59
NtRp7393
(dp7394
g62
(dp7395
sg71
g6039
sg64
(lp7396
g57
(g78
g59
NtRp7397
(dp7398
g62
(dp7399
sg71
g7393
sg64
(lp7400
g57
(g58
g59
NtRp7401
(dp7402
g62
(dp7403
g70
I2
ssg71
g7397
sg64
(lp7404
g57
(g66
g59
NtRp7405
(dp7406
g62
(dp7407
g70
I1
ssg71
Nsg64
(lp7408
g57
(g73
g59
NtRp7409
(dp7410
g62
(dp7411
sg71
g7405
sg64
(lp7412
g57
(g78
g59
NtRp7413
(dp7414
g62
(dp7415
sg71
g7409
sg64
(lp7416
g57
(g58
g59
NtRp7417
(dp7418
g62
(dp7419
g70
I1
ssg71
g7413
sg64
(lp7420
S'[review]'
p7421
asbasbasbag57
(g73
g59
NtRp7422
(dp7423
g62
(dp7424
sg71
g7405
sg64
(lp7425
g57
(g78
g59
NtRp7426
(dp7427
g62
(dp7428
sg71
g7422
sg64
(lp7429
g57
(g58
g59
NtRp7430
(dp7431
g62
(dp7432
g70
I1
ssg71
g7426
sg64
(lp7433
I00
asbasbasbag57
(g73
g59
NtRp7434
(dp7435
g62
(dp7436
sg71
g7405
sg64
(lp7437
g57
(g78
g59
NtRp7438
(dp7439
g62
(dp7440
sg71
g7434
sg64
(lp7441
g57
(g58
g59
NtRp7442
(dp7443
g62
(dp7444
g70
I1
ssg71
g7438
sg64
(lp7445
S'/flisol2012/default/create/t2_review'
p7446
asbasbasbasbasbasbasbag57
(g73
g59
NtRp7447
(dp7448
g62
(dp7449
sg71
g6039
sg64
(lp7450
g57
(g78
g59
NtRp7451
(dp7452
g62
(dp7453
sg71
g7447
sg64
(lp7454
g57
(g58
g59
NtRp7455
(dp7456
g62
(dp7457
g70
I2
ssg71
g7451
sg64
(lp7458
g57
(g66
g59
NtRp7459
(dp7460
g62
(dp7461
g70
I1
ssg71
Nsg64
(lp7462
g57
(g73
g59
NtRp7463
(dp7464
g62
(dp7465
sg71
g7459
sg64
(lp7466
g57
(g78
g59
NtRp7467
(dp7468
g62
(dp7469
sg71
g7463
sg64
(lp7470
g57
(g58
g59
NtRp7471
(dp7472
g62
(dp7473
g70
I1
ssg71
g7467
sg64
(lp7474
S'[wiki]'
p7475
asbasbasbag57
(g73
g59
NtRp7476
(dp7477
g62
(dp7478
sg71
g7459
sg64
(lp7479
g57
(g78
g59
NtRp7480
(dp7481
g62
(dp7482
sg71
g7476
sg64
(lp7483
g57
(g58
g59
NtRp7484
(dp7485
g62
(dp7486
g70
I1
ssg71
g7480
sg64
(lp7487
I00
asbasbasbag57
(g73
g59
NtRp7488
(dp7489
g62
(dp7490
sg71
g7459
sg64
(lp7491
g57
(g78
g59
NtRp7492
(dp7493
g62
(dp7494
sg71
g7488
sg64
(lp7495
g57
(g58
g59
NtRp7496
(dp7497
g62
(dp7498
g70
I1
ssg71
g7492
sg64
(lp7499
S'/flisol2012/default/create/t2_wiki'
p7500
asbasbasbasbasbasbasbag57
(g73
g59
NtRp7501
(dp7502
g62
(dp7503
sg71
g6039
sg64
(lp7504
g57
(g78
g59
NtRp7505
(dp7506
g62
(dp7507
sg71
g7501
sg64
(lp7508
g57
(g58
g59
NtRp7509
(dp7510
g62
(dp7511
g70
I2
ssg71
g7505
sg64
(lp7512
g57
(g66
g59
NtRp7513
(dp7514
g62
(dp7515
g70
I1
ssg71
Nsg64
(lp7516
g57
(g73
g59
NtRp7517
(dp7518
g62
(dp7519
sg71
g7513
sg64
(lp7520
g57
(g78
g59
NtRp7521
(dp7522
g62
(dp7523
sg71
g7517
sg64
(lp7524
g57
(g58
g59
NtRp7525
(dp7526
g62
(dp7527
g70
I1
ssg71
g7521
sg64
(lp7528
S'[expense_form]'
p7529
asbasbasbag57
(g73
g59
NtRp7530
(dp7531
g62
(dp7532
sg71
g7513
sg64
(lp7533
g57
(g78
g59
NtRp7534
(dp7535
g62
(dp7536
sg71
g7530
sg64
(lp7537
g57
(g58
g59
NtRp7538
(dp7539
g62
(dp7540
g70
I1
ssg71
g7534
sg64
(lp7541
I00
asbasbasbag57
(g73
g59
NtRp7542
(dp7543
g62
(dp7544
sg71
g7513
sg64
(lp7545
g57
(g78
g59
NtRp7546
(dp7547
g62
(dp7548
sg71
g7542
sg64
(lp7549
g57
(g58
g59
NtRp7550
(dp7551
g62
(dp7552
g70
I1
ssg71
g7546
sg64
(lp7553
S'/flisol2012/default/create/expense_form'
p7554
asbasbasbasbasbasbasbag57
(g73
g59
NtRp7555
(dp7556
g62
(dp7557
sg71
g6039
sg64
(lp7558
g57
(g78
g59
NtRp7559
(dp7560
g62
(dp7561
sg71
g7555
sg64
(lp7562
g57
(g58
g59
NtRp7563
(dp7564
g62
(dp7565
g70
I2
ssg71
g7559
sg64
(lp7566
g57
(g66
g59
NtRp7567
(dp7568
g62
(dp7569
g70
I1
ssg71
Nsg64
(lp7570
g57
(g73
g59
NtRp7571
(dp7572
g62
(dp7573
sg71
g7567
sg64
(lp7574
g57
(g78
g59
NtRp7575
(dp7576
g62
(dp7577
sg71
g7571
sg64
(lp7578
g57
(g58
g59
NtRp7579
(dp7580
g62
(dp7581
g70
I1
ssg71
g7575
sg64
(lp7582
S'[expense_item]'
p7583
asbasbasbag57
(g73
g59
NtRp7584
(dp7585
g62
(dp7586
sg71
g7567
sg64
(lp7587
g57
(g78
g59
NtRp7588
(dp7589
g62
(dp7590
sg71
g7584
sg64
(lp7591
g57
(g58
g59
NtRp7592
(dp7593
g62
(dp7594
g70
I1
ssg71
g7588
sg64
(lp7595
I00
asbasbasbag57
(g73
g59
NtRp7596
(dp7597
g62
(dp7598
sg71
g7567
sg64
(lp7599
g57
(g78
g59
NtRp7600
(dp7601
g62
(dp7602
sg71
g7596
sg64
(lp7603
g57
(g58
g59
NtRp7604
(dp7605
g62
(dp7606
g70
I1
ssg71
g7600
sg64
(lp7607
S'/flisol2012/default/create/expense_item'
p7608
asbasbasbasbasbasbasbag57
(g73
g59
NtRp7609
(dp7610
g62
(dp7611
sg71
g6039
sg64
(lp7612
g57
(g78
g59
NtRp7613
(dp7614
g62
(dp7615
sg71
g7609
sg64
(lp7616
g57
(g58
g59
NtRp7617
(dp7618
g62
(dp7619
g70
I2
ssg71
g7613
sg64
(lp7620
g57
(g66
g59
NtRp7621
(dp7622
g62
(dp7623
g70
I1
ssg71
Nsg64
(lp7624
g57
(g73
g59
NtRp7625
(dp7626
g62
(dp7627
sg71
g7621
sg64
(lp7628
g57
(g78
g59
NtRp7629
(dp7630
g62
(dp7631
sg71
g7625
sg64
(lp7632
g57
(g58
g59
NtRp7633
(dp7634
g62
(dp7635
g70
I1
ssg71
g7629
sg64
(lp7636
S'[asistente]'
p7637
asbasbasbag57
(g73
g59
NtRp7638
(dp7639
g62
(dp7640
sg71
g7621
sg64
(lp7641
g57
(g78
g59
NtRp7642
(dp7643
g62
(dp7644
sg71
g7638
sg64
(lp7645
g57
(g58
g59
NtRp7646
(dp7647
g62
(dp7648
g70
I1
ssg71
g7642
sg64
(lp7649
I00
asbasbasbag57
(g73
g59
NtRp7650
(dp7651
g62
(dp7652
sg71
g7621
sg64
(lp7653
g57
(g78
g59
NtRp7654
(dp7655
g62
(dp7656
sg71
g7650
sg64
(lp7657
g57
(g58
g59
NtRp7658
(dp7659
g62
(dp7660
g70
I1
ssg71
g7654
sg64
(lp7661
S'/flisol2012/default/create/asistente'
p7662
asbasbasbasbasbasbasbasbasbasbasbasbasbasbasbasbasbasbasbag57
(g73
g59
NtRp7663
(dp7664
g62
(dp7665
sg71
g4611
sg64
(lp7666
g57
(g78
g59
NtRp7667
(dp7668
g62
(dp7669
g82
g83
ssg71
g7663
sg64
(lp7670
S'meta'
p7671
asbag57
(g78
g59
NtRp7672
(dp7673
g62
(dp7674
g89
g90
ssg71
g7663
sg64
(lp7675
S':'
asbag57
(g78
g59
NtRp7676
(dp7677
g62
(dp7678
sg71
g7663
sg64
(lp7679
g57
(g58
g59
NtRp7680
(dp7681
g62
(dp7682
g70
I5
ssg71
g7676
sg64
(lp7683
g57
(g66
g59
NtRp7684
(dp7685
g62
(dp7686
g70
I4
ssg71
Nsg64
(lp7687
sbasbasbasbag57
(g73
g59
NtRp7688
(dp7689
g62
(dp7690
sg71
g4611
sg64
(lp7691
g57
(g78
g59
NtRp7692
(dp7693
g62
(dp7694
g82
g83
ssg71
g7688
sg64
(lp7695
S'postprocessing'
p7696
asbag57
(g78
g59
NtRp7697
(dp7698
g62
(dp7699
g89
g90
ssg71
g7688
sg64
(lp7700
S':'
asbag57
(g78
g59
NtRp7701
(dp7702
g62
(dp7703
sg71
g7688
sg64
(lp7704
g57
(g58
g59
NtRp7705
(dp7706
g62
(dp7707
g70
I5
ssg71
g7701
sg64
(lp7708
g57
(g66
g59
NtRp7709
(dp7710
g62
(dp7711
g70
I4
ssg71
Nsg64
(lp7712
sbasbasbasbag57
(g73
g59
NtRp7713
(dp7714
g62
(dp7715
sg71
g4611
sg64
(lp7716
g57
(g78
g59
NtRp7717
(dp7718
g62
(dp7719
g82
g83
ssg71
g7713
sg64
(lp7720
S'session_file'
p7721
asbag57
(g78
g59
NtRp7722
(dp7723
g62
(dp7724
g89
g90
ssg71
g7713
sg64
(lp7725
S':'
asbag57
(g78
g59
NtRp7726
(dp7727
g62
(dp7728
sg71
g7713
sg64
(lp7729
g57
(g58
g59
NtRp7730
(dp7731
g62
(dp7732
g70
I5
ssg71
g7726
sg64
(lp7733
S"<open file '/home/marco/flisol2012/web2py/applications/flisol2012/sessions/127.0.0.1-2ede3a58-f97e-48e1-8d0e-90e5ecfe16bf', mode 'rb+' at 0x31cd660>"
p7734
asbasbasbag57
(g73
g59
NtRp7735
(dp7736
g62
(dp7737
sg71
g4611
sg64
(lp7738
g57
(g78
g59
NtRp7739
(dp7740
g62
(dp7741
g82
g83
ssg71
g7735
sg64
(lp7742
S'session_filename'
p7743
asbag57
(g78
g59
NtRp7744
(dp7745
g62
(dp7746
g89
g90
ssg71
g7735
sg64
(lp7747
S':'
asbag57
(g78
g59
NtRp7748
(dp7749
g62
(dp7750
sg71
g7735
sg64
(lp7751
g57
(g58
g59
NtRp7752
(dp7753
g62
(dp7754
g70
I5
ssg71
g7748
sg64
(lp7755
S'/home/marco/flisol2012/web2py/applications/flisol2012/sessions/127.0.0.1-2ede3a58-f97e-48e1-8d0e-90e5ecfe16bf'
p7756
asbasbasbag57
(g73
g59
NtRp7757
(dp7758
g62
(dp7759
sg71
g4611
sg64
(lp7760
g57
(g78
g59
NtRp7761
(dp7762
g62
(dp7763
g82
g83
ssg71
g7757
sg64
(lp7764
S'session_id'
p7765
asbag57
(g78
g59
NtRp7766
(dp7767
g62
(dp7768
g89
g90
ssg71
g7757
sg64
(lp7769
S':'
asbag57
(g78
g59
NtRp7770
(dp7771
g62
(dp7772
sg71
g7757
sg64
(lp7773
g57
(g58
g59
NtRp7774
(dp7775
g62
(dp7776
g70
I5
ssg71
g7770
sg64
(lp7777
S'127.0.0.1-2ede3a58-f97e-48e1-8d0e-90e5ecfe16bf'
p7778
asbasbasbag57
(g73
g59
NtRp7779
(dp7780
g62
(dp7781
sg71
g4611
sg64
(lp7782
g57
(g78
g59
NtRp7783
(dp7784
g62
(dp7785
g82
g83
ssg71
g7779
sg64
(lp7786
S'session_id_name'
p7787
asbag57
(g78
g59
NtRp7788
(dp7789
g62
(dp7790
g89
g90
ssg71
g7779
sg64
(lp7791
S':'
asbag57
(g78
g59
NtRp7792
(dp7793
g62
(dp7794
sg71
g7779
sg64
(lp7795
g57
(g58
g59
NtRp7796
(dp7797
g62
(dp7798
g70
I5
ssg71
g7792
sg64
(lp7799
g4668
asbasbasbag57
(g73
g59
NtRp7800
(dp7801
g62
(dp7802
sg71
g4611
sg64
(lp7803
g57
(g78
g59
NtRp7804
(dp7805
g62
(dp7806
g82
g83
ssg71
g7800
sg64
(lp7807
S'session_locked'
p7808
asbag57
(g78
g59
NtRp7809
(dp7810
g62
(dp7811
g89
g90
ssg71
g7800
sg64
(lp7812
S':'
asbag57
(g78
g59
NtRp7813
(dp7814
g62
(dp7815
sg71
g7800
sg64
(lp7816
g57
(g58
g59
NtRp7817
(dp7818
g62
(dp7819
g70
I5
ssg71
g7813
sg64
(lp7820
g1854
asbasbasbag57
(g73
g59
NtRp7821
(dp7822
g62
(dp7823
sg71
g4611
sg64
(lp7824
g57
(g78
g59
NtRp7825
(dp7826
g62
(dp7827
g82
g83
ssg71
g7821
sg64
(lp7828
S'session_new'
p7829
asbag57
(g78
g59
NtRp7830
(dp7831
g62
(dp7832
g89
g90
ssg71
g7821
sg64
(lp7833
S':'
asbag57
(g78
g59
NtRp7834
(dp7835
g62
(dp7836
sg71
g7821
sg64
(lp7837
g57
(g58
g59
NtRp7838
(dp7839
g62
(dp7840
g70
I5
ssg71
g7834
sg64
(lp7841
g100
asbasbasbag57
(g73
g59
NtRp7842
(dp7843
g62
(dp7844
sg71
g4611
sg64
(lp7845
g57
(g78
g59
NtRp7846
(dp7847
g62
(dp7848
g82
g83
ssg71
g7842
sg64
(lp7849
S'sidebar'
p7850
asbag57
(g78
g59
NtRp7851
(dp7852
g62
(dp7853
g89
g90
ssg71
g7842
sg64
(lp7854
S':'
asbag57
(g78
g59
NtRp7855
(dp7856
g62
(dp7857
sg71
g7842
sg64
(lp7858
g57
(g58
g59
NtRp7859
(dp7860
g62
(dp7861
g70
I5
ssg71
g7855
sg64
(lp7862
g57
(g66
g59
NtRp7863
(dp7864
g62
(dp7865
g70
I4
ssg71
Nsg64
(lp7866
g57
(g73
g59
NtRp7867
(dp7868
g62
(dp7869
sg71
g7863
sg64
(lp7870
g57
(g78
g59
NtRp7871
(dp7872
g62
(dp7873
sg71
g7867
sg64
(lp7874
g57
(g58
g59
NtRp7875
(dp7876
g62
(dp7877
g70
I4
ssg71
g7871
sg64
(lp7878
g57
(g66
g59
NtRp7879
(dp7880
g62
(dp7881
g70
I3
ssg71
Nsg64
(lp7882
g57
(g73
g59
NtRp7883
(dp7884
g62
(dp7885
sg71
g7879
sg64
(lp7886
g57
(g78
g59
NtRp7887
(dp7888
g62
(dp7889
sg71
g7883
sg64
(lp7890
g57
(g58
g59
NtRp7891
(dp7892
g62
(dp7893
g70
I3
ssg71
g7887
sg64
(lp7894
g5338
(S's\x0b\x00\x00\x00Sus Charlas'
tRp7895
asbasbasbag57
(g73
g59
NtRp7896
(dp7897
g62
(dp7898
sg71
g7879
sg64
(lp7899
g57
(g78
g59
NtRp7900
(dp7901
g62
(dp7902
sg71
g7896
sg64
(lp7903
g57
(g58
g59
NtRp7904
(dp7905
g62
(dp7906
g70
I3
ssg71
g7900
sg64
(lp7907
g57
(g66
g59
NtRp7908
(dp7909
g62
(dp7910
g70
I2
ssg71
Nsg64
(lp7911
g57
(g73
g59
NtRp7912
(dp7913
g62
(dp7914
sg71
g7908
sg64
(lp7915
g57
(g78
g59
NtRp7916
(dp7917
g62
(dp7918
sg71
g7912
sg64
(lp7919
g57
(g58
g59
NtRp7920
(dp7921
g62
(dp7922
g70
I2
ssg71
g7916
sg64
(lp7923
g57
(g66
g59
NtRp7924
(dp7925
g62
(dp7926
g70
I1
ssg71
Nsg64
(lp7927
g57
(g73
g59
NtRp7928
(dp7929
g62
(dp7930
sg71
g7924
sg64
(lp7931
g57
(g78
g59
NtRp7932
(dp7933
g62
(dp7934
sg71
g7928
sg64
(lp7935
g57
(g58
g59
NtRp7936
(dp7937
g62
(dp7938
g70
I1
ssg71
g7932
sg64
(lp7939
g5338
(S's\x0f\x00\x00\x00Proponer charla'
tRp7940
asbasbasbag57
(g73
g59
NtRp7941
(dp7942
g62
(dp7943
sg71
g7924
sg64
(lp7944
g57
(g78
g59
NtRp7945
(dp7946
g62
(dp7947
sg71
g7941
sg64
(lp7948
g57
(g58
g59
NtRp7949
(dp7950
g62
(dp7951
g70
I1
ssg71
g7945
sg64
(lp7952
S'/flisol2012/default/propose_talk'
p7953
asbasbasbasbasbasbasbasbasbasbasbasbasbasbasbasbasbasbasbag57
(g73
g59
NtRp7954
(dp7955
g62
(dp7956
sg71
g4611
sg64
(lp7957
g57
(g78
g59
NtRp7958
(dp7959
g62
(dp7960
g82
g83
ssg71
g7954
sg64
(lp7961
S'status'
p7962
asbag57
(g78
g59
NtRp7963
(dp7964
g62
(dp7965
g89
g90
ssg71
g7954
sg64
(lp7966
S':'
asbag57
(g78
g59
NtRp7967
(dp7968
g62
(dp7969
sg71
g7954
sg64
(lp7970
g57
(g58
g59
NtRp7971
(dp7972
g62
(dp7973
g70
I5
ssg71
g7967
sg64
(lp7974
S'200'
p7975
asbasbasbag57
(g73
g59
NtRp7976
(dp7977
g62
(dp7978
sg71
g4611
sg64
(lp7979
g57
(g78
g59
NtRp7980
(dp7981
g62
(dp7982
g82
g83
ssg71
g7976
sg64
(lp7983
S'subtitle'
p7984
asbag57
(g78
g59
NtRp7985
(dp7986
g62
(dp7987
g89
g90
ssg71
g7976
sg64
(lp7988
S':'
asbag57
(g78
g59
NtRp7989
(dp7990
g62
(dp7991
sg71
g7976
sg64
(lp7992
g57
(g58
g59
NtRp7993
(dp7994
g62
(dp7995
g70
I5
ssg71
g7989
sg64
(lp7996
S''
asbasbasbag57
(g73
g59
NtRp7997
(dp7998
g62
(dp7999
sg71
g4611
sg64
(lp8000
g57
(g78
g59
NtRp8001
(dp8002
g62
(dp8003
g82
g83
ssg71
g7997
sg64
(lp8004
S'title'
p8005
asbag57
(g78
g59
NtRp8006
(dp8007
g62
(dp8008
g89
g90
ssg71
g7997
sg64
(lp8009
S':'
asbag57
(g78
g59
NtRp8010
(dp8011
g62
(dp8012
sg71
g7997
sg64
(lp8013
g57
(g58
g59
NtRp8014
(dp8015
g62
(dp8016
g70
I5
ssg71
g8010
sg64
(lp8017
S'FLISOL 2012 - Salta'
p8018
asbasbasbag57
(g73
g59
NtRp8019
(dp8020
g62
(dp8021
sg71
g4611
sg64
(lp8022
g57
(g78
g59
NtRp8023
(dp8024
g62
(dp8025
g82
g83
ssg71
g8019
sg64
(lp8026
g2539
asbag57
(g78
g59
NtRp8027
(dp8028
g62
(dp8029
g89
g90
ssg71
g8019
sg64
(lp8030
S':'
asbag57
(g78
g59
NtRp8031
(dp8032
g62
(dp8033
sg71
g8019
sg64
(lp8034
g57
(g58
g59
NtRp8035
(dp8036
g62
(dp8037
g70
I5
ssg71
g8031
sg64
(lp8038
g2552
asbasbasbag57
(g73
g59
NtRp8039
(dp8040
g62
(dp8041
sg71
g4611
sg64
(lp8042
g57
(g78
g59
NtRp8043
(dp8044
g62
(dp8045
g82
g83
ssg71
g8039
sg64
(lp8046
S'view'
p8047
asbag57
(g78
g59
NtRp8048
(dp8049
g62
(dp8050
g89
g90
ssg71
g8039
sg64
(lp8051
S':'
asbag57
(g78
g59
NtRp8052
(dp8053
g62
(dp8054
sg71
g8039
sg64
(lp8055
g57
(g58
g59
NtRp8056
(dp8057
g62
(dp8058
g70
I5
ssg71
g8052
sg64
(lp8059
S'default/create.html'
p8060
asbasbasbasbasbsS'locals'
p8061
(dp8062
S'self'
p8063
S"<Table {'last_name': <gluon.dal.Field object at ...ion_key': <gluon.dal.Field object at 0x43d5b50>}>"
p8064
sS'key'
p8065
S"'name'"
p8066
sssS'traceback'
p8067
S'Traceback (most recent call last):\n  File "/home/marco/flisol2012/web2py/gluon/restricted.py", line 205, in restricted\n    exec ccode in environment\n  File "/home/marco/flisol2012/web2py/applications/flisol2012/controllers/default.py", line 533, in <module>\n  File "/home/marco/flisol2012/web2py/gluon/globals.py", line 173, in <lambda>\n    self._caller = lambda f: f()\n  File "/home/marco/flisol2012/web2py/gluon/tools.py", line 2575, in f\n    return action(*a, **b)\n  File "/home/marco/flisol2012/web2py/applications/flisol2012/controllers/default.py", line 323, in create\n    form=t2.create(db[table])\n  File "applications/flisol2012/modules/t2.py", line 417, in create\n    showid=False,col3=col3,_class=\'t2-create\')\n  File "/home/marco/flisol2012/web2py/gluon/sqlhtml.py", line 868, in __init__\n    inp = self.widgets.options.widget(field, default)\n  File "/home/marco/flisol2012/web2py/gluon/sqlhtml.py", line 216, in widget\n    options = requires[0].options()\n  File "/home/marco/flisol2012/web2py/gluon/validators.py", line 465, in options\n    self.build_set()\n  File "/home/marco/flisol2012/web2py/gluon/validators.py", line 447, in build_set\n    fields = [table[k] for k in self.fields]\n  File "/home/marco/flisol2012/web2py/gluon/dal.py", line 6714, in __getitem__\n    return dict.__getitem__(self, str(key))\nKeyError: \'name\'\n'
p8068
s.