(dp1
S'output'
p2
S"<type 'exceptions.SyntaxError'> invalid syntax (menu.py, line 29)"
p3
sS'layer'
p4
S'/home/marco/flisol2012/web2py/applications/flisol2012/models/menu.py'
p5
sS'code'
p6
S"# coding: utf8\n\nsession.manager=(auth.user and auth.user.email in MANAGERS)\n\nresponse.menu=[[T('Main'),False,URL(r=request,c='default',f='index')]]\n\nif not auth.user:\n    response.menu.append([T('Register'),False,URL(r=request,c='default',f='registrar')])\n\nif CONFERENCE_URL:\n    response.menu.append([T('Conference'),False,CONFERENCE_URL])\nelse:\n    submenu_conf=[\n        [T('About'),True,URL(r=request,c='conference',f='about')],\n        [T('Venue'),True,URL(r=request,c='conference',f='venue')],\n        [T('Software'),True,URL(r=request,c='conference',f='software')],\n        [T('Schedule'),True,URL(r=request,c='conference',f='schedule')],\n        #[T('Communities'),True,URL(r=request,c='conference',f='communities')],\n        [T('Talk Proposals'),True,URL(r=request,c='conference',f='proposals')],\n        [T('Staff'),True,URL(r=request,c='conference',f='staff')],\n    ]\n    response.menu.append([T('Conference'),False,'#',submenu_conf])\n\n#submenu_info=[\n#        [T('Companies'),False,URL(r=request,c='default',f='companies')],\n#        [T('Attendees'),False,URL(r=request,c='default',f='attendees')],\n#        [T('Charts'),False,URL(r=request,c='default',f='charts')],\n#        [T('Maps'),False,URL(r=request,c='default',f='maps')],\n]\nif ENABLE_TALKS:\n   submenu_info.append([T('Accepted Talks'),False,URL(r=request,c='default',f='accepted_talks')])\n   submenu_info.append([T('Proposed Talks'),False,URL(r=request,c='default',f='proposed_talks')])\n\nresponse.menu.append([T('Stats'),False,'#',submenu_info])\nresponse.menu.append([T('About'),False,URL(r=request,c='default',f='about')])\n\nif auth.user:\n    response.menu.append([T('Expenses'),True,URL(r=request,c='expenses',f='index')])\n    response.menu.append([T('Profile'),False,URL(r=request,c='default',f='profile')])\n    response.menu.append([T('Logout'),False,URL(r=request,c='default',f='logout')])\nelse:\n    response.menu.append([T('Login'),False,URL(r=request,c='default',f='login')])\n\n#############################################\n# Insert Manage sub-menu item\n#############################################    \n\nif auth.user and session.manager:\n    submenu=[\n        [T('Financials'),False,URL(r=request,c='default',f='financials')],\n        [T('Payments'),False,URL(r=request,c='default',f='payments')],\n        # [T('CSV for Badges'),False,URL(r=request,c='default',f='badges')],\n        [T('Attendee Mail-List'),False, URL(r=request,c='default',f='maillist')],\n        [T('Badges'),False,URL(r=request,c='default',f='badge',args='auth_user')],\n        [T('Tutorials'),False,URL(r=request,c='default',f='list_by_tutorial')],\n        # [T('Tutorials+food'),False,URL(r=request,c='default',f='by_tutorial_csv')],\n        [T('FA-CSV'),False,URL(r=request,c='default',f='fa_csv')],\n        [T('FA-(email all)'),False,URL(r=request,c='default',f='fa_email_all')]\n    ]\n    submenu+=[['[%s]' % (table if not table[:3]=='t2_' else table[3:]),\n               False,t2.action('create',table)] for table in db.tables]\n    response.menu.append([T('Manage'),False,'#',submenu])\n\n#############################################\n# Insert Login and Logout menu items\n#############################################\n\nresponse.sidebar=[]\nif auth.user and ENABLE_TALKS:\n    talks=[(t.title,t2.action('display_talk',t.id)) \\\n           for t in db(db.talk.created_by==auth.user.id).select()]\n    talks.append((T('Propose talk'),URL(r=request,c='default',f='propose_talk')))\n    response.sidebar.append([T('Your Talks'),talks])\n"
p7
sS'snapshot'
p8
(dp9
S'exception'
p10
(dp11
S'__getslice__'
p12
S"<method-wrapper '__getslice__' of exceptions.SyntaxError object>"
p13
sS'text'
p14
S"']\\n'"
p15
sS'__str__'
p16
S"<method-wrapper '__str__' of exceptions.SyntaxError object>"
p17
sS'__reduce__'
p18
S'<built-in method __reduce__ of exceptions.SyntaxError object>'
p19
sS'__dict__'
p20
S'{}'
p21
sS'__sizeof__'
p22
S'<built-in method __sizeof__ of exceptions.SyntaxError object>'
p23
sS'__init__'
p24
S"<method-wrapper '__init__' of exceptions.SyntaxError object>"
p25
sS'__setattr__'
p26
S"<method-wrapper '__setattr__' of exceptions.SyntaxError object>"
p27
sS'__reduce_ex__'
p28
S'<built-in method __reduce_ex__ of exceptions.SyntaxError object>'
p29
sS'__new__'
p30
S'<built-in method __new__ of type object>'
p31
sS'__format__'
p32
S'<built-in method __format__ of exceptions.SyntaxError object>'
p33
sS'__class__'
p34
S"<type 'exceptions.SyntaxError'>"
p35
sS'filename'
p36
S"'/home/marco/flisol2012/web2py/applications/flisol2012/models/menu.py'"
p37
sS'lineno'
p38
S'29'
p39
sS'msg'
p40
S"'invalid syntax'"
p41
sS'__doc__'
p42
S"'Invalid syntax.'"
p43
sS'__getitem__'
p44
S"<method-wrapper '__getitem__' of exceptions.SyntaxError object>"
p45
sS'__setstate__'
p46
S'<built-in method __setstate__ of exceptions.SyntaxError object>'
p47
sS'__getattribute__'
p48
S"<method-wrapper '__getattribute__' of exceptions.SyntaxError object>"
p49
sS'print_file_and_line'
p50
S'None'
p51
sS'args'
p52
S"('invalid syntax', ('/home/marco/flisol2012/web2py/applications/flisol2012/models/menu.py', 29, 1, ']\\n'))"
p53
sS'__subclasshook__'
p54
S'<built-in method __subclasshook__ of type object>'
p55
sS'offset'
p56
S'1'
sS'__unicode__'
p57
S'<built-in method __unicode__ of exceptions.SyntaxError object>'
p58
sS'__delattr__'
p59
S"<method-wrapper '__delattr__' of exceptions.SyntaxError object>"
p60
sS'__repr__'
p61
S"<method-wrapper '__repr__' of exceptions.SyntaxError object>"
p62
sS'__hash__'
p63
S"<method-wrapper '__hash__' of exceptions.SyntaxError object>"
p64
ssS'evalue'
p65
S'invalid syntax (menu.py, line 29)'
p66
sS'request'
p67
ccopy_reg
_reconstructor
p68
(cgluon.html
BEAUTIFY
p69
c__builtin__
object
p70
NtRp71
(dp72
S'attributes'
p73
(dp74
sS'components'
p75
(lp76
g68
(cgluon.html
TABLE
p77
g70
NtRp78
(dp79
g73
(dp80
S'level'
p81
I5
ssS'parent'
p82
Nsg75
(lp83
g68
(cgluon.html
TR
p84
g70
NtRp85
(dp86
g73
(dp87
sg82
g78
sg75
(lp88
g68
(cgluon.html
TD
p89
g70
NtRp90
(dp91
g73
(dp92
S'_style'
p93
S'font-weight:bold;vertical-align:top'
p94
ssg82
g85
sg75
(lp95
S'ajax'
p96
asbag68
(g89
g70
NtRp97
(dp98
g73
(dp99
S'_valign'
p100
S'top'
p101
ssg82
g85
sg75
(lp102
S':'
asbag68
(g89
g70
NtRp103
(dp104
g73
(dp105
sg82
g85
sg75
(lp106
g68
(g69
g70
NtRp107
(dp108
g73
(dp109
g81
I5
ssg82
g103
sg75
(lp110
S'False'
p111
asbasbasbag68
(g84
g70
NtRp112
(dp113
g73
(dp114
sg82
g78
sg75
(lp115
g68
(g89
g70
NtRp116
(dp117
g73
(dp118
g93
g94
ssg82
g112
sg75
(lp119
S'application'
p120
asbag68
(g89
g70
NtRp121
(dp122
g73
(dp123
g100
g101
ssg82
g112
sg75
(lp124
S':'
asbag68
(g89
g70
NtRp125
(dp126
g73
(dp127
sg82
g112
sg75
(lp128
g68
(g69
g70
NtRp129
(dp130
g73
(dp131
g81
I5
ssg82
g125
sg75
(lp132
S'flisol2012'
p133
asbasbasbag68
(g84
g70
NtRp134
(dp135
g73
(dp136
sg82
g78
sg75
(lp137
g68
(g89
g70
NtRp138
(dp139
g73
(dp140
g93
g94
ssg82
g134
sg75
(lp141
g52
asbag68
(g89
g70
NtRp142
(dp143
g73
(dp144
g100
g101
ssg82
g134
sg75
(lp145
S':'
asbag68
(g89
g70
NtRp146
(dp147
g73
(dp148
sg82
g134
sg75
(lp149
g68
(g69
g70
NtRp150
(dp151
g73
(dp152
g81
I5
ssg82
g146
sg75
(lp153
g68
(g77
g70
NtRp154
(dp155
g73
(dp156
g81
I4
ssg82
Nsg75
(lp157
sbasbasbasbag68
(g84
g70
NtRp158
(dp159
g73
(dp160
sg82
g78
sg75
(lp161
g68
(g89
g70
NtRp162
(dp163
g73
(dp164
g93
g94
ssg82
g158
sg75
(lp165
S'body'
p166
asbag68
(g89
g70
NtRp167
(dp168
g73
(dp169
g100
g101
ssg82
g158
sg75
(lp170
S':'
asbag68
(g89
g70
NtRp171
(dp172
g73
(dp173
sg82
g158
sg75
(lp174
g68
(g69
g70
NtRp175
(dp176
g73
(dp177
g81
I5
ssg82
g171
sg75
(lp178
S'<cStringIO.StringO object at 0x2fbf8b8>'
p179
asbasbasbag68
(g84
g70
NtRp180
(dp181
g73
(dp182
sg82
g78
sg75
(lp183
g68
(g89
g70
NtRp184
(dp185
g73
(dp186
g93
g94
ssg82
g180
sg75
(lp187
S'client'
p188
asbag68
(g89
g70
NtRp189
(dp190
g73
(dp191
g100
g101
ssg82
g180
sg75
(lp192
S':'
asbag68
(g89
g70
NtRp193
(dp194
g73
(dp195
sg82
g180
sg75
(lp196
g68
(g69
g70
NtRp197
(dp198
g73
(dp199
g81
I5
ssg82
g193
sg75
(lp200
S'127.0.0.1'
p201
asbasbasbag68
(g84
g70
NtRp202
(dp203
g73
(dp204
sg82
g78
sg75
(lp205
g68
(g89
g70
NtRp206
(dp207
g73
(dp208
g93
g94
ssg82
g202
sg75
(lp209
S'controller'
p210
asbag68
(g89
g70
NtRp211
(dp212
g73
(dp213
g100
g101
ssg82
g202
sg75
(lp214
S':'
asbag68
(g89
g70
NtRp215
(dp216
g73
(dp217
sg82
g202
sg75
(lp218
g68
(g69
g70
NtRp219
(dp220
g73
(dp221
g81
I5
ssg82
g215
sg75
(lp222
S'default'
p223
asbasbasbag68
(g84
g70
NtRp224
(dp225
g73
(dp226
sg82
g78
sg75
(lp227
g68
(g89
g70
NtRp228
(dp229
g73
(dp230
g93
g94
ssg82
g224
sg75
(lp231
S'cookies'
p232
asbag68
(g89
g70
NtRp233
(dp234
g73
(dp235
g100
g101
ssg82
g224
sg75
(lp236
S':'
asbag68
(g89
g70
NtRp237
(dp238
g73
(dp239
sg82
g224
sg75
(lp240
g68
(g69
g70
NtRp241
(dp242
g73
(dp243
g81
I5
ssg82
g237
sg75
(lp244
g68
(g77
g70
NtRp245
(dp246
g73
(dp247
g81
I4
ssg82
Nsg75
(lp248
g68
(g84
g70
NtRp249
(dp250
g73
(dp251
sg82
g245
sg75
(lp252
g68
(g89
g70
NtRp253
(dp254
g73
(dp255
g93
g94
ssg82
g249
sg75
(lp256
S'session_id_admin'
p257
asbag68
(g89
g70
NtRp258
(dp259
g73
(dp260
g100
g101
ssg82
g249
sg75
(lp261
S':'
asbag68
(g89
g70
NtRp262
(dp263
g73
(dp264
sg82
g249
sg75
(lp265
g68
(g69
g70
NtRp266
(dp267
g73
(dp268
g81
I4
ssg82
g262
sg75
(lp269
g68
(g77
g70
NtRp270
(dp271
g73
(dp272
g81
I3
ssg82
Nsg75
(lp273
g68
(g84
g70
NtRp274
(dp275
g73
(dp276
sg82
g270
sg75
(lp277
g68
(g89
g70
NtRp278
(dp279
g73
(dp280
g93
g94
ssg82
g274
sg75
(lp281
S'comment'
p282
asbag68
(g89
g70
NtRp283
(dp284
g73
(dp285
g100
g101
ssg82
g274
sg75
(lp286
S':'
asbag68
(g89
g70
NtRp287
(dp288
g73
(dp289
sg82
g274
sg75
(lp290
g68
(g69
g70
NtRp291
(dp292
g73
(dp293
g81
I3
ssg82
g287
sg75
(lp294
S''
asbasbasbag68
(g84
g70
NtRp295
(dp296
g73
(dp297
sg82
g270
sg75
(lp298
g68
(g89
g70
NtRp299
(dp300
g73
(dp301
g93
g94
ssg82
g295
sg75
(lp302
S'domain'
p303
asbag68
(g89
g70
NtRp304
(dp305
g73
(dp306
g100
g101
ssg82
g295
sg75
(lp307
S':'
asbag68
(g89
g70
NtRp308
(dp309
g73
(dp310
sg82
g295
sg75
(lp311
g68
(g69
g70
NtRp312
(dp313
g73
(dp314
g81
I3
ssg82
g308
sg75
(lp315
S''
asbasbasbag68
(g84
g70
NtRp316
(dp317
g73
(dp318
sg82
g270
sg75
(lp319
g68
(g89
g70
NtRp320
(dp321
g73
(dp322
g93
g94
ssg82
g316
sg75
(lp323
S'expires'
p324
asbag68
(g89
g70
NtRp325
(dp326
g73
(dp327
g100
g101
ssg82
g316
sg75
(lp328
S':'
asbag68
(g89
g70
NtRp329
(dp330
g73
(dp331
sg82
g316
sg75
(lp332
g68
(g69
g70
NtRp333
(dp334
g73
(dp335
g81
I3
ssg82
g329
sg75
(lp336
S''
asbasbasbag68
(g84
g70
NtRp337
(dp338
g73
(dp339
sg82
g270
sg75
(lp340
g68
(g89
g70
NtRp341
(dp342
g73
(dp343
g93
g94
ssg82
g337
sg75
(lp344
S'httponly'
p345
asbag68
(g89
g70
NtRp346
(dp347
g73
(dp348
g100
g101
ssg82
g337
sg75
(lp349
S':'
asbag68
(g89
g70
NtRp350
(dp351
g73
(dp352
sg82
g337
sg75
(lp353
g68
(g69
g70
NtRp354
(dp355
g73
(dp356
g81
I3
ssg82
g350
sg75
(lp357
S''
asbasbasbag68
(g84
g70
NtRp358
(dp359
g73
(dp360
sg82
g270
sg75
(lp361
g68
(g89
g70
NtRp362
(dp363
g73
(dp364
g93
g94
ssg82
g358
sg75
(lp365
S'max-age'
p366
asbag68
(g89
g70
NtRp367
(dp368
g73
(dp369
g100
g101
ssg82
g358
sg75
(lp370
S':'
asbag68
(g89
g70
NtRp371
(dp372
g73
(dp373
sg82
g358
sg75
(lp374
g68
(g69
g70
NtRp375
(dp376
g73
(dp377
g81
I3
ssg82
g371
sg75
(lp378
S''
asbasbasbag68
(g84
g70
NtRp379
(dp380
g73
(dp381
sg82
g270
sg75
(lp382
g68
(g89
g70
NtRp383
(dp384
g73
(dp385
g93
g94
ssg82
g379
sg75
(lp386
S'path'
p387
asbag68
(g89
g70
NtRp388
(dp389
g73
(dp390
g100
g101
ssg82
g379
sg75
(lp391
S':'
asbag68
(g89
g70
NtRp392
(dp393
g73
(dp394
sg82
g379
sg75
(lp395
g68
(g69
g70
NtRp396
(dp397
g73
(dp398
g81
I3
ssg82
g392
sg75
(lp399
S''
asbasbasbag68
(g84
g70
NtRp400
(dp401
g73
(dp402
sg82
g270
sg75
(lp403
g68
(g89
g70
NtRp404
(dp405
g73
(dp406
g93
g94
ssg82
g400
sg75
(lp407
S'secure'
p408
asbag68
(g89
g70
NtRp409
(dp410
g73
(dp411
g100
g101
ssg82
g400
sg75
(lp412
S':'
asbag68
(g89
g70
NtRp413
(dp414
g73
(dp415
sg82
g400
sg75
(lp416
g68
(g69
g70
NtRp417
(dp418
g73
(dp419
g81
I3
ssg82
g413
sg75
(lp420
S''
asbasbasbag68
(g84
g70
NtRp421
(dp422
g73
(dp423
sg82
g270
sg75
(lp424
g68
(g89
g70
NtRp425
(dp426
g73
(dp427
g93
g94
ssg82
g421
sg75
(lp428
S'version'
p429
asbag68
(g89
g70
NtRp430
(dp431
g73
(dp432
g100
g101
ssg82
g421
sg75
(lp433
S':'
asbag68
(g89
g70
NtRp434
(dp435
g73
(dp436
sg82
g421
sg75
(lp437
g68
(g69
g70
NtRp438
(dp439
g73
(dp440
g81
I3
ssg82
g434
sg75
(lp441
S''
asbasbasbasbasbasbasbag68
(g84
g70
NtRp442
(dp443
g73
(dp444
sg82
g245
sg75
(lp445
g68
(g89
g70
NtRp446
(dp447
g73
(dp448
g93
g94
ssg82
g442
sg75
(lp449
S'session_id_flisol2012'
p450
asbag68
(g89
g70
NtRp451
(dp452
g73
(dp453
g100
g101
ssg82
g442
sg75
(lp454
S':'
asbag68
(g89
g70
NtRp455
(dp456
g73
(dp457
sg82
g442
sg75
(lp458
g68
(g69
g70
NtRp459
(dp460
g73
(dp461
g81
I4
ssg82
g455
sg75
(lp462
g68
(g77
g70
NtRp463
(dp464
g73
(dp465
g81
I3
ssg82
Nsg75
(lp466
g68
(g84
g70
NtRp467
(dp468
g73
(dp469
sg82
g463
sg75
(lp470
g68
(g89
g70
NtRp471
(dp472
g73
(dp473
g93
g94
ssg82
g467
sg75
(lp474
g282
asbag68
(g89
g70
NtRp475
(dp476
g73
(dp477
g100
g101
ssg82
g467
sg75
(lp478
S':'
asbag68
(g89
g70
NtRp479
(dp480
g73
(dp481
sg82
g467
sg75
(lp482
g68
(g69
g70
NtRp483
(dp484
g73
(dp485
g81
I3
ssg82
g479
sg75
(lp486
S''
asbasbasbag68
(g84
g70
NtRp487
(dp488
g73
(dp489
sg82
g463
sg75
(lp490
g68
(g89
g70
NtRp491
(dp492
g73
(dp493
g93
g94
ssg82
g487
sg75
(lp494
g303
asbag68
(g89
g70
NtRp495
(dp496
g73
(dp497
g100
g101
ssg82
g487
sg75
(lp498
S':'
asbag68
(g89
g70
NtRp499
(dp500
g73
(dp501
sg82
g487
sg75
(lp502
g68
(g69
g70
NtRp503
(dp504
g73
(dp505
g81
I3
ssg82
g499
sg75
(lp506
S''
asbasbasbag68
(g84
g70
NtRp507
(dp508
g73
(dp509
sg82
g463
sg75
(lp510
g68
(g89
g70
NtRp511
(dp512
g73
(dp513
g93
g94
ssg82
g507
sg75
(lp514
g324
asbag68
(g89
g70
NtRp515
(dp516
g73
(dp517
g100
g101
ssg82
g507
sg75
(lp518
S':'
asbag68
(g89
g70
NtRp519
(dp520
g73
(dp521
sg82
g507
sg75
(lp522
g68
(g69
g70
NtRp523
(dp524
g73
(dp525
g81
I3
ssg82
g519
sg75
(lp526
S''
asbasbasbag68
(g84
g70
NtRp527
(dp528
g73
(dp529
sg82
g463
sg75
(lp530
g68
(g89
g70
NtRp531
(dp532
g73
(dp533
g93
g94
ssg82
g527
sg75
(lp534
g345
asbag68
(g89
g70
NtRp535
(dp536
g73
(dp537
g100
g101
ssg82
g527
sg75
(lp538
S':'
asbag68
(g89
g70
NtRp539
(dp540
g73
(dp541
sg82
g527
sg75
(lp542
g68
(g69
g70
NtRp543
(dp544
g73
(dp545
g81
I3
ssg82
g539
sg75
(lp546
S''
asbasbasbag68
(g84
g70
NtRp547
(dp548
g73
(dp549
sg82
g463
sg75
(lp550
g68
(g89
g70
NtRp551
(dp552
g73
(dp553
g93
g94
ssg82
g547
sg75
(lp554
g366
asbag68
(g89
g70
NtRp555
(dp556
g73
(dp557
g100
g101
ssg82
g547
sg75
(lp558
S':'
asbag68
(g89
g70
NtRp559
(dp560
g73
(dp561
sg82
g547
sg75
(lp562
g68
(g69
g70
NtRp563
(dp564
g73
(dp565
g81
I3
ssg82
g559
sg75
(lp566
S''
asbasbasbag68
(g84
g70
NtRp567
(dp568
g73
(dp569
sg82
g463
sg75
(lp570
g68
(g89
g70
NtRp571
(dp572
g73
(dp573
g93
g94
ssg82
g567
sg75
(lp574
g387
asbag68
(g89
g70
NtRp575
(dp576
g73
(dp577
g100
g101
ssg82
g567
sg75
(lp578
S':'
asbag68
(g89
g70
NtRp579
(dp580
g73
(dp581
sg82
g567
sg75
(lp582
g68
(g69
g70
NtRp583
(dp584
g73
(dp585
g81
I3
ssg82
g579
sg75
(lp586
S''
asbasbasbag68
(g84
g70
NtRp587
(dp588
g73
(dp589
sg82
g463
sg75
(lp590
g68
(g89
g70
NtRp591
(dp592
g73
(dp593
g93
g94
ssg82
g587
sg75
(lp594
g408
asbag68
(g89
g70
NtRp595
(dp596
g73
(dp597
g100
g101
ssg82
g587
sg75
(lp598
S':'
asbag68
(g89
g70
NtRp599
(dp600
g73
(dp601
sg82
g587
sg75
(lp602
g68
(g69
g70
NtRp603
(dp604
g73
(dp605
g81
I3
ssg82
g599
sg75
(lp606
S''
asbasbasbag68
(g84
g70
NtRp607
(dp608
g73
(dp609
sg82
g463
sg75
(lp610
g68
(g89
g70
NtRp611
(dp612
g73
(dp613
g93
g94
ssg82
g607
sg75
(lp614
g429
asbag68
(g89
g70
NtRp615
(dp616
g73
(dp617
g100
g101
ssg82
g607
sg75
(lp618
S':'
asbag68
(g89
g70
NtRp619
(dp620
g73
(dp621
sg82
g607
sg75
(lp622
g68
(g69
g70
NtRp623
(dp624
g73
(dp625
g81
I3
ssg82
g619
sg75
(lp626
S''
asbasbasbasbasbasbasbag68
(g84
g70
NtRp627
(dp628
g73
(dp629
sg82
g245
sg75
(lp630
g68
(g89
g70
NtRp631
(dp632
g73
(dp633
g93
g94
ssg82
g627
sg75
(lp634
S'session_id_reingart'
p635
asbag68
(g89
g70
NtRp636
(dp637
g73
(dp638
g100
g101
ssg82
g627
sg75
(lp639
S':'
asbag68
(g89
g70
NtRp640
(dp641
g73
(dp642
sg82
g627
sg75
(lp643
g68
(g69
g70
NtRp644
(dp645
g73
(dp646
g81
I4
ssg82
g640
sg75
(lp647
g68
(g77
g70
NtRp648
(dp649
g73
(dp650
g81
I3
ssg82
Nsg75
(lp651
g68
(g84
g70
NtRp652
(dp653
g73
(dp654
sg82
g648
sg75
(lp655
g68
(g89
g70
NtRp656
(dp657
g73
(dp658
g93
g94
ssg82
g652
sg75
(lp659
g282
asbag68
(g89
g70
NtRp660
(dp661
g73
(dp662
g100
g101
ssg82
g652
sg75
(lp663
S':'
asbag68
(g89
g70
NtRp664
(dp665
g73
(dp666
sg82
g652
sg75
(lp667
g68
(g69
g70
NtRp668
(dp669
g73
(dp670
g81
I3
ssg82
g664
sg75
(lp671
S''
asbasbasbag68
(g84
g70
NtRp672
(dp673
g73
(dp674
sg82
g648
sg75
(lp675
g68
(g89
g70
NtRp676
(dp677
g73
(dp678
g93
g94
ssg82
g672
sg75
(lp679
g303
asbag68
(g89
g70
NtRp680
(dp681
g73
(dp682
g100
g101
ssg82
g672
sg75
(lp683
S':'
asbag68
(g89
g70
NtRp684
(dp685
g73
(dp686
sg82
g672
sg75
(lp687
g68
(g69
g70
NtRp688
(dp689
g73
(dp690
g81
I3
ssg82
g684
sg75
(lp691
S''
asbasbasbag68
(g84
g70
NtRp692
(dp693
g73
(dp694
sg82
g648
sg75
(lp695
g68
(g89
g70
NtRp696
(dp697
g73
(dp698
g93
g94
ssg82
g692
sg75
(lp699
g324
asbag68
(g89
g70
NtRp700
(dp701
g73
(dp702
g100
g101
ssg82
g692
sg75
(lp703
S':'
asbag68
(g89
g70
NtRp704
(dp705
g73
(dp706
sg82
g692
sg75
(lp707
g68
(g69
g70
NtRp708
(dp709
g73
(dp710
g81
I3
ssg82
g704
sg75
(lp711
S''
asbasbasbag68
(g84
g70
NtRp712
(dp713
g73
(dp714
sg82
g648
sg75
(lp715
g68
(g89
g70
NtRp716
(dp717
g73
(dp718
g93
g94
ssg82
g712
sg75
(lp719
g345
asbag68
(g89
g70
NtRp720
(dp721
g73
(dp722
g100
g101
ssg82
g712
sg75
(lp723
S':'
asbag68
(g89
g70
NtRp724
(dp725
g73
(dp726
sg82
g712
sg75
(lp727
g68
(g69
g70
NtRp728
(dp729
g73
(dp730
g81
I3
ssg82
g724
sg75
(lp731
S''
asbasbasbag68
(g84
g70
NtRp732
(dp733
g73
(dp734
sg82
g648
sg75
(lp735
g68
(g89
g70
NtRp736
(dp737
g73
(dp738
g93
g94
ssg82
g732
sg75
(lp739
g366
asbag68
(g89
g70
NtRp740
(dp741
g73
(dp742
g100
g101
ssg82
g732
sg75
(lp743
S':'
asbag68
(g89
g70
NtRp744
(dp745
g73
(dp746
sg82
g732
sg75
(lp747
g68
(g69
g70
NtRp748
(dp749
g73
(dp750
g81
I3
ssg82
g744
sg75
(lp751
S''
asbasbasbag68
(g84
g70
NtRp752
(dp753
g73
(dp754
sg82
g648
sg75
(lp755
g68
(g89
g70
NtRp756
(dp757
g73
(dp758
g93
g94
ssg82
g752
sg75
(lp759
g387
asbag68
(g89
g70
NtRp760
(dp761
g73
(dp762
g100
g101
ssg82
g752
sg75
(lp763
S':'
asbag68
(g89
g70
NtRp764
(dp765
g73
(dp766
sg82
g752
sg75
(lp767
g68
(g69
g70
NtRp768
(dp769
g73
(dp770
g81
I3
ssg82
g764
sg75
(lp771
S''
asbasbasbag68
(g84
g70
NtRp772
(dp773
g73
(dp774
sg82
g648
sg75
(lp775
g68
(g89
g70
NtRp776
(dp777
g73
(dp778
g93
g94
ssg82
g772
sg75
(lp779
g408
asbag68
(g89
g70
NtRp780
(dp781
g73
(dp782
g100
g101
ssg82
g772
sg75
(lp783
S':'
asbag68
(g89
g70
NtRp784
(dp785
g73
(dp786
sg82
g772
sg75
(lp787
g68
(g69
g70
NtRp788
(dp789
g73
(dp790
g81
I3
ssg82
g784
sg75
(lp791
S''
asbasbasbag68
(g84
g70
NtRp792
(dp793
g73
(dp794
sg82
g648
sg75
(lp795
g68
(g89
g70
NtRp796
(dp797
g73
(dp798
g93
g94
ssg82
g792
sg75
(lp799
g429
asbag68
(g89
g70
NtRp800
(dp801
g73
(dp802
g100
g101
ssg82
g792
sg75
(lp803
S':'
asbag68
(g89
g70
NtRp804
(dp805
g73
(dp806
sg82
g792
sg75
(lp807
g68
(g69
g70
NtRp808
(dp809
g73
(dp810
g81
I3
ssg82
g804
sg75
(lp811
S''
asbasbasbasbasbasbasbag68
(g84
g70
NtRp812
(dp813
g73
(dp814
sg82
g245
sg75
(lp815
g68
(g89
g70
NtRp816
(dp817
g73
(dp818
g93
g94
ssg82
g812
sg75
(lp819
S'session_id_welcome'
p820
asbag68
(g89
g70
NtRp821
(dp822
g73
(dp823
g100
g101
ssg82
g812
sg75
(lp824
S':'
asbag68
(g89
g70
NtRp825
(dp826
g73
(dp827
sg82
g812
sg75
(lp828
g68
(g69
g70
NtRp829
(dp830
g73
(dp831
g81
I4
ssg82
g825
sg75
(lp832
g68
(g77
g70
NtRp833
(dp834
g73
(dp835
g81
I3
ssg82
Nsg75
(lp836
g68
(g84
g70
NtRp837
(dp838
g73
(dp839
sg82
g833
sg75
(lp840
g68
(g89
g70
NtRp841
(dp842
g73
(dp843
g93
g94
ssg82
g837
sg75
(lp844
g282
asbag68
(g89
g70
NtRp845
(dp846
g73
(dp847
g100
g101
ssg82
g837
sg75
(lp848
S':'
asbag68
(g89
g70
NtRp849
(dp850
g73
(dp851
sg82
g837
sg75
(lp852
g68
(g69
g70
NtRp853
(dp854
g73
(dp855
g81
I3
ssg82
g849
sg75
(lp856
S''
asbasbasbag68
(g84
g70
NtRp857
(dp858
g73
(dp859
sg82
g833
sg75
(lp860
g68
(g89
g70
NtRp861
(dp862
g73
(dp863
g93
g94
ssg82
g857
sg75
(lp864
g303
asbag68
(g89
g70
NtRp865
(dp866
g73
(dp867
g100
g101
ssg82
g857
sg75
(lp868
S':'
asbag68
(g89
g70
NtRp869
(dp870
g73
(dp871
sg82
g857
sg75
(lp872
g68
(g69
g70
NtRp873
(dp874
g73
(dp875
g81
I3
ssg82
g869
sg75
(lp876
S''
asbasbasbag68
(g84
g70
NtRp877
(dp878
g73
(dp879
sg82
g833
sg75
(lp880
g68
(g89
g70
NtRp881
(dp882
g73
(dp883
g93
g94
ssg82
g877
sg75
(lp884
g324
asbag68
(g89
g70
NtRp885
(dp886
g73
(dp887
g100
g101
ssg82
g877
sg75
(lp888
S':'
asbag68
(g89
g70
NtRp889
(dp890
g73
(dp891
sg82
g877
sg75
(lp892
g68
(g69
g70
NtRp893
(dp894
g73
(dp895
g81
I3
ssg82
g889
sg75
(lp896
S''
asbasbasbag68
(g84
g70
NtRp897
(dp898
g73
(dp899
sg82
g833
sg75
(lp900
g68
(g89
g70
NtRp901
(dp902
g73
(dp903
g93
g94
ssg82
g897
sg75
(lp904
g345
asbag68
(g89
g70
NtRp905
(dp906
g73
(dp907
g100
g101
ssg82
g897
sg75
(lp908
S':'
asbag68
(g89
g70
NtRp909
(dp910
g73
(dp911
sg82
g897
sg75
(lp912
g68
(g69
g70
NtRp913
(dp914
g73
(dp915
g81
I3
ssg82
g909
sg75
(lp916
S''
asbasbasbag68
(g84
g70
NtRp917
(dp918
g73
(dp919
sg82
g833
sg75
(lp920
g68
(g89
g70
NtRp921
(dp922
g73
(dp923
g93
g94
ssg82
g917
sg75
(lp924
g366
asbag68
(g89
g70
NtRp925
(dp926
g73
(dp927
g100
g101
ssg82
g917
sg75
(lp928
S':'
asbag68
(g89
g70
NtRp929
(dp930
g73
(dp931
sg82
g917
sg75
(lp932
g68
(g69
g70
NtRp933
(dp934
g73
(dp935
g81
I3
ssg82
g929
sg75
(lp936
S''
asbasbasbag68
(g84
g70
NtRp937
(dp938
g73
(dp939
sg82
g833
sg75
(lp940
g68
(g89
g70
NtRp941
(dp942
g73
(dp943
g93
g94
ssg82
g937
sg75
(lp944
g387
asbag68
(g89
g70
NtRp945
(dp946
g73
(dp947
g100
g101
ssg82
g937
sg75
(lp948
S':'
asbag68
(g89
g70
NtRp949
(dp950
g73
(dp951
sg82
g937
sg75
(lp952
g68
(g69
g70
NtRp953
(dp954
g73
(dp955
g81
I3
ssg82
g949
sg75
(lp956
S''
asbasbasbag68
(g84
g70
NtRp957
(dp958
g73
(dp959
sg82
g833
sg75
(lp960
g68
(g89
g70
NtRp961
(dp962
g73
(dp963
g93
g94
ssg82
g957
sg75
(lp964
g408
asbag68
(g89
g70
NtRp965
(dp966
g73
(dp967
g100
g101
ssg82
g957
sg75
(lp968
S':'
asbag68
(g89
g70
NtRp969
(dp970
g73
(dp971
sg82
g957
sg75
(lp972
g68
(g69
g70
NtRp973
(dp974
g73
(dp975
g81
I3
ssg82
g969
sg75
(lp976
S''
asbasbasbag68
(g84
g70
NtRp977
(dp978
g73
(dp979
sg82
g833
sg75
(lp980
g68
(g89
g70
NtRp981
(dp982
g73
(dp983
g93
g94
ssg82
g977
sg75
(lp984
g429
asbag68
(g89
g70
NtRp985
(dp986
g73
(dp987
g100
g101
ssg82
g977
sg75
(lp988
S':'
asbag68
(g89
g70
NtRp989
(dp990
g73
(dp991
sg82
g977
sg75
(lp992
g68
(g69
g70
NtRp993
(dp994
g73
(dp995
g81
I3
ssg82
g989
sg75
(lp996
S''
asbasbasbasbasbasbasbasbasbasbasbag68
(g84
g70
NtRp997
(dp998
g73
(dp999
sg82
g78
sg75
(lp1000
g68
(g89
g70
NtRp1001
(dp1002
g73
(dp1003
g93
g94
ssg82
g997
sg75
(lp1004
S'env'
p1005
asbag68
(g89
g70
NtRp1006
(dp1007
g73
(dp1008
g100
g101
ssg82
g997
sg75
(lp1009
S':'
asbag68
(g89
g70
NtRp1010
(dp1011
g73
(dp1012
sg82
g997
sg75
(lp1013
g68
(g69
g70
NtRp1014
(dp1015
g73
(dp1016
g81
I5
ssg82
g1010
sg75
(lp1017
g68
(g77
g70
NtRp1018
(dp1019
g73
(dp1020
g81
I4
ssg82
Nsg75
(lp1021
g68
(g84
g70
NtRp1022
(dp1023
g73
(dp1024
sg82
g1018
sg75
(lp1025
g68
(g89
g70
NtRp1026
(dp1027
g73
(dp1028
g93
g94
ssg82
g1022
sg75
(lp1029
S'app_folders'
p1030
asbag68
(g89
g70
NtRp1031
(dp1032
g73
(dp1033
g100
g101
ssg82
g1022
sg75
(lp1034
S':'
asbag68
(g89
g70
NtRp1035
(dp1036
g73
(dp1037
sg82
g1022
sg75
(lp1038
g68
(g69
g70
NtRp1039
(dp1040
g73
(dp1041
g81
I4
ssg82
g1035
sg75
(lp1042
S"set(['/home/marco/flisol2012/web2py/applications/welcome/', '/home/marco/flisol2012/web2py/applications/flisol2012/', '/home/marco/flisol2012/web2py/applications/admin/'])"
p1043
asbasbasbag68
(g84
g70
NtRp1044
(dp1045
g73
(dp1046
sg82
g1018
sg75
(lp1047
g68
(g89
g70
NtRp1048
(dp1049
g73
(dp1050
g93
g94
ssg82
g1044
sg75
(lp1051
S'applications_parent'
p1052
asbag68
(g89
g70
NtRp1053
(dp1054
g73
(dp1055
g100
g101
ssg82
g1044
sg75
(lp1056
S':'
asbag68
(g89
g70
NtRp1057
(dp1058
g73
(dp1059
sg82
g1044
sg75
(lp1060
g68
(g69
g70
NtRp1061
(dp1062
g73
(dp1063
g81
I4
ssg82
g1057
sg75
(lp1064
S'/home/marco/flisol2012/web2py'
p1065
asbasbasbag68
(g84
g70
NtRp1066
(dp1067
g73
(dp1068
sg82
g1018
sg75
(lp1069
g68
(g89
g70
NtRp1070
(dp1071
g73
(dp1072
g93
g94
ssg82
g1066
sg75
(lp1073
S'cmd_args'
p1074
asbag68
(g89
g70
NtRp1075
(dp1076
g73
(dp1077
g100
g101
ssg82
g1066
sg75
(lp1078
S':'
asbag68
(g89
g70
NtRp1079
(dp1080
g73
(dp1081
sg82
g1066
sg75
(lp1082
g68
(g69
g70
NtRp1083
(dp1084
g73
(dp1085
g81
I4
ssg82
g1079
sg75
(lp1086
g68
(g77
g70
NtRp1087
(dp1088
g73
(dp1089
g81
I3
ssg82
Nsg75
(lp1090
sbasbasbasbag68
(g84
g70
NtRp1091
(dp1092
g73
(dp1093
sg82
g1018
sg75
(lp1094
g68
(g89
g70
NtRp1095
(dp1096
g73
(dp1097
g93
g94
ssg82
g1091
sg75
(lp1098
S'cmd_options'
p1099
asbag68
(g89
g70
NtRp1100
(dp1101
g73
(dp1102
g100
g101
ssg82
g1091
sg75
(lp1103
S':'
asbag68
(g89
g70
NtRp1104
(dp1105
g73
(dp1106
sg82
g1091
sg75
(lp1107
g68
(g69
g70
NtRp1108
(dp1109
g73
(dp1110
g81
I4
ssg82
g1104
sg75
(lp1111
S"<Values at 0x1bd6908: {'verbose': False, 'ip': '127.0.0.1', 'shutdown_timeout': 5, 'taskbar': False, 'nocron': False, 'pid_filename': 'httpserver.pid', 'maxthreads': None, 'softcron': False, 'server_name': 'malena', 'bpython': False, 'nogui': False, 'port': 8000, 'extcron': False, 'debuglevel': 30, 'test': None, 'folder': '/home/marco/flisol2012/web2py', 'config': '', 'import_models': False, 'winservice': '', 'shell': None, 'run': '', 'log_filename': 'httpserver.log', 'args': [''], 'socket_timeout': 5, 'ssl_ca_certificate': None, 'scheduler': None, 'profiler_filename': None, 'ssl_private_key': '', 'password': 'asd', 'request_queue_size': 5, 'ssl_certificate': '', 'cronjob': False, 'numthreads': None, 'quiet': False, 'interfaces': None, 'minthreads': None, 'timeout': 10, 'plain': False, 'nobanner': False}>"
p1112
asbasbasbag68
(g84
g70
NtRp1113
(dp1114
g73
(dp1115
sg82
g1018
sg75
(lp1116
g68
(g89
g70
NtRp1117
(dp1118
g73
(dp1119
g93
g94
ssg82
g1113
sg75
(lp1120
S'db_sessions'
p1121
asbag68
(g89
g70
NtRp1122
(dp1123
g73
(dp1124
g100
g101
ssg82
g1113
sg75
(lp1125
S':'
asbag68
(g89
g70
NtRp1126
(dp1127
g73
(dp1128
sg82
g1113
sg75
(lp1129
g68
(g69
g70
NtRp1130
(dp1131
g73
(dp1132
g81
I4
ssg82
g1126
sg75
(lp1133
S'set([])'
p1134
asbasbasbag68
(g84
g70
NtRp1135
(dp1136
g73
(dp1137
sg82
g1018
sg75
(lp1138
g68
(g89
g70
NtRp1139
(dp1140
g73
(dp1141
g93
g94
ssg82
g1135
sg75
(lp1142
S'debugging'
p1143
asbag68
(g89
g70
NtRp1144
(dp1145
g73
(dp1146
g100
g101
ssg82
g1135
sg75
(lp1147
S':'
asbag68
(g89
g70
NtRp1148
(dp1149
g73
(dp1150
sg82
g1135
sg75
(lp1151
g68
(g69
g70
NtRp1152
(dp1153
g73
(dp1154
g81
I4
ssg82
g1148
sg75
(lp1155
g111
asbasbasbag68
(g84
g70
NtRp1156
(dp1157
g73
(dp1158
sg82
g1018
sg75
(lp1159
g68
(g89
g70
NtRp1160
(dp1161
g73
(dp1162
g93
g94
ssg82
g1156
sg75
(lp1163
S'gluon_parent'
p1164
asbag68
(g89
g70
NtRp1165
(dp1166
g73
(dp1167
g100
g101
ssg82
g1156
sg75
(lp1168
S':'
asbag68
(g89
g70
NtRp1169
(dp1170
g73
(dp1171
sg82
g1156
sg75
(lp1172
g68
(g69
g70
NtRp1173
(dp1174
g73
(dp1175
g81
I4
ssg82
g1169
sg75
(lp1176
S'/home/marco/flisol2012/web2py'
p1177
asbasbasbag68
(g84
g70
NtRp1178
(dp1179
g73
(dp1180
sg82
g1018
sg75
(lp1181
g68
(g89
g70
NtRp1182
(dp1183
g73
(dp1184
g93
g94
ssg82
g1178
sg75
(lp1185
S'http_accept'
p1186
asbag68
(g89
g70
NtRp1187
(dp1188
g73
(dp1189
g100
g101
ssg82
g1178
sg75
(lp1190
S':'
asbag68
(g89
g70
NtRp1191
(dp1192
g73
(dp1193
sg82
g1178
sg75
(lp1194
g68
(g69
g70
NtRp1195
(dp1196
g73
(dp1197
g81
I4
ssg82
g1191
sg75
(lp1198
S'text/html,application/xhtml+xml,application/xml;q=0.9,*/*;q=0.8'
p1199
asbasbasbag68
(g84
g70
NtRp1200
(dp1201
g73
(dp1202
sg82
g1018
sg75
(lp1203
g68
(g89
g70
NtRp1204
(dp1205
g73
(dp1206
g93
g94
ssg82
g1200
sg75
(lp1207
S'http_accept_encoding'
p1208
asbag68
(g89
g70
NtRp1209
(dp1210
g73
(dp1211
g100
g101
ssg82
g1200
sg75
(lp1212
S':'
asbag68
(g89
g70
NtRp1213
(dp1214
g73
(dp1215
sg82
g1200
sg75
(lp1216
g68
(g69
g70
NtRp1217
(dp1218
g73
(dp1219
g81
I4
ssg82
g1213
sg75
(lp1220
S'gzip, deflate'
p1221
asbasbasbag68
(g84
g70
NtRp1222
(dp1223
g73
(dp1224
sg82
g1018
sg75
(lp1225
g68
(g89
g70
NtRp1226
(dp1227
g73
(dp1228
g93
g94
ssg82
g1222
sg75
(lp1229
S'http_accept_language'
p1230
asbag68
(g89
g70
NtRp1231
(dp1232
g73
(dp1233
g100
g101
ssg82
g1222
sg75
(lp1234
S':'
asbag68
(g89
g70
NtRp1235
(dp1236
g73
(dp1237
sg82
g1222
sg75
(lp1238
g68
(g69
g70
NtRp1239
(dp1240
g73
(dp1241
g81
I4
ssg82
g1235
sg75
(lp1242
S'es-ar,es;q=0.8,en-us;q=0.5,en;q=0.3'
p1243
asbasbasbag68
(g84
g70
NtRp1244
(dp1245
g73
(dp1246
sg82
g1018
sg75
(lp1247
g68
(g89
g70
NtRp1248
(dp1249
g73
(dp1250
g93
g94
ssg82
g1244
sg75
(lp1251
S'http_connection'
p1252
asbag68
(g89
g70
NtRp1253
(dp1254
g73
(dp1255
g100
g101
ssg82
g1244
sg75
(lp1256
S':'
asbag68
(g89
g70
NtRp1257
(dp1258
g73
(dp1259
sg82
g1244
sg75
(lp1260
g68
(g69
g70
NtRp1261
(dp1262
g73
(dp1263
g81
I4
ssg82
g1257
sg75
(lp1264
S'keep-alive'
p1265
asbasbasbag68
(g84
g70
NtRp1266
(dp1267
g73
(dp1268
sg82
g1018
sg75
(lp1269
g68
(g89
g70
NtRp1270
(dp1271
g73
(dp1272
g93
g94
ssg82
g1266
sg75
(lp1273
S'http_cookie'
p1274
asbag68
(g89
g70
NtRp1275
(dp1276
g73
(dp1277
g100
g101
ssg82
g1266
sg75
(lp1278
S':'
asbag68
(g89
g70
NtRp1279
(dp1280
g73
(dp1281
sg82
g1266
sg75
(lp1282
g68
(g69
g70
NtRp1283
(dp1284
g73
(dp1285
g81
I4
ssg82
g1279
sg75
(lp1286
S'__utma=96992031.1881515701.1331265087.1331309329.1331316385.4; __utmc=96992031; __utmz=96992031.1331265087.1.1.utmcsr=(direct)|utmccn=(direct)|utmcmd=(none); session_id_admin=127.0.0.1-9f819232-d34d-431b-a66d-efef7821a17b; session_id_reingart=127.0.0.1-c638efce-62e3-46b3-bb1a-e04405c01702; session_id_flisol2012=127.0.0.1-2ede3a58-f97e-48e1-8d0e-90e5ecfe16bf; __utmb=96992031.98.10.1331316385; session_id_welcome=127.0.0.1-d9714dec-041d-4a2a-a113-75a39351e0db'
p1287
asbasbasbag68
(g84
g70
NtRp1288
(dp1289
g73
(dp1290
sg82
g1018
sg75
(lp1291
g68
(g89
g70
NtRp1292
(dp1293
g73
(dp1294
g93
g94
ssg82
g1288
sg75
(lp1295
S'http_host'
p1296
asbag68
(g89
g70
NtRp1297
(dp1298
g73
(dp1299
g100
g101
ssg82
g1288
sg75
(lp1300
S':'
asbag68
(g89
g70
NtRp1301
(dp1302
g73
(dp1303
sg82
g1288
sg75
(lp1304
g68
(g69
g70
NtRp1305
(dp1306
g73
(dp1307
g81
I4
ssg82
g1301
sg75
(lp1308
S'127.0.0.1:8000'
p1309
asbasbasbag68
(g84
g70
NtRp1310
(dp1311
g73
(dp1312
sg82
g1018
sg75
(lp1313
g68
(g89
g70
NtRp1314
(dp1315
g73
(dp1316
g93
g94
ssg82
g1310
sg75
(lp1317
S'http_referer'
p1318
asbag68
(g89
g70
NtRp1319
(dp1320
g73
(dp1321
g100
g101
ssg82
g1310
sg75
(lp1322
S':'
asbag68
(g89
g70
NtRp1323
(dp1324
g73
(dp1325
sg82
g1310
sg75
(lp1326
g68
(g69
g70
NtRp1327
(dp1328
g73
(dp1329
g81
I4
ssg82
g1323
sg75
(lp1330
S'http://127.0.0.1:8000/flisol2012/default/index'
p1331
asbasbasbag68
(g84
g70
NtRp1332
(dp1333
g73
(dp1334
sg82
g1018
sg75
(lp1335
g68
(g89
g70
NtRp1336
(dp1337
g73
(dp1338
g93
g94
ssg82
g1332
sg75
(lp1339
S'http_user_agent'
p1340
asbag68
(g89
g70
NtRp1341
(dp1342
g73
(dp1343
g100
g101
ssg82
g1332
sg75
(lp1344
S':'
asbag68
(g89
g70
NtRp1345
(dp1346
g73
(dp1347
sg82
g1332
sg75
(lp1348
g68
(g69
g70
NtRp1349
(dp1350
g73
(dp1351
g81
I4
ssg82
g1345
sg75
(lp1352
S'Mozilla/5.0 (X11; Linux x86_64; rv:11.0) Gecko/20100101 Firefox/11.0 Iceweasel/11.0'
p1353
asbasbasbag68
(g84
g70
NtRp1354
(dp1355
g73
(dp1356
sg82
g1018
sg75
(lp1357
g68
(g89
g70
NtRp1358
(dp1359
g73
(dp1360
g93
g94
ssg82
g1354
sg75
(lp1361
S'is_jython'
p1362
asbag68
(g89
g70
NtRp1363
(dp1364
g73
(dp1365
g100
g101
ssg82
g1354
sg75
(lp1366
S':'
asbag68
(g89
g70
NtRp1367
(dp1368
g73
(dp1369
sg82
g1354
sg75
(lp1370
g68
(g69
g70
NtRp1371
(dp1372
g73
(dp1373
g81
I4
ssg82
g1367
sg75
(lp1374
g111
asbasbasbag68
(g84
g70
NtRp1375
(dp1376
g73
(dp1377
sg82
g1018
sg75
(lp1378
g68
(g89
g70
NtRp1379
(dp1380
g73
(dp1381
g93
g94
ssg82
g1375
sg75
(lp1382
S'is_pypy'
p1383
asbag68
(g89
g70
NtRp1384
(dp1385
g73
(dp1386
g100
g101
ssg82
g1375
sg75
(lp1387
S':'
asbag68
(g89
g70
NtRp1388
(dp1389
g73
(dp1390
sg82
g1375
sg75
(lp1391
g68
(g69
g70
NtRp1392
(dp1393
g73
(dp1394
g81
I4
ssg82
g1388
sg75
(lp1395
g111
asbasbasbag68
(g84
g70
NtRp1396
(dp1397
g73
(dp1398
sg82
g1018
sg75
(lp1399
g68
(g89
g70
NtRp1400
(dp1401
g73
(dp1402
g93
g94
ssg82
g1396
sg75
(lp1403
S'path_info'
p1404
asbag68
(g89
g70
NtRp1405
(dp1406
g73
(dp1407
g100
g101
ssg82
g1396
sg75
(lp1408
S':'
asbag68
(g89
g70
NtRp1409
(dp1410
g73
(dp1411
sg82
g1396
sg75
(lp1412
g68
(g69
g70
NtRp1413
(dp1414
g73
(dp1415
g81
I4
ssg82
g1409
sg75
(lp1416
S'/flisol2012/default/index'
p1417
asbasbasbag68
(g84
g70
NtRp1418
(dp1419
g73
(dp1420
sg82
g1018
sg75
(lp1421
g68
(g89
g70
NtRp1422
(dp1423
g73
(dp1424
g93
g94
ssg82
g1418
sg75
(lp1425
S'query_string'
p1426
asbag68
(g89
g70
NtRp1427
(dp1428
g73
(dp1429
g100
g101
ssg82
g1418
sg75
(lp1430
S':'
asbag68
(g89
g70
NtRp1431
(dp1432
g73
(dp1433
sg82
g1418
sg75
(lp1434
g68
(g69
g70
NtRp1435
(dp1436
g73
(dp1437
g81
I4
ssg82
g1431
sg75
(lp1438
S''
asbasbasbag68
(g84
g70
NtRp1439
(dp1440
g73
(dp1441
sg82
g1018
sg75
(lp1442
g68
(g89
g70
NtRp1443
(dp1444
g73
(dp1445
g93
g94
ssg82
g1439
sg75
(lp1446
S'remote_addr'
p1447
asbag68
(g89
g70
NtRp1448
(dp1449
g73
(dp1450
g100
g101
ssg82
g1439
sg75
(lp1451
S':'
asbag68
(g89
g70
NtRp1452
(dp1453
g73
(dp1454
sg82
g1439
sg75
(lp1455
g68
(g69
g70
NtRp1456
(dp1457
g73
(dp1458
g81
I4
ssg82
g1452
sg75
(lp1459
g201
asbasbasbag68
(g84
g70
NtRp1460
(dp1461
g73
(dp1462
sg82
g1018
sg75
(lp1463
g68
(g89
g70
NtRp1464
(dp1465
g73
(dp1466
g93
g94
ssg82
g1460
sg75
(lp1467
S'remote_port'
p1468
asbag68
(g89
g70
NtRp1469
(dp1470
g73
(dp1471
g100
g101
ssg82
g1460
sg75
(lp1472
S':'
asbag68
(g89
g70
NtRp1473
(dp1474
g73
(dp1475
sg82
g1460
sg75
(lp1476
g68
(g69
g70
NtRp1477
(dp1478
g73
(dp1479
g81
I4
ssg82
g1473
sg75
(lp1480
S'40680'
p1481
asbasbasbag68
(g84
g70
NtRp1482
(dp1483
g73
(dp1484
sg82
g1018
sg75
(lp1485
g68
(g89
g70
NtRp1486
(dp1487
g73
(dp1488
g93
g94
ssg82
g1482
sg75
(lp1489
S'request_method'
p1490
asbag68
(g89
g70
NtRp1491
(dp1492
g73
(dp1493
g100
g101
ssg82
g1482
sg75
(lp1494
S':'
asbag68
(g89
g70
NtRp1495
(dp1496
g73
(dp1497
sg82
g1482
sg75
(lp1498
g68
(g69
g70
NtRp1499
(dp1500
g73
(dp1501
g81
I4
ssg82
g1495
sg75
(lp1502
S'GET'
p1503
asbasbasbag68
(g84
g70
NtRp1504
(dp1505
g73
(dp1506
sg82
g1018
sg75
(lp1507
g68
(g89
g70
NtRp1508
(dp1509
g73
(dp1510
g93
g94
ssg82
g1504
sg75
(lp1511
S'script_name'
p1512
asbag68
(g89
g70
NtRp1513
(dp1514
g73
(dp1515
g100
g101
ssg82
g1504
sg75
(lp1516
S':'
asbag68
(g89
g70
NtRp1517
(dp1518
g73
(dp1519
sg82
g1504
sg75
(lp1520
g68
(g69
g70
NtRp1521
(dp1522
g73
(dp1523
g81
I4
ssg82
g1517
sg75
(lp1524
S''
asbasbasbag68
(g84
g70
NtRp1525
(dp1526
g73
(dp1527
sg82
g1018
sg75
(lp1528
g68
(g89
g70
NtRp1529
(dp1530
g73
(dp1531
g93
g94
ssg82
g1525
sg75
(lp1532
S'server_name'
p1533
asbag68
(g89
g70
NtRp1534
(dp1535
g73
(dp1536
g100
g101
ssg82
g1525
sg75
(lp1537
S':'
asbag68
(g89
g70
NtRp1538
(dp1539
g73
(dp1540
sg82
g1525
sg75
(lp1541
g68
(g69
g70
NtRp1542
(dp1543
g73
(dp1544
g81
I4
ssg82
g1538
sg75
(lp1545
S'malena'
p1546
asbasbasbag68
(g84
g70
NtRp1547
(dp1548
g73
(dp1549
sg82
g1018
sg75
(lp1550
g68
(g89
g70
NtRp1551
(dp1552
g73
(dp1553
g93
g94
ssg82
g1547
sg75
(lp1554
S'server_port'
p1555
asbag68
(g89
g70
NtRp1556
(dp1557
g73
(dp1558
g100
g101
ssg82
g1547
sg75
(lp1559
S':'
asbag68
(g89
g70
NtRp1560
(dp1561
g73
(dp1562
sg82
g1547
sg75
(lp1563
g68
(g69
g70
NtRp1564
(dp1565
g73
(dp1566
g81
I4
ssg82
g1560
sg75
(lp1567
S'8000'
p1568
asbasbasbag68
(g84
g70
NtRp1569
(dp1570
g73
(dp1571
sg82
g1018
sg75
(lp1572
g68
(g89
g70
NtRp1573
(dp1574
g73
(dp1575
g93
g94
ssg82
g1569
sg75
(lp1576
S'server_protocol'
p1577
asbag68
(g89
g70
NtRp1578
(dp1579
g73
(dp1580
g100
g101
ssg82
g1569
sg75
(lp1581
S':'
asbag68
(g89
g70
NtRp1582
(dp1583
g73
(dp1584
sg82
g1569
sg75
(lp1585
g68
(g69
g70
NtRp1586
(dp1587
g73
(dp1588
g81
I4
ssg82
g1582
sg75
(lp1589
S'HTTP/1.1'
p1590
asbasbasbag68
(g84
g70
NtRp1591
(dp1592
g73
(dp1593
sg82
g1018
sg75
(lp1594
g68
(g89
g70
NtRp1595
(dp1596
g73
(dp1597
g93
g94
ssg82
g1591
sg75
(lp1598
S'server_software'
p1599
asbag68
(g89
g70
NtRp1600
(dp1601
g73
(dp1602
g100
g101
ssg82
g1591
sg75
(lp1603
S':'
asbag68
(g89
g70
NtRp1604
(dp1605
g73
(dp1606
sg82
g1591
sg75
(lp1607
g68
(g69
g70
NtRp1608
(dp1609
g73
(dp1610
g81
I4
ssg82
g1604
sg75
(lp1611
S'Rocket 1.2.4'
p1612
asbasbasbag68
(g84
g70
NtRp1613
(dp1614
g73
(dp1615
sg82
g1018
sg75
(lp1616
g68
(g89
g70
NtRp1617
(dp1618
g73
(dp1619
g93
g94
ssg82
g1613
sg75
(lp1620
S'web2py_crontype'
p1621
asbag68
(g89
g70
NtRp1622
(dp1623
g73
(dp1624
g100
g101
ssg82
g1613
sg75
(lp1625
S':'
asbag68
(g89
g70
NtRp1626
(dp1627
g73
(dp1628
sg82
g1613
sg75
(lp1629
g68
(g69
g70
NtRp1630
(dp1631
g73
(dp1632
g81
I4
ssg82
g1626
sg75
(lp1633
S'hard'
p1634
asbasbasbag68
(g84
g70
NtRp1635
(dp1636
g73
(dp1637
sg82
g1018
sg75
(lp1638
g68
(g89
g70
NtRp1639
(dp1640
g73
(dp1641
g93
g94
ssg82
g1635
sg75
(lp1642
S'web2py_path'
p1643
asbag68
(g89
g70
NtRp1644
(dp1645
g73
(dp1646
g100
g101
ssg82
g1635
sg75
(lp1647
S':'
asbag68
(g89
g70
NtRp1648
(dp1649
g73
(dp1650
sg82
g1635
sg75
(lp1651
g68
(g69
g70
NtRp1652
(dp1653
g73
(dp1654
g81
I4
ssg82
g1648
sg75
(lp1655
g1065
asbasbasbag68
(g84
g70
NtRp1656
(dp1657
g73
(dp1658
sg82
g1018
sg75
(lp1659
g68
(g89
g70
NtRp1660
(dp1661
g73
(dp1662
g93
g94
ssg82
g1656
sg75
(lp1663
S'web2py_version'
p1664
asbag68
(g89
g70
NtRp1665
(dp1666
g73
(dp1667
g100
g101
ssg82
g1656
sg75
(lp1668
S':'
asbag68
(g89
g70
NtRp1669
(dp1670
g73
(dp1671
sg82
g1656
sg75
(lp1672
g68
(g69
g70
NtRp1673
(dp1674
g73
(dp1675
g81
I4
ssg82
g1669
sg75
(lp1676
g68
(g77
g70
NtRp1677
(dp1678
g73
(dp1679
g81
I3
ssg82
Nsg75
(lp1680
g68
(g84
g70
NtRp1681
(dp1682
g73
(dp1683
sg82
g1677
sg75
(lp1684
g68
(g89
g70
NtRp1685
(dp1686
g73
(dp1687
sg82
g1681
sg75
(lp1688
g68
(g69
g70
NtRp1689
(dp1690
g73
(dp1691
g81
I3
ssg82
g1685
sg75
(lp1692
S'1'
asbasbasbag68
(g84
g70
NtRp1693
(dp1694
g73
(dp1695
sg82
g1677
sg75
(lp1696
g68
(g89
g70
NtRp1697
(dp1698
g73
(dp1699
sg82
g1693
sg75
(lp1700
g68
(g69
g70
NtRp1701
(dp1702
g73
(dp1703
g81
I3
ssg82
g1697
sg75
(lp1704
S'99'
p1705
asbasbasbag68
(g84
g70
NtRp1706
(dp1707
g73
(dp1708
sg82
g1677
sg75
(lp1709
g68
(g89
g70
NtRp1710
(dp1711
g73
(dp1712
sg82
g1706
sg75
(lp1713
g68
(g69
g70
NtRp1714
(dp1715
g73
(dp1716
g81
I3
ssg82
g1710
sg75
(lp1717
S'7'
asbasbasbag68
(g84
g70
NtRp1718
(dp1719
g73
(dp1720
sg82
g1677
sg75
(lp1721
g68
(g89
g70
NtRp1722
(dp1723
g73
(dp1724
sg82
g1718
sg75
(lp1725
g68
(g69
g70
NtRp1726
(dp1727
g73
(dp1728
g81
I3
ssg82
g1722
sg75
(lp1729
S'datetime.datetime(2012, 3, 4, 22, 12, 8)'
p1730
asbasbasbag68
(g84
g70
NtRp1731
(dp1732
g73
(dp1733
sg82
g1677
sg75
(lp1734
g68
(g89
g70
NtRp1735
(dp1736
g73
(dp1737
sg82
g1731
sg75
(lp1738
g68
(g69
g70
NtRp1739
(dp1740
g73
(dp1741
g81
I3
ssg82
g1735
sg75
(lp1742
S'stable'
p1743
asbasbasbasbasbasbasbag68
(g84
g70
NtRp1744
(dp1745
g73
(dp1746
sg82
g1018
sg75
(lp1747
g68
(g89
g70
NtRp1748
(dp1749
g73
(dp1750
g93
g94
ssg82
g1744
sg75
(lp1751
S'wsgi_errors'
p1752
asbag68
(g89
g70
NtRp1753
(dp1754
g73
(dp1755
g100
g101
ssg82
g1744
sg75
(lp1756
S':'
asbag68
(g89
g70
NtRp1757
(dp1758
g73
(dp1759
sg82
g1744
sg75
(lp1760
g68
(g69
g70
NtRp1761
(dp1762
g73
(dp1763
g81
I4
ssg82
g1757
sg75
(lp1764
S"<open file '<stderr>', mode 'w' at 0x7f4f2366f270>"
p1765
asbasbasbag68
(g84
g70
NtRp1766
(dp1767
g73
(dp1768
sg82
g1018
sg75
(lp1769
g68
(g89
g70
NtRp1770
(dp1771
g73
(dp1772
g93
g94
ssg82
g1766
sg75
(lp1773
S'wsgi_file_wrapper'
p1774
asbag68
(g89
g70
NtRp1775
(dp1776
g73
(dp1777
g100
g101
ssg82
g1766
sg75
(lp1778
S':'
asbag68
(g89
g70
NtRp1779
(dp1780
g73
(dp1781
sg82
g1766
sg75
(lp1782
g68
(g69
g70
NtRp1783
(dp1784
g73
(dp1785
g81
I4
ssg82
g1779
sg75
(lp1786
S'<class wsgiref.util.FileWrapper at 0x1abc460>'
p1787
asbasbasbag68
(g84
g70
NtRp1788
(dp1789
g73
(dp1790
sg82
g1018
sg75
(lp1791
g68
(g89
g70
NtRp1792
(dp1793
g73
(dp1794
g93
g94
ssg82
g1788
sg75
(lp1795
S'wsgi_input'
p1796
asbag68
(g89
g70
NtRp1797
(dp1798
g73
(dp1799
g100
g101
ssg82
g1788
sg75
(lp1800
S':'
asbag68
(g89
g70
NtRp1801
(dp1802
g73
(dp1803
sg82
g1788
sg75
(lp1804
g68
(g69
g70
NtRp1805
(dp1806
g73
(dp1807
g81
I4
ssg82
g1801
sg75
(lp1808
S'<socket._fileobject object at 0x2df2dd0>'
p1809
asbasbasbag68
(g84
g70
NtRp1810
(dp1811
g73
(dp1812
sg82
g1018
sg75
(lp1813
g68
(g89
g70
NtRp1814
(dp1815
g73
(dp1816
g93
g94
ssg82
g1810
sg75
(lp1817
S'wsgi_multiprocess'
p1818
asbag68
(g89
g70
NtRp1819
(dp1820
g73
(dp1821
g100
g101
ssg82
g1810
sg75
(lp1822
S':'
asbag68
(g89
g70
NtRp1823
(dp1824
g73
(dp1825
sg82
g1810
sg75
(lp1826
g68
(g69
g70
NtRp1827
(dp1828
g73
(dp1829
g81
I4
ssg82
g1823
sg75
(lp1830
g111
asbasbasbag68
(g84
g70
NtRp1831
(dp1832
g73
(dp1833
sg82
g1018
sg75
(lp1834
g68
(g89
g70
NtRp1835
(dp1836
g73
(dp1837
g93
g94
ssg82
g1831
sg75
(lp1838
S'wsgi_multithread'
p1839
asbag68
(g89
g70
NtRp1840
(dp1841
g73
(dp1842
g100
g101
ssg82
g1831
sg75
(lp1843
S':'
asbag68
(g89
g70
NtRp1844
(dp1845
g73
(dp1846
sg82
g1831
sg75
(lp1847
g68
(g69
g70
NtRp1848
(dp1849
g73
(dp1850
g81
I4
ssg82
g1844
sg75
(lp1851
S'True'
p1852
asbasbasbag68
(g84
g70
NtRp1853
(dp1854
g73
(dp1855
sg82
g1018
sg75
(lp1856
g68
(g89
g70
NtRp1857
(dp1858
g73
(dp1859
g93
g94
ssg82
g1853
sg75
(lp1860
S'wsgi_run_once'
p1861
asbag68
(g89
g70
NtRp1862
(dp1863
g73
(dp1864
g100
g101
ssg82
g1853
sg75
(lp1865
S':'
asbag68
(g89
g70
NtRp1866
(dp1867
g73
(dp1868
sg82
g1853
sg75
(lp1869
g68
(g69
g70
NtRp1870
(dp1871
g73
(dp1872
g81
I4
ssg82
g1866
sg75
(lp1873
g111
asbasbasbag68
(g84
g70
NtRp1874
(dp1875
g73
(dp1876
sg82
g1018
sg75
(lp1877
g68
(g89
g70
NtRp1878
(dp1879
g73
(dp1880
g93
g94
ssg82
g1874
sg75
(lp1881
S'wsgi_url_scheme'
p1882
asbag68
(g89
g70
NtRp1883
(dp1884
g73
(dp1885
g100
g101
ssg82
g1874
sg75
(lp1886
S':'
asbag68
(g89
g70
NtRp1887
(dp1888
g73
(dp1889
sg82
g1874
sg75
(lp1890
g68
(g69
g70
NtRp1891
(dp1892
g73
(dp1893
g81
I4
ssg82
g1887
sg75
(lp1894
S'http'
p1895
asbasbasbag68
(g84
g70
NtRp1896
(dp1897
g73
(dp1898
sg82
g1018
sg75
(lp1899
g68
(g89
g70
NtRp1900
(dp1901
g73
(dp1902
g93
g94
ssg82
g1896
sg75
(lp1903
S'wsgi_version'
p1904
asbag68
(g89
g70
NtRp1905
(dp1906
g73
(dp1907
g100
g101
ssg82
g1896
sg75
(lp1908
S':'
asbag68
(g89
g70
NtRp1909
(dp1910
g73
(dp1911
sg82
g1896
sg75
(lp1912
g68
(g69
g70
NtRp1913
(dp1914
g73
(dp1915
g81
I4
ssg82
g1909
sg75
(lp1916
g68
(g77
g70
NtRp1917
(dp1918
g73
(dp1919
g81
I3
ssg82
Nsg75
(lp1920
g68
(g84
g70
NtRp1921
(dp1922
g73
(dp1923
sg82
g1917
sg75
(lp1924
g68
(g89
g70
NtRp1925
(dp1926
g73
(dp1927
sg82
g1921
sg75
(lp1928
g68
(g69
g70
NtRp1929
(dp1930
g73
(dp1931
g81
I3
ssg82
g1925
sg75
(lp1932
S'1'
asbasbasbag68
(g84
g70
NtRp1933
(dp1934
g73
(dp1935
sg82
g1917
sg75
(lp1936
g68
(g89
g70
NtRp1937
(dp1938
g73
(dp1939
sg82
g1933
sg75
(lp1940
g68
(g69
g70
NtRp1941
(dp1942
g73
(dp1943
g81
I3
ssg82
g1937
sg75
(lp1944
S'0'
asbasbasbasbasbasbasbasbasbasbasbag68
(g84
g70
NtRp1945
(dp1946
g73
(dp1947
sg82
g78
sg75
(lp1948
g68
(g89
g70
NtRp1949
(dp1950
g73
(dp1951
g93
g94
ssg82
g1945
sg75
(lp1952
S'extension'
p1953
asbag68
(g89
g70
NtRp1954
(dp1955
g73
(dp1956
g100
g101
ssg82
g1945
sg75
(lp1957
S':'
asbag68
(g89
g70
NtRp1958
(dp1959
g73
(dp1960
sg82
g1945
sg75
(lp1961
g68
(g69
g70
NtRp1962
(dp1963
g73
(dp1964
g81
I5
ssg82
g1958
sg75
(lp1965
S'html'
p1966
asbasbasbag68
(g84
g70
NtRp1967
(dp1968
g73
(dp1969
sg82
g78
sg75
(lp1970
g68
(g89
g70
NtRp1971
(dp1972
g73
(dp1973
g93
g94
ssg82
g1967
sg75
(lp1974
S'folder'
p1975
asbag68
(g89
g70
NtRp1976
(dp1977
g73
(dp1978
g100
g101
ssg82
g1967
sg75
(lp1979
S':'
asbag68
(g89
g70
NtRp1980
(dp1981
g73
(dp1982
sg82
g1967
sg75
(lp1983
g68
(g69
g70
NtRp1984
(dp1985
g73
(dp1986
g81
I5
ssg82
g1980
sg75
(lp1987
S'/home/marco/flisol2012/web2py/applications/flisol2012/'
p1988
asbasbasbag68
(g84
g70
NtRp1989
(dp1990
g73
(dp1991
sg82
g78
sg75
(lp1992
g68
(g89
g70
NtRp1993
(dp1994
g73
(dp1995
g93
g94
ssg82
g1989
sg75
(lp1996
S'function'
p1997
asbag68
(g89
g70
NtRp1998
(dp1999
g73
(dp2000
g100
g101
ssg82
g1989
sg75
(lp2001
S':'
asbag68
(g89
g70
NtRp2002
(dp2003
g73
(dp2004
sg82
g1989
sg75
(lp2005
g68
(g69
g70
NtRp2006
(dp2007
g73
(dp2008
g81
I5
ssg82
g2002
sg75
(lp2009
S'index'
p2010
asbasbasbag68
(g84
g70
NtRp2011
(dp2012
g73
(dp2013
sg82
g78
sg75
(lp2014
g68
(g89
g70
NtRp2015
(dp2016
g73
(dp2017
g93
g94
ssg82
g2011
sg75
(lp2018
S'get_vars'
p2019
asbag68
(g89
g70
NtRp2020
(dp2021
g73
(dp2022
g100
g101
ssg82
g2011
sg75
(lp2023
S':'
asbag68
(g89
g70
NtRp2024
(dp2025
g73
(dp2026
sg82
g2011
sg75
(lp2027
g68
(g69
g70
NtRp2028
(dp2029
g73
(dp2030
g81
I5
ssg82
g2024
sg75
(lp2031
g68
(g77
g70
NtRp2032
(dp2033
g73
(dp2034
g81
I4
ssg82
Nsg75
(lp2035
sbasbasbasbag68
(g84
g70
NtRp2036
(dp2037
g73
(dp2038
sg82
g78
sg75
(lp2039
g68
(g89
g70
NtRp2040
(dp2041
g73
(dp2042
g93
g94
ssg82
g2036
sg75
(lp2043
S'global_settings'
p2044
asbag68
(g89
g70
NtRp2045
(dp2046
g73
(dp2047
g100
g101
ssg82
g2036
sg75
(lp2048
S':'
asbag68
(g89
g70
NtRp2049
(dp2050
g73
(dp2051
sg82
g2036
sg75
(lp2052
g68
(g69
g70
NtRp2053
(dp2054
g73
(dp2055
g81
I5
ssg82
g2049
sg75
(lp2056
g68
(g77
g70
NtRp2057
(dp2058
g73
(dp2059
g81
I4
ssg82
Nsg75
(lp2060
g68
(g84
g70
NtRp2061
(dp2062
g73
(dp2063
sg82
g2057
sg75
(lp2064
g68
(g89
g70
NtRp2065
(dp2066
g73
(dp2067
g93
g94
ssg82
g2061
sg75
(lp2068
g1030
asbag68
(g89
g70
NtRp2069
(dp2070
g73
(dp2071
g100
g101
ssg82
g2061
sg75
(lp2072
S':'
asbag68
(g89
g70
NtRp2073
(dp2074
g73
(dp2075
sg82
g2061
sg75
(lp2076
g68
(g69
g70
NtRp2077
(dp2078
g73
(dp2079
g81
I4
ssg82
g2073
sg75
(lp2080
S"set(['/home/marco/flisol2012/web2py/applications/welcome/', '/home/marco/flisol2012/web2py/applications/flisol2012/', '/home/marco/flisol2012/web2py/applications/admin/'])"
p2081
asbasbasbag68
(g84
g70
NtRp2082
(dp2083
g73
(dp2084
sg82
g2057
sg75
(lp2085
g68
(g89
g70
NtRp2086
(dp2087
g73
(dp2088
g93
g94
ssg82
g2082
sg75
(lp2089
g1052
asbag68
(g89
g70
NtRp2090
(dp2091
g73
(dp2092
g100
g101
ssg82
g2082
sg75
(lp2093
S':'
asbag68
(g89
g70
NtRp2094
(dp2095
g73
(dp2096
sg82
g2082
sg75
(lp2097
g68
(g69
g70
NtRp2098
(dp2099
g73
(dp2100
g81
I4
ssg82
g2094
sg75
(lp2101
g1065
asbasbasbag68
(g84
g70
NtRp2102
(dp2103
g73
(dp2104
sg82
g2057
sg75
(lp2105
g68
(g89
g70
NtRp2106
(dp2107
g73
(dp2108
g93
g94
ssg82
g2102
sg75
(lp2109
g1074
asbag68
(g89
g70
NtRp2110
(dp2111
g73
(dp2112
g100
g101
ssg82
g2102
sg75
(lp2113
S':'
asbag68
(g89
g70
NtRp2114
(dp2115
g73
(dp2116
sg82
g2102
sg75
(lp2117
g68
(g69
g70
NtRp2118
(dp2119
g73
(dp2120
g81
I4
ssg82
g2114
sg75
(lp2121
g68
(g77
g70
NtRp2122
(dp2123
g73
(dp2124
g81
I3
ssg82
Nsg75
(lp2125
sbasbasbasbag68
(g84
g70
NtRp2126
(dp2127
g73
(dp2128
sg82
g2057
sg75
(lp2129
g68
(g89
g70
NtRp2130
(dp2131
g73
(dp2132
g93
g94
ssg82
g2126
sg75
(lp2133
g1099
asbag68
(g89
g70
NtRp2134
(dp2135
g73
(dp2136
g100
g101
ssg82
g2126
sg75
(lp2137
S':'
asbag68
(g89
g70
NtRp2138
(dp2139
g73
(dp2140
sg82
g2126
sg75
(lp2141
g68
(g69
g70
NtRp2142
(dp2143
g73
(dp2144
g81
I4
ssg82
g2138
sg75
(lp2145
S"<Values at 0x1bd6908: {'verbose': False, 'ip': '127.0.0.1', 'shutdown_timeout': 5, 'taskbar': False, 'nocron': False, 'pid_filename': 'httpserver.pid', 'maxthreads': None, 'softcron': False, 'server_name': 'malena', 'bpython': False, 'nogui': False, 'port': 8000, 'extcron': False, 'debuglevel': 30, 'test': None, 'folder': '/home/marco/flisol2012/web2py', 'config': '', 'import_models': False, 'winservice': '', 'shell': None, 'run': '', 'log_filename': 'httpserver.log', 'args': [''], 'socket_timeout': 5, 'ssl_ca_certificate': None, 'scheduler': None, 'profiler_filename': None, 'ssl_private_key': '', 'password': 'asd', 'request_queue_size': 5, 'ssl_certificate': '', 'cronjob': False, 'numthreads': None, 'quiet': False, 'interfaces': None, 'minthreads': None, 'timeout': 10, 'plain': False, 'nobanner': False}>"
p2146
asbasbasbag68
(g84
g70
NtRp2147
(dp2148
g73
(dp2149
sg82
g2057
sg75
(lp2150
g68
(g89
g70
NtRp2151
(dp2152
g73
(dp2153
g93
g94
ssg82
g2147
sg75
(lp2154
g1121
asbag68
(g89
g70
NtRp2155
(dp2156
g73
(dp2157
g100
g101
ssg82
g2147
sg75
(lp2158
S':'
asbag68
(g89
g70
NtRp2159
(dp2160
g73
(dp2161
sg82
g2147
sg75
(lp2162
g68
(g69
g70
NtRp2163
(dp2164
g73
(dp2165
g81
I4
ssg82
g2159
sg75
(lp2166
S'set([])'
p2167
asbasbasbag68
(g84
g70
NtRp2168
(dp2169
g73
(dp2170
sg82
g2057
sg75
(lp2171
g68
(g89
g70
NtRp2172
(dp2173
g73
(dp2174
g93
g94
ssg82
g2168
sg75
(lp2175
g1143
asbag68
(g89
g70
NtRp2176
(dp2177
g73
(dp2178
g100
g101
ssg82
g2168
sg75
(lp2179
S':'
asbag68
(g89
g70
NtRp2180
(dp2181
g73
(dp2182
sg82
g2168
sg75
(lp2183
g68
(g69
g70
NtRp2184
(dp2185
g73
(dp2186
g81
I4
ssg82
g2180
sg75
(lp2187
g111
asbasbasbag68
(g84
g70
NtRp2188
(dp2189
g73
(dp2190
sg82
g2057
sg75
(lp2191
g68
(g89
g70
NtRp2192
(dp2193
g73
(dp2194
g93
g94
ssg82
g2188
sg75
(lp2195
g1164
asbag68
(g89
g70
NtRp2196
(dp2197
g73
(dp2198
g100
g101
ssg82
g2188
sg75
(lp2199
S':'
asbag68
(g89
g70
NtRp2200
(dp2201
g73
(dp2202
sg82
g2188
sg75
(lp2203
g68
(g69
g70
NtRp2204
(dp2205
g73
(dp2206
g81
I4
ssg82
g2200
sg75
(lp2207
g1177
asbasbasbag68
(g84
g70
NtRp2208
(dp2209
g73
(dp2210
sg82
g2057
sg75
(lp2211
g68
(g89
g70
NtRp2212
(dp2213
g73
(dp2214
g93
g94
ssg82
g2208
sg75
(lp2215
g1362
asbag68
(g89
g70
NtRp2216
(dp2217
g73
(dp2218
g100
g101
ssg82
g2208
sg75
(lp2219
S':'
asbag68
(g89
g70
NtRp2220
(dp2221
g73
(dp2222
sg82
g2208
sg75
(lp2223
g68
(g69
g70
NtRp2224
(dp2225
g73
(dp2226
g81
I4
ssg82
g2220
sg75
(lp2227
g111
asbasbasbag68
(g84
g70
NtRp2228
(dp2229
g73
(dp2230
sg82
g2057
sg75
(lp2231
g68
(g89
g70
NtRp2232
(dp2233
g73
(dp2234
g93
g94
ssg82
g2228
sg75
(lp2235
g1383
asbag68
(g89
g70
NtRp2236
(dp2237
g73
(dp2238
g100
g101
ssg82
g2228
sg75
(lp2239
S':'
asbag68
(g89
g70
NtRp2240
(dp2241
g73
(dp2242
sg82
g2228
sg75
(lp2243
g68
(g69
g70
NtRp2244
(dp2245
g73
(dp2246
g81
I4
ssg82
g2240
sg75
(lp2247
g111
asbasbasbag68
(g84
g70
NtRp2248
(dp2249
g73
(dp2250
sg82
g2057
sg75
(lp2251
g68
(g89
g70
NtRp2252
(dp2253
g73
(dp2254
g93
g94
ssg82
g2248
sg75
(lp2255
g1621
asbag68
(g89
g70
NtRp2256
(dp2257
g73
(dp2258
g100
g101
ssg82
g2248
sg75
(lp2259
S':'
asbag68
(g89
g70
NtRp2260
(dp2261
g73
(dp2262
sg82
g2248
sg75
(lp2263
g68
(g69
g70
NtRp2264
(dp2265
g73
(dp2266
g81
I4
ssg82
g2260
sg75
(lp2267
g1634
asbasbasbag68
(g84
g70
NtRp2268
(dp2269
g73
(dp2270
sg82
g2057
sg75
(lp2271
g68
(g89
g70
NtRp2272
(dp2273
g73
(dp2274
g93
g94
ssg82
g2268
sg75
(lp2275
g1664
asbag68
(g89
g70
NtRp2276
(dp2277
g73
(dp2278
g100
g101
ssg82
g2268
sg75
(lp2279
S':'
asbag68
(g89
g70
NtRp2280
(dp2281
g73
(dp2282
sg82
g2268
sg75
(lp2283
g68
(g69
g70
NtRp2284
(dp2285
g73
(dp2286
g81
I4
ssg82
g2280
sg75
(lp2287
g68
(g77
g70
NtRp2288
(dp2289
g73
(dp2290
g81
I3
ssg82
Nsg75
(lp2291
g68
(g84
g70
NtRp2292
(dp2293
g73
(dp2294
sg82
g2288
sg75
(lp2295
g68
(g89
g70
NtRp2296
(dp2297
g73
(dp2298
sg82
g2292
sg75
(lp2299
g68
(g69
g70
NtRp2300
(dp2301
g73
(dp2302
g81
I3
ssg82
g2296
sg75
(lp2303
S'1'
asbasbasbag68
(g84
g70
NtRp2304
(dp2305
g73
(dp2306
sg82
g2288
sg75
(lp2307
g68
(g89
g70
NtRp2308
(dp2309
g73
(dp2310
sg82
g2304
sg75
(lp2311
g68
(g69
g70
NtRp2312
(dp2313
g73
(dp2314
g81
I3
ssg82
g2308
sg75
(lp2315
S'99'
p2316
asbasbasbag68
(g84
g70
NtRp2317
(dp2318
g73
(dp2319
sg82
g2288
sg75
(lp2320
g68
(g89
g70
NtRp2321
(dp2322
g73
(dp2323
sg82
g2317
sg75
(lp2324
g68
(g69
g70
NtRp2325
(dp2326
g73
(dp2327
g81
I3
ssg82
g2321
sg75
(lp2328
S'7'
asbasbasbag68
(g84
g70
NtRp2329
(dp2330
g73
(dp2331
sg82
g2288
sg75
(lp2332
g68
(g89
g70
NtRp2333
(dp2334
g73
(dp2335
sg82
g2329
sg75
(lp2336
g68
(g69
g70
NtRp2337
(dp2338
g73
(dp2339
g81
I3
ssg82
g2333
sg75
(lp2340
S'datetime.datetime(2012, 3, 4, 22, 12, 8)'
p2341
asbasbasbag68
(g84
g70
NtRp2342
(dp2343
g73
(dp2344
sg82
g2288
sg75
(lp2345
g68
(g89
g70
NtRp2346
(dp2347
g73
(dp2348
sg82
g2342
sg75
(lp2349
g68
(g69
g70
NtRp2350
(dp2351
g73
(dp2352
g81
I3
ssg82
g2346
sg75
(lp2353
g1743
asbasbasbasbasbasbasbasbasbasbasbag68
(g84
g70
NtRp2354
(dp2355
g73
(dp2356
sg82
g78
sg75
(lp2357
g68
(g89
g70
NtRp2358
(dp2359
g73
(dp2360
g93
g94
ssg82
g2354
sg75
(lp2361
S'is_https'
p2362
asbag68
(g89
g70
NtRp2363
(dp2364
g73
(dp2365
g100
g101
ssg82
g2354
sg75
(lp2366
S':'
asbag68
(g89
g70
NtRp2367
(dp2368
g73
(dp2369
sg82
g2354
sg75
(lp2370
g68
(g69
g70
NtRp2371
(dp2372
g73
(dp2373
g81
I5
ssg82
g2367
sg75
(lp2374
g111
asbasbasbag68
(g84
g70
NtRp2375
(dp2376
g73
(dp2377
sg82
g78
sg75
(lp2378
g68
(g89
g70
NtRp2379
(dp2380
g73
(dp2381
g93
g94
ssg82
g2375
sg75
(lp2382
S'is_local'
p2383
asbag68
(g89
g70
NtRp2384
(dp2385
g73
(dp2386
g100
g101
ssg82
g2375
sg75
(lp2387
S':'
asbag68
(g89
g70
NtRp2388
(dp2389
g73
(dp2390
sg82
g2375
sg75
(lp2391
g68
(g69
g70
NtRp2392
(dp2393
g73
(dp2394
g81
I5
ssg82
g2388
sg75
(lp2395
g1852
asbasbasbag68
(g84
g70
NtRp2396
(dp2397
g73
(dp2398
sg82
g78
sg75
(lp2399
g68
(g89
g70
NtRp2400
(dp2401
g73
(dp2402
g93
g94
ssg82
g2396
sg75
(lp2403
S'is_restful'
p2404
asbag68
(g89
g70
NtRp2405
(dp2406
g73
(dp2407
g100
g101
ssg82
g2396
sg75
(lp2408
S':'
asbag68
(g89
g70
NtRp2409
(dp2410
g73
(dp2411
sg82
g2396
sg75
(lp2412
g68
(g69
g70
NtRp2413
(dp2414
g73
(dp2415
g81
I5
ssg82
g2409
sg75
(lp2416
g111
asbasbasbag68
(g84
g70
NtRp2417
(dp2418
g73
(dp2419
sg82
g78
sg75
(lp2420
g68
(g89
g70
NtRp2421
(dp2422
g73
(dp2423
g93
g94
ssg82
g2417
sg75
(lp2424
S'now'
p2425
asbag68
(g89
g70
NtRp2426
(dp2427
g73
(dp2428
g100
g101
ssg82
g2417
sg75
(lp2429
S':'
asbag68
(g89
g70
NtRp2430
(dp2431
g73
(dp2432
sg82
g2417
sg75
(lp2433
g68
(g69
g70
NtRp2434
(dp2435
g73
(dp2436
g81
I5
ssg82
g2430
sg75
(lp2437
S'datetime.datetime(2012, 3, 9, 18, 38, 4, 179809)'
p2438
asbasbasbag68
(g84
g70
NtRp2439
(dp2440
g73
(dp2441
sg82
g78
sg75
(lp2442
g68
(g89
g70
NtRp2443
(dp2444
g73
(dp2445
g93
g94
ssg82
g2439
sg75
(lp2446
S'post_vars'
p2447
asbag68
(g89
g70
NtRp2448
(dp2449
g73
(dp2450
g100
g101
ssg82
g2439
sg75
(lp2451
S':'
asbag68
(g89
g70
NtRp2452
(dp2453
g73
(dp2454
sg82
g2439
sg75
(lp2455
g68
(g69
g70
NtRp2456
(dp2457
g73
(dp2458
g81
I5
ssg82
g2452
sg75
(lp2459
g68
(g77
g70
NtRp2460
(dp2461
g73
(dp2462
g81
I4
ssg82
Nsg75
(lp2463
sbasbasbasbag68
(g84
g70
NtRp2464
(dp2465
g73
(dp2466
sg82
g78
sg75
(lp2467
g68
(g89
g70
NtRp2468
(dp2469
g73
(dp2470
g93
g94
ssg82
g2464
sg75
(lp2471
S'url'
p2472
asbag68
(g89
g70
NtRp2473
(dp2474
g73
(dp2475
g100
g101
ssg82
g2464
sg75
(lp2476
S':'
asbag68
(g89
g70
NtRp2477
(dp2478
g73
(dp2479
sg82
g2464
sg75
(lp2480
g68
(g69
g70
NtRp2481
(dp2482
g73
(dp2483
g81
I5
ssg82
g2477
sg75
(lp2484
S'/flisol2012/default/index'
p2485
asbasbasbag68
(g84
g70
NtRp2486
(dp2487
g73
(dp2488
sg82
g78
sg75
(lp2489
g68
(g89
g70
NtRp2490
(dp2491
g73
(dp2492
g93
g94
ssg82
g2486
sg75
(lp2493
S'utcnow'
p2494
asbag68
(g89
g70
NtRp2495
(dp2496
g73
(dp2497
g100
g101
ssg82
g2486
sg75
(lp2498
S':'
asbag68
(g89
g70
NtRp2499
(dp2500
g73
(dp2501
sg82
g2486
sg75
(lp2502
g68
(g69
g70
NtRp2503
(dp2504
g73
(dp2505
g81
I5
ssg82
g2499
sg75
(lp2506
S'datetime.datetime(2012, 3, 9, 21, 38, 4, 179849)'
p2507
asbasbasbag68
(g84
g70
NtRp2508
(dp2509
g73
(dp2510
sg82
g78
sg75
(lp2511
g68
(g89
g70
NtRp2512
(dp2513
g73
(dp2514
g93
g94
ssg82
g2508
sg75
(lp2515
S'uuid'
p2516
asbag68
(g89
g70
NtRp2517
(dp2518
g73
(dp2519
g100
g101
ssg82
g2508
sg75
(lp2520
S':'
asbag68
(g89
g70
NtRp2521
(dp2522
g73
(dp2523
sg82
g2508
sg75
(lp2524
g68
(g69
g70
NtRp2525
(dp2526
g73
(dp2527
g81
I5
ssg82
g2521
sg75
(lp2528
S'flisol2012/127.0.0.1.2012-03-09.18-38-04.ff34323a-2be4-48cb-ac43-cd8f5e062387'
p2529
asbasbasbag68
(g84
g70
NtRp2530
(dp2531
g73
(dp2532
sg82
g78
sg75
(lp2533
g68
(g89
g70
NtRp2534
(dp2535
g73
(dp2536
g93
g94
ssg82
g2530
sg75
(lp2537
S'vars'
p2538
asbag68
(g89
g70
NtRp2539
(dp2540
g73
(dp2541
g100
g101
ssg82
g2530
sg75
(lp2542
S':'
asbag68
(g89
g70
NtRp2543
(dp2544
g73
(dp2545
sg82
g2530
sg75
(lp2546
g68
(g69
g70
NtRp2547
(dp2548
g73
(dp2549
g81
I5
ssg82
g2543
sg75
(lp2550
g68
(g77
g70
NtRp2551
(dp2552
g73
(dp2553
g81
I4
ssg82
Nsg75
(lp2554
sbasbasbasbag68
(g84
g70
NtRp2555
(dp2556
g73
(dp2557
sg82
g78
sg75
(lp2558
g68
(g89
g70
NtRp2559
(dp2560
g73
(dp2561
g93
g94
ssg82
g2555
sg75
(lp2562
S'wsgi'
p2563
asbag68
(g89
g70
NtRp2564
(dp2565
g73
(dp2566
g100
g101
ssg82
g2555
sg75
(lp2567
S':'
asbag68
(g89
g70
NtRp2568
(dp2569
g73
(dp2570
sg82
g2555
sg75
(lp2571
g68
(g69
g70
NtRp2572
(dp2573
g73
(dp2574
g81
I5
ssg82
g2568
sg75
(lp2575
g68
(g77
g70
NtRp2576
(dp2577
g73
(dp2578
g81
I4
ssg82
Nsg75
(lp2579
g68
(g84
g70
NtRp2580
(dp2581
g73
(dp2582
sg82
g2576
sg75
(lp2583
g68
(g89
g70
NtRp2584
(dp2585
g73
(dp2586
g93
g94
ssg82
g2580
sg75
(lp2587
S'environ'
p2588
asbag68
(g89
g70
NtRp2589
(dp2590
g73
(dp2591
g100
g101
ssg82
g2580
sg75
(lp2592
S':'
asbag68
(g89
g70
NtRp2593
(dp2594
g73
(dp2595
sg82
g2580
sg75
(lp2596
g68
(g69
g70
NtRp2597
(dp2598
g73
(dp2599
g81
I4
ssg82
g2593
sg75
(lp2600
g68
(g77
g70
NtRp2601
(dp2602
g73
(dp2603
g81
I3
ssg82
Nsg75
(lp2604
g68
(g84
g70
NtRp2605
(dp2606
g73
(dp2607
sg82
g2601
sg75
(lp2608
g68
(g89
g70
NtRp2609
(dp2610
g73
(dp2611
g93
g94
ssg82
g2605
sg75
(lp2612
S'HTTP_ACCEPT'
p2613
asbag68
(g89
g70
NtRp2614
(dp2615
g73
(dp2616
g100
g101
ssg82
g2605
sg75
(lp2617
S':'
asbag68
(g89
g70
NtRp2618
(dp2619
g73
(dp2620
sg82
g2605
sg75
(lp2621
g68
(g69
g70
NtRp2622
(dp2623
g73
(dp2624
g81
I3
ssg82
g2618
sg75
(lp2625
g1199
asbasbasbag68
(g84
g70
NtRp2626
(dp2627
g73
(dp2628
sg82
g2601
sg75
(lp2629
g68
(g89
g70
NtRp2630
(dp2631
g73
(dp2632
g93
g94
ssg82
g2626
sg75
(lp2633
S'HTTP_ACCEPT_ENCODING'
p2634
asbag68
(g89
g70
NtRp2635
(dp2636
g73
(dp2637
g100
g101
ssg82
g2626
sg75
(lp2638
S':'
asbag68
(g89
g70
NtRp2639
(dp2640
g73
(dp2641
sg82
g2626
sg75
(lp2642
g68
(g69
g70
NtRp2643
(dp2644
g73
(dp2645
g81
I3
ssg82
g2639
sg75
(lp2646
g1221
asbasbasbag68
(g84
g70
NtRp2647
(dp2648
g73
(dp2649
sg82
g2601
sg75
(lp2650
g68
(g89
g70
NtRp2651
(dp2652
g73
(dp2653
g93
g94
ssg82
g2647
sg75
(lp2654
S'HTTP_ACCEPT_LANGUAGE'
p2655
asbag68
(g89
g70
NtRp2656
(dp2657
g73
(dp2658
g100
g101
ssg82
g2647
sg75
(lp2659
S':'
asbag68
(g89
g70
NtRp2660
(dp2661
g73
(dp2662
sg82
g2647
sg75
(lp2663
g68
(g69
g70
NtRp2664
(dp2665
g73
(dp2666
g81
I3
ssg82
g2660
sg75
(lp2667
g1243
asbasbasbag68
(g84
g70
NtRp2668
(dp2669
g73
(dp2670
sg82
g2601
sg75
(lp2671
g68
(g89
g70
NtRp2672
(dp2673
g73
(dp2674
g93
g94
ssg82
g2668
sg75
(lp2675
S'HTTP_CONNECTION'
p2676
asbag68
(g89
g70
NtRp2677
(dp2678
g73
(dp2679
g100
g101
ssg82
g2668
sg75
(lp2680
S':'
asbag68
(g89
g70
NtRp2681
(dp2682
g73
(dp2683
sg82
g2668
sg75
(lp2684
g68
(g69
g70
NtRp2685
(dp2686
g73
(dp2687
g81
I3
ssg82
g2681
sg75
(lp2688
g1265
asbasbasbag68
(g84
g70
NtRp2689
(dp2690
g73
(dp2691
sg82
g2601
sg75
(lp2692
g68
(g89
g70
NtRp2693
(dp2694
g73
(dp2695
g93
g94
ssg82
g2689
sg75
(lp2696
S'HTTP_COOKIE'
p2697
asbag68
(g89
g70
NtRp2698
(dp2699
g73
(dp2700
g100
g101
ssg82
g2689
sg75
(lp2701
S':'
asbag68
(g89
g70
NtRp2702
(dp2703
g73
(dp2704
sg82
g2689
sg75
(lp2705
g68
(g69
g70
NtRp2706
(dp2707
g73
(dp2708
g81
I3
ssg82
g2702
sg75
(lp2709
g1287
asbasbasbag68
(g84
g70
NtRp2710
(dp2711
g73
(dp2712
sg82
g2601
sg75
(lp2713
g68
(g89
g70
NtRp2714
(dp2715
g73
(dp2716
g93
g94
ssg82
g2710
sg75
(lp2717
S'HTTP_HOST'
p2718
asbag68
(g89
g70
NtRp2719
(dp2720
g73
(dp2721
g100
g101
ssg82
g2710
sg75
(lp2722
S':'
asbag68
(g89
g70
NtRp2723
(dp2724
g73
(dp2725
sg82
g2710
sg75
(lp2726
g68
(g69
g70
NtRp2727
(dp2728
g73
(dp2729
g81
I3
ssg82
g2723
sg75
(lp2730
g1309
asbasbasbag68
(g84
g70
NtRp2731
(dp2732
g73
(dp2733
sg82
g2601
sg75
(lp2734
g68
(g89
g70
NtRp2735
(dp2736
g73
(dp2737
g93
g94
ssg82
g2731
sg75
(lp2738
S'HTTP_REFERER'
p2739
asbag68
(g89
g70
NtRp2740
(dp2741
g73
(dp2742
g100
g101
ssg82
g2731
sg75
(lp2743
S':'
asbag68
(g89
g70
NtRp2744
(dp2745
g73
(dp2746
sg82
g2731
sg75
(lp2747
g68
(g69
g70
NtRp2748
(dp2749
g73
(dp2750
g81
I3
ssg82
g2744
sg75
(lp2751
g1331
asbasbasbag68
(g84
g70
NtRp2752
(dp2753
g73
(dp2754
sg82
g2601
sg75
(lp2755
g68
(g89
g70
NtRp2756
(dp2757
g73
(dp2758
g93
g94
ssg82
g2752
sg75
(lp2759
S'HTTP_USER_AGENT'
p2760
asbag68
(g89
g70
NtRp2761
(dp2762
g73
(dp2763
g100
g101
ssg82
g2752
sg75
(lp2764
S':'
asbag68
(g89
g70
NtRp2765
(dp2766
g73
(dp2767
sg82
g2752
sg75
(lp2768
g68
(g69
g70
NtRp2769
(dp2770
g73
(dp2771
g81
I3
ssg82
g2765
sg75
(lp2772
g1353
asbasbasbag68
(g84
g70
NtRp2773
(dp2774
g73
(dp2775
sg82
g2601
sg75
(lp2776
g68
(g89
g70
NtRp2777
(dp2778
g73
(dp2779
g93
g94
ssg82
g2773
sg75
(lp2780
S'PATH_INFO'
p2781
asbag68
(g89
g70
NtRp2782
(dp2783
g73
(dp2784
g100
g101
ssg82
g2773
sg75
(lp2785
S':'
asbag68
(g89
g70
NtRp2786
(dp2787
g73
(dp2788
sg82
g2773
sg75
(lp2789
g68
(g69
g70
NtRp2790
(dp2791
g73
(dp2792
g81
I3
ssg82
g2786
sg75
(lp2793
g1417
asbasbasbag68
(g84
g70
NtRp2794
(dp2795
g73
(dp2796
sg82
g2601
sg75
(lp2797
g68
(g89
g70
NtRp2798
(dp2799
g73
(dp2800
g93
g94
ssg82
g2794
sg75
(lp2801
S'QUERY_STRING'
p2802
asbag68
(g89
g70
NtRp2803
(dp2804
g73
(dp2805
g100
g101
ssg82
g2794
sg75
(lp2806
S':'
asbag68
(g89
g70
NtRp2807
(dp2808
g73
(dp2809
sg82
g2794
sg75
(lp2810
g68
(g69
g70
NtRp2811
(dp2812
g73
(dp2813
g81
I3
ssg82
g2807
sg75
(lp2814
S''
asbasbasbag68
(g84
g70
NtRp2815
(dp2816
g73
(dp2817
sg82
g2601
sg75
(lp2818
g68
(g89
g70
NtRp2819
(dp2820
g73
(dp2821
g93
g94
ssg82
g2815
sg75
(lp2822
S'REMOTE_ADDR'
p2823
asbag68
(g89
g70
NtRp2824
(dp2825
g73
(dp2826
g100
g101
ssg82
g2815
sg75
(lp2827
S':'
asbag68
(g89
g70
NtRp2828
(dp2829
g73
(dp2830
sg82
g2815
sg75
(lp2831
g68
(g69
g70
NtRp2832
(dp2833
g73
(dp2834
g81
I3
ssg82
g2828
sg75
(lp2835
g201
asbasbasbag68
(g84
g70
NtRp2836
(dp2837
g73
(dp2838
sg82
g2601
sg75
(lp2839
g68
(g89
g70
NtRp2840
(dp2841
g73
(dp2842
g93
g94
ssg82
g2836
sg75
(lp2843
S'REMOTE_PORT'
p2844
asbag68
(g89
g70
NtRp2845
(dp2846
g73
(dp2847
g100
g101
ssg82
g2836
sg75
(lp2848
S':'
asbag68
(g89
g70
NtRp2849
(dp2850
g73
(dp2851
sg82
g2836
sg75
(lp2852
g68
(g69
g70
NtRp2853
(dp2854
g73
(dp2855
g81
I3
ssg82
g2849
sg75
(lp2856
g1481
asbasbasbag68
(g84
g70
NtRp2857
(dp2858
g73
(dp2859
sg82
g2601
sg75
(lp2860
g68
(g89
g70
NtRp2861
(dp2862
g73
(dp2863
g93
g94
ssg82
g2857
sg75
(lp2864
S'REQUEST_METHOD'
p2865
asbag68
(g89
g70
NtRp2866
(dp2867
g73
(dp2868
g100
g101
ssg82
g2857
sg75
(lp2869
S':'
asbag68
(g89
g70
NtRp2870
(dp2871
g73
(dp2872
sg82
g2857
sg75
(lp2873
g68
(g69
g70
NtRp2874
(dp2875
g73
(dp2876
g81
I3
ssg82
g2870
sg75
(lp2877
g1503
asbasbasbag68
(g84
g70
NtRp2878
(dp2879
g73
(dp2880
sg82
g2601
sg75
(lp2881
g68
(g89
g70
NtRp2882
(dp2883
g73
(dp2884
g93
g94
ssg82
g2878
sg75
(lp2885
S'SCRIPT_NAME'
p2886
asbag68
(g89
g70
NtRp2887
(dp2888
g73
(dp2889
g100
g101
ssg82
g2878
sg75
(lp2890
S':'
asbag68
(g89
g70
NtRp2891
(dp2892
g73
(dp2893
sg82
g2878
sg75
(lp2894
g68
(g69
g70
NtRp2895
(dp2896
g73
(dp2897
g81
I3
ssg82
g2891
sg75
(lp2898
S''
asbasbasbag68
(g84
g70
NtRp2899
(dp2900
g73
(dp2901
sg82
g2601
sg75
(lp2902
g68
(g89
g70
NtRp2903
(dp2904
g73
(dp2905
g93
g94
ssg82
g2899
sg75
(lp2906
S'SERVER_NAME'
p2907
asbag68
(g89
g70
NtRp2908
(dp2909
g73
(dp2910
g100
g101
ssg82
g2899
sg75
(lp2911
S':'
asbag68
(g89
g70
NtRp2912
(dp2913
g73
(dp2914
sg82
g2899
sg75
(lp2915
g68
(g69
g70
NtRp2916
(dp2917
g73
(dp2918
g81
I3
ssg82
g2912
sg75
(lp2919
g1546
asbasbasbag68
(g84
g70
NtRp2920
(dp2921
g73
(dp2922
sg82
g2601
sg75
(lp2923
g68
(g89
g70
NtRp2924
(dp2925
g73
(dp2926
g93
g94
ssg82
g2920
sg75
(lp2927
S'SERVER_PORT'
p2928
asbag68
(g89
g70
NtRp2929
(dp2930
g73
(dp2931
g100
g101
ssg82
g2920
sg75
(lp2932
S':'
asbag68
(g89
g70
NtRp2933
(dp2934
g73
(dp2935
sg82
g2920
sg75
(lp2936
g68
(g69
g70
NtRp2937
(dp2938
g73
(dp2939
g81
I3
ssg82
g2933
sg75
(lp2940
g1568
asbasbasbag68
(g84
g70
NtRp2941
(dp2942
g73
(dp2943
sg82
g2601
sg75
(lp2944
g68
(g89
g70
NtRp2945
(dp2946
g73
(dp2947
g93
g94
ssg82
g2941
sg75
(lp2948
S'SERVER_PROTOCOL'
p2949
asbag68
(g89
g70
NtRp2950
(dp2951
g73
(dp2952
g100
g101
ssg82
g2941
sg75
(lp2953
S':'
asbag68
(g89
g70
NtRp2954
(dp2955
g73
(dp2956
sg82
g2941
sg75
(lp2957
g68
(g69
g70
NtRp2958
(dp2959
g73
(dp2960
g81
I3
ssg82
g2954
sg75
(lp2961
g1590
asbasbasbag68
(g84
g70
NtRp2962
(dp2963
g73
(dp2964
sg82
g2601
sg75
(lp2965
g68
(g89
g70
NtRp2966
(dp2967
g73
(dp2968
g93
g94
ssg82
g2962
sg75
(lp2969
S'SERVER_SOFTWARE'
p2970
asbag68
(g89
g70
NtRp2971
(dp2972
g73
(dp2973
g100
g101
ssg82
g2962
sg75
(lp2974
S':'
asbag68
(g89
g70
NtRp2975
(dp2976
g73
(dp2977
sg82
g2962
sg75
(lp2978
g68
(g69
g70
NtRp2979
(dp2980
g73
(dp2981
g81
I3
ssg82
g2975
sg75
(lp2982
g1612
asbasbasbag68
(g84
g70
NtRp2983
(dp2984
g73
(dp2985
sg82
g2601
sg75
(lp2986
g68
(g89
g70
NtRp2987
(dp2988
g73
(dp2989
g93
g94
ssg82
g2983
sg75
(lp2990
S'wsgi.errors'
p2991
asbag68
(g89
g70
NtRp2992
(dp2993
g73
(dp2994
g100
g101
ssg82
g2983
sg75
(lp2995
S':'
asbag68
(g89
g70
NtRp2996
(dp2997
g73
(dp2998
sg82
g2983
sg75
(lp2999
g68
(g69
g70
NtRp3000
(dp3001
g73
(dp3002
g81
I3
ssg82
g2996
sg75
(lp3003
S"<open file '<stderr>', mode 'w' at 0x7f4f2366f270>"
p3004
asbasbasbag68
(g84
g70
NtRp3005
(dp3006
g73
(dp3007
sg82
g2601
sg75
(lp3008
g68
(g89
g70
NtRp3009
(dp3010
g73
(dp3011
g93
g94
ssg82
g3005
sg75
(lp3012
S'wsgi.file_wrapper'
p3013
asbag68
(g89
g70
NtRp3014
(dp3015
g73
(dp3016
g100
g101
ssg82
g3005
sg75
(lp3017
S':'
asbag68
(g89
g70
NtRp3018
(dp3019
g73
(dp3020
sg82
g3005
sg75
(lp3021
g68
(g69
g70
NtRp3022
(dp3023
g73
(dp3024
g81
I3
ssg82
g3018
sg75
(lp3025
S'<class wsgiref.util.FileWrapper at 0x1abc460>'
p3026
asbasbasbag68
(g84
g70
NtRp3027
(dp3028
g73
(dp3029
sg82
g2601
sg75
(lp3030
g68
(g89
g70
NtRp3031
(dp3032
g73
(dp3033
g93
g94
ssg82
g3027
sg75
(lp3034
S'wsgi.input'
p3035
asbag68
(g89
g70
NtRp3036
(dp3037
g73
(dp3038
g100
g101
ssg82
g3027
sg75
(lp3039
S':'
asbag68
(g89
g70
NtRp3040
(dp3041
g73
(dp3042
sg82
g3027
sg75
(lp3043
g68
(g69
g70
NtRp3044
(dp3045
g73
(dp3046
g81
I3
ssg82
g3040
sg75
(lp3047
S'<cStringIO.StringO object at 0x2fbf8b8>'
p3048
asbasbasbag68
(g84
g70
NtRp3049
(dp3050
g73
(dp3051
sg82
g2601
sg75
(lp3052
g68
(g89
g70
NtRp3053
(dp3054
g73
(dp3055
g93
g94
ssg82
g3049
sg75
(lp3056
S'wsgi.multiprocess'
p3057
asbag68
(g89
g70
NtRp3058
(dp3059
g73
(dp3060
g100
g101
ssg82
g3049
sg75
(lp3061
S':'
asbag68
(g89
g70
NtRp3062
(dp3063
g73
(dp3064
sg82
g3049
sg75
(lp3065
g68
(g69
g70
NtRp3066
(dp3067
g73
(dp3068
g81
I3
ssg82
g3062
sg75
(lp3069
g111
asbasbasbag68
(g84
g70
NtRp3070
(dp3071
g73
(dp3072
sg82
g2601
sg75
(lp3073
g68
(g89
g70
NtRp3074
(dp3075
g73
(dp3076
g93
g94
ssg82
g3070
sg75
(lp3077
S'wsgi.multithread'
p3078
asbag68
(g89
g70
NtRp3079
(dp3080
g73
(dp3081
g100
g101
ssg82
g3070
sg75
(lp3082
S':'
asbag68
(g89
g70
NtRp3083
(dp3084
g73
(dp3085
sg82
g3070
sg75
(lp3086
g68
(g69
g70
NtRp3087
(dp3088
g73
(dp3089
g81
I3
ssg82
g3083
sg75
(lp3090
g1852
asbasbasbag68
(g84
g70
NtRp3091
(dp3092
g73
(dp3093
sg82
g2601
sg75
(lp3094
g68
(g89
g70
NtRp3095
(dp3096
g73
(dp3097
g93
g94
ssg82
g3091
sg75
(lp3098
S'wsgi.run_once'
p3099
asbag68
(g89
g70
NtRp3100
(dp3101
g73
(dp3102
g100
g101
ssg82
g3091
sg75
(lp3103
S':'
asbag68
(g89
g70
NtRp3104
(dp3105
g73
(dp3106
sg82
g3091
sg75
(lp3107
g68
(g69
g70
NtRp3108
(dp3109
g73
(dp3110
g81
I3
ssg82
g3104
sg75
(lp3111
g111
asbasbasbag68
(g84
g70
NtRp3112
(dp3113
g73
(dp3114
sg82
g2601
sg75
(lp3115
g68
(g89
g70
NtRp3116
(dp3117
g73
(dp3118
g93
g94
ssg82
g3112
sg75
(lp3119
S'wsgi.url_scheme'
p3120
asbag68
(g89
g70
NtRp3121
(dp3122
g73
(dp3123
g100
g101
ssg82
g3112
sg75
(lp3124
S':'
asbag68
(g89
g70
NtRp3125
(dp3126
g73
(dp3127
sg82
g3112
sg75
(lp3128
g68
(g69
g70
NtRp3129
(dp3130
g73
(dp3131
g81
I3
ssg82
g3125
sg75
(lp3132
g1895
asbasbasbag68
(g84
g70
NtRp3133
(dp3134
g73
(dp3135
sg82
g2601
sg75
(lp3136
g68
(g89
g70
NtRp3137
(dp3138
g73
(dp3139
g93
g94
ssg82
g3133
sg75
(lp3140
S'wsgi.version'
p3141
asbag68
(g89
g70
NtRp3142
(dp3143
g73
(dp3144
g100
g101
ssg82
g3133
sg75
(lp3145
S':'
asbag68
(g89
g70
NtRp3146
(dp3147
g73
(dp3148
sg82
g3133
sg75
(lp3149
g68
(g69
g70
NtRp3150
(dp3151
g73
(dp3152
g81
I3
ssg82
g3146
sg75
(lp3153
S'1'
asbasbasbasbasbasbasbasbasbasbasbasbasbsS'frames'
p3154
(lp3155
(dp3156
S'file'
p3157
S'/home/marco/flisol2012/web2py/gluon/restricted.py'
p3158
sS'dump'
p3159
(dp3160
S'code'
p3161
S'"# coding: utf8\\n\\nsession.manager=(auth.user and a...response.sidebar.append([T(\'Your Talks\'),talks])\\n"'
p3162
sS'layer'
p3163
S"'/home/marco/flisol2012/web2py/applications/flisol2012/models/menu.py'"
p3164
sS'global compile2'
p3165
S'<function compile2>'
p3166
sS'ccode'
p3167
S'undefined'
p3168
ssS'lnum'
p3169
I204
sS'lines'
p3170
(dp3171
I199
S"    environment['__name__'] = '__restricted__'"
p3172
sI200
S'    try:'
p3173
sI201
S'        if type(code) == types.CodeType:'
p3174
sI202
S'            ccode = code'
p3175
sI203
S'        else:'
p3176
sI204
S'            ccode = compile2(code,layer)'
p3177
sI205
S'        exec ccode in environment'
p3178
sI206
S'    except HTTP:'
p3179
sI207
S'        raise'
p3180
sI208
S'    except RestrictedError:'
p3181
ssS'call'
p3182
S'(code="# coding: utf8\\n\\nsession.manager=(auth.user and a...response.sidebar.append([T(\'Your Talks\'),talks])\\n", environment={\'A\': <class \'gluon.html.A\'>, \'ATTENDEE_TYPES\': ((\'gratis\', <lazyT \'Gratuito, $0\'>),), \'ATTENDEE_TYPE_COST\': {None: 0.0, \'gratis\': 0.0}, \'Auth\': <class \'gluon.tools.Auth\'>, \'B\': <class \'gluon.html.B\'>, \'BEAUTIFY\': <class \'gluon.html.BEAUTIFY\'>, \'BODY\': <class \'gluon.html.BODY\'>, \'BR\': <class \'gluon.html.BR\'>, \'BUTTON\': <class \'gluon.html.BUTTON\'>, \'CAT\': <class \'gluon.html.CAT\'>, ...}, layer=\'/home/marco/flisol2012/web2py/applications/flisol2012/models/menu.py\')'
p3183
sS'func'
p3184
S'restricted'
p3185
sa(dp3186
g3157
S'/home/marco/flisol2012/web2py/gluon/restricted.py'
p3187
sg3159
(dp3188
S'builtincompile'
p3189
S'<built-in function compile>'
p3190
sS'code'
p3191
S'"# coding: utf8\\n\\nsession.manager=(auth.user and a...response.sidebar.append([T(\'Your Talks\'),talks])\\n"'
p3192
sS'code.rstrip'
p3193
S'<built-in method rstrip of str object>'
p3194
sS').replace'
p3195
g3168
sS'layer'
p3196
S"'/home/marco/flisol2012/web2py/applications/flisol2012/models/menu.py'"
p3197
ssg3169
I189
sg3170
(dp3198
I192
S'    """'
p3199
sI193
S'    runs code in environment and returns the output. if an exception occurs'
p3200
sI184
S''
sI185
S'def compile2(code,layer):'
p3201
sI186
S'    """'
p3202
sI187
S"    The +'\\n' is necessary else compile fails when code ends in a comment."
p3203
sI188
S'    """'
p3204
sI189
S"    return compile(code.rstrip().replace('\\r\\n','\\n')+'\\n', layer, 'exec')"
p3205
sI190
S''
sI191
S"def restricted(code, environment=None, layer='Unknown'):"
p3206
ssg3182
S'(code="# coding: utf8\\n\\nsession.manager=(auth.user and a...response.sidebar.append([T(\'Your Talks\'),talks])\\n", layer=\'/home/marco/flisol2012/web2py/applications/flisol2012/models/menu.py\')'
p3207
sg3184
S'compile2'
p3208
sasS'pyver'
p3209
S'Python 2.7.2+: /usr/bin/python'
p3210
sS'session'
p3211
g68
(g69
g70
NtRp3212
(dp3213
g73
(dp3214
sg75
(lp3215
g68
(g77
g70
NtRp3216
(dp3217
g73
(dp3218
g81
I5
ssg82
Nsg75
(lp3219
g68
(g84
g70
NtRp3220
(dp3221
g73
(dp3222
sg82
g3216
sg75
(lp3223
g68
(g89
g70
NtRp3224
(dp3225
g73
(dp3226
g93
g94
ssg82
g3220
sg75
(lp3227
S'amount_added'
p3228
asbag68
(g89
g70
NtRp3229
(dp3230
g73
(dp3231
g100
g101
ssg82
g3220
sg75
(lp3232
S':'
asbag68
(g89
g70
NtRp3233
(dp3234
g73
(dp3235
sg82
g3220
sg75
(lp3236
g68
(g69
g70
NtRp3237
(dp3238
g73
(dp3239
g81
I5
ssg82
g3233
sg75
(lp3240
S'0.0'
p3241
asbasbasbag68
(g84
g70
NtRp3242
(dp3243
g73
(dp3244
sg82
g3216
sg75
(lp3245
g68
(g89
g70
NtRp3246
(dp3247
g73
(dp3248
g93
g94
ssg82
g3242
sg75
(lp3249
S'amount_billed'
p3250
asbag68
(g89
g70
NtRp3251
(dp3252
g73
(dp3253
g100
g101
ssg82
g3242
sg75
(lp3254
S':'
asbag68
(g89
g70
NtRp3255
(dp3256
g73
(dp3257
sg82
g3242
sg75
(lp3258
g68
(g69
g70
NtRp3259
(dp3260
g73
(dp3261
g81
I5
ssg82
g3255
sg75
(lp3262
S'0.0'
p3263
asbasbasbag68
(g84
g70
NtRp3264
(dp3265
g73
(dp3266
sg82
g3216
sg75
(lp3267
g68
(g89
g70
NtRp3268
(dp3269
g73
(dp3270
g93
g94
ssg82
g3264
sg75
(lp3271
S'amount_paid'
p3272
asbag68
(g89
g70
NtRp3273
(dp3274
g73
(dp3275
g100
g101
ssg82
g3264
sg75
(lp3276
S':'
asbag68
(g89
g70
NtRp3277
(dp3278
g73
(dp3279
sg82
g3264
sg75
(lp3280
g68
(g69
g70
NtRp3281
(dp3282
g73
(dp3283
g81
I5
ssg82
g3277
sg75
(lp3284
S'0.0'
p3285
asbasbasbag68
(g84
g70
NtRp3286
(dp3287
g73
(dp3288
sg82
g3216
sg75
(lp3289
g68
(g89
g70
NtRp3290
(dp3291
g73
(dp3292
g93
g94
ssg82
g3286
sg75
(lp3293
S'amount_subtracted'
p3294
asbag68
(g89
g70
NtRp3295
(dp3296
g73
(dp3297
g100
g101
ssg82
g3286
sg75
(lp3298
S':'
asbag68
(g89
g70
NtRp3299
(dp3300
g73
(dp3301
sg82
g3286
sg75
(lp3302
g68
(g69
g70
NtRp3303
(dp3304
g73
(dp3305
g81
I5
ssg82
g3299
sg75
(lp3306
S'0.0'
p3307
asbasbasbag68
(g84
g70
NtRp3308
(dp3309
g73
(dp3310
sg82
g3216
sg75
(lp3311
g68
(g89
g70
NtRp3312
(dp3313
g73
(dp3314
g93
g94
ssg82
g3308
sg75
(lp3315
S'auth'
p3316
asbag68
(g89
g70
NtRp3317
(dp3318
g73
(dp3319
g100
g101
ssg82
g3308
sg75
(lp3320
S':'
asbag68
(g89
g70
NtRp3321
(dp3322
g73
(dp3323
sg82
g3308
sg75
(lp3324
g68
(g69
g70
NtRp3325
(dp3326
g73
(dp3327
g81
I5
ssg82
g3321
sg75
(lp3328
g68
(g77
g70
NtRp3329
(dp3330
g73
(dp3331
g81
I4
ssg82
Nsg75
(lp3332
g68
(g84
g70
NtRp3333
(dp3334
g73
(dp3335
sg82
g3329
sg75
(lp3336
g68
(g89
g70
NtRp3337
(dp3338
g73
(dp3339
g93
g94
ssg82
g3333
sg75
(lp3340
S'expiration'
p3341
asbag68
(g89
g70
NtRp3342
(dp3343
g73
(dp3344
g100
g101
ssg82
g3333
sg75
(lp3345
S':'
asbag68
(g89
g70
NtRp3346
(dp3347
g73
(dp3348
sg82
g3333
sg75
(lp3349
g68
(g69
g70
NtRp3350
(dp3351
g73
(dp3352
g81
I4
ssg82
g3346
sg75
(lp3353
S'3600'
p3354
asbasbasbag68
(g84
g70
NtRp3355
(dp3356
g73
(dp3357
sg82
g3329
sg75
(lp3358
g68
(g89
g70
NtRp3359
(dp3360
g73
(dp3361
g93
g94
ssg82
g3355
sg75
(lp3362
S'hmac_key'
p3363
asbag68
(g89
g70
NtRp3364
(dp3365
g73
(dp3366
g100
g101
ssg82
g3355
sg75
(lp3367
S':'
asbag68
(g89
g70
NtRp3368
(dp3369
g73
(dp3370
sg82
g3355
sg75
(lp3371
g68
(g69
g70
NtRp3372
(dp3373
g73
(dp3374
g81
I4
ssg82
g3368
sg75
(lp3375
S'045d0b9c-7347-403d-bb13-cdac39166793'
p3376
asbasbasbag68
(g84
g70
NtRp3377
(dp3378
g73
(dp3379
sg82
g3329
sg75
(lp3380
g68
(g89
g70
NtRp3381
(dp3382
g73
(dp3383
g93
g94
ssg82
g3377
sg75
(lp3384
S'last_visit'
p3385
asbag68
(g89
g70
NtRp3386
(dp3387
g73
(dp3388
g100
g101
ssg82
g3377
sg75
(lp3389
S':'
asbag68
(g89
g70
NtRp3390
(dp3391
g73
(dp3392
sg82
g3377
sg75
(lp3393
g68
(g69
g70
NtRp3394
(dp3395
g73
(dp3396
g81
I4
ssg82
g3390
sg75
(lp3397
S'datetime.datetime(2012, 3, 9, 18, 38, 4, 179809)'
p3398
asbasbasbag68
(g84
g70
NtRp3399
(dp3400
g73
(dp3401
sg82
g3329
sg75
(lp3402
g68
(g89
g70
NtRp3403
(dp3404
g73
(dp3405
g93
g94
ssg82
g3399
sg75
(lp3406
S'remember'
p3407
asbag68
(g89
g70
NtRp3408
(dp3409
g73
(dp3410
g100
g101
ssg82
g3399
sg75
(lp3411
S':'
asbag68
(g89
g70
NtRp3412
(dp3413
g73
(dp3414
sg82
g3399
sg75
(lp3415
g68
(g69
g70
NtRp3416
(dp3417
g73
(dp3418
g81
I4
ssg82
g3412
sg75
(lp3419
g111
asbasbasbag68
(g84
g70
NtRp3420
(dp3421
g73
(dp3422
sg82
g3329
sg75
(lp3423
g68
(g89
g70
NtRp3424
(dp3425
g73
(dp3426
g93
g94
ssg82
g3420
sg75
(lp3427
S'user'
p3428
asbag68
(g89
g70
NtRp3429
(dp3430
g73
(dp3431
g100
g101
ssg82
g3420
sg75
(lp3432
S':'
asbag68
(g89
g70
NtRp3433
(dp3434
g73
(dp3435
sg82
g3420
sg75
(lp3436
g68
(g69
g70
NtRp3437
(dp3438
g73
(dp3439
g81
I4
ssg82
g3433
sg75
(lp3440
g68
(g77
g70
NtRp3441
(dp3442
g73
(dp3443
g81
I3
ssg82
Nsg75
(lp3444
g68
(g84
g70
NtRp3445
(dp3446
g73
(dp3447
sg82
g3441
sg75
(lp3448
g68
(g89
g70
NtRp3449
(dp3450
g73
(dp3451
g93
g94
ssg82
g3445
sg75
(lp3452
S'address'
p3453
asbag68
(g89
g70
NtRp3454
(dp3455
g73
(dp3456
g100
g101
ssg82
g3445
sg75
(lp3457
S':'
asbag68
(g89
g70
NtRp3458
(dp3459
g73
(dp3460
sg82
g3445
sg75
(lp3461
g68
(g69
g70
NtRp3462
(dp3463
g73
(dp3464
g81
I3
ssg82
g3458
sg75
(lp3465
S'Santa Lucia S/N'
p3466
asbasbasbag68
(g84
g70
NtRp3467
(dp3468
g73
(dp3469
sg82
g3441
sg75
(lp3470
g68
(g89
g70
NtRp3471
(dp3472
g73
(dp3473
g93
g94
ssg82
g3467
sg75
(lp3474
S'amount_added'
p3475
asbag68
(g89
g70
NtRp3476
(dp3477
g73
(dp3478
g100
g101
ssg82
g3467
sg75
(lp3479
S':'
asbag68
(g89
g70
NtRp3480
(dp3481
g73
(dp3482
sg82
g3467
sg75
(lp3483
g68
(g69
g70
NtRp3484
(dp3485
g73
(dp3486
g81
I3
ssg82
g3480
sg75
(lp3487
S'0.0'
p3488
asbasbasbag68
(g84
g70
NtRp3489
(dp3490
g73
(dp3491
sg82
g3441
sg75
(lp3492
g68
(g89
g70
NtRp3493
(dp3494
g73
(dp3495
g93
g94
ssg82
g3489
sg75
(lp3496
S'amount_billed'
p3497
asbag68
(g89
g70
NtRp3498
(dp3499
g73
(dp3500
g100
g101
ssg82
g3489
sg75
(lp3501
S':'
asbag68
(g89
g70
NtRp3502
(dp3503
g73
(dp3504
sg82
g3489
sg75
(lp3505
g68
(g69
g70
NtRp3506
(dp3507
g73
(dp3508
g81
I3
ssg82
g3502
sg75
(lp3509
S'0.0'
p3510
asbasbasbag68
(g84
g70
NtRp3511
(dp3512
g73
(dp3513
sg82
g3441
sg75
(lp3514
g68
(g89
g70
NtRp3515
(dp3516
g73
(dp3517
g93
g94
ssg82
g3511
sg75
(lp3518
S'amount_due'
p3519
asbag68
(g89
g70
NtRp3520
(dp3521
g73
(dp3522
g100
g101
ssg82
g3511
sg75
(lp3523
S':'
asbag68
(g89
g70
NtRp3524
(dp3525
g73
(dp3526
sg82
g3511
sg75
(lp3527
g68
(g69
g70
NtRp3528
(dp3529
g73
(dp3530
g81
I3
ssg82
g3524
sg75
(lp3531
S'0.0'
p3532
asbasbasbag68
(g84
g70
NtRp3533
(dp3534
g73
(dp3535
sg82
g3441
sg75
(lp3536
g68
(g89
g70
NtRp3537
(dp3538
g73
(dp3539
g93
g94
ssg82
g3533
sg75
(lp3540
S'amount_paid'
p3541
asbag68
(g89
g70
NtRp3542
(dp3543
g73
(dp3544
g100
g101
ssg82
g3533
sg75
(lp3545
S':'
asbag68
(g89
g70
NtRp3546
(dp3547
g73
(dp3548
sg82
g3533
sg75
(lp3549
g68
(g69
g70
NtRp3550
(dp3551
g73
(dp3552
g81
I3
ssg82
g3546
sg75
(lp3553
S'0.0'
p3554
asbasbasbag68
(g84
g70
NtRp3555
(dp3556
g73
(dp3557
sg82
g3441
sg75
(lp3558
g68
(g89
g70
NtRp3559
(dp3560
g73
(dp3561
g93
g94
ssg82
g3555
sg75
(lp3562
S'amount_subtracted'
p3563
asbag68
(g89
g70
NtRp3564
(dp3565
g73
(dp3566
g100
g101
ssg82
g3555
sg75
(lp3567
S':'
asbag68
(g89
g70
NtRp3568
(dp3569
g73
(dp3570
sg82
g3555
sg75
(lp3571
g68
(g69
g70
NtRp3572
(dp3573
g73
(dp3574
g81
I3
ssg82
g3568
sg75
(lp3575
S'0.0'
p3576
asbasbasbag68
(g84
g70
NtRp3577
(dp3578
g73
(dp3579
sg82
g3441
sg75
(lp3580
g68
(g89
g70
NtRp3581
(dp3582
g73
(dp3583
g93
g94
ssg82
g3577
sg75
(lp3584
S'attendee_type'
p3585
asbag68
(g89
g70
NtRp3586
(dp3587
g73
(dp3588
g100
g101
ssg82
g3577
sg75
(lp3589
S':'
asbag68
(g89
g70
NtRp3590
(dp3591
g73
(dp3592
sg82
g3577
sg75
(lp3593
g68
(g69
g70
NtRp3594
(dp3595
g73
(dp3596
g81
I3
ssg82
g3590
sg75
(lp3597
S'gratis'
p3598
asbasbasbag68
(g84
g70
NtRp3599
(dp3600
g73
(dp3601
sg82
g3441
sg75
(lp3602
g68
(g89
g70
NtRp3603
(dp3604
g73
(dp3605
g93
g94
ssg82
g3599
sg75
(lp3606
S'city'
p3607
asbag68
(g89
g70
NtRp3608
(dp3609
g73
(dp3610
g100
g101
ssg82
g3599
sg75
(lp3611
S':'
asbag68
(g89
g70
NtRp3612
(dp3613
g73
(dp3614
sg82
g3599
sg75
(lp3615
g68
(g69
g70
NtRp3616
(dp3617
g73
(dp3618
g81
I3
ssg82
g3612
sg75
(lp3619
S'Salta'
p3620
asbasbasbag68
(g84
g70
NtRp3621
(dp3622
g73
(dp3623
sg82
g3441
sg75
(lp3624
g68
(g89
g70
NtRp3625
(dp3626
g73
(dp3627
g93
g94
ssg82
g3621
sg75
(lp3628
S'company_home_page'
p3629
asbag68
(g89
g70
NtRp3630
(dp3631
g73
(dp3632
g100
g101
ssg82
g3621
sg75
(lp3633
S':'
asbag68
(g89
g70
NtRp3634
(dp3635
g73
(dp3636
sg82
g3621
sg75
(lp3637
g68
(g69
g70
NtRp3638
(dp3639
g73
(dp3640
g81
I3
ssg82
g3634
sg75
(lp3641
S'http://www.esdebian.org'
p3642
asbasbasbag68
(g84
g70
NtRp3643
(dp3644
g73
(dp3645
sg82
g3441
sg75
(lp3646
g68
(g89
g70
NtRp3647
(dp3648
g73
(dp3649
g93
g94
ssg82
g3643
sg75
(lp3650
S'company_name'
p3651
asbag68
(g89
g70
NtRp3652
(dp3653
g73
(dp3654
g100
g101
ssg82
g3643
sg75
(lp3655
S':'
asbag68
(g89
g70
NtRp3656
(dp3657
g73
(dp3658
sg82
g3643
sg75
(lp3659
g68
(g69
g70
NtRp3660
(dp3661
g73
(dp3662
g81
I3
ssg82
g3656
sg75
(lp3663
S'Debian OS'
p3664
asbasbasbag68
(g84
g70
NtRp3665
(dp3666
g73
(dp3667
sg82
g3441
sg75
(lp3668
g68
(g89
g70
NtRp3669
(dp3670
g73
(dp3671
g93
g94
ssg82
g3665
sg75
(lp3672
S'country'
p3673
asbag68
(g89
g70
NtRp3674
(dp3675
g73
(dp3676
g100
g101
ssg82
g3665
sg75
(lp3677
S':'
asbag68
(g89
g70
NtRp3678
(dp3679
g73
(dp3680
sg82
g3665
sg75
(lp3681
g68
(g69
g70
NtRp3682
(dp3683
g73
(dp3684
g81
I3
ssg82
g3678
sg75
(lp3685
S'Argentina'
p3686
asbasbasbag68
(g84
g70
NtRp3687
(dp3688
g73
(dp3689
sg82
g3441
sg75
(lp3690
g68
(g89
g70
NtRp3691
(dp3692
g73
(dp3693
g93
g94
ssg82
g3687
sg75
(lp3694
S'created_by_ip'
p3695
asbag68
(g89
g70
NtRp3696
(dp3697
g73
(dp3698
g100
g101
ssg82
g3687
sg75
(lp3699
S':'
asbag68
(g89
g70
NtRp3700
(dp3701
g73
(dp3702
sg82
g3687
sg75
(lp3703
g68
(g69
g70
NtRp3704
(dp3705
g73
(dp3706
g81
I3
ssg82
g3700
sg75
(lp3707
S'127.0.0.1'
p3708
asbasbasbag68
(g84
g70
NtRp3709
(dp3710
g73
(dp3711
sg82
g3441
sg75
(lp3712
g68
(g89
g70
NtRp3713
(dp3714
g73
(dp3715
g93
g94
ssg82
g3709
sg75
(lp3716
S'created_on'
p3717
asbag68
(g89
g70
NtRp3718
(dp3719
g73
(dp3720
g100
g101
ssg82
g3709
sg75
(lp3721
S':'
asbag68
(g89
g70
NtRp3722
(dp3723
g73
(dp3724
sg82
g3709
sg75
(lp3725
g68
(g69
g70
NtRp3726
(dp3727
g73
(dp3728
g81
I3
ssg82
g3722
sg75
(lp3729
S'datetime.datetime(2012, 3, 9, 2, 56, 49)'
p3730
asbasbasbag68
(g84
g70
NtRp3731
(dp3732
g73
(dp3733
sg82
g3441
sg75
(lp3734
g68
(g89
g70
NtRp3735
(dp3736
g73
(dp3737
g93
g94
ssg82
g3731
sg75
(lp3738
S'discount_coupon'
p3739
asbag68
(g89
g70
NtRp3740
(dp3741
g73
(dp3742
g100
g101
ssg82
g3731
sg75
(lp3743
S':'
asbag68
(g89
g70
NtRp3744
(dp3745
g73
(dp3746
sg82
g3731
sg75
(lp3747
g68
(g69
g70
NtRp3748
(dp3749
g73
(dp3750
g81
I3
ssg82
g3744
sg75
(lp3751
S'None'
p3752
asbasbasbag68
(g84
g70
NtRp3753
(dp3754
g73
(dp3755
sg82
g3441
sg75
(lp3756
g68
(g89
g70
NtRp3757
(dp3758
g73
(dp3759
g93
g94
ssg82
g3753
sg75
(lp3760
S'donation'
p3761
asbag68
(g89
g70
NtRp3762
(dp3763
g73
(dp3764
g100
g101
ssg82
g3753
sg75
(lp3765
S':'
asbag68
(g89
g70
NtRp3766
(dp3767
g73
(dp3768
sg82
g3753
sg75
(lp3769
g68
(g69
g70
NtRp3770
(dp3771
g73
(dp3772
g81
I3
ssg82
g3766
sg75
(lp3773
S'0.0'
p3774
asbasbasbag68
(g84
g70
NtRp3775
(dp3776
g73
(dp3777
sg82
g3441
sg75
(lp3778
g68
(g89
g70
NtRp3779
(dp3780
g73
(dp3781
g93
g94
ssg82
g3775
sg75
(lp3782
S'email'
p3783
asbag68
(g89
g70
NtRp3784
(dp3785
g73
(dp3786
g100
g101
ssg82
g3775
sg75
(lp3787
S':'
asbag68
(g89
g70
NtRp3788
(dp3789
g73
(dp3790
sg82
g3775
sg75
(lp3791
g68
(g69
g70
NtRp3792
(dp3793
g73
(dp3794
g81
I3
ssg82
g3788
sg75
(lp3795
S'marco@saltalug.org.ar'
p3796
asbasbasbag68
(g84
g70
NtRp3797
(dp3798
g73
(dp3799
sg82
g3441
sg75
(lp3800
g68
(g89
g70
NtRp3801
(dp3802
g73
(dp3803
g93
g94
ssg82
g3797
sg75
(lp3804
S'first_name'
p3805
asbag68
(g89
g70
NtRp3806
(dp3807
g73
(dp3808
g100
g101
ssg82
g3797
sg75
(lp3809
S':'
asbag68
(g89
g70
NtRp3810
(dp3811
g73
(dp3812
sg82
g3797
sg75
(lp3813
g68
(g69
g70
NtRp3814
(dp3815
g73
(dp3816
g81
I3
ssg82
g3810
sg75
(lp3817
S'Marco'
p3818
asbasbasbag68
(g84
g70
NtRp3819
(dp3820
g73
(dp3821
sg82
g3441
sg75
(lp3822
g68
(g89
g70
NtRp3823
(dp3824
g73
(dp3825
g93
g94
ssg82
g3819
sg75
(lp3826
S'id'
p3827
asbag68
(g89
g70
NtRp3828
(dp3829
g73
(dp3830
g100
g101
ssg82
g3819
sg75
(lp3831
S':'
asbag68
(g89
g70
NtRp3832
(dp3833
g73
(dp3834
sg82
g3819
sg75
(lp3835
g68
(g69
g70
NtRp3836
(dp3837
g73
(dp3838
g81
I3
ssg82
g3832
sg75
(lp3839
S'55'
p3840
asbasbasbag68
(g84
g70
NtRp3841
(dp3842
g73
(dp3843
sg82
g3441
sg75
(lp3844
g68
(g89
g70
NtRp3845
(dp3846
g73
(dp3847
g93
g94
ssg82
g3841
sg75
(lp3848
S'include_in_delegate_listing'
p3849
asbag68
(g89
g70
NtRp3850
(dp3851
g73
(dp3852
g100
g101
ssg82
g3841
sg75
(lp3853
S':'
asbag68
(g89
g70
NtRp3854
(dp3855
g73
(dp3856
sg82
g3841
sg75
(lp3857
g68
(g69
g70
NtRp3858
(dp3859
g73
(dp3860
g81
I3
ssg82
g3854
sg75
(lp3861
g1852
asbasbasbag68
(g84
g70
NtRp3862
(dp3863
g73
(dp3864
sg82
g3441
sg75
(lp3865
g68
(g89
g70
NtRp3866
(dp3867
g73
(dp3868
g93
g94
ssg82
g3862
sg75
(lp3869
S'installfest_hardware'
p3870
asbag68
(g89
g70
NtRp3871
(dp3872
g73
(dp3873
g100
g101
ssg82
g3862
sg75
(lp3874
S':'
asbag68
(g89
g70
NtRp3875
(dp3876
g73
(dp3877
sg82
g3862
sg75
(lp3878
g68
(g69
g70
NtRp3879
(dp3880
g73
(dp3881
g81
I3
ssg82
g3875
sg75
(lp3882
S'kakafono'
p3883
asbasbasbag68
(g84
g70
NtRp3884
(dp3885
g73
(dp3886
sg82
g3441
sg75
(lp3887
g68
(g89
g70
NtRp3888
(dp3889
g73
(dp3890
g93
g94
ssg82
g3884
sg75
(lp3891
S'installfest_os'
p3892
asbag68
(g89
g70
NtRp3893
(dp3894
g73
(dp3895
g100
g101
ssg82
g3884
sg75
(lp3896
S':'
asbag68
(g89
g70
NtRp3897
(dp3898
g73
(dp3899
sg82
g3884
sg75
(lp3900
g68
(g69
g70
NtRp3901
(dp3902
g73
(dp3903
g81
I3
ssg82
g3897
sg75
(lp3904
S'Debian'
p3905
asbasbasbag68
(g84
g70
NtRp3906
(dp3907
g73
(dp3908
sg82
g3441
sg75
(lp3909
g68
(g89
g70
NtRp3910
(dp3911
g73
(dp3912
g93
g94
ssg82
g3906
sg75
(lp3913
S'last_name'
p3914
asbag68
(g89
g70
NtRp3915
(dp3916
g73
(dp3917
g100
g101
ssg82
g3906
sg75
(lp3918
S':'
asbag68
(g89
g70
NtRp3919
(dp3920
g73
(dp3921
sg82
g3906
sg75
(lp3922
g68
(g69
g70
NtRp3923
(dp3924
g73
(dp3925
g81
I3
ssg82
g3919
sg75
(lp3926
S'Mansilla'
p3927
asbasbasbag68
(g84
g70
NtRp3928
(dp3929
g73
(dp3930
sg82
g3441
sg75
(lp3931
g68
(g89
g70
NtRp3932
(dp3933
g73
(dp3934
g93
g94
ssg82
g3928
sg75
(lp3935
S'latitude'
p3936
asbag68
(g89
g70
NtRp3937
(dp3938
g73
(dp3939
g100
g101
ssg82
g3928
sg75
(lp3940
S':'
asbag68
(g89
g70
NtRp3941
(dp3942
g73
(dp3943
sg82
g3928
sg75
(lp3944
g68
(g69
g70
NtRp3945
(dp3946
g73
(dp3947
g81
I3
ssg82
g3941
sg75
(lp3948
S'-24.8442777'
p3949
asbasbasbag68
(g84
g70
NtRp3950
(dp3951
g73
(dp3952
sg82
g3441
sg75
(lp3953
g68
(g89
g70
NtRp3954
(dp3955
g73
(dp3956
g93
g94
ssg82
g3950
sg75
(lp3957
S'longitude'
p3958
asbag68
(g89
g70
NtRp3959
(dp3960
g73
(dp3961
g100
g101
ssg82
g3950
sg75
(lp3962
S':'
asbag68
(g89
g70
NtRp3963
(dp3964
g73
(dp3965
sg82
g3950
sg75
(lp3966
g68
(g69
g70
NtRp3967
(dp3968
g73
(dp3969
g81
I3
ssg82
g3963
sg75
(lp3970
S'-65.4787676'
p3971
asbasbasbag68
(g84
g70
NtRp3972
(dp3973
g73
(dp3974
sg82
g3441
sg75
(lp3975
g68
(g89
g70
NtRp3976
(dp3977
g73
(dp3978
g93
g94
ssg82
g3972
sg75
(lp3979
S'manager'
p3980
asbag68
(g89
g70
NtRp3981
(dp3982
g73
(dp3983
g100
g101
ssg82
g3972
sg75
(lp3984
S':'
asbag68
(g89
g70
NtRp3985
(dp3986
g73
(dp3987
sg82
g3972
sg75
(lp3988
g68
(g69
g70
NtRp3989
(dp3990
g73
(dp3991
g81
I3
ssg82
g3985
sg75
(lp3992
g1852
asbasbasbag68
(g84
g70
NtRp3993
(dp3994
g73
(dp3995
sg82
g3441
sg75
(lp3996
g68
(g89
g70
NtRp3997
(dp3998
g73
(dp3999
g93
g94
ssg82
g3993
sg75
(lp4000
S'password'
p4001
asbag68
(g89
g70
NtRp4002
(dp4003
g73
(dp4004
g100
g101
ssg82
g3993
sg75
(lp4005
S':'
asbag68
(g89
g70
NtRp4006
(dp4007
g73
(dp4008
sg82
g3993
sg75
(lp4009
g68
(g69
g70
NtRp4010
(dp4011
g73
(dp4012
g81
I3
ssg82
g4006
sg75
(lp4013
S'121c120f6831e94b12b41d853c3f672b'
p4014
asbasbasbag68
(g84
g70
NtRp4015
(dp4016
g73
(dp4017
sg82
g3441
sg75
(lp4018
g68
(g89
g70
NtRp4019
(dp4020
g73
(dp4021
g93
g94
ssg82
g4015
sg75
(lp4022
S'personal_home_page'
p4023
asbag68
(g89
g70
NtRp4024
(dp4025
g73
(dp4026
g100
g101
ssg82
g4015
sg75
(lp4027
S':'
asbag68
(g89
g70
NtRp4028
(dp4029
g73
(dp4030
sg82
g4015
sg75
(lp4031
g68
(g69
g70
NtRp4032
(dp4033
g73
(dp4034
g81
I3
ssg82
g4028
sg75
(lp4035
S'http://www.esdebian.org'
p4036
asbasbasbag68
(g84
g70
NtRp4037
(dp4038
g73
(dp4039
sg82
g3441
sg75
(lp4040
g68
(g89
g70
NtRp4041
(dp4042
g73
(dp4043
g93
g94
ssg82
g4037
sg75
(lp4044
S'phone_number'
p4045
asbag68
(g89
g70
NtRp4046
(dp4047
g73
(dp4048
g100
g101
ssg82
g4037
sg75
(lp4049
S':'
asbag68
(g89
g70
NtRp4050
(dp4051
g73
(dp4052
sg82
g4037
sg75
(lp4053
g68
(g69
g70
NtRp4054
(dp4055
g73
(dp4056
g81
I3
ssg82
g4050
sg75
(lp4057
S'76543456789'
p4058
asbasbasbag68
(g84
g70
NtRp4059
(dp4060
g73
(dp4061
sg82
g3441
sg75
(lp4062
g68
(g89
g70
NtRp4063
(dp4064
g73
(dp4065
g93
g94
ssg82
g4059
sg75
(lp4066
S'registration_key'
p4067
asbag68
(g89
g70
NtRp4068
(dp4069
g73
(dp4070
g100
g101
ssg82
g4059
sg75
(lp4071
S':'
asbag68
(g89
g70
NtRp4072
(dp4073
g73
(dp4074
sg82
g4059
sg75
(lp4075
g68
(g69
g70
NtRp4076
(dp4077
g73
(dp4078
g81
I3
ssg82
g4072
sg75
(lp4079
S''
asbasbasbag68
(g84
g70
NtRp4080
(dp4081
g73
(dp4082
sg82
g3441
sg75
(lp4083
g68
(g89
g70
NtRp4084
(dp4085
g73
(dp4086
g93
g94
ssg82
g4080
sg75
(lp4087
S'resume'
p4088
asbag68
(g89
g70
NtRp4089
(dp4090
g73
(dp4091
g100
g101
ssg82
g4080
sg75
(lp4092
S':'
asbag68
(g89
g70
NtRp4093
(dp4094
g73
(dp4095
sg82
g4080
sg75
(lp4096
g68
(g69
g70
NtRp4097
(dp4098
g73
(dp4099
g81
I3
ssg82
g4093
sg75
(lp4100
S'None'
p4101
asbasbasbag68
(g84
g70
NtRp4102
(dp4103
g73
(dp4104
sg82
g3441
sg75
(lp4105
g68
(g89
g70
NtRp4106
(dp4107
g73
(dp4108
g93
g94
ssg82
g4102
sg75
(lp4109
S'reviewer'
p4110
asbag68
(g89
g70
NtRp4111
(dp4112
g73
(dp4113
g100
g101
ssg82
g4102
sg75
(lp4114
S':'
asbag68
(g89
g70
NtRp4115
(dp4116
g73
(dp4117
sg82
g4102
sg75
(lp4118
g68
(g69
g70
NtRp4119
(dp4120
g73
(dp4121
g81
I3
ssg82
g4115
sg75
(lp4122
g1852
asbasbasbag68
(g84
g70
NtRp4123
(dp4124
g73
(dp4125
sg82
g3441
sg75
(lp4126
g68
(g89
g70
NtRp4127
(dp4128
g73
(dp4129
g93
g94
ssg82
g4123
sg75
(lp4130
S'session_chair'
p4131
asbag68
(g89
g70
NtRp4132
(dp4133
g73
(dp4134
g100
g101
ssg82
g4123
sg75
(lp4135
S':'
asbag68
(g89
g70
NtRp4136
(dp4137
g73
(dp4138
sg82
g4123
sg75
(lp4139
g68
(g69
g70
NtRp4140
(dp4141
g73
(dp4142
g81
I3
ssg82
g4136
sg75
(lp4143
g111
asbasbasbag68
(g84
g70
NtRp4144
(dp4145
g73
(dp4146
sg82
g3441
sg75
(lp4147
g68
(g89
g70
NtRp4148
(dp4149
g73
(dp4150
g93
g94
ssg82
g4144
sg75
(lp4151
S'speaker'
p4152
asbag68
(g89
g70
NtRp4153
(dp4154
g73
(dp4155
g100
g101
ssg82
g4144
sg75
(lp4156
S':'
asbag68
(g89
g70
NtRp4157
(dp4158
g73
(dp4159
sg82
g4144
sg75
(lp4160
g68
(g69
g70
NtRp4161
(dp4162
g73
(dp4163
g81
I3
ssg82
g4157
sg75
(lp4164
g111
asbasbasbag68
(g84
g70
NtRp4165
(dp4166
g73
(dp4167
sg82
g3441
sg75
(lp4168
g68
(g89
g70
NtRp4169
(dp4170
g73
(dp4171
g93
g94
ssg82
g4165
sg75
(lp4172
S'state'
p4173
asbag68
(g89
g70
NtRp4174
(dp4175
g73
(dp4176
g100
g101
ssg82
g4165
sg75
(lp4177
S':'
asbag68
(g89
g70
NtRp4178
(dp4179
g73
(dp4180
sg82
g4165
sg75
(lp4181
g68
(g69
g70
NtRp4182
(dp4183
g73
(dp4184
g81
I3
ssg82
g4178
sg75
(lp4185
S'Salta'
p4186
asbasbasbag68
(g84
g70
NtRp4187
(dp4188
g73
(dp4189
sg82
g3441
sg75
(lp4190
g68
(g89
g70
NtRp4191
(dp4192
g73
(dp4193
g93
g94
ssg82
g4187
sg75
(lp4194
S'tutorials'
p4195
asbag68
(g89
g70
NtRp4196
(dp4197
g73
(dp4198
g100
g101
ssg82
g4187
sg75
(lp4199
S':'
asbag68
(g89
g70
NtRp4200
(dp4201
g73
(dp4202
sg82
g4187
sg75
(lp4203
g68
(g69
g70
NtRp4204
(dp4205
g73
(dp4206
g81
I3
ssg82
g4200
sg75
(lp4207
S'None'
p4208
asbasbasbag68
(g84
g70
NtRp4209
(dp4210
g73
(dp4211
sg82
g3441
sg75
(lp4212
g68
(g89
g70
NtRp4213
(dp4214
g73
(dp4215
g93
g94
ssg82
g4209
sg75
(lp4216
S'zip_code'
p4217
asbag68
(g89
g70
NtRp4218
(dp4219
g73
(dp4220
g100
g101
ssg82
g4209
sg75
(lp4221
S':'
asbag68
(g89
g70
NtRp4222
(dp4223
g73
(dp4224
sg82
g4209
sg75
(lp4225
g68
(g69
g70
NtRp4226
(dp4227
g73
(dp4228
g81
I3
ssg82
g4222
sg75
(lp4229
S'4400'
p4230
asbasbasbasbasbasbasbag68
(g84
g70
NtRp4231
(dp4232
g73
(dp4233
sg82
g3329
sg75
(lp4234
g68
(g89
g70
NtRp4235
(dp4236
g73
(dp4237
g93
g94
ssg82
g4231
sg75
(lp4238
S'user_groups'
p4239
asbag68
(g89
g70
NtRp4240
(dp4241
g73
(dp4242
g100
g101
ssg82
g4231
sg75
(lp4243
S':'
asbag68
(g89
g70
NtRp4244
(dp4245
g73
(dp4246
sg82
g4231
sg75
(lp4247
g68
(g69
g70
NtRp4248
(dp4249
g73
(dp4250
g81
I4
ssg82
g4244
sg75
(lp4251
g68
(g77
g70
NtRp4252
(dp4253
g73
(dp4254
g81
I3
ssg82
Nsg75
(lp4255
g68
(g84
g70
NtRp4256
(dp4257
g73
(dp4258
sg82
g4252
sg75
(lp4259
g68
(g89
g70
NtRp4260
(dp4261
g73
(dp4262
g93
g94
ssg82
g4256
sg75
(lp4263
S'15'
p4264
asbag68
(g89
g70
NtRp4265
(dp4266
g73
(dp4267
g100
g101
ssg82
g4256
sg75
(lp4268
S':'
asbag68
(g89
g70
NtRp4269
(dp4270
g73
(dp4271
sg82
g4256
sg75
(lp4272
g68
(g69
g70
NtRp4273
(dp4274
g73
(dp4275
g81
I3
ssg82
g4269
sg75
(lp4276
S'plugin_flatpages'
p4277
asbasbasbasbasbasbasbasbasbasbasbag68
(g84
g70
NtRp4278
(dp4279
g73
(dp4280
sg82
g3216
sg75
(lp4281
g68
(g89
g70
NtRp4282
(dp4283
g73
(dp4284
g93
g94
ssg82
g4278
sg75
(lp4285
S'balance'
p4286
asbag68
(g89
g70
NtRp4287
(dp4288
g73
(dp4289
g100
g101
ssg82
g4278
sg75
(lp4290
S':'
asbag68
(g89
g70
NtRp4291
(dp4292
g73
(dp4293
sg82
g4278
sg75
(lp4294
g68
(g69
g70
NtRp4295
(dp4296
g73
(dp4297
g81
I5
ssg82
g4291
sg75
(lp4298
S'0.0'
p4299
asbasbasbag68
(g84
g70
NtRp4300
(dp4301
g73
(dp4302
sg82
g3216
sg75
(lp4303
g68
(g89
g70
NtRp4304
(dp4305
g73
(dp4306
g93
g94
ssg82
g4300
sg75
(lp4307
S'manager'
p4308
asbag68
(g89
g70
NtRp4309
(dp4310
g73
(dp4311
g100
g101
ssg82
g4300
sg75
(lp4312
S':'
asbag68
(g89
g70
NtRp4313
(dp4314
g73
(dp4315
sg82
g4300
sg75
(lp4316
g68
(g69
g70
NtRp4317
(dp4318
g73
(dp4319
g81
I5
ssg82
g4313
sg75
(lp4320
g1852
asbasbasbag68
(g84
g70
NtRp4321
(dp4322
g73
(dp4323
sg82
g3216
sg75
(lp4324
g68
(g89
g70
NtRp4325
(dp4326
g73
(dp4327
g93
g94
ssg82
g4321
sg75
(lp4328
S't2'
p4329
asbag68
(g89
g70
NtRp4330
(dp4331
g73
(dp4332
g100
g101
ssg82
g4321
sg75
(lp4333
S':'
asbag68
(g89
g70
NtRp4334
(dp4335
g73
(dp4336
sg82
g4321
sg75
(lp4337
g68
(g69
g70
NtRp4338
(dp4339
g73
(dp4340
g81
I5
ssg82
g4334
sg75
(lp4341
g68
(g77
g70
NtRp4342
(dp4343
g73
(dp4344
g81
I4
ssg82
Nsg75
(lp4345
g68
(g84
g70
NtRp4346
(dp4347
g73
(dp4348
sg82
g4342
sg75
(lp4349
g68
(g89
g70
NtRp4350
(dp4351
g73
(dp4352
g93
g94
ssg82
g4346
sg75
(lp4353
S'my_groups_id'
p4354
asbag68
(g89
g70
NtRp4355
(dp4356
g73
(dp4357
g100
g101
ssg82
g4346
sg75
(lp4358
S':'
asbag68
(g89
g70
NtRp4359
(dp4360
g73
(dp4361
sg82
g4346
sg75
(lp4362
g68
(g69
g70
NtRp4363
(dp4364
g73
(dp4365
g81
I4
ssg82
g4359
sg75
(lp4366
g68
(g77
g70
NtRp4367
(dp4368
g73
(dp4369
g81
I3
ssg82
Nsg75
(lp4370
sbasbasbasbasbasbasbasbasbasbsS'etype'
p4371
S"<type 'exceptions.SyntaxError'>"
p4372
sS'date'
p4373
S'Fri Mar  9 18:38:04 2012'
p4374
sS'response'
p4375
g68
(g69
g70
NtRp4376
(dp4377
g73
(dp4378
sg75
(lp4379
g68
(g77
g70
NtRp4380
(dp4381
g73
(dp4382
g81
I5
ssg82
Nsg75
(lp4383
g68
(g84
g70
NtRp4384
(dp4385
g73
(dp4386
sg82
g4380
sg75
(lp4387
g68
(g89
g70
NtRp4388
(dp4389
g73
(dp4390
g93
g94
ssg82
g4384
sg75
(lp4391
g166
asbag68
(g89
g70
NtRp4392
(dp4393
g73
(dp4394
g100
g101
ssg82
g4384
sg75
(lp4395
S':'
asbag68
(g89
g70
NtRp4396
(dp4397
g73
(dp4398
sg82
g4384
sg75
(lp4399
g68
(g69
g70
NtRp4400
(dp4401
g73
(dp4402
g81
I5
ssg82
g4396
sg75
(lp4403
S'<cStringIO.StringO object at 0x2fdcd18>'
p4404
asbasbasbag68
(g84
g70
NtRp4405
(dp4406
g73
(dp4407
sg82
g4380
sg75
(lp4408
g68
(g89
g70
NtRp4409
(dp4410
g73
(dp4411
g93
g94
ssg82
g4405
sg75
(lp4412
g232
asbag68
(g89
g70
NtRp4413
(dp4414
g73
(dp4415
g100
g101
ssg82
g4405
sg75
(lp4416
S':'
asbag68
(g89
g70
NtRp4417
(dp4418
g73
(dp4419
sg82
g4405
sg75
(lp4420
g68
(g69
g70
NtRp4421
(dp4422
g73
(dp4423
g81
I5
ssg82
g4417
sg75
(lp4424
g68
(g77
g70
NtRp4425
(dp4426
g73
(dp4427
g81
I4
ssg82
Nsg75
(lp4428
g68
(g84
g70
NtRp4429
(dp4430
g73
(dp4431
sg82
g4425
sg75
(lp4432
g68
(g89
g70
NtRp4433
(dp4434
g73
(dp4435
g93
g94
ssg82
g4429
sg75
(lp4436
S'session_id_flisol2012'
p4437
asbag68
(g89
g70
NtRp4438
(dp4439
g73
(dp4440
g100
g101
ssg82
g4429
sg75
(lp4441
S':'
asbag68
(g89
g70
NtRp4442
(dp4443
g73
(dp4444
sg82
g4429
sg75
(lp4445
g68
(g69
g70
NtRp4446
(dp4447
g73
(dp4448
g81
I4
ssg82
g4442
sg75
(lp4449
g68
(g77
g70
NtRp4450
(dp4451
g73
(dp4452
g81
I3
ssg82
Nsg75
(lp4453
g68
(g84
g70
NtRp4454
(dp4455
g73
(dp4456
sg82
g4450
sg75
(lp4457
g68
(g89
g70
NtRp4458
(dp4459
g73
(dp4460
g93
g94
ssg82
g4454
sg75
(lp4461
g282
asbag68
(g89
g70
NtRp4462
(dp4463
g73
(dp4464
g100
g101
ssg82
g4454
sg75
(lp4465
S':'
asbag68
(g89
g70
NtRp4466
(dp4467
g73
(dp4468
sg82
g4454
sg75
(lp4469
g68
(g69
g70
NtRp4470
(dp4471
g73
(dp4472
g81
I3
ssg82
g4466
sg75
(lp4473
S''
asbasbasbag68
(g84
g70
NtRp4474
(dp4475
g73
(dp4476
sg82
g4450
sg75
(lp4477
g68
(g89
g70
NtRp4478
(dp4479
g73
(dp4480
g93
g94
ssg82
g4474
sg75
(lp4481
g303
asbag68
(g89
g70
NtRp4482
(dp4483
g73
(dp4484
g100
g101
ssg82
g4474
sg75
(lp4485
S':'
asbag68
(g89
g70
NtRp4486
(dp4487
g73
(dp4488
sg82
g4474
sg75
(lp4489
g68
(g69
g70
NtRp4490
(dp4491
g73
(dp4492
g81
I3
ssg82
g4486
sg75
(lp4493
S''
asbasbasbag68
(g84
g70
NtRp4494
(dp4495
g73
(dp4496
sg82
g4450
sg75
(lp4497
g68
(g89
g70
NtRp4498
(dp4499
g73
(dp4500
g93
g94
ssg82
g4494
sg75
(lp4501
g324
asbag68
(g89
g70
NtRp4502
(dp4503
g73
(dp4504
g100
g101
ssg82
g4494
sg75
(lp4505
S':'
asbag68
(g89
g70
NtRp4506
(dp4507
g73
(dp4508
sg82
g4494
sg75
(lp4509
g68
(g69
g70
NtRp4510
(dp4511
g73
(dp4512
g81
I3
ssg82
g4506
sg75
(lp4513
S''
asbasbasbag68
(g84
g70
NtRp4514
(dp4515
g73
(dp4516
sg82
g4450
sg75
(lp4517
g68
(g89
g70
NtRp4518
(dp4519
g73
(dp4520
g93
g94
ssg82
g4514
sg75
(lp4521
g345
asbag68
(g89
g70
NtRp4522
(dp4523
g73
(dp4524
g100
g101
ssg82
g4514
sg75
(lp4525
S':'
asbag68
(g89
g70
NtRp4526
(dp4527
g73
(dp4528
sg82
g4514
sg75
(lp4529
g68
(g69
g70
NtRp4530
(dp4531
g73
(dp4532
g81
I3
ssg82
g4526
sg75
(lp4533
S''
asbasbasbag68
(g84
g70
NtRp4534
(dp4535
g73
(dp4536
sg82
g4450
sg75
(lp4537
g68
(g89
g70
NtRp4538
(dp4539
g73
(dp4540
g93
g94
ssg82
g4534
sg75
(lp4541
g366
asbag68
(g89
g70
NtRp4542
(dp4543
g73
(dp4544
g100
g101
ssg82
g4534
sg75
(lp4545
S':'
asbag68
(g89
g70
NtRp4546
(dp4547
g73
(dp4548
sg82
g4534
sg75
(lp4549
g68
(g69
g70
NtRp4550
(dp4551
g73
(dp4552
g81
I3
ssg82
g4546
sg75
(lp4553
S''
asbasbasbag68
(g84
g70
NtRp4554
(dp4555
g73
(dp4556
sg82
g4450
sg75
(lp4557
g68
(g89
g70
NtRp4558
(dp4559
g73
(dp4560
g93
g94
ssg82
g4554
sg75
(lp4561
g387
asbag68
(g89
g70
NtRp4562
(dp4563
g73
(dp4564
g100
g101
ssg82
g4554
sg75
(lp4565
S':'
asbag68
(g89
g70
NtRp4566
(dp4567
g73
(dp4568
sg82
g4554
sg75
(lp4569
g68
(g69
g70
NtRp4570
(dp4571
g73
(dp4572
g81
I3
ssg82
g4566
sg75
(lp4573
S'/'
asbasbasbag68
(g84
g70
NtRp4574
(dp4575
g73
(dp4576
sg82
g4450
sg75
(lp4577
g68
(g89
g70
NtRp4578
(dp4579
g73
(dp4580
g93
g94
ssg82
g4574
sg75
(lp4581
g408
asbag68
(g89
g70
NtRp4582
(dp4583
g73
(dp4584
g100
g101
ssg82
g4574
sg75
(lp4585
S':'
asbag68
(g89
g70
NtRp4586
(dp4587
g73
(dp4588
sg82
g4574
sg75
(lp4589
g68
(g69
g70
NtRp4590
(dp4591
g73
(dp4592
g81
I3
ssg82
g4586
sg75
(lp4593
S''
asbasbasbag68
(g84
g70
NtRp4594
(dp4595
g73
(dp4596
sg82
g4450
sg75
(lp4597
g68
(g89
g70
NtRp4598
(dp4599
g73
(dp4600
g93
g94
ssg82
g4594
sg75
(lp4601
g429
asbag68
(g89
g70
NtRp4602
(dp4603
g73
(dp4604
g100
g101
ssg82
g4594
sg75
(lp4605
S':'
asbag68
(g89
g70
NtRp4606
(dp4607
g73
(dp4608
sg82
g4594
sg75
(lp4609
g68
(g69
g70
NtRp4610
(dp4611
g73
(dp4612
g81
I3
ssg82
g4606
sg75
(lp4613
S''
asbasbasbasbasbasbasbasbasbasbasbag68
(g84
g70
NtRp4614
(dp4615
g73
(dp4616
sg82
g4380
sg75
(lp4617
g68
(g89
g70
NtRp4618
(dp4619
g73
(dp4620
g93
g94
ssg82
g4614
sg75
(lp4621
S'delimiters'
p4622
asbag68
(g89
g70
NtRp4623
(dp4624
g73
(dp4625
g100
g101
ssg82
g4614
sg75
(lp4626
S':'
asbag68
(g89
g70
NtRp4627
(dp4628
g73
(dp4629
sg82
g4614
sg75
(lp4630
g68
(g69
g70
NtRp4631
(dp4632
g73
(dp4633
g81
I5
ssg82
g4627
sg75
(lp4634
g68
(g77
g70
NtRp4635
(dp4636
g73
(dp4637
g81
I4
ssg82
Nsg75
(lp4638
g68
(g84
g70
NtRp4639
(dp4640
g73
(dp4641
sg82
g4635
sg75
(lp4642
g68
(g89
g70
NtRp4643
(dp4644
g73
(dp4645
sg82
g4639
sg75
(lp4646
g68
(g69
g70
NtRp4647
(dp4648
g73
(dp4649
g81
I4
ssg82
g4643
sg75
(lp4650
S'{{'
p4651
asbasbasbag68
(g84
g70
NtRp4652
(dp4653
g73
(dp4654
sg82
g4635
sg75
(lp4655
g68
(g89
g70
NtRp4656
(dp4657
g73
(dp4658
sg82
g4652
sg75
(lp4659
g68
(g69
g70
NtRp4660
(dp4661
g73
(dp4662
g81
I4
ssg82
g4656
sg75
(lp4663
S'}}'
p4664
asbasbasbasbasbasbasbag68
(g84
g70
NtRp4665
(dp4666
g73
(dp4667
sg82
g4380
sg75
(lp4668
g68
(g89
g70
NtRp4669
(dp4670
g73
(dp4671
g93
g94
ssg82
g4665
sg75
(lp4672
S'description'
p4673
asbag68
(g89
g70
NtRp4674
(dp4675
g73
(dp4676
g100
g101
ssg82
g4665
sg75
(lp4677
S':'
asbag68
(g89
g70
NtRp4678
(dp4679
g73
(dp4680
sg82
g4665
sg75
(lp4681
g68
(g69
g70
NtRp4682
(dp4683
g73
(dp4684
g81
I5
ssg82
g4678
sg75
(lp4685
S'Hecho con web2py'
p4686
asbasbasbag68
(g84
g70
NtRp4687
(dp4688
g73
(dp4689
sg82
g4380
sg75
(lp4690
g68
(g89
g70
NtRp4691
(dp4692
g73
(dp4693
g93
g94
ssg82
g4687
sg75
(lp4694
S'files'
p4695
asbag68
(g89
g70
NtRp4696
(dp4697
g73
(dp4698
g100
g101
ssg82
g4687
sg75
(lp4699
S':'
asbag68
(g89
g70
NtRp4700
(dp4701
g73
(dp4702
sg82
g4687
sg75
(lp4703
g68
(g69
g70
NtRp4704
(dp4705
g73
(dp4706
g81
I5
ssg82
g4700
sg75
(lp4707
g68
(g77
g70
NtRp4708
(dp4709
g73
(dp4710
g81
I4
ssg82
Nsg75
(lp4711
g68
(g84
g70
NtRp4712
(dp4713
g73
(dp4714
sg82
g4708
sg75
(lp4715
g68
(g89
g70
NtRp4716
(dp4717
g73
(dp4718
sg82
g4712
sg75
(lp4719
g68
(g69
g70
NtRp4720
(dp4721
g73
(dp4722
g81
I4
ssg82
g4716
sg75
(lp4723
S'/plugin_t2/static/t2/scripts/jquery.js'
p4724
asbasbasbag68
(g84
g70
NtRp4725
(dp4726
g73
(dp4727
sg82
g4708
sg75
(lp4728
g68
(g89
g70
NtRp4729
(dp4730
g73
(dp4731
sg82
g4725
sg75
(lp4732
g68
(g69
g70
NtRp4733
(dp4734
g73
(dp4735
g81
I4
ssg82
g4729
sg75
(lp4736
S'/plugin_t2/static/t2/styles/calendar.css'
p4737
asbasbasbag68
(g84
g70
NtRp4738
(dp4739
g73
(dp4740
sg82
g4708
sg75
(lp4741
g68
(g89
g70
NtRp4742
(dp4743
g73
(dp4744
sg82
g4738
sg75
(lp4745
g68
(g69
g70
NtRp4746
(dp4747
g73
(dp4748
g81
I4
ssg82
g4742
sg75
(lp4749
S'/plugin_t2/static/t2/scripts/calendar.js'
p4750
asbasbasbag68
(g84
g70
NtRp4751
(dp4752
g73
(dp4753
sg82
g4708
sg75
(lp4754
g68
(g89
g70
NtRp4755
(dp4756
g73
(dp4757
sg82
g4751
sg75
(lp4758
g68
(g69
g70
NtRp4759
(dp4760
g73
(dp4761
g81
I4
ssg82
g4755
sg75
(lp4762
S'/plugin_t2/static/t2/styles/sfmenu.css'
p4763
asbasbasbag68
(g84
g70
NtRp4764
(dp4765
g73
(dp4766
sg82
g4708
sg75
(lp4767
g68
(g89
g70
NtRp4768
(dp4769
g73
(dp4770
sg82
g4764
sg75
(lp4771
g68
(g69
g70
NtRp4772
(dp4773
g73
(dp4774
g81
I4
ssg82
g4768
sg75
(lp4775
S'/plugin_t2/static/t2/scripts/sfmenu.js'
p4776
asbasbasbag68
(g84
g70
NtRp4777
(dp4778
g73
(dp4779
sg82
g4708
sg75
(lp4780
g68
(g89
g70
NtRp4781
(dp4782
g73
(dp4783
sg82
g4777
sg75
(lp4784
g68
(g69
g70
NtRp4785
(dp4786
g73
(dp4787
g81
I4
ssg82
g4781
sg75
(lp4788
S'/plugin_t2/static/t2/scripts/fancyzoom.min.js'
p4789
asbasbasbag68
(g84
g70
NtRp4790
(dp4791
g73
(dp4792
sg82
g4708
sg75
(lp4793
g68
(g89
g70
NtRp4794
(dp4795
g73
(dp4796
sg82
g4790
sg75
(lp4797
g68
(g69
g70
NtRp4798
(dp4799
g73
(dp4800
g81
I4
ssg82
g4794
sg75
(lp4801
S'/plugin_t2/static/t2/styles/rating.css'
p4802
asbasbasbag68
(g84
g70
NtRp4803
(dp4804
g73
(dp4805
sg82
g4708
sg75
(lp4806
g68
(g89
g70
NtRp4807
(dp4808
g73
(dp4809
sg82
g4803
sg75
(lp4810
g68
(g69
g70
NtRp4811
(dp4812
g73
(dp4813
g81
I4
ssg82
g4807
sg75
(lp4814
S'/plugin_t2/static/t2/scripts/rating.js'
p4815
asbasbasbag68
(g84
g70
NtRp4816
(dp4817
g73
(dp4818
sg82
g4708
sg75
(lp4819
g68
(g89
g70
NtRp4820
(dp4821
g73
(dp4822
sg82
g4816
sg75
(lp4823
g68
(g69
g70
NtRp4824
(dp4825
g73
(dp4826
g81
I4
ssg82
g4820
sg75
(lp4827
S'/plugin_t2/static/t2/scripts/web2py.js'
p4828
asbasbasbasbasbasbasbag68
(g84
g70
NtRp4829
(dp4830
g73
(dp4831
sg82
g4380
sg75
(lp4832
g68
(g89
g70
NtRp4833
(dp4834
g73
(dp4835
g93
g94
ssg82
g4829
sg75
(lp4836
S'flash'
p4837
asbag68
(g89
g70
NtRp4838
(dp4839
g73
(dp4840
g100
g101
ssg82
g4829
sg75
(lp4841
S':'
asbag68
(g89
g70
NtRp4842
(dp4843
g73
(dp4844
sg82
g4829
sg75
(lp4845
g68
(g69
g70
NtRp4846
(dp4847
g73
(dp4848
g81
I5
ssg82
g4842
sg75
(lp4849
S''
asbasbasbag68
(g84
g70
NtRp4850
(dp4851
g73
(dp4852
sg82
g4380
sg75
(lp4853
g68
(g89
g70
NtRp4854
(dp4855
g73
(dp4856
g93
g94
ssg82
g4850
sg75
(lp4857
S'footer'
p4858
asbag68
(g89
g70
NtRp4859
(dp4860
g73
(dp4861
g100
g101
ssg82
g4850
sg75
(lp4862
S':'
asbag68
(g89
g70
NtRp4863
(dp4864
g73
(dp4865
sg82
g4850
sg75
(lp4866
g68
(g69
g70
NtRp4867
(dp4868
g73
(dp4869
g81
I5
ssg82
g4863
sg75
(lp4870
S'<p>InstallFest <a href="http://www.flisol.info/">FLISOL</a> <b>28 de abril de 2012</b> - <a href="http://www.unsa.edu.ar/">Universidad Nacional de Salta</a><br/>\n<a href="http://www.flisol.info/FLISOL2012/Argentina/Salta">http://www.flisol.info/FLISOL2012/Argentina/Salta</a> - organizacion@saltalug.org.ar</p>'
p4871
asbasbasbag68
(g84
g70
NtRp4872
(dp4873
g73
(dp4874
sg82
g4380
sg75
(lp4875
g68
(g89
g70
NtRp4876
(dp4877
g73
(dp4878
g93
g94
ssg82
g4872
sg75
(lp4879
S'generic_patterns'
p4880
asbag68
(g89
g70
NtRp4881
(dp4882
g73
(dp4883
g100
g101
ssg82
g4872
sg75
(lp4884
S':'
asbag68
(g89
g70
NtRp4885
(dp4886
g73
(dp4887
sg82
g4872
sg75
(lp4888
g68
(g69
g70
NtRp4889
(dp4890
g73
(dp4891
g81
I5
ssg82
g4885
sg75
(lp4892
g68
(g77
g70
NtRp4893
(dp4894
g73
(dp4895
g81
I4
ssg82
Nsg75
(lp4896
sbasbasbasbag68
(g84
g70
NtRp4897
(dp4898
g73
(dp4899
sg82
g4380
sg75
(lp4900
g68
(g89
g70
NtRp4901
(dp4902
g73
(dp4903
g93
g94
ssg82
g4897
sg75
(lp4904
S'headers'
p4905
asbag68
(g89
g70
NtRp4906
(dp4907
g73
(dp4908
g100
g101
ssg82
g4897
sg75
(lp4909
S':'
asbag68
(g89
g70
NtRp4910
(dp4911
g73
(dp4912
sg82
g4897
sg75
(lp4913
g68
(g69
g70
NtRp4914
(dp4915
g73
(dp4916
g81
I5
ssg82
g4910
sg75
(lp4917
g68
(g77
g70
NtRp4918
(dp4919
g73
(dp4920
g81
I4
ssg82
Nsg75
(lp4921
g68
(g84
g70
NtRp4922
(dp4923
g73
(dp4924
sg82
g4918
sg75
(lp4925
g68
(g89
g70
NtRp4926
(dp4927
g73
(dp4928
g93
g94
ssg82
g4922
sg75
(lp4929
S'Cache-Control'
p4930
asbag68
(g89
g70
NtRp4931
(dp4932
g73
(dp4933
g100
g101
ssg82
g4922
sg75
(lp4934
S':'
asbag68
(g89
g70
NtRp4935
(dp4936
g73
(dp4937
sg82
g4922
sg75
(lp4938
g68
(g69
g70
NtRp4939
(dp4940
g73
(dp4941
g81
I4
ssg82
g4935
sg75
(lp4942
S'no-store, no-cache, must-revalidate, post-check=0, pre-check=0'
p4943
asbasbasbag68
(g84
g70
NtRp4944
(dp4945
g73
(dp4946
sg82
g4918
sg75
(lp4947
g68
(g89
g70
NtRp4948
(dp4949
g73
(dp4950
g93
g94
ssg82
g4944
sg75
(lp4951
S'Content-Type'
p4952
asbag68
(g89
g70
NtRp4953
(dp4954
g73
(dp4955
g100
g101
ssg82
g4944
sg75
(lp4956
S':'
asbag68
(g89
g70
NtRp4957
(dp4958
g73
(dp4959
sg82
g4944
sg75
(lp4960
g68
(g69
g70
NtRp4961
(dp4962
g73
(dp4963
g81
I4
ssg82
g4957
sg75
(lp4964
S'text/html; charset=utf-8'
p4965
asbasbasbag68
(g84
g70
NtRp4966
(dp4967
g73
(dp4968
sg82
g4918
sg75
(lp4969
g68
(g89
g70
NtRp4970
(dp4971
g73
(dp4972
g93
g94
ssg82
g4966
sg75
(lp4973
S'Expires'
p4974
asbag68
(g89
g70
NtRp4975
(dp4976
g73
(dp4977
g100
g101
ssg82
g4966
sg75
(lp4978
S':'
asbag68
(g89
g70
NtRp4979
(dp4980
g73
(dp4981
sg82
g4966
sg75
(lp4982
g68
(g69
g70
NtRp4983
(dp4984
g73
(dp4985
g81
I4
ssg82
g4979
sg75
(lp4986
S'Fri, 09 Mar 2012 21:38:04 GMT'
p4987
asbasbasbag68
(g84
g70
NtRp4988
(dp4989
g73
(dp4990
sg82
g4918
sg75
(lp4991
g68
(g89
g70
NtRp4992
(dp4993
g73
(dp4994
g93
g94
ssg82
g4988
sg75
(lp4995
S'Pragma'
p4996
asbag68
(g89
g70
NtRp4997
(dp4998
g73
(dp4999
g100
g101
ssg82
g4988
sg75
(lp5000
S':'
asbag68
(g89
g70
NtRp5001
(dp5002
g73
(dp5003
sg82
g4988
sg75
(lp5004
g68
(g69
g70
NtRp5005
(dp5006
g73
(dp5007
g81
I4
ssg82
g5001
sg75
(lp5008
S'no-cache'
p5009
asbasbasbag68
(g84
g70
NtRp5010
(dp5011
g73
(dp5012
sg82
g4918
sg75
(lp5013
g68
(g89
g70
NtRp5014
(dp5015
g73
(dp5016
g93
g94
ssg82
g5010
sg75
(lp5017
S'X-Powered-By'
p5018
asbag68
(g89
g70
NtRp5019
(dp5020
g73
(dp5021
g100
g101
ssg82
g5010
sg75
(lp5022
S':'
asbag68
(g89
g70
NtRp5023
(dp5024
g73
(dp5025
sg82
g5010
sg75
(lp5026
g68
(g69
g70
NtRp5027
(dp5028
g73
(dp5029
g81
I4
ssg82
g5023
sg75
(lp5030
S'web2py'
p5031
asbasbasbasbasbasbasbag68
(g84
g70
NtRp5032
(dp5033
g73
(dp5034
sg82
g4380
sg75
(lp5035
g68
(g89
g70
NtRp5036
(dp5037
g73
(dp5038
g93
g94
ssg82
g5032
sg75
(lp5039
S'keywords'
p5040
asbag68
(g89
g70
NtRp5041
(dp5042
g73
(dp5043
g100
g101
ssg82
g5032
sg75
(lp5044
S':'
asbag68
(g89
g70
NtRp5045
(dp5046
g73
(dp5047
sg82
g5032
sg75
(lp5048
g68
(g69
g70
NtRp5049
(dp5050
g73
(dp5051
g81
I5
ssg82
g5045
sg75
(lp5052
S'festival, instalaci\xc3\xb3n, software libre, salta, argentina, flisol'
p5053
asbasbasbag68
(g84
g70
NtRp5054
(dp5055
g73
(dp5056
sg82
g4380
sg75
(lp5057
g68
(g89
g70
NtRp5058
(dp5059
g73
(dp5060
g93
g94
ssg82
g5054
sg75
(lp5061
S'menu'
p5062
asbag68
(g89
g70
NtRp5063
(dp5064
g73
(dp5065
g100
g101
ssg82
g5054
sg75
(lp5066
S':'
asbag68
(g89
g70
NtRp5067
(dp5068
g73
(dp5069
sg82
g5054
sg75
(lp5070
g68
(g69
g70
NtRp5071
(dp5072
g73
(dp5073
g81
I5
ssg82
g5067
sg75
(lp5074
g68
(g77
g70
NtRp5075
(dp5076
g73
(dp5077
g81
I4
ssg82
Nsg75
(lp5078
sbasbasbasbag68
(g84
g70
NtRp5079
(dp5080
g73
(dp5081
sg82
g4380
sg75
(lp5082
g68
(g89
g70
NtRp5083
(dp5084
g73
(dp5085
g93
g94
ssg82
g5079
sg75
(lp5086
S'meta'
p5087
asbag68
(g89
g70
NtRp5088
(dp5089
g73
(dp5090
g100
g101
ssg82
g5079
sg75
(lp5091
S':'
asbag68
(g89
g70
NtRp5092
(dp5093
g73
(dp5094
sg82
g5079
sg75
(lp5095
g68
(g69
g70
NtRp5096
(dp5097
g73
(dp5098
g81
I5
ssg82
g5092
sg75
(lp5099
g68
(g77
g70
NtRp5100
(dp5101
g73
(dp5102
g81
I4
ssg82
Nsg75
(lp5103
sbasbasbasbag68
(g84
g70
NtRp5104
(dp5105
g73
(dp5106
sg82
g4380
sg75
(lp5107
g68
(g89
g70
NtRp5108
(dp5109
g73
(dp5110
g93
g94
ssg82
g5104
sg75
(lp5111
S'postprocessing'
p5112
asbag68
(g89
g70
NtRp5113
(dp5114
g73
(dp5115
g100
g101
ssg82
g5104
sg75
(lp5116
S':'
asbag68
(g89
g70
NtRp5117
(dp5118
g73
(dp5119
sg82
g5104
sg75
(lp5120
g68
(g69
g70
NtRp5121
(dp5122
g73
(dp5123
g81
I5
ssg82
g5117
sg75
(lp5124
g68
(g77
g70
NtRp5125
(dp5126
g73
(dp5127
g81
I4
ssg82
Nsg75
(lp5128
sbasbasbasbag68
(g84
g70
NtRp5129
(dp5130
g73
(dp5131
sg82
g4380
sg75
(lp5132
g68
(g89
g70
NtRp5133
(dp5134
g73
(dp5135
g93
g94
ssg82
g5129
sg75
(lp5136
S'session_file'
p5137
asbag68
(g89
g70
NtRp5138
(dp5139
g73
(dp5140
g100
g101
ssg82
g5129
sg75
(lp5141
S':'
asbag68
(g89
g70
NtRp5142
(dp5143
g73
(dp5144
sg82
g5129
sg75
(lp5145
g68
(g69
g70
NtRp5146
(dp5147
g73
(dp5148
g81
I5
ssg82
g5142
sg75
(lp5149
S"<open file '/home/marco/flisol2012/web2py/applications/flisol2012/sessions/127.0.0.1-2ede3a58-f97e-48e1-8d0e-90e5ecfe16bf', mode 'rb+' at 0x2086780>"
p5150
asbasbasbag68
(g84
g70
NtRp5151
(dp5152
g73
(dp5153
sg82
g4380
sg75
(lp5154
g68
(g89
g70
NtRp5155
(dp5156
g73
(dp5157
g93
g94
ssg82
g5151
sg75
(lp5158
S'session_filename'
p5159
asbag68
(g89
g70
NtRp5160
(dp5161
g73
(dp5162
g100
g101
ssg82
g5151
sg75
(lp5163
S':'
asbag68
(g89
g70
NtRp5164
(dp5165
g73
(dp5166
sg82
g5151
sg75
(lp5167
g68
(g69
g70
NtRp5168
(dp5169
g73
(dp5170
g81
I5
ssg82
g5164
sg75
(lp5171
S'/home/marco/flisol2012/web2py/applications/flisol2012/sessions/127.0.0.1-2ede3a58-f97e-48e1-8d0e-90e5ecfe16bf'
p5172
asbasbasbag68
(g84
g70
NtRp5173
(dp5174
g73
(dp5175
sg82
g4380
sg75
(lp5176
g68
(g89
g70
NtRp5177
(dp5178
g73
(dp5179
g93
g94
ssg82
g5173
sg75
(lp5180
S'session_id'
p5181
asbag68
(g89
g70
NtRp5182
(dp5183
g73
(dp5184
g100
g101
ssg82
g5173
sg75
(lp5185
S':'
asbag68
(g89
g70
NtRp5186
(dp5187
g73
(dp5188
sg82
g5173
sg75
(lp5189
g68
(g69
g70
NtRp5190
(dp5191
g73
(dp5192
g81
I5
ssg82
g5186
sg75
(lp5193
S'127.0.0.1-2ede3a58-f97e-48e1-8d0e-90e5ecfe16bf'
p5194
asbasbasbag68
(g84
g70
NtRp5195
(dp5196
g73
(dp5197
sg82
g4380
sg75
(lp5198
g68
(g89
g70
NtRp5199
(dp5200
g73
(dp5201
g93
g94
ssg82
g5195
sg75
(lp5202
S'session_id_name'
p5203
asbag68
(g89
g70
NtRp5204
(dp5205
g73
(dp5206
g100
g101
ssg82
g5195
sg75
(lp5207
S':'
asbag68
(g89
g70
NtRp5208
(dp5209
g73
(dp5210
sg82
g5195
sg75
(lp5211
g68
(g69
g70
NtRp5212
(dp5213
g73
(dp5214
g81
I5
ssg82
g5208
sg75
(lp5215
g4437
asbasbasbag68
(g84
g70
NtRp5216
(dp5217
g73
(dp5218
sg82
g4380
sg75
(lp5219
g68
(g89
g70
NtRp5220
(dp5221
g73
(dp5222
g93
g94
ssg82
g5216
sg75
(lp5223
S'session_locked'
p5224
asbag68
(g89
g70
NtRp5225
(dp5226
g73
(dp5227
g100
g101
ssg82
g5216
sg75
(lp5228
S':'
asbag68
(g89
g70
NtRp5229
(dp5230
g73
(dp5231
sg82
g5216
sg75
(lp5232
g68
(g69
g70
NtRp5233
(dp5234
g73
(dp5235
g81
I5
ssg82
g5229
sg75
(lp5236
g1852
asbasbasbag68
(g84
g70
NtRp5237
(dp5238
g73
(dp5239
sg82
g4380
sg75
(lp5240
g68
(g89
g70
NtRp5241
(dp5242
g73
(dp5243
g93
g94
ssg82
g5237
sg75
(lp5244
S'session_new'
p5245
asbag68
(g89
g70
NtRp5246
(dp5247
g73
(dp5248
g100
g101
ssg82
g5237
sg75
(lp5249
S':'
asbag68
(g89
g70
NtRp5250
(dp5251
g73
(dp5252
sg82
g5237
sg75
(lp5253
g68
(g69
g70
NtRp5254
(dp5255
g73
(dp5256
g81
I5
ssg82
g5250
sg75
(lp5257
g111
asbasbasbag68
(g84
g70
NtRp5258
(dp5259
g73
(dp5260
sg82
g4380
sg75
(lp5261
g68
(g89
g70
NtRp5262
(dp5263
g73
(dp5264
g93
g94
ssg82
g5258
sg75
(lp5265
S'status'
p5266
asbag68
(g89
g70
NtRp5267
(dp5268
g73
(dp5269
g100
g101
ssg82
g5258
sg75
(lp5270
S':'
asbag68
(g89
g70
NtRp5271
(dp5272
g73
(dp5273
sg82
g5258
sg75
(lp5274
g68
(g69
g70
NtRp5275
(dp5276
g73
(dp5277
g81
I5
ssg82
g5271
sg75
(lp5278
S'200'
p5279
asbasbasbag68
(g84
g70
NtRp5280
(dp5281
g73
(dp5282
sg82
g4380
sg75
(lp5283
g68
(g89
g70
NtRp5284
(dp5285
g73
(dp5286
g93
g94
ssg82
g5280
sg75
(lp5287
S'subtitle'
p5288
asbag68
(g89
g70
NtRp5289
(dp5290
g73
(dp5291
g100
g101
ssg82
g5280
sg75
(lp5292
S':'
asbag68
(g89
g70
NtRp5293
(dp5294
g73
(dp5295
sg82
g5280
sg75
(lp5296
g68
(g69
g70
NtRp5297
(dp5298
g73
(dp5299
g81
I5
ssg82
g5293
sg75
(lp5300
S''
asbasbasbag68
(g84
g70
NtRp5301
(dp5302
g73
(dp5303
sg82
g4380
sg75
(lp5304
g68
(g89
g70
NtRp5305
(dp5306
g73
(dp5307
g93
g94
ssg82
g5301
sg75
(lp5308
S'title'
p5309
asbag68
(g89
g70
NtRp5310
(dp5311
g73
(dp5312
g100
g101
ssg82
g5301
sg75
(lp5313
S':'
asbag68
(g89
g70
NtRp5314
(dp5315
g73
(dp5316
sg82
g5301
sg75
(lp5317
g68
(g69
g70
NtRp5318
(dp5319
g73
(dp5320
g81
I5
ssg82
g5314
sg75
(lp5321
S'FLISOL 2012 - Salta'
p5322
asbasbasbag68
(g84
g70
NtRp5323
(dp5324
g73
(dp5325
sg82
g4380
sg75
(lp5326
g68
(g89
g70
NtRp5327
(dp5328
g73
(dp5329
g93
g94
ssg82
g5323
sg75
(lp5330
g2516
asbag68
(g89
g70
NtRp5331
(dp5332
g73
(dp5333
g100
g101
ssg82
g5323
sg75
(lp5334
S':'
asbag68
(g89
g70
NtRp5335
(dp5336
g73
(dp5337
sg82
g5323
sg75
(lp5338
g68
(g69
g70
NtRp5339
(dp5340
g73
(dp5341
g81
I5
ssg82
g5335
sg75
(lp5342
g2529
asbasbasbag68
(g84
g70
NtRp5343
(dp5344
g73
(dp5345
sg82
g4380
sg75
(lp5346
g68
(g89
g70
NtRp5347
(dp5348
g73
(dp5349
g93
g94
ssg82
g5343
sg75
(lp5350
S'view'
p5351
asbag68
(g89
g70
NtRp5352
(dp5353
g73
(dp5354
g100
g101
ssg82
g5343
sg75
(lp5355
S':'
asbag68
(g89
g70
NtRp5356
(dp5357
g73
(dp5358
sg82
g5343
sg75
(lp5359
g68
(g69
g70
NtRp5360
(dp5361
g73
(dp5362
g81
I5
ssg82
g5356
sg75
(lp5363
S'default/index.html'
p5364
asbasbasbasbasbsS'locals'
p5365
(dp5366
g4
S"'/home/marco/flisol2012/web2py/applications/flisol2012/models/menu.py'"
p5367
sg6
S'"# coding: utf8\\n\\nsession.manager=(auth.user and a...response.sidebar.append([T(\'Your Talks\'),talks])\\n"'
p5368
sssS'traceback'
p5369
S'Traceback (most recent call last):\n  File "/home/marco/flisol2012/web2py/gluon/restricted.py", line 204, in restricted\n    ccode = compile2(code,layer)\n  File "/home/marco/flisol2012/web2py/gluon/restricted.py", line 189, in compile2\n    return compile(code.rstrip().replace(\'\\r\\n\',\'\\n\')+\'\\n\', layer, \'exec\')\n  File "/home/marco/flisol2012/web2py/applications/flisol2012/models/menu.py", line 29\n    ]\n    ^\nSyntaxError: invalid syntax\n'
p5370
s.