(dp1
S'output'
p2
S"<type 'exceptions.SyntaxError'> invalid syntax (attendees.html, line 89)"
p3
sS'layer'
p4
S'/home/marco/flisol2012/web2py/applications/flisol2012/views/default/attendees.html'
p5
sS'code'
p6
S'response.write(\'<!DOCTYPE html PUBLIC "-//W3C//DTD XHTML 1.0 Strict//EN" "http://www.w3.org/TR/xhtml1/DTD/xhtml1-strict.dtd">\\n<!--\\nDesign by Free CSS Templates, modified by Massimo Di Pierro\\nhttp://www.freecsstemplates.org\\nReleased for free under a Creative Commons Attribution 2.5 License\\n\\nName       : Flavour\\nDescription: A two-column, fixed-width design with dark color scheme.\\nVersion    : 1.0\\nReleased   : 20080425\\n-->\\n<html xmlns="http://www.w3.org/1999/xhtml">\\n<head>\\n<title>\', escape=False)\nresponse.write(response.title or URL(r=request))\nresponse.write(\'</title>\\n<meta http-equiv="content-type" content="text/html; charset=utf-8" />\\n<meta name="keywords" content="\', escape=False)\nresponse.write(response.keywords)\nresponse.write(\'" />\\n<meta name="description" content="\', escape=False)\nresponse.write(response.description)\nresponse.write(\'" />\\n<link rel="icon" href="\', escape=False)\nresponse.write(URL(r=request,c=\'static\',f=\'favicon.ico\'))\nresponse.write(\'" type="image/x-icon">\\n<link rel="stylesheet" type="text/css" href="\', escape=False)\nresponse.write(URL(r=request,c=\'static\',f=\'style.css\'))\nresponse.write(\'" />\\n\', escape=False)\nimport os\nresponse.write(\'\\n<link href="\', escape=False)\nresponse.write(URL(r=request,c=\'static\',f=\'calendar.css\'))\nresponse.write(\'" rel="stylesheet" type="text/css" media="screen" charset="utf-8" />\\n<script src="\', escape=False)\nresponse.write(URL(r=request,c=\'static\',f=\'jquery.js\'))\nresponse.write(\'" type="text/javascript"></script>\\n<script src="\', escape=False)\nresponse.write(URL(r=request,c=\'static\',f=\'calendar.js\'))\nresponse.write(\'" type="text/javascript" charset="utf-8"></script>\\n<script type="text/javascript"><!--\\nfunction popup(url) {\\n  newwindow=window.open(url,\\\'name\\\',\\\'height=400,width=600\\\');\\n  if (window.focus) newwindow.focus();\\n  return false;\\n}\\nfunction collapse(id) { $(\\\'#\\\'+id).slideToggle(); }\\nfunction fade(id,value) { if(value>0) $(\\\'#\\\'+id).hide().fadeIn(\\\'slow\\\'); else $(\\\'#\\\'+id).show().fadeOut(\\\'slow\\\'); }\\nfunction ajax(u,s,t) {\\n  var query="";\\n  for(i=0; i<s.length; i++) { \\n     if(i>0) query=query+"&";\\n     query=query+encodeURIComponent(s[i])+"="+encodeURIComponent(document.getElementById(s[i]).value);\\n  }\\n  $.ajax({type: "POST", url: u, data: query, success: function(msg) { document.getElementById(t).innerHTML=msg; } });  \\n}\\nString.prototype.reverse = function () { return this.split(\\\'\\\').reverse().join(\\\'\\\');};\\n$(document).ready(function() {\\n$(\\\'.hidden\\\').hide();\\n$(\\\'.error\\\').hide().slideDown(\\\'slow\\\');\\n$(\\\'.flash\\\').hide().slideDown(\\\'slow\\\')\\n$(\\\'.flash\\\').click(function() { $(this).fadeOut(\\\'slow\\\'); return false; });\\n$(\\\'input.string\\\').attr(\\\'size\\\',50);\\n$(\\\'textarea.text\\\').attr(\\\'cols\\\',50).attr(\\\'rows\\\',10);\\n$(\\\'input.integer\\\').keyup(function(){this.value=this.value.reverse().replace(/[^0-9\\\\-]|\\\\-(?=.)/g,\\\'\\\').reverse();});\\n$(\\\'input.double\\\').keyup(function(){this.value=this.value.reverse().replace(/[^0-9\\\\-\\\\.]|[\\\\-](?=.)|[\\\\.](?=[0-9]*[\\\\.])/g,\\\'\\\').reverse();});\\n$(\\\'input.delete\\\').attr(\\\'onclick\\\',\\\'if(this.checked) if(!confirm("\', escape=False)\nresponse.write(T(\'Sure you want to delete this object?\'))\nresponse.write(\'")) this.checked=false;\\\');\\ntry {$("input.date").focus( function() {Calendar.setup({\\n     inputField:this.id, ifFormat:"\', escape=False)\nresponse.write(T(\'%Y-%m-%d\'))\nresponse.write(\'", showsTime:false\\n}); }); } catch(e) {};\\ntry { $("input.datetime").focus( function() {Calendar.setup({\\n     inputField:this.id, ifFormat:"\', escape=False)\nresponse.write(T(\'%Y-%m-%d %H:%M:%S\'))\nresponse.write(\'", showsTime: true,timeFormat: "24"\\n}); }); } catch(e) {};\\ntry { $("input.time").clockpick({\\n     starthour:0, endhour:23, showminutes:true, military:true\\n}); } catch(e) {};\\n});\\n//--></script>\', escape=False)\nresponse.write(\'\\n<script src="\', escape=False)\nresponse.write(URL(r=request,c=\'static\',f=\'scripts/sfmenu.js\'))\nresponse.write(\'"></script>\\n<script src="\', escape=False)\nresponse.write(URL(r=request,c=\'static\',f=\'scripts/jquery.dimensions.js\'))\nresponse.write(\'"></script><script src="\', escape=False)\nresponse.write(URL(r=request,c=\'static\',f=\'scripts/jqueryMultiSelect.js\'))\nresponse.write(\'"></script>\\n<link rel="stylesheet" type="text/css" href="\', escape=False)\nresponse.write(URL(r=request,c=\'static\',f=\'scripts/jqueryMultiSelect.css\'))\nresponse.write(\'" />\\n<script>\\n$(document).ready(function() { $(\\\'.sf-menu\\\').superfish({ animation: {height:\\\'show\\\'}, delay:500 }); \\n$(\\\'#auth_user_tutorials\\\').multiSelect({selectAll: false});\\n});\\n</script>\\n</head>\\n<body>\\n<div id="header">\\n  <div id="logo">\\n    <img alt="logo" src="\', escape=False)\nresponse.write(URL(r=request,c=\'static\',f=\'logo.png\'))\nresponse.write(\'"/>\\n    <h1>\', escape=False)\nresponse.write(response.title)\nresponse.write(\'</h1>\\n    <p>Festival latinoamericano de Instalaci\\xc3\\xb3n de Software Libre</p>\\n  </div>\\n  <div id="search">\\n    <form method="get" action="http://www.google.com/search">\\n      <fieldset>\\n        <input id="search-text" type="text" name="as_q" value="" size="15"/>\\n        <input type="hidden" name="as_sitesearch" value="\', escape=False)\nresponse.write(request.env.http_host)\nresponse.write(\'">\\n        <input type="submit" id="search-submit" value="Search" />\\n      </fieldset>\\n      <span style="color: #ffffff; font-size: smaller;">\', escape=False)\nresponse.write(T("Language"))\nresponse.write(\': <a href="?lang=es" style="color: #ffffff; font-size: smaller;">Espa\\xc3\\xb1ol</a>, <a href="?lang=pt" style="color: #ffffff; font-size: smaller;">Portugu\\xc3\\xaas</a>, <a href="?lang=en" style="color: #ffffff; font-size: smaller">English</a></a>\\n    </form>\\n  </div>\\n</div>\\n<div id="menu">\\n  \', escape=False)\nresponse.write(t2.menu(response.menu))\nresponse.write(\'\\n</div>\\n<div id="page">\\n  <div id="content">\\n    \', escape=False)\ntry:\n    if not response.flash and form.errors:\n        response.flash=T("There are errors in your form below")\n        pass\nexcept: pass\nresponse.write(\'\\n    \', escape=False)\nif response.flash:\n    response.write(\'<div class="flash">\', escape=False)\n    response.write(response.flash)\n    response.write(\'</div>\', escape=False)\n    pass\nresponse.write(\'\\n    \', escape=False)\nif auth.user:\n    response.write(\'<h3>\', escape=False)\n    response.write(T(\'Hello\'))\n    response.write(\' \', escape=False)\n    response.write(auth.user.first_name)\n    response.write(\'\\n    \', escape=False)\n    if session.manager:\n        response.write(\' (manager)\', escape=False)\n        pass\n    response.write(\'\\n    \', escape=False)\n    if session.balance is not None and session.balance>0 and not request.function==\'pay\':\n        response.write(\', \', escape=False)\n        response.write(T(\'You have not paid for your registration; the cost is\'))\n        response.write(\' $\', escape=False)\n        response.write(T(\'%0.2f\' % session.balance))\n        response.write(\' [\', escape=False)\n        response.write(A(T(\'pay now\'),_href=t2.action(\'pay\')))\n        response.write(\']\\n    \', escape=False)\n    elif session.balance is not None and session.balance<0 and not request.function==\'pay\':\n        response.write(\', \', escape=False)\n        response.write(T(\'You have a credit of\'))\n        response.write(\' $\', escape=False)\n        response.write(T(\'%0.2f\' % -session.balance))\n        response.write(\' [\', escape=False)\n        response.write(A(T(\'info\'),_href=t2.action(\'pay\')))\n        response.write(\']\', escape=False)\n        pass\n    response.write(\'</h3>\', escape=False)\n    pass\nresponse.write(\'\\n    \', escape=False)\nresponse.write(\'\\n\', escape=False)\npd = db((db.asistente).count()\nresponse.write(\'\\n\', escape=False)\ntot = db(db.asistente).count()\nresponse.write(\'\\n<div class="frame">\\n<h2>\', escape=False)\nresponse.write(T(\'Conference Participants\'))\nresponse.write(\'</h2>\\n<table>\\n<tr><td width="10px"/><td>\\n\', escape=False)\nresponse.write(T(\'%5d Pending Registrations\',tot-pd))\nresponse.write(\'\\n</td></tr><tr><td width="10px"/><td>\\n\', escape=False)\nresponse.write(T(\'%5d Completed Registrations\',pd))\nresponse.write(\'\\n</td></tr><tr><td width="10px"/><td>\\n\', escape=False)\nresponse.write(T(\'%5d Total Paid and Pending Registrations\',tot))\nresponse.write(\'\\n</td></tr>\\n</table>\\n<br/>\\n\', escape=False)\nif not session.manager:\n    response.write(\'\\n<i>\', escape=False)\n    response.write(T("Here is a partial list of conference attendees, showing everyone who wished to make their attendance public."))\n    response.write(\'</i>\\n\', escape=False)\nelse:\n    response.write(\'<i>\', escape=False)\n    response.write(T(\'Below is the complete list, as accessible to managers only.\'))\n    response.write(\'</i>\', escape=False)\n    pass\nresponse.write(\'<br/><br/>\\n<table>\\n<tr><th width="200px">\', escape=False)\nresponse.write(T("Name"))\nresponse.write(\'</th><th>\', escape=False)\nresponse.write(T("Company"))\nresponse.write(\'</th>\\n\', escape=False)\nif session.manager:\n    response.write(\'<td><b>Email</b></td>\', escape=False)\n    pass\nresponse.write(\'\\n</tr>\\n\', escape=False)\nfor row in rows:\n    response.write(\'\\n<tr>\\n<td>\', escape=False)\n    response.write(A(row.nombre+\' \'+row.apellido))\n    response.write(\'</td><td>\', escape=False)\n    response.write(A(row.institucion))\n    response.write(\'</td>\\n\', escape=False)\n    if session.manager:\n        response.write(\'<td><a href="mailto:\', escape=False)\n        response.write(row.email)\n        response.write(\'">\', escape=False)\n        response.write(row.email)\n        response.write(\'</a></td>\', escape=False)\n        pass\n    response.write(\'\\n</tr>\\n\', escape=False)\n    pass\nresponse.write(\'\\n</table>\\n\\n</div>\\n\', escape=False)\nresponse.write(\'\\n    <br/><div class="frame"><h2>\', escape=False)\nresponse.write(T("About"))\nresponse.write(\' \', escape=False)\nresponse.write(response.title)\nresponse.write(\'</h2>\', escape=False)\nresponse.write(XML(response.footer))\nresponse.write(\'</div>\\n  </div>\\n  \', escape=False)\nif response.sidebar:\n    response.write(\'\\n  <div id="sidebar">  \\n    <ul>\\n      \', escape=False)\n    for _i in response.sidebar or []:\n        response.write(\'\\n      <li>\\n         <h2>\', escape=False)\n        response.write(_i[0])\n        response.write(\'</h2>\\n         \', escape=False)\n        if isinstance(_i[1],list):\n            response.write(\'\\n         <ul>\\n           \', escape=False)\n            for _j in _i[1]:\n                response.write(\'\\n           <li>\', escape=False)\n                response.write(A(_j[0],_href=_j[1]))\n                response.write(\'</li>\\n           \', escape=False)\n                pass\n            response.write(\'\\n         </ul>\\n         \', escape=False)\n        else:\n            response.write(\'\\n         <p>\', escape=False)\n            response.write(_i[1])\n            response.write(\'</p>\\n         \', escape=False)\n            pass\n        response.write(\'\\n      </li>\\n      \', escape=False)\n        pass\n    response.write(\'\\n    </ul>\\n  </div>\\n  \', escape=False)\n    pass\nresponse.write(\'\\n  <div style="clear: both;">&nbsp;</div>\\n  </div>\\n  <div id="footer">\\n    <p><a href="http://www.web2py.com.ar"><img src="\', escape=False)\nresponse.write(URL(r=request,c=\'static\',f=\'media/poweredby.png\'))\nresponse.write(\'" /></a></p>\\n  </div>\\n  <script type="text/javascript">\\nvar gaJsHost = (("https:" == document.location.protocol) ? "https://ssl." : "http://www.");\\ndocument.write(unescape("%3Cscript src=\\\'" + gaJsHost + "google-analytics.com/ga.js\\\' type=\\\'text/javascript\\\'%3E%3C/script%3E"));\\n</script>\\n<script type="text/javascript">\\ntry {\\nvar pageTracker = _gat._getTracker("UA-15712735-1");\\npageTracker._trackPageview();\\n} catch(err) {}</script>\\n</body>\\n</html>\\n\', escape=False)'
p7
sS'snapshot'
p8
(dp9
S'exception'
p10
(dp11
S'__getslice__'
p12
S"<method-wrapper '__getslice__' of exceptions.SyntaxError object>"
p13
sS'text'
p14
S'"response.write(\'\\\\n\', escape=False)\\n"'
p15
sS'__str__'
p16
S"<method-wrapper '__str__' of exceptions.SyntaxError object>"
p17
sS'__reduce__'
p18
S'<built-in method __reduce__ of exceptions.SyntaxError object>'
p19
sS'__dict__'
p20
S'{}'
p21
sS'__sizeof__'
p22
S'<built-in method __sizeof__ of exceptions.SyntaxError object>'
p23
sS'__init__'
p24
S"<method-wrapper '__init__' of exceptions.SyntaxError object>"
p25
sS'__setattr__'
p26
S"<method-wrapper '__setattr__' of exceptions.SyntaxError object>"
p27
sS'__reduce_ex__'
p28
S'<built-in method __reduce_ex__ of exceptions.SyntaxError object>'
p29
sS'__new__'
p30
S'<built-in method __new__ of type object>'
p31
sS'__format__'
p32
S'<built-in method __format__ of exceptions.SyntaxError object>'
p33
sS'__class__'
p34
S"<type 'exceptions.SyntaxError'>"
p35
sS'filename'
p36
S"'/home/marco/flisol2012/web2py/applications/flisol2012/views/default/attendees.html'"
p37
sS'lineno'
p38
S'89'
p39
sS'msg'
p40
S"'invalid syntax'"
p41
sS'__doc__'
p42
S"'Invalid syntax.'"
p43
sS'__getitem__'
p44
S"<method-wrapper '__getitem__' of exceptions.SyntaxError object>"
p45
sS'__setstate__'
p46
S'<built-in method __setstate__ of exceptions.SyntaxError object>'
p47
sS'__getattribute__'
p48
S"<method-wrapper '__getattribute__' of exceptions.SyntaxError object>"
p49
sS'print_file_and_line'
p50
S'None'
p51
sS'args'
p52
S'(\'invalid syntax\', (\'/home/marco/flisol2012/web2py/applications/flisol2012/views/default/attendees.html\', 89, 8, "response.write(\'\\\\n\', escape=False)\\n"))'
p53
sS'__subclasshook__'
p54
S'<built-in method __subclasshook__ of type object>'
p55
sS'offset'
p56
S'8'
sS'__unicode__'
p57
S'<built-in method __unicode__ of exceptions.SyntaxError object>'
p58
sS'__delattr__'
p59
S"<method-wrapper '__delattr__' of exceptions.SyntaxError object>"
p60
sS'__repr__'
p61
S"<method-wrapper '__repr__' of exceptions.SyntaxError object>"
p62
sS'__hash__'
p63
S"<method-wrapper '__hash__' of exceptions.SyntaxError object>"
p64
ssS'evalue'
p65
S'invalid syntax (attendees.html, line 89)'
p66
sS'request'
p67
ccopy_reg
_reconstructor
p68
(cgluon.html
BEAUTIFY
p69
c__builtin__
object
p70
NtRp71
(dp72
S'attributes'
p73
(dp74
sS'components'
p75
(lp76
g68
(cgluon.html
TABLE
p77
g70
NtRp78
(dp79
g73
(dp80
S'level'
p81
I5
ssS'parent'
p82
Nsg75
(lp83
g68
(cgluon.html
TR
p84
g70
NtRp85
(dp86
g73
(dp87
sg82
g78
sg75
(lp88
g68
(cgluon.html
TD
p89
g70
NtRp90
(dp91
g73
(dp92
S'_style'
p93
S'font-weight:bold;vertical-align:top'
p94
ssg82
g85
sg75
(lp95
S'ajax'
p96
asbag68
(g89
g70
NtRp97
(dp98
g73
(dp99
S'_valign'
p100
S'top'
p101
ssg82
g85
sg75
(lp102
S':'
asbag68
(g89
g70
NtRp103
(dp104
g73
(dp105
sg82
g85
sg75
(lp106
g68
(g69
g70
NtRp107
(dp108
g73
(dp109
g81
I5
ssg82
g103
sg75
(lp110
S'False'
p111
asbasbasbag68
(g84
g70
NtRp112
(dp113
g73
(dp114
sg82
g78
sg75
(lp115
g68
(g89
g70
NtRp116
(dp117
g73
(dp118
g93
g94
ssg82
g112
sg75
(lp119
S'application'
p120
asbag68
(g89
g70
NtRp121
(dp122
g73
(dp123
g100
g101
ssg82
g112
sg75
(lp124
S':'
asbag68
(g89
g70
NtRp125
(dp126
g73
(dp127
sg82
g112
sg75
(lp128
g68
(g69
g70
NtRp129
(dp130
g73
(dp131
g81
I5
ssg82
g125
sg75
(lp132
S'flisol2012'
p133
asbasbasbag68
(g84
g70
NtRp134
(dp135
g73
(dp136
sg82
g78
sg75
(lp137
g68
(g89
g70
NtRp138
(dp139
g73
(dp140
g93
g94
ssg82
g134
sg75
(lp141
g52
asbag68
(g89
g70
NtRp142
(dp143
g73
(dp144
g100
g101
ssg82
g134
sg75
(lp145
S':'
asbag68
(g89
g70
NtRp146
(dp147
g73
(dp148
sg82
g134
sg75
(lp149
g68
(g69
g70
NtRp150
(dp151
g73
(dp152
g81
I5
ssg82
g146
sg75
(lp153
g68
(g77
g70
NtRp154
(dp155
g73
(dp156
g81
I4
ssg82
Nsg75
(lp157
sbasbasbasbag68
(g84
g70
NtRp158
(dp159
g73
(dp160
sg82
g78
sg75
(lp161
g68
(g89
g70
NtRp162
(dp163
g73
(dp164
g93
g94
ssg82
g158
sg75
(lp165
S'body'
p166
asbag68
(g89
g70
NtRp167
(dp168
g73
(dp169
g100
g101
ssg82
g158
sg75
(lp170
S':'
asbag68
(g89
g70
NtRp171
(dp172
g73
(dp173
sg82
g158
sg75
(lp174
g68
(g69
g70
NtRp175
(dp176
g73
(dp177
g81
I5
ssg82
g171
sg75
(lp178
S'<cStringIO.StringO object at 0x21f5fb8>'
p179
asbasbasbag68
(g84
g70
NtRp180
(dp181
g73
(dp182
sg82
g78
sg75
(lp183
g68
(g89
g70
NtRp184
(dp185
g73
(dp186
g93
g94
ssg82
g180
sg75
(lp187
S'client'
p188
asbag68
(g89
g70
NtRp189
(dp190
g73
(dp191
g100
g101
ssg82
g180
sg75
(lp192
S':'
asbag68
(g89
g70
NtRp193
(dp194
g73
(dp195
sg82
g180
sg75
(lp196
g68
(g69
g70
NtRp197
(dp198
g73
(dp199
g81
I5
ssg82
g193
sg75
(lp200
S'127.0.0.1'
p201
asbasbasbag68
(g84
g70
NtRp202
(dp203
g73
(dp204
sg82
g78
sg75
(lp205
g68
(g89
g70
NtRp206
(dp207
g73
(dp208
g93
g94
ssg82
g202
sg75
(lp209
S'controller'
p210
asbag68
(g89
g70
NtRp211
(dp212
g73
(dp213
g100
g101
ssg82
g202
sg75
(lp214
S':'
asbag68
(g89
g70
NtRp215
(dp216
g73
(dp217
sg82
g202
sg75
(lp218
g68
(g69
g70
NtRp219
(dp220
g73
(dp221
g81
I5
ssg82
g215
sg75
(lp222
S'default'
p223
asbasbasbag68
(g84
g70
NtRp224
(dp225
g73
(dp226
sg82
g78
sg75
(lp227
g68
(g89
g70
NtRp228
(dp229
g73
(dp230
g93
g94
ssg82
g224
sg75
(lp231
S'cookies'
p232
asbag68
(g89
g70
NtRp233
(dp234
g73
(dp235
g100
g101
ssg82
g224
sg75
(lp236
S':'
asbag68
(g89
g70
NtRp237
(dp238
g73
(dp239
sg82
g224
sg75
(lp240
g68
(g69
g70
NtRp241
(dp242
g73
(dp243
g81
I5
ssg82
g237
sg75
(lp244
g68
(g77
g70
NtRp245
(dp246
g73
(dp247
g81
I4
ssg82
Nsg75
(lp248
g68
(g84
g70
NtRp249
(dp250
g73
(dp251
sg82
g245
sg75
(lp252
g68
(g89
g70
NtRp253
(dp254
g73
(dp255
g93
g94
ssg82
g249
sg75
(lp256
S'session_id_admin'
p257
asbag68
(g89
g70
NtRp258
(dp259
g73
(dp260
g100
g101
ssg82
g249
sg75
(lp261
S':'
asbag68
(g89
g70
NtRp262
(dp263
g73
(dp264
sg82
g249
sg75
(lp265
g68
(g69
g70
NtRp266
(dp267
g73
(dp268
g81
I4
ssg82
g262
sg75
(lp269
g68
(g77
g70
NtRp270
(dp271
g73
(dp272
g81
I3
ssg82
Nsg75
(lp273
g68
(g84
g70
NtRp274
(dp275
g73
(dp276
sg82
g270
sg75
(lp277
g68
(g89
g70
NtRp278
(dp279
g73
(dp280
g93
g94
ssg82
g274
sg75
(lp281
S'comment'
p282
asbag68
(g89
g70
NtRp283
(dp284
g73
(dp285
g100
g101
ssg82
g274
sg75
(lp286
S':'
asbag68
(g89
g70
NtRp287
(dp288
g73
(dp289
sg82
g274
sg75
(lp290
g68
(g69
g70
NtRp291
(dp292
g73
(dp293
g81
I3
ssg82
g287
sg75
(lp294
S''
asbasbasbag68
(g84
g70
NtRp295
(dp296
g73
(dp297
sg82
g270
sg75
(lp298
g68
(g89
g70
NtRp299
(dp300
g73
(dp301
g93
g94
ssg82
g295
sg75
(lp302
S'domain'
p303
asbag68
(g89
g70
NtRp304
(dp305
g73
(dp306
g100
g101
ssg82
g295
sg75
(lp307
S':'
asbag68
(g89
g70
NtRp308
(dp309
g73
(dp310
sg82
g295
sg75
(lp311
g68
(g69
g70
NtRp312
(dp313
g73
(dp314
g81
I3
ssg82
g308
sg75
(lp315
S''
asbasbasbag68
(g84
g70
NtRp316
(dp317
g73
(dp318
sg82
g270
sg75
(lp319
g68
(g89
g70
NtRp320
(dp321
g73
(dp322
g93
g94
ssg82
g316
sg75
(lp323
S'expires'
p324
asbag68
(g89
g70
NtRp325
(dp326
g73
(dp327
g100
g101
ssg82
g316
sg75
(lp328
S':'
asbag68
(g89
g70
NtRp329
(dp330
g73
(dp331
sg82
g316
sg75
(lp332
g68
(g69
g70
NtRp333
(dp334
g73
(dp335
g81
I3
ssg82
g329
sg75
(lp336
S''
asbasbasbag68
(g84
g70
NtRp337
(dp338
g73
(dp339
sg82
g270
sg75
(lp340
g68
(g89
g70
NtRp341
(dp342
g73
(dp343
g93
g94
ssg82
g337
sg75
(lp344
S'httponly'
p345
asbag68
(g89
g70
NtRp346
(dp347
g73
(dp348
g100
g101
ssg82
g337
sg75
(lp349
S':'
asbag68
(g89
g70
NtRp350
(dp351
g73
(dp352
sg82
g337
sg75
(lp353
g68
(g69
g70
NtRp354
(dp355
g73
(dp356
g81
I3
ssg82
g350
sg75
(lp357
S''
asbasbasbag68
(g84
g70
NtRp358
(dp359
g73
(dp360
sg82
g270
sg75
(lp361
g68
(g89
g70
NtRp362
(dp363
g73
(dp364
g93
g94
ssg82
g358
sg75
(lp365
S'max-age'
p366
asbag68
(g89
g70
NtRp367
(dp368
g73
(dp369
g100
g101
ssg82
g358
sg75
(lp370
S':'
asbag68
(g89
g70
NtRp371
(dp372
g73
(dp373
sg82
g358
sg75
(lp374
g68
(g69
g70
NtRp375
(dp376
g73
(dp377
g81
I3
ssg82
g371
sg75
(lp378
S''
asbasbasbag68
(g84
g70
NtRp379
(dp380
g73
(dp381
sg82
g270
sg75
(lp382
g68
(g89
g70
NtRp383
(dp384
g73
(dp385
g93
g94
ssg82
g379
sg75
(lp386
S'path'
p387
asbag68
(g89
g70
NtRp388
(dp389
g73
(dp390
g100
g101
ssg82
g379
sg75
(lp391
S':'
asbag68
(g89
g70
NtRp392
(dp393
g73
(dp394
sg82
g379
sg75
(lp395
g68
(g69
g70
NtRp396
(dp397
g73
(dp398
g81
I3
ssg82
g392
sg75
(lp399
S''
asbasbasbag68
(g84
g70
NtRp400
(dp401
g73
(dp402
sg82
g270
sg75
(lp403
g68
(g89
g70
NtRp404
(dp405
g73
(dp406
g93
g94
ssg82
g400
sg75
(lp407
S'secure'
p408
asbag68
(g89
g70
NtRp409
(dp410
g73
(dp411
g100
g101
ssg82
g400
sg75
(lp412
S':'
asbag68
(g89
g70
NtRp413
(dp414
g73
(dp415
sg82
g400
sg75
(lp416
g68
(g69
g70
NtRp417
(dp418
g73
(dp419
g81
I3
ssg82
g413
sg75
(lp420
S''
asbasbasbag68
(g84
g70
NtRp421
(dp422
g73
(dp423
sg82
g270
sg75
(lp424
g68
(g89
g70
NtRp425
(dp426
g73
(dp427
g93
g94
ssg82
g421
sg75
(lp428
S'version'
p429
asbag68
(g89
g70
NtRp430
(dp431
g73
(dp432
g100
g101
ssg82
g421
sg75
(lp433
S':'
asbag68
(g89
g70
NtRp434
(dp435
g73
(dp436
sg82
g421
sg75
(lp437
g68
(g69
g70
NtRp438
(dp439
g73
(dp440
g81
I3
ssg82
g434
sg75
(lp441
S''
asbasbasbasbasbasbasbag68
(g84
g70
NtRp442
(dp443
g73
(dp444
sg82
g245
sg75
(lp445
g68
(g89
g70
NtRp446
(dp447
g73
(dp448
g93
g94
ssg82
g442
sg75
(lp449
S'session_id_flisol2012'
p450
asbag68
(g89
g70
NtRp451
(dp452
g73
(dp453
g100
g101
ssg82
g442
sg75
(lp454
S':'
asbag68
(g89
g70
NtRp455
(dp456
g73
(dp457
sg82
g442
sg75
(lp458
g68
(g69
g70
NtRp459
(dp460
g73
(dp461
g81
I4
ssg82
g455
sg75
(lp462
g68
(g77
g70
NtRp463
(dp464
g73
(dp465
g81
I3
ssg82
Nsg75
(lp466
g68
(g84
g70
NtRp467
(dp468
g73
(dp469
sg82
g463
sg75
(lp470
g68
(g89
g70
NtRp471
(dp472
g73
(dp473
g93
g94
ssg82
g467
sg75
(lp474
g282
asbag68
(g89
g70
NtRp475
(dp476
g73
(dp477
g100
g101
ssg82
g467
sg75
(lp478
S':'
asbag68
(g89
g70
NtRp479
(dp480
g73
(dp481
sg82
g467
sg75
(lp482
g68
(g69
g70
NtRp483
(dp484
g73
(dp485
g81
I3
ssg82
g479
sg75
(lp486
S''
asbasbasbag68
(g84
g70
NtRp487
(dp488
g73
(dp489
sg82
g463
sg75
(lp490
g68
(g89
g70
NtRp491
(dp492
g73
(dp493
g93
g94
ssg82
g487
sg75
(lp494
g303
asbag68
(g89
g70
NtRp495
(dp496
g73
(dp497
g100
g101
ssg82
g487
sg75
(lp498
S':'
asbag68
(g89
g70
NtRp499
(dp500
g73
(dp501
sg82
g487
sg75
(lp502
g68
(g69
g70
NtRp503
(dp504
g73
(dp505
g81
I3
ssg82
g499
sg75
(lp506
S''
asbasbasbag68
(g84
g70
NtRp507
(dp508
g73
(dp509
sg82
g463
sg75
(lp510
g68
(g89
g70
NtRp511
(dp512
g73
(dp513
g93
g94
ssg82
g507
sg75
(lp514
g324
asbag68
(g89
g70
NtRp515
(dp516
g73
(dp517
g100
g101
ssg82
g507
sg75
(lp518
S':'
asbag68
(g89
g70
NtRp519
(dp520
g73
(dp521
sg82
g507
sg75
(lp522
g68
(g69
g70
NtRp523
(dp524
g73
(dp525
g81
I3
ssg82
g519
sg75
(lp526
S''
asbasbasbag68
(g84
g70
NtRp527
(dp528
g73
(dp529
sg82
g463
sg75
(lp530
g68
(g89
g70
NtRp531
(dp532
g73
(dp533
g93
g94
ssg82
g527
sg75
(lp534
g345
asbag68
(g89
g70
NtRp535
(dp536
g73
(dp537
g100
g101
ssg82
g527
sg75
(lp538
S':'
asbag68
(g89
g70
NtRp539
(dp540
g73
(dp541
sg82
g527
sg75
(lp542
g68
(g69
g70
NtRp543
(dp544
g73
(dp545
g81
I3
ssg82
g539
sg75
(lp546
S''
asbasbasbag68
(g84
g70
NtRp547
(dp548
g73
(dp549
sg82
g463
sg75
(lp550
g68
(g89
g70
NtRp551
(dp552
g73
(dp553
g93
g94
ssg82
g547
sg75
(lp554
g366
asbag68
(g89
g70
NtRp555
(dp556
g73
(dp557
g100
g101
ssg82
g547
sg75
(lp558
S':'
asbag68
(g89
g70
NtRp559
(dp560
g73
(dp561
sg82
g547
sg75
(lp562
g68
(g69
g70
NtRp563
(dp564
g73
(dp565
g81
I3
ssg82
g559
sg75
(lp566
S''
asbasbasbag68
(g84
g70
NtRp567
(dp568
g73
(dp569
sg82
g463
sg75
(lp570
g68
(g89
g70
NtRp571
(dp572
g73
(dp573
g93
g94
ssg82
g567
sg75
(lp574
g387
asbag68
(g89
g70
NtRp575
(dp576
g73
(dp577
g100
g101
ssg82
g567
sg75
(lp578
S':'
asbag68
(g89
g70
NtRp579
(dp580
g73
(dp581
sg82
g567
sg75
(lp582
g68
(g69
g70
NtRp583
(dp584
g73
(dp585
g81
I3
ssg82
g579
sg75
(lp586
S''
asbasbasbag68
(g84
g70
NtRp587
(dp588
g73
(dp589
sg82
g463
sg75
(lp590
g68
(g89
g70
NtRp591
(dp592
g73
(dp593
g93
g94
ssg82
g587
sg75
(lp594
g408
asbag68
(g89
g70
NtRp595
(dp596
g73
(dp597
g100
g101
ssg82
g587
sg75
(lp598
S':'
asbag68
(g89
g70
NtRp599
(dp600
g73
(dp601
sg82
g587
sg75
(lp602
g68
(g69
g70
NtRp603
(dp604
g73
(dp605
g81
I3
ssg82
g599
sg75
(lp606
S''
asbasbasbag68
(g84
g70
NtRp607
(dp608
g73
(dp609
sg82
g463
sg75
(lp610
g68
(g89
g70
NtRp611
(dp612
g73
(dp613
g93
g94
ssg82
g607
sg75
(lp614
g429
asbag68
(g89
g70
NtRp615
(dp616
g73
(dp617
g100
g101
ssg82
g607
sg75
(lp618
S':'
asbag68
(g89
g70
NtRp619
(dp620
g73
(dp621
sg82
g607
sg75
(lp622
g68
(g69
g70
NtRp623
(dp624
g73
(dp625
g81
I3
ssg82
g619
sg75
(lp626
S''
asbasbasbasbasbasbasbag68
(g84
g70
NtRp627
(dp628
g73
(dp629
sg82
g245
sg75
(lp630
g68
(g89
g70
NtRp631
(dp632
g73
(dp633
g93
g94
ssg82
g627
sg75
(lp634
S'session_id_reingart'
p635
asbag68
(g89
g70
NtRp636
(dp637
g73
(dp638
g100
g101
ssg82
g627
sg75
(lp639
S':'
asbag68
(g89
g70
NtRp640
(dp641
g73
(dp642
sg82
g627
sg75
(lp643
g68
(g69
g70
NtRp644
(dp645
g73
(dp646
g81
I4
ssg82
g640
sg75
(lp647
g68
(g77
g70
NtRp648
(dp649
g73
(dp650
g81
I3
ssg82
Nsg75
(lp651
g68
(g84
g70
NtRp652
(dp653
g73
(dp654
sg82
g648
sg75
(lp655
g68
(g89
g70
NtRp656
(dp657
g73
(dp658
g93
g94
ssg82
g652
sg75
(lp659
g282
asbag68
(g89
g70
NtRp660
(dp661
g73
(dp662
g100
g101
ssg82
g652
sg75
(lp663
S':'
asbag68
(g89
g70
NtRp664
(dp665
g73
(dp666
sg82
g652
sg75
(lp667
g68
(g69
g70
NtRp668
(dp669
g73
(dp670
g81
I3
ssg82
g664
sg75
(lp671
S''
asbasbasbag68
(g84
g70
NtRp672
(dp673
g73
(dp674
sg82
g648
sg75
(lp675
g68
(g89
g70
NtRp676
(dp677
g73
(dp678
g93
g94
ssg82
g672
sg75
(lp679
g303
asbag68
(g89
g70
NtRp680
(dp681
g73
(dp682
g100
g101
ssg82
g672
sg75
(lp683
S':'
asbag68
(g89
g70
NtRp684
(dp685
g73
(dp686
sg82
g672
sg75
(lp687
g68
(g69
g70
NtRp688
(dp689
g73
(dp690
g81
I3
ssg82
g684
sg75
(lp691
S''
asbasbasbag68
(g84
g70
NtRp692
(dp693
g73
(dp694
sg82
g648
sg75
(lp695
g68
(g89
g70
NtRp696
(dp697
g73
(dp698
g93
g94
ssg82
g692
sg75
(lp699
g324
asbag68
(g89
g70
NtRp700
(dp701
g73
(dp702
g100
g101
ssg82
g692
sg75
(lp703
S':'
asbag68
(g89
g70
NtRp704
(dp705
g73
(dp706
sg82
g692
sg75
(lp707
g68
(g69
g70
NtRp708
(dp709
g73
(dp710
g81
I3
ssg82
g704
sg75
(lp711
S''
asbasbasbag68
(g84
g70
NtRp712
(dp713
g73
(dp714
sg82
g648
sg75
(lp715
g68
(g89
g70
NtRp716
(dp717
g73
(dp718
g93
g94
ssg82
g712
sg75
(lp719
g345
asbag68
(g89
g70
NtRp720
(dp721
g73
(dp722
g100
g101
ssg82
g712
sg75
(lp723
S':'
asbag68
(g89
g70
NtRp724
(dp725
g73
(dp726
sg82
g712
sg75
(lp727
g68
(g69
g70
NtRp728
(dp729
g73
(dp730
g81
I3
ssg82
g724
sg75
(lp731
S''
asbasbasbag68
(g84
g70
NtRp732
(dp733
g73
(dp734
sg82
g648
sg75
(lp735
g68
(g89
g70
NtRp736
(dp737
g73
(dp738
g93
g94
ssg82
g732
sg75
(lp739
g366
asbag68
(g89
g70
NtRp740
(dp741
g73
(dp742
g100
g101
ssg82
g732
sg75
(lp743
S':'
asbag68
(g89
g70
NtRp744
(dp745
g73
(dp746
sg82
g732
sg75
(lp747
g68
(g69
g70
NtRp748
(dp749
g73
(dp750
g81
I3
ssg82
g744
sg75
(lp751
S''
asbasbasbag68
(g84
g70
NtRp752
(dp753
g73
(dp754
sg82
g648
sg75
(lp755
g68
(g89
g70
NtRp756
(dp757
g73
(dp758
g93
g94
ssg82
g752
sg75
(lp759
g387
asbag68
(g89
g70
NtRp760
(dp761
g73
(dp762
g100
g101
ssg82
g752
sg75
(lp763
S':'
asbag68
(g89
g70
NtRp764
(dp765
g73
(dp766
sg82
g752
sg75
(lp767
g68
(g69
g70
NtRp768
(dp769
g73
(dp770
g81
I3
ssg82
g764
sg75
(lp771
S''
asbasbasbag68
(g84
g70
NtRp772
(dp773
g73
(dp774
sg82
g648
sg75
(lp775
g68
(g89
g70
NtRp776
(dp777
g73
(dp778
g93
g94
ssg82
g772
sg75
(lp779
g408
asbag68
(g89
g70
NtRp780
(dp781
g73
(dp782
g100
g101
ssg82
g772
sg75
(lp783
S':'
asbag68
(g89
g70
NtRp784
(dp785
g73
(dp786
sg82
g772
sg75
(lp787
g68
(g69
g70
NtRp788
(dp789
g73
(dp790
g81
I3
ssg82
g784
sg75
(lp791
S''
asbasbasbag68
(g84
g70
NtRp792
(dp793
g73
(dp794
sg82
g648
sg75
(lp795
g68
(g89
g70
NtRp796
(dp797
g73
(dp798
g93
g94
ssg82
g792
sg75
(lp799
g429
asbag68
(g89
g70
NtRp800
(dp801
g73
(dp802
g100
g101
ssg82
g792
sg75
(lp803
S':'
asbag68
(g89
g70
NtRp804
(dp805
g73
(dp806
sg82
g792
sg75
(lp807
g68
(g69
g70
NtRp808
(dp809
g73
(dp810
g81
I3
ssg82
g804
sg75
(lp811
S''
asbasbasbasbasbasbasbag68
(g84
g70
NtRp812
(dp813
g73
(dp814
sg82
g245
sg75
(lp815
g68
(g89
g70
NtRp816
(dp817
g73
(dp818
g93
g94
ssg82
g812
sg75
(lp819
S'session_id_welcome'
p820
asbag68
(g89
g70
NtRp821
(dp822
g73
(dp823
g100
g101
ssg82
g812
sg75
(lp824
S':'
asbag68
(g89
g70
NtRp825
(dp826
g73
(dp827
sg82
g812
sg75
(lp828
g68
(g69
g70
NtRp829
(dp830
g73
(dp831
g81
I4
ssg82
g825
sg75
(lp832
g68
(g77
g70
NtRp833
(dp834
g73
(dp835
g81
I3
ssg82
Nsg75
(lp836
g68
(g84
g70
NtRp837
(dp838
g73
(dp839
sg82
g833
sg75
(lp840
g68
(g89
g70
NtRp841
(dp842
g73
(dp843
g93
g94
ssg82
g837
sg75
(lp844
g282
asbag68
(g89
g70
NtRp845
(dp846
g73
(dp847
g100
g101
ssg82
g837
sg75
(lp848
S':'
asbag68
(g89
g70
NtRp849
(dp850
g73
(dp851
sg82
g837
sg75
(lp852
g68
(g69
g70
NtRp853
(dp854
g73
(dp855
g81
I3
ssg82
g849
sg75
(lp856
S''
asbasbasbag68
(g84
g70
NtRp857
(dp858
g73
(dp859
sg82
g833
sg75
(lp860
g68
(g89
g70
NtRp861
(dp862
g73
(dp863
g93
g94
ssg82
g857
sg75
(lp864
g303
asbag68
(g89
g70
NtRp865
(dp866
g73
(dp867
g100
g101
ssg82
g857
sg75
(lp868
S':'
asbag68
(g89
g70
NtRp869
(dp870
g73
(dp871
sg82
g857
sg75
(lp872
g68
(g69
g70
NtRp873
(dp874
g73
(dp875
g81
I3
ssg82
g869
sg75
(lp876
S''
asbasbasbag68
(g84
g70
NtRp877
(dp878
g73
(dp879
sg82
g833
sg75
(lp880
g68
(g89
g70
NtRp881
(dp882
g73
(dp883
g93
g94
ssg82
g877
sg75
(lp884
g324
asbag68
(g89
g70
NtRp885
(dp886
g73
(dp887
g100
g101
ssg82
g877
sg75
(lp888
S':'
asbag68
(g89
g70
NtRp889
(dp890
g73
(dp891
sg82
g877
sg75
(lp892
g68
(g69
g70
NtRp893
(dp894
g73
(dp895
g81
I3
ssg82
g889
sg75
(lp896
S''
asbasbasbag68
(g84
g70
NtRp897
(dp898
g73
(dp899
sg82
g833
sg75
(lp900
g68
(g89
g70
NtRp901
(dp902
g73
(dp903
g93
g94
ssg82
g897
sg75
(lp904
g345
asbag68
(g89
g70
NtRp905
(dp906
g73
(dp907
g100
g101
ssg82
g897
sg75
(lp908
S':'
asbag68
(g89
g70
NtRp909
(dp910
g73
(dp911
sg82
g897
sg75
(lp912
g68
(g69
g70
NtRp913
(dp914
g73
(dp915
g81
I3
ssg82
g909
sg75
(lp916
S''
asbasbasbag68
(g84
g70
NtRp917
(dp918
g73
(dp919
sg82
g833
sg75
(lp920
g68
(g89
g70
NtRp921
(dp922
g73
(dp923
g93
g94
ssg82
g917
sg75
(lp924
g366
asbag68
(g89
g70
NtRp925
(dp926
g73
(dp927
g100
g101
ssg82
g917
sg75
(lp928
S':'
asbag68
(g89
g70
NtRp929
(dp930
g73
(dp931
sg82
g917
sg75
(lp932
g68
(g69
g70
NtRp933
(dp934
g73
(dp935
g81
I3
ssg82
g929
sg75
(lp936
S''
asbasbasbag68
(g84
g70
NtRp937
(dp938
g73
(dp939
sg82
g833
sg75
(lp940
g68
(g89
g70
NtRp941
(dp942
g73
(dp943
g93
g94
ssg82
g937
sg75
(lp944
g387
asbag68
(g89
g70
NtRp945
(dp946
g73
(dp947
g100
g101
ssg82
g937
sg75
(lp948
S':'
asbag68
(g89
g70
NtRp949
(dp950
g73
(dp951
sg82
g937
sg75
(lp952
g68
(g69
g70
NtRp953
(dp954
g73
(dp955
g81
I3
ssg82
g949
sg75
(lp956
S''
asbasbasbag68
(g84
g70
NtRp957
(dp958
g73
(dp959
sg82
g833
sg75
(lp960
g68
(g89
g70
NtRp961
(dp962
g73
(dp963
g93
g94
ssg82
g957
sg75
(lp964
g408
asbag68
(g89
g70
NtRp965
(dp966
g73
(dp967
g100
g101
ssg82
g957
sg75
(lp968
S':'
asbag68
(g89
g70
NtRp969
(dp970
g73
(dp971
sg82
g957
sg75
(lp972
g68
(g69
g70
NtRp973
(dp974
g73
(dp975
g81
I3
ssg82
g969
sg75
(lp976
S''
asbasbasbag68
(g84
g70
NtRp977
(dp978
g73
(dp979
sg82
g833
sg75
(lp980
g68
(g89
g70
NtRp981
(dp982
g73
(dp983
g93
g94
ssg82
g977
sg75
(lp984
g429
asbag68
(g89
g70
NtRp985
(dp986
g73
(dp987
g100
g101
ssg82
g977
sg75
(lp988
S':'
asbag68
(g89
g70
NtRp989
(dp990
g73
(dp991
sg82
g977
sg75
(lp992
g68
(g69
g70
NtRp993
(dp994
g73
(dp995
g81
I3
ssg82
g989
sg75
(lp996
S''
asbasbasbasbasbasbasbasbasbasbasbag68
(g84
g70
NtRp997
(dp998
g73
(dp999
sg82
g78
sg75
(lp1000
g68
(g89
g70
NtRp1001
(dp1002
g73
(dp1003
g93
g94
ssg82
g997
sg75
(lp1004
S'env'
p1005
asbag68
(g89
g70
NtRp1006
(dp1007
g73
(dp1008
g100
g101
ssg82
g997
sg75
(lp1009
S':'
asbag68
(g89
g70
NtRp1010
(dp1011
g73
(dp1012
sg82
g997
sg75
(lp1013
g68
(g69
g70
NtRp1014
(dp1015
g73
(dp1016
g81
I5
ssg82
g1010
sg75
(lp1017
g68
(g77
g70
NtRp1018
(dp1019
g73
(dp1020
g81
I4
ssg82
Nsg75
(lp1021
g68
(g84
g70
NtRp1022
(dp1023
g73
(dp1024
sg82
g1018
sg75
(lp1025
g68
(g89
g70
NtRp1026
(dp1027
g73
(dp1028
g93
g94
ssg82
g1022
sg75
(lp1029
S'app_folders'
p1030
asbag68
(g89
g70
NtRp1031
(dp1032
g73
(dp1033
g100
g101
ssg82
g1022
sg75
(lp1034
S':'
asbag68
(g89
g70
NtRp1035
(dp1036
g73
(dp1037
sg82
g1022
sg75
(lp1038
g68
(g69
g70
NtRp1039
(dp1040
g73
(dp1041
g81
I4
ssg82
g1035
sg75
(lp1042
S"set(['/home/marco/flisol2012/web2py/applications/welcome/', '/home/marco/flisol2012/web2py/applications/flisol2012/', '/home/marco/flisol2012/web2py/applications/admin/'])"
p1043
asbasbasbag68
(g84
g70
NtRp1044
(dp1045
g73
(dp1046
sg82
g1018
sg75
(lp1047
g68
(g89
g70
NtRp1048
(dp1049
g73
(dp1050
g93
g94
ssg82
g1044
sg75
(lp1051
S'applications_parent'
p1052
asbag68
(g89
g70
NtRp1053
(dp1054
g73
(dp1055
g100
g101
ssg82
g1044
sg75
(lp1056
S':'
asbag68
(g89
g70
NtRp1057
(dp1058
g73
(dp1059
sg82
g1044
sg75
(lp1060
g68
(g69
g70
NtRp1061
(dp1062
g73
(dp1063
g81
I4
ssg82
g1057
sg75
(lp1064
S'/home/marco/flisol2012/web2py'
p1065
asbasbasbag68
(g84
g70
NtRp1066
(dp1067
g73
(dp1068
sg82
g1018
sg75
(lp1069
g68
(g89
g70
NtRp1070
(dp1071
g73
(dp1072
g93
g94
ssg82
g1066
sg75
(lp1073
S'cmd_args'
p1074
asbag68
(g89
g70
NtRp1075
(dp1076
g73
(dp1077
g100
g101
ssg82
g1066
sg75
(lp1078
S':'
asbag68
(g89
g70
NtRp1079
(dp1080
g73
(dp1081
sg82
g1066
sg75
(lp1082
g68
(g69
g70
NtRp1083
(dp1084
g73
(dp1085
g81
I4
ssg82
g1079
sg75
(lp1086
g68
(g77
g70
NtRp1087
(dp1088
g73
(dp1089
g81
I3
ssg82
Nsg75
(lp1090
sbasbasbasbag68
(g84
g70
NtRp1091
(dp1092
g73
(dp1093
sg82
g1018
sg75
(lp1094
g68
(g89
g70
NtRp1095
(dp1096
g73
(dp1097
g93
g94
ssg82
g1091
sg75
(lp1098
S'cmd_options'
p1099
asbag68
(g89
g70
NtRp1100
(dp1101
g73
(dp1102
g100
g101
ssg82
g1091
sg75
(lp1103
S':'
asbag68
(g89
g70
NtRp1104
(dp1105
g73
(dp1106
sg82
g1091
sg75
(lp1107
g68
(g69
g70
NtRp1108
(dp1109
g73
(dp1110
g81
I4
ssg82
g1104
sg75
(lp1111
S"<Values at 0x1bd6908: {'verbose': False, 'ip': '127.0.0.1', 'shutdown_timeout': 5, 'taskbar': False, 'nocron': False, 'pid_filename': 'httpserver.pid', 'maxthreads': None, 'softcron': False, 'server_name': 'malena', 'bpython': False, 'nogui': False, 'port': 8000, 'extcron': False, 'debuglevel': 30, 'test': None, 'folder': '/home/marco/flisol2012/web2py', 'config': '', 'import_models': False, 'winservice': '', 'shell': None, 'run': '', 'log_filename': 'httpserver.log', 'args': [''], 'socket_timeout': 5, 'ssl_ca_certificate': None, 'scheduler': None, 'profiler_filename': None, 'ssl_private_key': '', 'password': 'asd', 'request_queue_size': 5, 'ssl_certificate': '', 'cronjob': False, 'numthreads': None, 'quiet': False, 'interfaces': None, 'minthreads': None, 'timeout': 10, 'plain': False, 'nobanner': False}>"
p1112
asbasbasbag68
(g84
g70
NtRp1113
(dp1114
g73
(dp1115
sg82
g1018
sg75
(lp1116
g68
(g89
g70
NtRp1117
(dp1118
g73
(dp1119
g93
g94
ssg82
g1113
sg75
(lp1120
S'db_sessions'
p1121
asbag68
(g89
g70
NtRp1122
(dp1123
g73
(dp1124
g100
g101
ssg82
g1113
sg75
(lp1125
S':'
asbag68
(g89
g70
NtRp1126
(dp1127
g73
(dp1128
sg82
g1113
sg75
(lp1129
g68
(g69
g70
NtRp1130
(dp1131
g73
(dp1132
g81
I4
ssg82
g1126
sg75
(lp1133
S'set([])'
p1134
asbasbasbag68
(g84
g70
NtRp1135
(dp1136
g73
(dp1137
sg82
g1018
sg75
(lp1138
g68
(g89
g70
NtRp1139
(dp1140
g73
(dp1141
g93
g94
ssg82
g1135
sg75
(lp1142
S'debugging'
p1143
asbag68
(g89
g70
NtRp1144
(dp1145
g73
(dp1146
g100
g101
ssg82
g1135
sg75
(lp1147
S':'
asbag68
(g89
g70
NtRp1148
(dp1149
g73
(dp1150
sg82
g1135
sg75
(lp1151
g68
(g69
g70
NtRp1152
(dp1153
g73
(dp1154
g81
I4
ssg82
g1148
sg75
(lp1155
g111
asbasbasbag68
(g84
g70
NtRp1156
(dp1157
g73
(dp1158
sg82
g1018
sg75
(lp1159
g68
(g89
g70
NtRp1160
(dp1161
g73
(dp1162
g93
g94
ssg82
g1156
sg75
(lp1163
S'gluon_parent'
p1164
asbag68
(g89
g70
NtRp1165
(dp1166
g73
(dp1167
g100
g101
ssg82
g1156
sg75
(lp1168
S':'
asbag68
(g89
g70
NtRp1169
(dp1170
g73
(dp1171
sg82
g1156
sg75
(lp1172
g68
(g69
g70
NtRp1173
(dp1174
g73
(dp1175
g81
I4
ssg82
g1169
sg75
(lp1176
S'/home/marco/flisol2012/web2py'
p1177
asbasbasbag68
(g84
g70
NtRp1178
(dp1179
g73
(dp1180
sg82
g1018
sg75
(lp1181
g68
(g89
g70
NtRp1182
(dp1183
g73
(dp1184
g93
g94
ssg82
g1178
sg75
(lp1185
S'http_accept'
p1186
asbag68
(g89
g70
NtRp1187
(dp1188
g73
(dp1189
g100
g101
ssg82
g1178
sg75
(lp1190
S':'
asbag68
(g89
g70
NtRp1191
(dp1192
g73
(dp1193
sg82
g1178
sg75
(lp1194
g68
(g69
g70
NtRp1195
(dp1196
g73
(dp1197
g81
I4
ssg82
g1191
sg75
(lp1198
S'text/html,application/xhtml+xml,application/xml;q=0.9,*/*;q=0.8'
p1199
asbasbasbag68
(g84
g70
NtRp1200
(dp1201
g73
(dp1202
sg82
g1018
sg75
(lp1203
g68
(g89
g70
NtRp1204
(dp1205
g73
(dp1206
g93
g94
ssg82
g1200
sg75
(lp1207
S'http_accept_encoding'
p1208
asbag68
(g89
g70
NtRp1209
(dp1210
g73
(dp1211
g100
g101
ssg82
g1200
sg75
(lp1212
S':'
asbag68
(g89
g70
NtRp1213
(dp1214
g73
(dp1215
sg82
g1200
sg75
(lp1216
g68
(g69
g70
NtRp1217
(dp1218
g73
(dp1219
g81
I4
ssg82
g1213
sg75
(lp1220
S'gzip, deflate'
p1221
asbasbasbag68
(g84
g70
NtRp1222
(dp1223
g73
(dp1224
sg82
g1018
sg75
(lp1225
g68
(g89
g70
NtRp1226
(dp1227
g73
(dp1228
g93
g94
ssg82
g1222
sg75
(lp1229
S'http_accept_language'
p1230
asbag68
(g89
g70
NtRp1231
(dp1232
g73
(dp1233
g100
g101
ssg82
g1222
sg75
(lp1234
S':'
asbag68
(g89
g70
NtRp1235
(dp1236
g73
(dp1237
sg82
g1222
sg75
(lp1238
g68
(g69
g70
NtRp1239
(dp1240
g73
(dp1241
g81
I4
ssg82
g1235
sg75
(lp1242
S'es-ar,es;q=0.8,en-us;q=0.5,en;q=0.3'
p1243
asbasbasbag68
(g84
g70
NtRp1244
(dp1245
g73
(dp1246
sg82
g1018
sg75
(lp1247
g68
(g89
g70
NtRp1248
(dp1249
g73
(dp1250
g93
g94
ssg82
g1244
sg75
(lp1251
S'http_cache_control'
p1252
asbag68
(g89
g70
NtRp1253
(dp1254
g73
(dp1255
g100
g101
ssg82
g1244
sg75
(lp1256
S':'
asbag68
(g89
g70
NtRp1257
(dp1258
g73
(dp1259
sg82
g1244
sg75
(lp1260
g68
(g69
g70
NtRp1261
(dp1262
g73
(dp1263
g81
I4
ssg82
g1257
sg75
(lp1264
S'max-age=0'
p1265
asbasbasbag68
(g84
g70
NtRp1266
(dp1267
g73
(dp1268
sg82
g1018
sg75
(lp1269
g68
(g89
g70
NtRp1270
(dp1271
g73
(dp1272
g93
g94
ssg82
g1266
sg75
(lp1273
S'http_connection'
p1274
asbag68
(g89
g70
NtRp1275
(dp1276
g73
(dp1277
g100
g101
ssg82
g1266
sg75
(lp1278
S':'
asbag68
(g89
g70
NtRp1279
(dp1280
g73
(dp1281
sg82
g1266
sg75
(lp1282
g68
(g69
g70
NtRp1283
(dp1284
g73
(dp1285
g81
I4
ssg82
g1279
sg75
(lp1286
S'keep-alive'
p1287
asbasbasbag68
(g84
g70
NtRp1288
(dp1289
g73
(dp1290
sg82
g1018
sg75
(lp1291
g68
(g89
g70
NtRp1292
(dp1293
g73
(dp1294
g93
g94
ssg82
g1288
sg75
(lp1295
S'http_cookie'
p1296
asbag68
(g89
g70
NtRp1297
(dp1298
g73
(dp1299
g100
g101
ssg82
g1288
sg75
(lp1300
S':'
asbag68
(g89
g70
NtRp1301
(dp1302
g73
(dp1303
sg82
g1288
sg75
(lp1304
g68
(g69
g70
NtRp1305
(dp1306
g73
(dp1307
g81
I4
ssg82
g1301
sg75
(lp1308
S'__utma=96992031.1881515701.1331265087.1331309329.1331316385.4; __utmc=96992031; __utmz=96992031.1331265087.1.1.utmcsr=(direct)|utmccn=(direct)|utmcmd=(none); session_id_admin=127.0.0.1-9f819232-d34d-431b-a66d-efef7821a17b; session_id_reingart=127.0.0.1-c638efce-62e3-46b3-bb1a-e04405c01702; session_id_flisol2012=127.0.0.1-2ede3a58-f97e-48e1-8d0e-90e5ecfe16bf; __utmb=96992031.96.10.1331316385; session_id_welcome=127.0.0.1-d9714dec-041d-4a2a-a113-75a39351e0db'
p1309
asbasbasbag68
(g84
g70
NtRp1310
(dp1311
g73
(dp1312
sg82
g1018
sg75
(lp1313
g68
(g89
g70
NtRp1314
(dp1315
g73
(dp1316
g93
g94
ssg82
g1310
sg75
(lp1317
S'http_host'
p1318
asbag68
(g89
g70
NtRp1319
(dp1320
g73
(dp1321
g100
g101
ssg82
g1310
sg75
(lp1322
S':'
asbag68
(g89
g70
NtRp1323
(dp1324
g73
(dp1325
sg82
g1310
sg75
(lp1326
g68
(g69
g70
NtRp1327
(dp1328
g73
(dp1329
g81
I4
ssg82
g1323
sg75
(lp1330
S'127.0.0.1:8000'
p1331
asbasbasbag68
(g84
g70
NtRp1332
(dp1333
g73
(dp1334
sg82
g1018
sg75
(lp1335
g68
(g89
g70
NtRp1336
(dp1337
g73
(dp1338
g93
g94
ssg82
g1332
sg75
(lp1339
S'http_referer'
p1340
asbag68
(g89
g70
NtRp1341
(dp1342
g73
(dp1343
g100
g101
ssg82
g1332
sg75
(lp1344
S':'
asbag68
(g89
g70
NtRp1345
(dp1346
g73
(dp1347
sg82
g1332
sg75
(lp1348
g68
(g69
g70
NtRp1349
(dp1350
g73
(dp1351
g81
I4
ssg82
g1345
sg75
(lp1352
S'http://127.0.0.1:8000/flisol2012/conference/about'
p1353
asbasbasbag68
(g84
g70
NtRp1354
(dp1355
g73
(dp1356
sg82
g1018
sg75
(lp1357
g68
(g89
g70
NtRp1358
(dp1359
g73
(dp1360
g93
g94
ssg82
g1354
sg75
(lp1361
S'http_user_agent'
p1362
asbag68
(g89
g70
NtRp1363
(dp1364
g73
(dp1365
g100
g101
ssg82
g1354
sg75
(lp1366
S':'
asbag68
(g89
g70
NtRp1367
(dp1368
g73
(dp1369
sg82
g1354
sg75
(lp1370
g68
(g69
g70
NtRp1371
(dp1372
g73
(dp1373
g81
I4
ssg82
g1367
sg75
(lp1374
S'Mozilla/5.0 (X11; Linux x86_64; rv:11.0) Gecko/20100101 Firefox/11.0 Iceweasel/11.0'
p1375
asbasbasbag68
(g84
g70
NtRp1376
(dp1377
g73
(dp1378
sg82
g1018
sg75
(lp1379
g68
(g89
g70
NtRp1380
(dp1381
g73
(dp1382
g93
g94
ssg82
g1376
sg75
(lp1383
S'is_jython'
p1384
asbag68
(g89
g70
NtRp1385
(dp1386
g73
(dp1387
g100
g101
ssg82
g1376
sg75
(lp1388
S':'
asbag68
(g89
g70
NtRp1389
(dp1390
g73
(dp1391
sg82
g1376
sg75
(lp1392
g68
(g69
g70
NtRp1393
(dp1394
g73
(dp1395
g81
I4
ssg82
g1389
sg75
(lp1396
g111
asbasbasbag68
(g84
g70
NtRp1397
(dp1398
g73
(dp1399
sg82
g1018
sg75
(lp1400
g68
(g89
g70
NtRp1401
(dp1402
g73
(dp1403
g93
g94
ssg82
g1397
sg75
(lp1404
S'is_pypy'
p1405
asbag68
(g89
g70
NtRp1406
(dp1407
g73
(dp1408
g100
g101
ssg82
g1397
sg75
(lp1409
S':'
asbag68
(g89
g70
NtRp1410
(dp1411
g73
(dp1412
sg82
g1397
sg75
(lp1413
g68
(g69
g70
NtRp1414
(dp1415
g73
(dp1416
g81
I4
ssg82
g1410
sg75
(lp1417
g111
asbasbasbag68
(g84
g70
NtRp1418
(dp1419
g73
(dp1420
sg82
g1018
sg75
(lp1421
g68
(g89
g70
NtRp1422
(dp1423
g73
(dp1424
g93
g94
ssg82
g1418
sg75
(lp1425
S'path_info'
p1426
asbag68
(g89
g70
NtRp1427
(dp1428
g73
(dp1429
g100
g101
ssg82
g1418
sg75
(lp1430
S':'
asbag68
(g89
g70
NtRp1431
(dp1432
g73
(dp1433
sg82
g1418
sg75
(lp1434
g68
(g69
g70
NtRp1435
(dp1436
g73
(dp1437
g81
I4
ssg82
g1431
sg75
(lp1438
S'/flisol2012/default/attendees'
p1439
asbasbasbag68
(g84
g70
NtRp1440
(dp1441
g73
(dp1442
sg82
g1018
sg75
(lp1443
g68
(g89
g70
NtRp1444
(dp1445
g73
(dp1446
g93
g94
ssg82
g1440
sg75
(lp1447
S'query_string'
p1448
asbag68
(g89
g70
NtRp1449
(dp1450
g73
(dp1451
g100
g101
ssg82
g1440
sg75
(lp1452
S':'
asbag68
(g89
g70
NtRp1453
(dp1454
g73
(dp1455
sg82
g1440
sg75
(lp1456
g68
(g69
g70
NtRp1457
(dp1458
g73
(dp1459
g81
I4
ssg82
g1453
sg75
(lp1460
S''
asbasbasbag68
(g84
g70
NtRp1461
(dp1462
g73
(dp1463
sg82
g1018
sg75
(lp1464
g68
(g89
g70
NtRp1465
(dp1466
g73
(dp1467
g93
g94
ssg82
g1461
sg75
(lp1468
S'remote_addr'
p1469
asbag68
(g89
g70
NtRp1470
(dp1471
g73
(dp1472
g100
g101
ssg82
g1461
sg75
(lp1473
S':'
asbag68
(g89
g70
NtRp1474
(dp1475
g73
(dp1476
sg82
g1461
sg75
(lp1477
g68
(g69
g70
NtRp1478
(dp1479
g73
(dp1480
g81
I4
ssg82
g1474
sg75
(lp1481
g201
asbasbasbag68
(g84
g70
NtRp1482
(dp1483
g73
(dp1484
sg82
g1018
sg75
(lp1485
g68
(g89
g70
NtRp1486
(dp1487
g73
(dp1488
g93
g94
ssg82
g1482
sg75
(lp1489
S'remote_port'
p1490
asbag68
(g89
g70
NtRp1491
(dp1492
g73
(dp1493
g100
g101
ssg82
g1482
sg75
(lp1494
S':'
asbag68
(g89
g70
NtRp1495
(dp1496
g73
(dp1497
sg82
g1482
sg75
(lp1498
g68
(g69
g70
NtRp1499
(dp1500
g73
(dp1501
g81
I4
ssg82
g1495
sg75
(lp1502
S'40646'
p1503
asbasbasbag68
(g84
g70
NtRp1504
(dp1505
g73
(dp1506
sg82
g1018
sg75
(lp1507
g68
(g89
g70
NtRp1508
(dp1509
g73
(dp1510
g93
g94
ssg82
g1504
sg75
(lp1511
S'request_method'
p1512
asbag68
(g89
g70
NtRp1513
(dp1514
g73
(dp1515
g100
g101
ssg82
g1504
sg75
(lp1516
S':'
asbag68
(g89
g70
NtRp1517
(dp1518
g73
(dp1519
sg82
g1504
sg75
(lp1520
g68
(g69
g70
NtRp1521
(dp1522
g73
(dp1523
g81
I4
ssg82
g1517
sg75
(lp1524
S'GET'
p1525
asbasbasbag68
(g84
g70
NtRp1526
(dp1527
g73
(dp1528
sg82
g1018
sg75
(lp1529
g68
(g89
g70
NtRp1530
(dp1531
g73
(dp1532
g93
g94
ssg82
g1526
sg75
(lp1533
S'script_name'
p1534
asbag68
(g89
g70
NtRp1535
(dp1536
g73
(dp1537
g100
g101
ssg82
g1526
sg75
(lp1538
S':'
asbag68
(g89
g70
NtRp1539
(dp1540
g73
(dp1541
sg82
g1526
sg75
(lp1542
g68
(g69
g70
NtRp1543
(dp1544
g73
(dp1545
g81
I4
ssg82
g1539
sg75
(lp1546
S''
asbasbasbag68
(g84
g70
NtRp1547
(dp1548
g73
(dp1549
sg82
g1018
sg75
(lp1550
g68
(g89
g70
NtRp1551
(dp1552
g73
(dp1553
g93
g94
ssg82
g1547
sg75
(lp1554
S'server_name'
p1555
asbag68
(g89
g70
NtRp1556
(dp1557
g73
(dp1558
g100
g101
ssg82
g1547
sg75
(lp1559
S':'
asbag68
(g89
g70
NtRp1560
(dp1561
g73
(dp1562
sg82
g1547
sg75
(lp1563
g68
(g69
g70
NtRp1564
(dp1565
g73
(dp1566
g81
I4
ssg82
g1560
sg75
(lp1567
S'malena'
p1568
asbasbasbag68
(g84
g70
NtRp1569
(dp1570
g73
(dp1571
sg82
g1018
sg75
(lp1572
g68
(g89
g70
NtRp1573
(dp1574
g73
(dp1575
g93
g94
ssg82
g1569
sg75
(lp1576
S'server_port'
p1577
asbag68
(g89
g70
NtRp1578
(dp1579
g73
(dp1580
g100
g101
ssg82
g1569
sg75
(lp1581
S':'
asbag68
(g89
g70
NtRp1582
(dp1583
g73
(dp1584
sg82
g1569
sg75
(lp1585
g68
(g69
g70
NtRp1586
(dp1587
g73
(dp1588
g81
I4
ssg82
g1582
sg75
(lp1589
S'8000'
p1590
asbasbasbag68
(g84
g70
NtRp1591
(dp1592
g73
(dp1593
sg82
g1018
sg75
(lp1594
g68
(g89
g70
NtRp1595
(dp1596
g73
(dp1597
g93
g94
ssg82
g1591
sg75
(lp1598
S'server_protocol'
p1599
asbag68
(g89
g70
NtRp1600
(dp1601
g73
(dp1602
g100
g101
ssg82
g1591
sg75
(lp1603
S':'
asbag68
(g89
g70
NtRp1604
(dp1605
g73
(dp1606
sg82
g1591
sg75
(lp1607
g68
(g69
g70
NtRp1608
(dp1609
g73
(dp1610
g81
I4
ssg82
g1604
sg75
(lp1611
S'HTTP/1.1'
p1612
asbasbasbag68
(g84
g70
NtRp1613
(dp1614
g73
(dp1615
sg82
g1018
sg75
(lp1616
g68
(g89
g70
NtRp1617
(dp1618
g73
(dp1619
g93
g94
ssg82
g1613
sg75
(lp1620
S'server_software'
p1621
asbag68
(g89
g70
NtRp1622
(dp1623
g73
(dp1624
g100
g101
ssg82
g1613
sg75
(lp1625
S':'
asbag68
(g89
g70
NtRp1626
(dp1627
g73
(dp1628
sg82
g1613
sg75
(lp1629
g68
(g69
g70
NtRp1630
(dp1631
g73
(dp1632
g81
I4
ssg82
g1626
sg75
(lp1633
S'Rocket 1.2.4'
p1634
asbasbasbag68
(g84
g70
NtRp1635
(dp1636
g73
(dp1637
sg82
g1018
sg75
(lp1638
g68
(g89
g70
NtRp1639
(dp1640
g73
(dp1641
g93
g94
ssg82
g1635
sg75
(lp1642
S'web2py_crontype'
p1643
asbag68
(g89
g70
NtRp1644
(dp1645
g73
(dp1646
g100
g101
ssg82
g1635
sg75
(lp1647
S':'
asbag68
(g89
g70
NtRp1648
(dp1649
g73
(dp1650
sg82
g1635
sg75
(lp1651
g68
(g69
g70
NtRp1652
(dp1653
g73
(dp1654
g81
I4
ssg82
g1648
sg75
(lp1655
S'hard'
p1656
asbasbasbag68
(g84
g70
NtRp1657
(dp1658
g73
(dp1659
sg82
g1018
sg75
(lp1660
g68
(g89
g70
NtRp1661
(dp1662
g73
(dp1663
g93
g94
ssg82
g1657
sg75
(lp1664
S'web2py_path'
p1665
asbag68
(g89
g70
NtRp1666
(dp1667
g73
(dp1668
g100
g101
ssg82
g1657
sg75
(lp1669
S':'
asbag68
(g89
g70
NtRp1670
(dp1671
g73
(dp1672
sg82
g1657
sg75
(lp1673
g68
(g69
g70
NtRp1674
(dp1675
g73
(dp1676
g81
I4
ssg82
g1670
sg75
(lp1677
g1065
asbasbasbag68
(g84
g70
NtRp1678
(dp1679
g73
(dp1680
sg82
g1018
sg75
(lp1681
g68
(g89
g70
NtRp1682
(dp1683
g73
(dp1684
g93
g94
ssg82
g1678
sg75
(lp1685
S'web2py_version'
p1686
asbag68
(g89
g70
NtRp1687
(dp1688
g73
(dp1689
g100
g101
ssg82
g1678
sg75
(lp1690
S':'
asbag68
(g89
g70
NtRp1691
(dp1692
g73
(dp1693
sg82
g1678
sg75
(lp1694
g68
(g69
g70
NtRp1695
(dp1696
g73
(dp1697
g81
I4
ssg82
g1691
sg75
(lp1698
g68
(g77
g70
NtRp1699
(dp1700
g73
(dp1701
g81
I3
ssg82
Nsg75
(lp1702
g68
(g84
g70
NtRp1703
(dp1704
g73
(dp1705
sg82
g1699
sg75
(lp1706
g68
(g89
g70
NtRp1707
(dp1708
g73
(dp1709
sg82
g1703
sg75
(lp1710
g68
(g69
g70
NtRp1711
(dp1712
g73
(dp1713
g81
I3
ssg82
g1707
sg75
(lp1714
S'1'
asbasbasbag68
(g84
g70
NtRp1715
(dp1716
g73
(dp1717
sg82
g1699
sg75
(lp1718
g68
(g89
g70
NtRp1719
(dp1720
g73
(dp1721
sg82
g1715
sg75
(lp1722
g68
(g69
g70
NtRp1723
(dp1724
g73
(dp1725
g81
I3
ssg82
g1719
sg75
(lp1726
S'99'
p1727
asbasbasbag68
(g84
g70
NtRp1728
(dp1729
g73
(dp1730
sg82
g1699
sg75
(lp1731
g68
(g89
g70
NtRp1732
(dp1733
g73
(dp1734
sg82
g1728
sg75
(lp1735
g68
(g69
g70
NtRp1736
(dp1737
g73
(dp1738
g81
I3
ssg82
g1732
sg75
(lp1739
S'7'
asbasbasbag68
(g84
g70
NtRp1740
(dp1741
g73
(dp1742
sg82
g1699
sg75
(lp1743
g68
(g89
g70
NtRp1744
(dp1745
g73
(dp1746
sg82
g1740
sg75
(lp1747
g68
(g69
g70
NtRp1748
(dp1749
g73
(dp1750
g81
I3
ssg82
g1744
sg75
(lp1751
S'datetime.datetime(2012, 3, 4, 22, 12, 8)'
p1752
asbasbasbag68
(g84
g70
NtRp1753
(dp1754
g73
(dp1755
sg82
g1699
sg75
(lp1756
g68
(g89
g70
NtRp1757
(dp1758
g73
(dp1759
sg82
g1753
sg75
(lp1760
g68
(g69
g70
NtRp1761
(dp1762
g73
(dp1763
g81
I3
ssg82
g1757
sg75
(lp1764
S'stable'
p1765
asbasbasbasbasbasbasbag68
(g84
g70
NtRp1766
(dp1767
g73
(dp1768
sg82
g1018
sg75
(lp1769
g68
(g89
g70
NtRp1770
(dp1771
g73
(dp1772
g93
g94
ssg82
g1766
sg75
(lp1773
S'wsgi_errors'
p1774
asbag68
(g89
g70
NtRp1775
(dp1776
g73
(dp1777
g100
g101
ssg82
g1766
sg75
(lp1778
S':'
asbag68
(g89
g70
NtRp1779
(dp1780
g73
(dp1781
sg82
g1766
sg75
(lp1782
g68
(g69
g70
NtRp1783
(dp1784
g73
(dp1785
g81
I4
ssg82
g1779
sg75
(lp1786
S"<open file '<stderr>', mode 'w' at 0x7f4f2366f270>"
p1787
asbasbasbag68
(g84
g70
NtRp1788
(dp1789
g73
(dp1790
sg82
g1018
sg75
(lp1791
g68
(g89
g70
NtRp1792
(dp1793
g73
(dp1794
g93
g94
ssg82
g1788
sg75
(lp1795
S'wsgi_file_wrapper'
p1796
asbag68
(g89
g70
NtRp1797
(dp1798
g73
(dp1799
g100
g101
ssg82
g1788
sg75
(lp1800
S':'
asbag68
(g89
g70
NtRp1801
(dp1802
g73
(dp1803
sg82
g1788
sg75
(lp1804
g68
(g69
g70
NtRp1805
(dp1806
g73
(dp1807
g81
I4
ssg82
g1801
sg75
(lp1808
S'<class wsgiref.util.FileWrapper at 0x1abc460>'
p1809
asbasbasbag68
(g84
g70
NtRp1810
(dp1811
g73
(dp1812
sg82
g1018
sg75
(lp1813
g68
(g89
g70
NtRp1814
(dp1815
g73
(dp1816
g93
g94
ssg82
g1810
sg75
(lp1817
S'wsgi_input'
p1818
asbag68
(g89
g70
NtRp1819
(dp1820
g73
(dp1821
g100
g101
ssg82
g1810
sg75
(lp1822
S':'
asbag68
(g89
g70
NtRp1823
(dp1824
g73
(dp1825
sg82
g1810
sg75
(lp1826
g68
(g69
g70
NtRp1827
(dp1828
g73
(dp1829
g81
I4
ssg82
g1823
sg75
(lp1830
S'<socket._fileobject object at 0x22f66d0>'
p1831
asbasbasbag68
(g84
g70
NtRp1832
(dp1833
g73
(dp1834
sg82
g1018
sg75
(lp1835
g68
(g89
g70
NtRp1836
(dp1837
g73
(dp1838
g93
g94
ssg82
g1832
sg75
(lp1839
S'wsgi_multiprocess'
p1840
asbag68
(g89
g70
NtRp1841
(dp1842
g73
(dp1843
g100
g101
ssg82
g1832
sg75
(lp1844
S':'
asbag68
(g89
g70
NtRp1845
(dp1846
g73
(dp1847
sg82
g1832
sg75
(lp1848
g68
(g69
g70
NtRp1849
(dp1850
g73
(dp1851
g81
I4
ssg82
g1845
sg75
(lp1852
g111
asbasbasbag68
(g84
g70
NtRp1853
(dp1854
g73
(dp1855
sg82
g1018
sg75
(lp1856
g68
(g89
g70
NtRp1857
(dp1858
g73
(dp1859
g93
g94
ssg82
g1853
sg75
(lp1860
S'wsgi_multithread'
p1861
asbag68
(g89
g70
NtRp1862
(dp1863
g73
(dp1864
g100
g101
ssg82
g1853
sg75
(lp1865
S':'
asbag68
(g89
g70
NtRp1866
(dp1867
g73
(dp1868
sg82
g1853
sg75
(lp1869
g68
(g69
g70
NtRp1870
(dp1871
g73
(dp1872
g81
I4
ssg82
g1866
sg75
(lp1873
S'True'
p1874
asbasbasbag68
(g84
g70
NtRp1875
(dp1876
g73
(dp1877
sg82
g1018
sg75
(lp1878
g68
(g89
g70
NtRp1879
(dp1880
g73
(dp1881
g93
g94
ssg82
g1875
sg75
(lp1882
S'wsgi_run_once'
p1883
asbag68
(g89
g70
NtRp1884
(dp1885
g73
(dp1886
g100
g101
ssg82
g1875
sg75
(lp1887
S':'
asbag68
(g89
g70
NtRp1888
(dp1889
g73
(dp1890
sg82
g1875
sg75
(lp1891
g68
(g69
g70
NtRp1892
(dp1893
g73
(dp1894
g81
I4
ssg82
g1888
sg75
(lp1895
g111
asbasbasbag68
(g84
g70
NtRp1896
(dp1897
g73
(dp1898
sg82
g1018
sg75
(lp1899
g68
(g89
g70
NtRp1900
(dp1901
g73
(dp1902
g93
g94
ssg82
g1896
sg75
(lp1903
S'wsgi_url_scheme'
p1904
asbag68
(g89
g70
NtRp1905
(dp1906
g73
(dp1907
g100
g101
ssg82
g1896
sg75
(lp1908
S':'
asbag68
(g89
g70
NtRp1909
(dp1910
g73
(dp1911
sg82
g1896
sg75
(lp1912
g68
(g69
g70
NtRp1913
(dp1914
g73
(dp1915
g81
I4
ssg82
g1909
sg75
(lp1916
S'http'
p1917
asbasbasbag68
(g84
g70
NtRp1918
(dp1919
g73
(dp1920
sg82
g1018
sg75
(lp1921
g68
(g89
g70
NtRp1922
(dp1923
g73
(dp1924
g93
g94
ssg82
g1918
sg75
(lp1925
S'wsgi_version'
p1926
asbag68
(g89
g70
NtRp1927
(dp1928
g73
(dp1929
g100
g101
ssg82
g1918
sg75
(lp1930
S':'
asbag68
(g89
g70
NtRp1931
(dp1932
g73
(dp1933
sg82
g1918
sg75
(lp1934
g68
(g69
g70
NtRp1935
(dp1936
g73
(dp1937
g81
I4
ssg82
g1931
sg75
(lp1938
g68
(g77
g70
NtRp1939
(dp1940
g73
(dp1941
g81
I3
ssg82
Nsg75
(lp1942
g68
(g84
g70
NtRp1943
(dp1944
g73
(dp1945
sg82
g1939
sg75
(lp1946
g68
(g89
g70
NtRp1947
(dp1948
g73
(dp1949
sg82
g1943
sg75
(lp1950
g68
(g69
g70
NtRp1951
(dp1952
g73
(dp1953
g81
I3
ssg82
g1947
sg75
(lp1954
S'1'
asbasbasbag68
(g84
g70
NtRp1955
(dp1956
g73
(dp1957
sg82
g1939
sg75
(lp1958
g68
(g89
g70
NtRp1959
(dp1960
g73
(dp1961
sg82
g1955
sg75
(lp1962
g68
(g69
g70
NtRp1963
(dp1964
g73
(dp1965
g81
I3
ssg82
g1959
sg75
(lp1966
S'0'
asbasbasbasbasbasbasbasbasbasbasbag68
(g84
g70
NtRp1967
(dp1968
g73
(dp1969
sg82
g78
sg75
(lp1970
g68
(g89
g70
NtRp1971
(dp1972
g73
(dp1973
g93
g94
ssg82
g1967
sg75
(lp1974
S'extension'
p1975
asbag68
(g89
g70
NtRp1976
(dp1977
g73
(dp1978
g100
g101
ssg82
g1967
sg75
(lp1979
S':'
asbag68
(g89
g70
NtRp1980
(dp1981
g73
(dp1982
sg82
g1967
sg75
(lp1983
g68
(g69
g70
NtRp1984
(dp1985
g73
(dp1986
g81
I5
ssg82
g1980
sg75
(lp1987
S'html'
p1988
asbasbasbag68
(g84
g70
NtRp1989
(dp1990
g73
(dp1991
sg82
g78
sg75
(lp1992
g68
(g89
g70
NtRp1993
(dp1994
g73
(dp1995
g93
g94
ssg82
g1989
sg75
(lp1996
S'folder'
p1997
asbag68
(g89
g70
NtRp1998
(dp1999
g73
(dp2000
g100
g101
ssg82
g1989
sg75
(lp2001
S':'
asbag68
(g89
g70
NtRp2002
(dp2003
g73
(dp2004
sg82
g1989
sg75
(lp2005
g68
(g69
g70
NtRp2006
(dp2007
g73
(dp2008
g81
I5
ssg82
g2002
sg75
(lp2009
S'/home/marco/flisol2012/web2py/applications/flisol2012/'
p2010
asbasbasbag68
(g84
g70
NtRp2011
(dp2012
g73
(dp2013
sg82
g78
sg75
(lp2014
g68
(g89
g70
NtRp2015
(dp2016
g73
(dp2017
g93
g94
ssg82
g2011
sg75
(lp2018
S'function'
p2019
asbag68
(g89
g70
NtRp2020
(dp2021
g73
(dp2022
g100
g101
ssg82
g2011
sg75
(lp2023
S':'
asbag68
(g89
g70
NtRp2024
(dp2025
g73
(dp2026
sg82
g2011
sg75
(lp2027
g68
(g69
g70
NtRp2028
(dp2029
g73
(dp2030
g81
I5
ssg82
g2024
sg75
(lp2031
S'attendees'
p2032
asbasbasbag68
(g84
g70
NtRp2033
(dp2034
g73
(dp2035
sg82
g78
sg75
(lp2036
g68
(g89
g70
NtRp2037
(dp2038
g73
(dp2039
g93
g94
ssg82
g2033
sg75
(lp2040
S'get_vars'
p2041
asbag68
(g89
g70
NtRp2042
(dp2043
g73
(dp2044
g100
g101
ssg82
g2033
sg75
(lp2045
S':'
asbag68
(g89
g70
NtRp2046
(dp2047
g73
(dp2048
sg82
g2033
sg75
(lp2049
g68
(g69
g70
NtRp2050
(dp2051
g73
(dp2052
g81
I5
ssg82
g2046
sg75
(lp2053
g68
(g77
g70
NtRp2054
(dp2055
g73
(dp2056
g81
I4
ssg82
Nsg75
(lp2057
sbasbasbasbag68
(g84
g70
NtRp2058
(dp2059
g73
(dp2060
sg82
g78
sg75
(lp2061
g68
(g89
g70
NtRp2062
(dp2063
g73
(dp2064
g93
g94
ssg82
g2058
sg75
(lp2065
S'global_settings'
p2066
asbag68
(g89
g70
NtRp2067
(dp2068
g73
(dp2069
g100
g101
ssg82
g2058
sg75
(lp2070
S':'
asbag68
(g89
g70
NtRp2071
(dp2072
g73
(dp2073
sg82
g2058
sg75
(lp2074
g68
(g69
g70
NtRp2075
(dp2076
g73
(dp2077
g81
I5
ssg82
g2071
sg75
(lp2078
g68
(g77
g70
NtRp2079
(dp2080
g73
(dp2081
g81
I4
ssg82
Nsg75
(lp2082
g68
(g84
g70
NtRp2083
(dp2084
g73
(dp2085
sg82
g2079
sg75
(lp2086
g68
(g89
g70
NtRp2087
(dp2088
g73
(dp2089
g93
g94
ssg82
g2083
sg75
(lp2090
g1030
asbag68
(g89
g70
NtRp2091
(dp2092
g73
(dp2093
g100
g101
ssg82
g2083
sg75
(lp2094
S':'
asbag68
(g89
g70
NtRp2095
(dp2096
g73
(dp2097
sg82
g2083
sg75
(lp2098
g68
(g69
g70
NtRp2099
(dp2100
g73
(dp2101
g81
I4
ssg82
g2095
sg75
(lp2102
S"set(['/home/marco/flisol2012/web2py/applications/welcome/', '/home/marco/flisol2012/web2py/applications/flisol2012/', '/home/marco/flisol2012/web2py/applications/admin/'])"
p2103
asbasbasbag68
(g84
g70
NtRp2104
(dp2105
g73
(dp2106
sg82
g2079
sg75
(lp2107
g68
(g89
g70
NtRp2108
(dp2109
g73
(dp2110
g93
g94
ssg82
g2104
sg75
(lp2111
g1052
asbag68
(g89
g70
NtRp2112
(dp2113
g73
(dp2114
g100
g101
ssg82
g2104
sg75
(lp2115
S':'
asbag68
(g89
g70
NtRp2116
(dp2117
g73
(dp2118
sg82
g2104
sg75
(lp2119
g68
(g69
g70
NtRp2120
(dp2121
g73
(dp2122
g81
I4
ssg82
g2116
sg75
(lp2123
g1065
asbasbasbag68
(g84
g70
NtRp2124
(dp2125
g73
(dp2126
sg82
g2079
sg75
(lp2127
g68
(g89
g70
NtRp2128
(dp2129
g73
(dp2130
g93
g94
ssg82
g2124
sg75
(lp2131
g1074
asbag68
(g89
g70
NtRp2132
(dp2133
g73
(dp2134
g100
g101
ssg82
g2124
sg75
(lp2135
S':'
asbag68
(g89
g70
NtRp2136
(dp2137
g73
(dp2138
sg82
g2124
sg75
(lp2139
g68
(g69
g70
NtRp2140
(dp2141
g73
(dp2142
g81
I4
ssg82
g2136
sg75
(lp2143
g68
(g77
g70
NtRp2144
(dp2145
g73
(dp2146
g81
I3
ssg82
Nsg75
(lp2147
sbasbasbasbag68
(g84
g70
NtRp2148
(dp2149
g73
(dp2150
sg82
g2079
sg75
(lp2151
g68
(g89
g70
NtRp2152
(dp2153
g73
(dp2154
g93
g94
ssg82
g2148
sg75
(lp2155
g1099
asbag68
(g89
g70
NtRp2156
(dp2157
g73
(dp2158
g100
g101
ssg82
g2148
sg75
(lp2159
S':'
asbag68
(g89
g70
NtRp2160
(dp2161
g73
(dp2162
sg82
g2148
sg75
(lp2163
g68
(g69
g70
NtRp2164
(dp2165
g73
(dp2166
g81
I4
ssg82
g2160
sg75
(lp2167
S"<Values at 0x1bd6908: {'verbose': False, 'ip': '127.0.0.1', 'shutdown_timeout': 5, 'taskbar': False, 'nocron': False, 'pid_filename': 'httpserver.pid', 'maxthreads': None, 'softcron': False, 'server_name': 'malena', 'bpython': False, 'nogui': False, 'port': 8000, 'extcron': False, 'debuglevel': 30, 'test': None, 'folder': '/home/marco/flisol2012/web2py', 'config': '', 'import_models': False, 'winservice': '', 'shell': None, 'run': '', 'log_filename': 'httpserver.log', 'args': [''], 'socket_timeout': 5, 'ssl_ca_certificate': None, 'scheduler': None, 'profiler_filename': None, 'ssl_private_key': '', 'password': 'asd', 'request_queue_size': 5, 'ssl_certificate': '', 'cronjob': False, 'numthreads': None, 'quiet': False, 'interfaces': None, 'minthreads': None, 'timeout': 10, 'plain': False, 'nobanner': False}>"
p2168
asbasbasbag68
(g84
g70
NtRp2169
(dp2170
g73
(dp2171
sg82
g2079
sg75
(lp2172
g68
(g89
g70
NtRp2173
(dp2174
g73
(dp2175
g93
g94
ssg82
g2169
sg75
(lp2176
g1121
asbag68
(g89
g70
NtRp2177
(dp2178
g73
(dp2179
g100
g101
ssg82
g2169
sg75
(lp2180
S':'
asbag68
(g89
g70
NtRp2181
(dp2182
g73
(dp2183
sg82
g2169
sg75
(lp2184
g68
(g69
g70
NtRp2185
(dp2186
g73
(dp2187
g81
I4
ssg82
g2181
sg75
(lp2188
S'set([])'
p2189
asbasbasbag68
(g84
g70
NtRp2190
(dp2191
g73
(dp2192
sg82
g2079
sg75
(lp2193
g68
(g89
g70
NtRp2194
(dp2195
g73
(dp2196
g93
g94
ssg82
g2190
sg75
(lp2197
g1143
asbag68
(g89
g70
NtRp2198
(dp2199
g73
(dp2200
g100
g101
ssg82
g2190
sg75
(lp2201
S':'
asbag68
(g89
g70
NtRp2202
(dp2203
g73
(dp2204
sg82
g2190
sg75
(lp2205
g68
(g69
g70
NtRp2206
(dp2207
g73
(dp2208
g81
I4
ssg82
g2202
sg75
(lp2209
g111
asbasbasbag68
(g84
g70
NtRp2210
(dp2211
g73
(dp2212
sg82
g2079
sg75
(lp2213
g68
(g89
g70
NtRp2214
(dp2215
g73
(dp2216
g93
g94
ssg82
g2210
sg75
(lp2217
g1164
asbag68
(g89
g70
NtRp2218
(dp2219
g73
(dp2220
g100
g101
ssg82
g2210
sg75
(lp2221
S':'
asbag68
(g89
g70
NtRp2222
(dp2223
g73
(dp2224
sg82
g2210
sg75
(lp2225
g68
(g69
g70
NtRp2226
(dp2227
g73
(dp2228
g81
I4
ssg82
g2222
sg75
(lp2229
g1177
asbasbasbag68
(g84
g70
NtRp2230
(dp2231
g73
(dp2232
sg82
g2079
sg75
(lp2233
g68
(g89
g70
NtRp2234
(dp2235
g73
(dp2236
g93
g94
ssg82
g2230
sg75
(lp2237
g1384
asbag68
(g89
g70
NtRp2238
(dp2239
g73
(dp2240
g100
g101
ssg82
g2230
sg75
(lp2241
S':'
asbag68
(g89
g70
NtRp2242
(dp2243
g73
(dp2244
sg82
g2230
sg75
(lp2245
g68
(g69
g70
NtRp2246
(dp2247
g73
(dp2248
g81
I4
ssg82
g2242
sg75
(lp2249
g111
asbasbasbag68
(g84
g70
NtRp2250
(dp2251
g73
(dp2252
sg82
g2079
sg75
(lp2253
g68
(g89
g70
NtRp2254
(dp2255
g73
(dp2256
g93
g94
ssg82
g2250
sg75
(lp2257
g1405
asbag68
(g89
g70
NtRp2258
(dp2259
g73
(dp2260
g100
g101
ssg82
g2250
sg75
(lp2261
S':'
asbag68
(g89
g70
NtRp2262
(dp2263
g73
(dp2264
sg82
g2250
sg75
(lp2265
g68
(g69
g70
NtRp2266
(dp2267
g73
(dp2268
g81
I4
ssg82
g2262
sg75
(lp2269
g111
asbasbasbag68
(g84
g70
NtRp2270
(dp2271
g73
(dp2272
sg82
g2079
sg75
(lp2273
g68
(g89
g70
NtRp2274
(dp2275
g73
(dp2276
g93
g94
ssg82
g2270
sg75
(lp2277
g1643
asbag68
(g89
g70
NtRp2278
(dp2279
g73
(dp2280
g100
g101
ssg82
g2270
sg75
(lp2281
S':'
asbag68
(g89
g70
NtRp2282
(dp2283
g73
(dp2284
sg82
g2270
sg75
(lp2285
g68
(g69
g70
NtRp2286
(dp2287
g73
(dp2288
g81
I4
ssg82
g2282
sg75
(lp2289
g1656
asbasbasbag68
(g84
g70
NtRp2290
(dp2291
g73
(dp2292
sg82
g2079
sg75
(lp2293
g68
(g89
g70
NtRp2294
(dp2295
g73
(dp2296
g93
g94
ssg82
g2290
sg75
(lp2297
g1686
asbag68
(g89
g70
NtRp2298
(dp2299
g73
(dp2300
g100
g101
ssg82
g2290
sg75
(lp2301
S':'
asbag68
(g89
g70
NtRp2302
(dp2303
g73
(dp2304
sg82
g2290
sg75
(lp2305
g68
(g69
g70
NtRp2306
(dp2307
g73
(dp2308
g81
I4
ssg82
g2302
sg75
(lp2309
g68
(g77
g70
NtRp2310
(dp2311
g73
(dp2312
g81
I3
ssg82
Nsg75
(lp2313
g68
(g84
g70
NtRp2314
(dp2315
g73
(dp2316
sg82
g2310
sg75
(lp2317
g68
(g89
g70
NtRp2318
(dp2319
g73
(dp2320
sg82
g2314
sg75
(lp2321
g68
(g69
g70
NtRp2322
(dp2323
g73
(dp2324
g81
I3
ssg82
g2318
sg75
(lp2325
S'1'
asbasbasbag68
(g84
g70
NtRp2326
(dp2327
g73
(dp2328
sg82
g2310
sg75
(lp2329
g68
(g89
g70
NtRp2330
(dp2331
g73
(dp2332
sg82
g2326
sg75
(lp2333
g68
(g69
g70
NtRp2334
(dp2335
g73
(dp2336
g81
I3
ssg82
g2330
sg75
(lp2337
S'99'
p2338
asbasbasbag68
(g84
g70
NtRp2339
(dp2340
g73
(dp2341
sg82
g2310
sg75
(lp2342
g68
(g89
g70
NtRp2343
(dp2344
g73
(dp2345
sg82
g2339
sg75
(lp2346
g68
(g69
g70
NtRp2347
(dp2348
g73
(dp2349
g81
I3
ssg82
g2343
sg75
(lp2350
S'7'
asbasbasbag68
(g84
g70
NtRp2351
(dp2352
g73
(dp2353
sg82
g2310
sg75
(lp2354
g68
(g89
g70
NtRp2355
(dp2356
g73
(dp2357
sg82
g2351
sg75
(lp2358
g68
(g69
g70
NtRp2359
(dp2360
g73
(dp2361
g81
I3
ssg82
g2355
sg75
(lp2362
S'datetime.datetime(2012, 3, 4, 22, 12, 8)'
p2363
asbasbasbag68
(g84
g70
NtRp2364
(dp2365
g73
(dp2366
sg82
g2310
sg75
(lp2367
g68
(g89
g70
NtRp2368
(dp2369
g73
(dp2370
sg82
g2364
sg75
(lp2371
g68
(g69
g70
NtRp2372
(dp2373
g73
(dp2374
g81
I3
ssg82
g2368
sg75
(lp2375
g1765
asbasbasbasbasbasbasbasbasbasbasbag68
(g84
g70
NtRp2376
(dp2377
g73
(dp2378
sg82
g78
sg75
(lp2379
g68
(g89
g70
NtRp2380
(dp2381
g73
(dp2382
g93
g94
ssg82
g2376
sg75
(lp2383
S'is_https'
p2384
asbag68
(g89
g70
NtRp2385
(dp2386
g73
(dp2387
g100
g101
ssg82
g2376
sg75
(lp2388
S':'
asbag68
(g89
g70
NtRp2389
(dp2390
g73
(dp2391
sg82
g2376
sg75
(lp2392
g68
(g69
g70
NtRp2393
(dp2394
g73
(dp2395
g81
I5
ssg82
g2389
sg75
(lp2396
g111
asbasbasbag68
(g84
g70
NtRp2397
(dp2398
g73
(dp2399
sg82
g78
sg75
(lp2400
g68
(g89
g70
NtRp2401
(dp2402
g73
(dp2403
g93
g94
ssg82
g2397
sg75
(lp2404
S'is_local'
p2405
asbag68
(g89
g70
NtRp2406
(dp2407
g73
(dp2408
g100
g101
ssg82
g2397
sg75
(lp2409
S':'
asbag68
(g89
g70
NtRp2410
(dp2411
g73
(dp2412
sg82
g2397
sg75
(lp2413
g68
(g69
g70
NtRp2414
(dp2415
g73
(dp2416
g81
I5
ssg82
g2410
sg75
(lp2417
g1874
asbasbasbag68
(g84
g70
NtRp2418
(dp2419
g73
(dp2420
sg82
g78
sg75
(lp2421
g68
(g89
g70
NtRp2422
(dp2423
g73
(dp2424
g93
g94
ssg82
g2418
sg75
(lp2425
S'is_restful'
p2426
asbag68
(g89
g70
NtRp2427
(dp2428
g73
(dp2429
g100
g101
ssg82
g2418
sg75
(lp2430
S':'
asbag68
(g89
g70
NtRp2431
(dp2432
g73
(dp2433
sg82
g2418
sg75
(lp2434
g68
(g69
g70
NtRp2435
(dp2436
g73
(dp2437
g81
I5
ssg82
g2431
sg75
(lp2438
g111
asbasbasbag68
(g84
g70
NtRp2439
(dp2440
g73
(dp2441
sg82
g78
sg75
(lp2442
g68
(g89
g70
NtRp2443
(dp2444
g73
(dp2445
g93
g94
ssg82
g2439
sg75
(lp2446
S'now'
p2447
asbag68
(g89
g70
NtRp2448
(dp2449
g73
(dp2450
g100
g101
ssg82
g2439
sg75
(lp2451
S':'
asbag68
(g89
g70
NtRp2452
(dp2453
g73
(dp2454
sg82
g2439
sg75
(lp2455
g68
(g69
g70
NtRp2456
(dp2457
g73
(dp2458
g81
I5
ssg82
g2452
sg75
(lp2459
S'datetime.datetime(2012, 3, 9, 18, 29, 27, 28428)'
p2460
asbasbasbag68
(g84
g70
NtRp2461
(dp2462
g73
(dp2463
sg82
g78
sg75
(lp2464
g68
(g89
g70
NtRp2465
(dp2466
g73
(dp2467
g93
g94
ssg82
g2461
sg75
(lp2468
S'post_vars'
p2469
asbag68
(g89
g70
NtRp2470
(dp2471
g73
(dp2472
g100
g101
ssg82
g2461
sg75
(lp2473
S':'
asbag68
(g89
g70
NtRp2474
(dp2475
g73
(dp2476
sg82
g2461
sg75
(lp2477
g68
(g69
g70
NtRp2478
(dp2479
g73
(dp2480
g81
I5
ssg82
g2474
sg75
(lp2481
g68
(g77
g70
NtRp2482
(dp2483
g73
(dp2484
g81
I4
ssg82
Nsg75
(lp2485
sbasbasbasbag68
(g84
g70
NtRp2486
(dp2487
g73
(dp2488
sg82
g78
sg75
(lp2489
g68
(g89
g70
NtRp2490
(dp2491
g73
(dp2492
g93
g94
ssg82
g2486
sg75
(lp2493
S'url'
p2494
asbag68
(g89
g70
NtRp2495
(dp2496
g73
(dp2497
g100
g101
ssg82
g2486
sg75
(lp2498
S':'
asbag68
(g89
g70
NtRp2499
(dp2500
g73
(dp2501
sg82
g2486
sg75
(lp2502
g68
(g69
g70
NtRp2503
(dp2504
g73
(dp2505
g81
I5
ssg82
g2499
sg75
(lp2506
S'/flisol2012/default/attendees'
p2507
asbasbasbag68
(g84
g70
NtRp2508
(dp2509
g73
(dp2510
sg82
g78
sg75
(lp2511
g68
(g89
g70
NtRp2512
(dp2513
g73
(dp2514
g93
g94
ssg82
g2508
sg75
(lp2515
S'utcnow'
p2516
asbag68
(g89
g70
NtRp2517
(dp2518
g73
(dp2519
g100
g101
ssg82
g2508
sg75
(lp2520
S':'
asbag68
(g89
g70
NtRp2521
(dp2522
g73
(dp2523
sg82
g2508
sg75
(lp2524
g68
(g69
g70
NtRp2525
(dp2526
g73
(dp2527
g81
I5
ssg82
g2521
sg75
(lp2528
S'datetime.datetime(2012, 3, 9, 21, 29, 27, 28468)'
p2529
asbasbasbag68
(g84
g70
NtRp2530
(dp2531
g73
(dp2532
sg82
g78
sg75
(lp2533
g68
(g89
g70
NtRp2534
(dp2535
g73
(dp2536
g93
g94
ssg82
g2530
sg75
(lp2537
S'uuid'
p2538
asbag68
(g89
g70
NtRp2539
(dp2540
g73
(dp2541
g100
g101
ssg82
g2530
sg75
(lp2542
S':'
asbag68
(g89
g70
NtRp2543
(dp2544
g73
(dp2545
sg82
g2530
sg75
(lp2546
g68
(g69
g70
NtRp2547
(dp2548
g73
(dp2549
g81
I5
ssg82
g2543
sg75
(lp2550
S'flisol2012/127.0.0.1.2012-03-09.18-29-27.0e733938-a2d4-43e9-8a76-39a95c3730d5'
p2551
asbasbasbag68
(g84
g70
NtRp2552
(dp2553
g73
(dp2554
sg82
g78
sg75
(lp2555
g68
(g89
g70
NtRp2556
(dp2557
g73
(dp2558
g93
g94
ssg82
g2552
sg75
(lp2559
S'vars'
p2560
asbag68
(g89
g70
NtRp2561
(dp2562
g73
(dp2563
g100
g101
ssg82
g2552
sg75
(lp2564
S':'
asbag68
(g89
g70
NtRp2565
(dp2566
g73
(dp2567
sg82
g2552
sg75
(lp2568
g68
(g69
g70
NtRp2569
(dp2570
g73
(dp2571
g81
I5
ssg82
g2565
sg75
(lp2572
g68
(g77
g70
NtRp2573
(dp2574
g73
(dp2575
g81
I4
ssg82
Nsg75
(lp2576
sbasbasbasbag68
(g84
g70
NtRp2577
(dp2578
g73
(dp2579
sg82
g78
sg75
(lp2580
g68
(g89
g70
NtRp2581
(dp2582
g73
(dp2583
g93
g94
ssg82
g2577
sg75
(lp2584
S'wsgi'
p2585
asbag68
(g89
g70
NtRp2586
(dp2587
g73
(dp2588
g100
g101
ssg82
g2577
sg75
(lp2589
S':'
asbag68
(g89
g70
NtRp2590
(dp2591
g73
(dp2592
sg82
g2577
sg75
(lp2593
g68
(g69
g70
NtRp2594
(dp2595
g73
(dp2596
g81
I5
ssg82
g2590
sg75
(lp2597
g68
(g77
g70
NtRp2598
(dp2599
g73
(dp2600
g81
I4
ssg82
Nsg75
(lp2601
g68
(g84
g70
NtRp2602
(dp2603
g73
(dp2604
sg82
g2598
sg75
(lp2605
g68
(g89
g70
NtRp2606
(dp2607
g73
(dp2608
g93
g94
ssg82
g2602
sg75
(lp2609
S'environ'
p2610
asbag68
(g89
g70
NtRp2611
(dp2612
g73
(dp2613
g100
g101
ssg82
g2602
sg75
(lp2614
S':'
asbag68
(g89
g70
NtRp2615
(dp2616
g73
(dp2617
sg82
g2602
sg75
(lp2618
g68
(g69
g70
NtRp2619
(dp2620
g73
(dp2621
g81
I4
ssg82
g2615
sg75
(lp2622
g68
(g77
g70
NtRp2623
(dp2624
g73
(dp2625
g81
I3
ssg82
Nsg75
(lp2626
g68
(g84
g70
NtRp2627
(dp2628
g73
(dp2629
sg82
g2623
sg75
(lp2630
g68
(g89
g70
NtRp2631
(dp2632
g73
(dp2633
g93
g94
ssg82
g2627
sg75
(lp2634
S'HTTP_ACCEPT'
p2635
asbag68
(g89
g70
NtRp2636
(dp2637
g73
(dp2638
g100
g101
ssg82
g2627
sg75
(lp2639
S':'
asbag68
(g89
g70
NtRp2640
(dp2641
g73
(dp2642
sg82
g2627
sg75
(lp2643
g68
(g69
g70
NtRp2644
(dp2645
g73
(dp2646
g81
I3
ssg82
g2640
sg75
(lp2647
g1199
asbasbasbag68
(g84
g70
NtRp2648
(dp2649
g73
(dp2650
sg82
g2623
sg75
(lp2651
g68
(g89
g70
NtRp2652
(dp2653
g73
(dp2654
g93
g94
ssg82
g2648
sg75
(lp2655
S'HTTP_ACCEPT_ENCODING'
p2656
asbag68
(g89
g70
NtRp2657
(dp2658
g73
(dp2659
g100
g101
ssg82
g2648
sg75
(lp2660
S':'
asbag68
(g89
g70
NtRp2661
(dp2662
g73
(dp2663
sg82
g2648
sg75
(lp2664
g68
(g69
g70
NtRp2665
(dp2666
g73
(dp2667
g81
I3
ssg82
g2661
sg75
(lp2668
g1221
asbasbasbag68
(g84
g70
NtRp2669
(dp2670
g73
(dp2671
sg82
g2623
sg75
(lp2672
g68
(g89
g70
NtRp2673
(dp2674
g73
(dp2675
g93
g94
ssg82
g2669
sg75
(lp2676
S'HTTP_ACCEPT_LANGUAGE'
p2677
asbag68
(g89
g70
NtRp2678
(dp2679
g73
(dp2680
g100
g101
ssg82
g2669
sg75
(lp2681
S':'
asbag68
(g89
g70
NtRp2682
(dp2683
g73
(dp2684
sg82
g2669
sg75
(lp2685
g68
(g69
g70
NtRp2686
(dp2687
g73
(dp2688
g81
I3
ssg82
g2682
sg75
(lp2689
g1243
asbasbasbag68
(g84
g70
NtRp2690
(dp2691
g73
(dp2692
sg82
g2623
sg75
(lp2693
g68
(g89
g70
NtRp2694
(dp2695
g73
(dp2696
g93
g94
ssg82
g2690
sg75
(lp2697
S'HTTP_CACHE_CONTROL'
p2698
asbag68
(g89
g70
NtRp2699
(dp2700
g73
(dp2701
g100
g101
ssg82
g2690
sg75
(lp2702
S':'
asbag68
(g89
g70
NtRp2703
(dp2704
g73
(dp2705
sg82
g2690
sg75
(lp2706
g68
(g69
g70
NtRp2707
(dp2708
g73
(dp2709
g81
I3
ssg82
g2703
sg75
(lp2710
g1265
asbasbasbag68
(g84
g70
NtRp2711
(dp2712
g73
(dp2713
sg82
g2623
sg75
(lp2714
g68
(g89
g70
NtRp2715
(dp2716
g73
(dp2717
g93
g94
ssg82
g2711
sg75
(lp2718
S'HTTP_CONNECTION'
p2719
asbag68
(g89
g70
NtRp2720
(dp2721
g73
(dp2722
g100
g101
ssg82
g2711
sg75
(lp2723
S':'
asbag68
(g89
g70
NtRp2724
(dp2725
g73
(dp2726
sg82
g2711
sg75
(lp2727
g68
(g69
g70
NtRp2728
(dp2729
g73
(dp2730
g81
I3
ssg82
g2724
sg75
(lp2731
g1287
asbasbasbag68
(g84
g70
NtRp2732
(dp2733
g73
(dp2734
sg82
g2623
sg75
(lp2735
g68
(g89
g70
NtRp2736
(dp2737
g73
(dp2738
g93
g94
ssg82
g2732
sg75
(lp2739
S'HTTP_COOKIE'
p2740
asbag68
(g89
g70
NtRp2741
(dp2742
g73
(dp2743
g100
g101
ssg82
g2732
sg75
(lp2744
S':'
asbag68
(g89
g70
NtRp2745
(dp2746
g73
(dp2747
sg82
g2732
sg75
(lp2748
g68
(g69
g70
NtRp2749
(dp2750
g73
(dp2751
g81
I3
ssg82
g2745
sg75
(lp2752
g1309
asbasbasbag68
(g84
g70
NtRp2753
(dp2754
g73
(dp2755
sg82
g2623
sg75
(lp2756
g68
(g89
g70
NtRp2757
(dp2758
g73
(dp2759
g93
g94
ssg82
g2753
sg75
(lp2760
S'HTTP_HOST'
p2761
asbag68
(g89
g70
NtRp2762
(dp2763
g73
(dp2764
g100
g101
ssg82
g2753
sg75
(lp2765
S':'
asbag68
(g89
g70
NtRp2766
(dp2767
g73
(dp2768
sg82
g2753
sg75
(lp2769
g68
(g69
g70
NtRp2770
(dp2771
g73
(dp2772
g81
I3
ssg82
g2766
sg75
(lp2773
g1331
asbasbasbag68
(g84
g70
NtRp2774
(dp2775
g73
(dp2776
sg82
g2623
sg75
(lp2777
g68
(g89
g70
NtRp2778
(dp2779
g73
(dp2780
g93
g94
ssg82
g2774
sg75
(lp2781
S'HTTP_REFERER'
p2782
asbag68
(g89
g70
NtRp2783
(dp2784
g73
(dp2785
g100
g101
ssg82
g2774
sg75
(lp2786
S':'
asbag68
(g89
g70
NtRp2787
(dp2788
g73
(dp2789
sg82
g2774
sg75
(lp2790
g68
(g69
g70
NtRp2791
(dp2792
g73
(dp2793
g81
I3
ssg82
g2787
sg75
(lp2794
g1353
asbasbasbag68
(g84
g70
NtRp2795
(dp2796
g73
(dp2797
sg82
g2623
sg75
(lp2798
g68
(g89
g70
NtRp2799
(dp2800
g73
(dp2801
g93
g94
ssg82
g2795
sg75
(lp2802
S'HTTP_USER_AGENT'
p2803
asbag68
(g89
g70
NtRp2804
(dp2805
g73
(dp2806
g100
g101
ssg82
g2795
sg75
(lp2807
S':'
asbag68
(g89
g70
NtRp2808
(dp2809
g73
(dp2810
sg82
g2795
sg75
(lp2811
g68
(g69
g70
NtRp2812
(dp2813
g73
(dp2814
g81
I3
ssg82
g2808
sg75
(lp2815
g1375
asbasbasbag68
(g84
g70
NtRp2816
(dp2817
g73
(dp2818
sg82
g2623
sg75
(lp2819
g68
(g89
g70
NtRp2820
(dp2821
g73
(dp2822
g93
g94
ssg82
g2816
sg75
(lp2823
S'PATH_INFO'
p2824
asbag68
(g89
g70
NtRp2825
(dp2826
g73
(dp2827
g100
g101
ssg82
g2816
sg75
(lp2828
S':'
asbag68
(g89
g70
NtRp2829
(dp2830
g73
(dp2831
sg82
g2816
sg75
(lp2832
g68
(g69
g70
NtRp2833
(dp2834
g73
(dp2835
g81
I3
ssg82
g2829
sg75
(lp2836
g1439
asbasbasbag68
(g84
g70
NtRp2837
(dp2838
g73
(dp2839
sg82
g2623
sg75
(lp2840
g68
(g89
g70
NtRp2841
(dp2842
g73
(dp2843
g93
g94
ssg82
g2837
sg75
(lp2844
S'QUERY_STRING'
p2845
asbag68
(g89
g70
NtRp2846
(dp2847
g73
(dp2848
g100
g101
ssg82
g2837
sg75
(lp2849
S':'
asbag68
(g89
g70
NtRp2850
(dp2851
g73
(dp2852
sg82
g2837
sg75
(lp2853
g68
(g69
g70
NtRp2854
(dp2855
g73
(dp2856
g81
I3
ssg82
g2850
sg75
(lp2857
S''
asbasbasbag68
(g84
g70
NtRp2858
(dp2859
g73
(dp2860
sg82
g2623
sg75
(lp2861
g68
(g89
g70
NtRp2862
(dp2863
g73
(dp2864
g93
g94
ssg82
g2858
sg75
(lp2865
S'REMOTE_ADDR'
p2866
asbag68
(g89
g70
NtRp2867
(dp2868
g73
(dp2869
g100
g101
ssg82
g2858
sg75
(lp2870
S':'
asbag68
(g89
g70
NtRp2871
(dp2872
g73
(dp2873
sg82
g2858
sg75
(lp2874
g68
(g69
g70
NtRp2875
(dp2876
g73
(dp2877
g81
I3
ssg82
g2871
sg75
(lp2878
g201
asbasbasbag68
(g84
g70
NtRp2879
(dp2880
g73
(dp2881
sg82
g2623
sg75
(lp2882
g68
(g89
g70
NtRp2883
(dp2884
g73
(dp2885
g93
g94
ssg82
g2879
sg75
(lp2886
S'REMOTE_PORT'
p2887
asbag68
(g89
g70
NtRp2888
(dp2889
g73
(dp2890
g100
g101
ssg82
g2879
sg75
(lp2891
S':'
asbag68
(g89
g70
NtRp2892
(dp2893
g73
(dp2894
sg82
g2879
sg75
(lp2895
g68
(g69
g70
NtRp2896
(dp2897
g73
(dp2898
g81
I3
ssg82
g2892
sg75
(lp2899
g1503
asbasbasbag68
(g84
g70
NtRp2900
(dp2901
g73
(dp2902
sg82
g2623
sg75
(lp2903
g68
(g89
g70
NtRp2904
(dp2905
g73
(dp2906
g93
g94
ssg82
g2900
sg75
(lp2907
S'REQUEST_METHOD'
p2908
asbag68
(g89
g70
NtRp2909
(dp2910
g73
(dp2911
g100
g101
ssg82
g2900
sg75
(lp2912
S':'
asbag68
(g89
g70
NtRp2913
(dp2914
g73
(dp2915
sg82
g2900
sg75
(lp2916
g68
(g69
g70
NtRp2917
(dp2918
g73
(dp2919
g81
I3
ssg82
g2913
sg75
(lp2920
g1525
asbasbasbag68
(g84
g70
NtRp2921
(dp2922
g73
(dp2923
sg82
g2623
sg75
(lp2924
g68
(g89
g70
NtRp2925
(dp2926
g73
(dp2927
g93
g94
ssg82
g2921
sg75
(lp2928
S'SCRIPT_NAME'
p2929
asbag68
(g89
g70
NtRp2930
(dp2931
g73
(dp2932
g100
g101
ssg82
g2921
sg75
(lp2933
S':'
asbag68
(g89
g70
NtRp2934
(dp2935
g73
(dp2936
sg82
g2921
sg75
(lp2937
g68
(g69
g70
NtRp2938
(dp2939
g73
(dp2940
g81
I3
ssg82
g2934
sg75
(lp2941
S''
asbasbasbag68
(g84
g70
NtRp2942
(dp2943
g73
(dp2944
sg82
g2623
sg75
(lp2945
g68
(g89
g70
NtRp2946
(dp2947
g73
(dp2948
g93
g94
ssg82
g2942
sg75
(lp2949
S'SERVER_NAME'
p2950
asbag68
(g89
g70
NtRp2951
(dp2952
g73
(dp2953
g100
g101
ssg82
g2942
sg75
(lp2954
S':'
asbag68
(g89
g70
NtRp2955
(dp2956
g73
(dp2957
sg82
g2942
sg75
(lp2958
g68
(g69
g70
NtRp2959
(dp2960
g73
(dp2961
g81
I3
ssg82
g2955
sg75
(lp2962
g1568
asbasbasbag68
(g84
g70
NtRp2963
(dp2964
g73
(dp2965
sg82
g2623
sg75
(lp2966
g68
(g89
g70
NtRp2967
(dp2968
g73
(dp2969
g93
g94
ssg82
g2963
sg75
(lp2970
S'SERVER_PORT'
p2971
asbag68
(g89
g70
NtRp2972
(dp2973
g73
(dp2974
g100
g101
ssg82
g2963
sg75
(lp2975
S':'
asbag68
(g89
g70
NtRp2976
(dp2977
g73
(dp2978
sg82
g2963
sg75
(lp2979
g68
(g69
g70
NtRp2980
(dp2981
g73
(dp2982
g81
I3
ssg82
g2976
sg75
(lp2983
g1590
asbasbasbag68
(g84
g70
NtRp2984
(dp2985
g73
(dp2986
sg82
g2623
sg75
(lp2987
g68
(g89
g70
NtRp2988
(dp2989
g73
(dp2990
g93
g94
ssg82
g2984
sg75
(lp2991
S'SERVER_PROTOCOL'
p2992
asbag68
(g89
g70
NtRp2993
(dp2994
g73
(dp2995
g100
g101
ssg82
g2984
sg75
(lp2996
S':'
asbag68
(g89
g70
NtRp2997
(dp2998
g73
(dp2999
sg82
g2984
sg75
(lp3000
g68
(g69
g70
NtRp3001
(dp3002
g73
(dp3003
g81
I3
ssg82
g2997
sg75
(lp3004
g1612
asbasbasbag68
(g84
g70
NtRp3005
(dp3006
g73
(dp3007
sg82
g2623
sg75
(lp3008
g68
(g89
g70
NtRp3009
(dp3010
g73
(dp3011
g93
g94
ssg82
g3005
sg75
(lp3012
S'SERVER_SOFTWARE'
p3013
asbag68
(g89
g70
NtRp3014
(dp3015
g73
(dp3016
g100
g101
ssg82
g3005
sg75
(lp3017
S':'
asbag68
(g89
g70
NtRp3018
(dp3019
g73
(dp3020
sg82
g3005
sg75
(lp3021
g68
(g69
g70
NtRp3022
(dp3023
g73
(dp3024
g81
I3
ssg82
g3018
sg75
(lp3025
g1634
asbasbasbag68
(g84
g70
NtRp3026
(dp3027
g73
(dp3028
sg82
g2623
sg75
(lp3029
g68
(g89
g70
NtRp3030
(dp3031
g73
(dp3032
g93
g94
ssg82
g3026
sg75
(lp3033
S'wsgi.errors'
p3034
asbag68
(g89
g70
NtRp3035
(dp3036
g73
(dp3037
g100
g101
ssg82
g3026
sg75
(lp3038
S':'
asbag68
(g89
g70
NtRp3039
(dp3040
g73
(dp3041
sg82
g3026
sg75
(lp3042
g68
(g69
g70
NtRp3043
(dp3044
g73
(dp3045
g81
I3
ssg82
g3039
sg75
(lp3046
S"<open file '<stderr>', mode 'w' at 0x7f4f2366f270>"
p3047
asbasbasbag68
(g84
g70
NtRp3048
(dp3049
g73
(dp3050
sg82
g2623
sg75
(lp3051
g68
(g89
g70
NtRp3052
(dp3053
g73
(dp3054
g93
g94
ssg82
g3048
sg75
(lp3055
S'wsgi.file_wrapper'
p3056
asbag68
(g89
g70
NtRp3057
(dp3058
g73
(dp3059
g100
g101
ssg82
g3048
sg75
(lp3060
S':'
asbag68
(g89
g70
NtRp3061
(dp3062
g73
(dp3063
sg82
g3048
sg75
(lp3064
g68
(g69
g70
NtRp3065
(dp3066
g73
(dp3067
g81
I3
ssg82
g3061
sg75
(lp3068
S'<class wsgiref.util.FileWrapper at 0x1abc460>'
p3069
asbasbasbag68
(g84
g70
NtRp3070
(dp3071
g73
(dp3072
sg82
g2623
sg75
(lp3073
g68
(g89
g70
NtRp3074
(dp3075
g73
(dp3076
g93
g94
ssg82
g3070
sg75
(lp3077
S'wsgi.input'
p3078
asbag68
(g89
g70
NtRp3079
(dp3080
g73
(dp3081
g100
g101
ssg82
g3070
sg75
(lp3082
S':'
asbag68
(g89
g70
NtRp3083
(dp3084
g73
(dp3085
sg82
g3070
sg75
(lp3086
g68
(g69
g70
NtRp3087
(dp3088
g73
(dp3089
g81
I3
ssg82
g3083
sg75
(lp3090
S'<cStringIO.StringO object at 0x21f5fb8>'
p3091
asbasbasbag68
(g84
g70
NtRp3092
(dp3093
g73
(dp3094
sg82
g2623
sg75
(lp3095
g68
(g89
g70
NtRp3096
(dp3097
g73
(dp3098
g93
g94
ssg82
g3092
sg75
(lp3099
S'wsgi.multiprocess'
p3100
asbag68
(g89
g70
NtRp3101
(dp3102
g73
(dp3103
g100
g101
ssg82
g3092
sg75
(lp3104
S':'
asbag68
(g89
g70
NtRp3105
(dp3106
g73
(dp3107
sg82
g3092
sg75
(lp3108
g68
(g69
g70
NtRp3109
(dp3110
g73
(dp3111
g81
I3
ssg82
g3105
sg75
(lp3112
g111
asbasbasbag68
(g84
g70
NtRp3113
(dp3114
g73
(dp3115
sg82
g2623
sg75
(lp3116
g68
(g89
g70
NtRp3117
(dp3118
g73
(dp3119
g93
g94
ssg82
g3113
sg75
(lp3120
S'wsgi.multithread'
p3121
asbag68
(g89
g70
NtRp3122
(dp3123
g73
(dp3124
g100
g101
ssg82
g3113
sg75
(lp3125
S':'
asbag68
(g89
g70
NtRp3126
(dp3127
g73
(dp3128
sg82
g3113
sg75
(lp3129
g68
(g69
g70
NtRp3130
(dp3131
g73
(dp3132
g81
I3
ssg82
g3126
sg75
(lp3133
g1874
asbasbasbag68
(g84
g70
NtRp3134
(dp3135
g73
(dp3136
sg82
g2623
sg75
(lp3137
g68
(g89
g70
NtRp3138
(dp3139
g73
(dp3140
g93
g94
ssg82
g3134
sg75
(lp3141
S'wsgi.run_once'
p3142
asbag68
(g89
g70
NtRp3143
(dp3144
g73
(dp3145
g100
g101
ssg82
g3134
sg75
(lp3146
S':'
asbag68
(g89
g70
NtRp3147
(dp3148
g73
(dp3149
sg82
g3134
sg75
(lp3150
g68
(g69
g70
NtRp3151
(dp3152
g73
(dp3153
g81
I3
ssg82
g3147
sg75
(lp3154
g111
asbasbasbag68
(g84
g70
NtRp3155
(dp3156
g73
(dp3157
sg82
g2623
sg75
(lp3158
g68
(g89
g70
NtRp3159
(dp3160
g73
(dp3161
g93
g94
ssg82
g3155
sg75
(lp3162
S'wsgi.url_scheme'
p3163
asbag68
(g89
g70
NtRp3164
(dp3165
g73
(dp3166
g100
g101
ssg82
g3155
sg75
(lp3167
S':'
asbag68
(g89
g70
NtRp3168
(dp3169
g73
(dp3170
sg82
g3155
sg75
(lp3171
g68
(g69
g70
NtRp3172
(dp3173
g73
(dp3174
g81
I3
ssg82
g3168
sg75
(lp3175
g1917
asbasbasbag68
(g84
g70
NtRp3176
(dp3177
g73
(dp3178
sg82
g2623
sg75
(lp3179
g68
(g89
g70
NtRp3180
(dp3181
g73
(dp3182
g93
g94
ssg82
g3176
sg75
(lp3183
S'wsgi.version'
p3184
asbag68
(g89
g70
NtRp3185
(dp3186
g73
(dp3187
g100
g101
ssg82
g3176
sg75
(lp3188
S':'
asbag68
(g89
g70
NtRp3189
(dp3190
g73
(dp3191
sg82
g3176
sg75
(lp3192
g68
(g69
g70
NtRp3193
(dp3194
g73
(dp3195
g81
I3
ssg82
g3189
sg75
(lp3196
S'1'
asbasbasbasbasbasbasbasbasbasbasbasbasbsS'frames'
p3197
(lp3198
(dp3199
S'file'
p3200
S'/home/marco/flisol2012/web2py/gluon/restricted.py'
p3201
sS'dump'
p3202
(dp3203
S'code'
p3204
S'\'response.write(\\\'<!DOCTYPE html PUBLIC "-//W3C//D...) {}</script>\\\\n</body>\\\\n</html>\\\\n\\\', escape=False)\''
p3205
sS'layer'
p3206
S"'/home/marco/flisol2012/web2py/applications/flisol2012/views/default/attendees.html'"
p3207
sS'global compile2'
p3208
S'<function compile2>'
p3209
sS'ccode'
p3210
S'undefined'
p3211
ssS'lnum'
p3212
I204
sS'lines'
p3213
(dp3214
I199
S"    environment['__name__'] = '__restricted__'"
p3215
sI200
S'    try:'
p3216
sI201
S'        if type(code) == types.CodeType:'
p3217
sI202
S'            ccode = code'
p3218
sI203
S'        else:'
p3219
sI204
S'            ccode = compile2(code,layer)'
p3220
sI205
S'        exec ccode in environment'
p3221
sI206
S'    except HTTP:'
p3222
sI207
S'        raise'
p3223
sI208
S'    except RestrictedError:'
p3224
ssS'call'
p3225
S'(code=\'response.write(\\\'<!DOCTYPE html PUBLIC "-//W3C//D...) {}</script>\\\\n</body>\\\\n</html>\\\\n\\\', escape=False)\', environment={\'A\': <class \'gluon.html.A\'>, \'ATTENDEE_TYPES\': ((\'gratis\', <lazyT \'Gratuito, $0\'>),), \'ATTENDEE_TYPE_COST\': {None: 0.0, \'gratis\': 0.0}, \'Auth\': <class \'gluon.tools.Auth\'>, \'B\': <class \'gluon.html.B\'>, \'BEAUTIFY\': <class \'gluon.html.BEAUTIFY\'>, \'BODY\': <class \'gluon.html.BODY\'>, \'BR\': <class \'gluon.html.BR\'>, \'BUTTON\': <class \'gluon.html.BUTTON\'>, \'CAT\': <class \'gluon.html.CAT\'>, ...}, layer=\'/home/marco/flisol2012/web2py/applications/flisol2012/views/default/attendees.html\')'
p3226
sS'func'
p3227
S'restricted'
p3228
sa(dp3229
g3200
S'/home/marco/flisol2012/web2py/gluon/restricted.py'
p3230
sg3202
(dp3231
S'builtincompile'
p3232
S'<built-in function compile>'
p3233
sS'code'
p3234
S'\'response.write(\\\'<!DOCTYPE html PUBLIC "-//W3C//D...) {}</script>\\\\n</body>\\\\n</html>\\\\n\\\', escape=False)\''
p3235
sS'code.rstrip'
p3236
S'<built-in method rstrip of str object>'
p3237
sS').replace'
p3238
g3211
sS'layer'
p3239
S"'/home/marco/flisol2012/web2py/applications/flisol2012/views/default/attendees.html'"
p3240
ssg3212
I189
sg3213
(dp3241
I192
S'    """'
p3242
sI193
S'    runs code in environment and returns the output. if an exception occurs'
p3243
sI184
S''
sI185
S'def compile2(code,layer):'
p3244
sI186
S'    """'
p3245
sI187
S"    The +'\\n' is necessary else compile fails when code ends in a comment."
p3246
sI188
S'    """'
p3247
sI189
S"    return compile(code.rstrip().replace('\\r\\n','\\n')+'\\n', layer, 'exec')"
p3248
sI190
S''
sI191
S"def restricted(code, environment=None, layer='Unknown'):"
p3249
ssg3225
S'(code=\'response.write(\\\'<!DOCTYPE html PUBLIC "-//W3C//D...) {}</script>\\\\n</body>\\\\n</html>\\\\n\\\', escape=False)\', layer=\'/home/marco/flisol2012/web2py/applications/flisol2012/views/default/attendees.html\')'
p3250
sg3227
S'compile2'
p3251
sasS'pyver'
p3252
S'Python 2.7.2+: /usr/bin/python'
p3253
sS'session'
p3254
g68
(g69
g70
NtRp3255
(dp3256
g73
(dp3257
sg75
(lp3258
g68
(g77
g70
NtRp3259
(dp3260
g73
(dp3261
g81
I5
ssg82
Nsg75
(lp3262
g68
(g84
g70
NtRp3263
(dp3264
g73
(dp3265
sg82
g3259
sg75
(lp3266
g68
(g89
g70
NtRp3267
(dp3268
g73
(dp3269
g93
g94
ssg82
g3263
sg75
(lp3270
S'amount_added'
p3271
asbag68
(g89
g70
NtRp3272
(dp3273
g73
(dp3274
g100
g101
ssg82
g3263
sg75
(lp3275
S':'
asbag68
(g89
g70
NtRp3276
(dp3277
g73
(dp3278
sg82
g3263
sg75
(lp3279
g68
(g69
g70
NtRp3280
(dp3281
g73
(dp3282
g81
I5
ssg82
g3276
sg75
(lp3283
S'0.0'
p3284
asbasbasbag68
(g84
g70
NtRp3285
(dp3286
g73
(dp3287
sg82
g3259
sg75
(lp3288
g68
(g89
g70
NtRp3289
(dp3290
g73
(dp3291
g93
g94
ssg82
g3285
sg75
(lp3292
S'amount_billed'
p3293
asbag68
(g89
g70
NtRp3294
(dp3295
g73
(dp3296
g100
g101
ssg82
g3285
sg75
(lp3297
S':'
asbag68
(g89
g70
NtRp3298
(dp3299
g73
(dp3300
sg82
g3285
sg75
(lp3301
g68
(g69
g70
NtRp3302
(dp3303
g73
(dp3304
g81
I5
ssg82
g3298
sg75
(lp3305
S'0.0'
p3306
asbasbasbag68
(g84
g70
NtRp3307
(dp3308
g73
(dp3309
sg82
g3259
sg75
(lp3310
g68
(g89
g70
NtRp3311
(dp3312
g73
(dp3313
g93
g94
ssg82
g3307
sg75
(lp3314
S'amount_paid'
p3315
asbag68
(g89
g70
NtRp3316
(dp3317
g73
(dp3318
g100
g101
ssg82
g3307
sg75
(lp3319
S':'
asbag68
(g89
g70
NtRp3320
(dp3321
g73
(dp3322
sg82
g3307
sg75
(lp3323
g68
(g69
g70
NtRp3324
(dp3325
g73
(dp3326
g81
I5
ssg82
g3320
sg75
(lp3327
S'0.0'
p3328
asbasbasbag68
(g84
g70
NtRp3329
(dp3330
g73
(dp3331
sg82
g3259
sg75
(lp3332
g68
(g89
g70
NtRp3333
(dp3334
g73
(dp3335
g93
g94
ssg82
g3329
sg75
(lp3336
S'amount_subtracted'
p3337
asbag68
(g89
g70
NtRp3338
(dp3339
g73
(dp3340
g100
g101
ssg82
g3329
sg75
(lp3341
S':'
asbag68
(g89
g70
NtRp3342
(dp3343
g73
(dp3344
sg82
g3329
sg75
(lp3345
g68
(g69
g70
NtRp3346
(dp3347
g73
(dp3348
g81
I5
ssg82
g3342
sg75
(lp3349
S'0.0'
p3350
asbasbasbag68
(g84
g70
NtRp3351
(dp3352
g73
(dp3353
sg82
g3259
sg75
(lp3354
g68
(g89
g70
NtRp3355
(dp3356
g73
(dp3357
g93
g94
ssg82
g3351
sg75
(lp3358
S'auth'
p3359
asbag68
(g89
g70
NtRp3360
(dp3361
g73
(dp3362
g100
g101
ssg82
g3351
sg75
(lp3363
S':'
asbag68
(g89
g70
NtRp3364
(dp3365
g73
(dp3366
sg82
g3351
sg75
(lp3367
g68
(g69
g70
NtRp3368
(dp3369
g73
(dp3370
g81
I5
ssg82
g3364
sg75
(lp3371
g68
(g77
g70
NtRp3372
(dp3373
g73
(dp3374
g81
I4
ssg82
Nsg75
(lp3375
g68
(g84
g70
NtRp3376
(dp3377
g73
(dp3378
sg82
g3372
sg75
(lp3379
g68
(g89
g70
NtRp3380
(dp3381
g73
(dp3382
g93
g94
ssg82
g3376
sg75
(lp3383
S'expiration'
p3384
asbag68
(g89
g70
NtRp3385
(dp3386
g73
(dp3387
g100
g101
ssg82
g3376
sg75
(lp3388
S':'
asbag68
(g89
g70
NtRp3389
(dp3390
g73
(dp3391
sg82
g3376
sg75
(lp3392
g68
(g69
g70
NtRp3393
(dp3394
g73
(dp3395
g81
I4
ssg82
g3389
sg75
(lp3396
S'3600'
p3397
asbasbasbag68
(g84
g70
NtRp3398
(dp3399
g73
(dp3400
sg82
g3372
sg75
(lp3401
g68
(g89
g70
NtRp3402
(dp3403
g73
(dp3404
g93
g94
ssg82
g3398
sg75
(lp3405
S'hmac_key'
p3406
asbag68
(g89
g70
NtRp3407
(dp3408
g73
(dp3409
g100
g101
ssg82
g3398
sg75
(lp3410
S':'
asbag68
(g89
g70
NtRp3411
(dp3412
g73
(dp3413
sg82
g3398
sg75
(lp3414
g68
(g69
g70
NtRp3415
(dp3416
g73
(dp3417
g81
I4
ssg82
g3411
sg75
(lp3418
S'045d0b9c-7347-403d-bb13-cdac39166793'
p3419
asbasbasbag68
(g84
g70
NtRp3420
(dp3421
g73
(dp3422
sg82
g3372
sg75
(lp3423
g68
(g89
g70
NtRp3424
(dp3425
g73
(dp3426
g93
g94
ssg82
g3420
sg75
(lp3427
S'last_visit'
p3428
asbag68
(g89
g70
NtRp3429
(dp3430
g73
(dp3431
g100
g101
ssg82
g3420
sg75
(lp3432
S':'
asbag68
(g89
g70
NtRp3433
(dp3434
g73
(dp3435
sg82
g3420
sg75
(lp3436
g68
(g69
g70
NtRp3437
(dp3438
g73
(dp3439
g81
I4
ssg82
g3433
sg75
(lp3440
S'datetime.datetime(2012, 3, 9, 18, 29, 27, 28428)'
p3441
asbasbasbag68
(g84
g70
NtRp3442
(dp3443
g73
(dp3444
sg82
g3372
sg75
(lp3445
g68
(g89
g70
NtRp3446
(dp3447
g73
(dp3448
g93
g94
ssg82
g3442
sg75
(lp3449
S'remember'
p3450
asbag68
(g89
g70
NtRp3451
(dp3452
g73
(dp3453
g100
g101
ssg82
g3442
sg75
(lp3454
S':'
asbag68
(g89
g70
NtRp3455
(dp3456
g73
(dp3457
sg82
g3442
sg75
(lp3458
g68
(g69
g70
NtRp3459
(dp3460
g73
(dp3461
g81
I4
ssg82
g3455
sg75
(lp3462
g111
asbasbasbag68
(g84
g70
NtRp3463
(dp3464
g73
(dp3465
sg82
g3372
sg75
(lp3466
g68
(g89
g70
NtRp3467
(dp3468
g73
(dp3469
g93
g94
ssg82
g3463
sg75
(lp3470
S'user'
p3471
asbag68
(g89
g70
NtRp3472
(dp3473
g73
(dp3474
g100
g101
ssg82
g3463
sg75
(lp3475
S':'
asbag68
(g89
g70
NtRp3476
(dp3477
g73
(dp3478
sg82
g3463
sg75
(lp3479
g68
(g69
g70
NtRp3480
(dp3481
g73
(dp3482
g81
I4
ssg82
g3476
sg75
(lp3483
g68
(g77
g70
NtRp3484
(dp3485
g73
(dp3486
g81
I3
ssg82
Nsg75
(lp3487
g68
(g84
g70
NtRp3488
(dp3489
g73
(dp3490
sg82
g3484
sg75
(lp3491
g68
(g89
g70
NtRp3492
(dp3493
g73
(dp3494
g93
g94
ssg82
g3488
sg75
(lp3495
S'address'
p3496
asbag68
(g89
g70
NtRp3497
(dp3498
g73
(dp3499
g100
g101
ssg82
g3488
sg75
(lp3500
S':'
asbag68
(g89
g70
NtRp3501
(dp3502
g73
(dp3503
sg82
g3488
sg75
(lp3504
g68
(g69
g70
NtRp3505
(dp3506
g73
(dp3507
g81
I3
ssg82
g3501
sg75
(lp3508
S'Santa Lucia S/N'
p3509
asbasbasbag68
(g84
g70
NtRp3510
(dp3511
g73
(dp3512
sg82
g3484
sg75
(lp3513
g68
(g89
g70
NtRp3514
(dp3515
g73
(dp3516
g93
g94
ssg82
g3510
sg75
(lp3517
S'amount_added'
p3518
asbag68
(g89
g70
NtRp3519
(dp3520
g73
(dp3521
g100
g101
ssg82
g3510
sg75
(lp3522
S':'
asbag68
(g89
g70
NtRp3523
(dp3524
g73
(dp3525
sg82
g3510
sg75
(lp3526
g68
(g69
g70
NtRp3527
(dp3528
g73
(dp3529
g81
I3
ssg82
g3523
sg75
(lp3530
S'0.0'
p3531
asbasbasbag68
(g84
g70
NtRp3532
(dp3533
g73
(dp3534
sg82
g3484
sg75
(lp3535
g68
(g89
g70
NtRp3536
(dp3537
g73
(dp3538
g93
g94
ssg82
g3532
sg75
(lp3539
S'amount_billed'
p3540
asbag68
(g89
g70
NtRp3541
(dp3542
g73
(dp3543
g100
g101
ssg82
g3532
sg75
(lp3544
S':'
asbag68
(g89
g70
NtRp3545
(dp3546
g73
(dp3547
sg82
g3532
sg75
(lp3548
g68
(g69
g70
NtRp3549
(dp3550
g73
(dp3551
g81
I3
ssg82
g3545
sg75
(lp3552
S'0.0'
p3553
asbasbasbag68
(g84
g70
NtRp3554
(dp3555
g73
(dp3556
sg82
g3484
sg75
(lp3557
g68
(g89
g70
NtRp3558
(dp3559
g73
(dp3560
g93
g94
ssg82
g3554
sg75
(lp3561
S'amount_due'
p3562
asbag68
(g89
g70
NtRp3563
(dp3564
g73
(dp3565
g100
g101
ssg82
g3554
sg75
(lp3566
S':'
asbag68
(g89
g70
NtRp3567
(dp3568
g73
(dp3569
sg82
g3554
sg75
(lp3570
g68
(g69
g70
NtRp3571
(dp3572
g73
(dp3573
g81
I3
ssg82
g3567
sg75
(lp3574
S'0.0'
p3575
asbasbasbag68
(g84
g70
NtRp3576
(dp3577
g73
(dp3578
sg82
g3484
sg75
(lp3579
g68
(g89
g70
NtRp3580
(dp3581
g73
(dp3582
g93
g94
ssg82
g3576
sg75
(lp3583
S'amount_paid'
p3584
asbag68
(g89
g70
NtRp3585
(dp3586
g73
(dp3587
g100
g101
ssg82
g3576
sg75
(lp3588
S':'
asbag68
(g89
g70
NtRp3589
(dp3590
g73
(dp3591
sg82
g3576
sg75
(lp3592
g68
(g69
g70
NtRp3593
(dp3594
g73
(dp3595
g81
I3
ssg82
g3589
sg75
(lp3596
S'0.0'
p3597
asbasbasbag68
(g84
g70
NtRp3598
(dp3599
g73
(dp3600
sg82
g3484
sg75
(lp3601
g68
(g89
g70
NtRp3602
(dp3603
g73
(dp3604
g93
g94
ssg82
g3598
sg75
(lp3605
S'amount_subtracted'
p3606
asbag68
(g89
g70
NtRp3607
(dp3608
g73
(dp3609
g100
g101
ssg82
g3598
sg75
(lp3610
S':'
asbag68
(g89
g70
NtRp3611
(dp3612
g73
(dp3613
sg82
g3598
sg75
(lp3614
g68
(g69
g70
NtRp3615
(dp3616
g73
(dp3617
g81
I3
ssg82
g3611
sg75
(lp3618
S'0.0'
p3619
asbasbasbag68
(g84
g70
NtRp3620
(dp3621
g73
(dp3622
sg82
g3484
sg75
(lp3623
g68
(g89
g70
NtRp3624
(dp3625
g73
(dp3626
g93
g94
ssg82
g3620
sg75
(lp3627
S'attendee_type'
p3628
asbag68
(g89
g70
NtRp3629
(dp3630
g73
(dp3631
g100
g101
ssg82
g3620
sg75
(lp3632
S':'
asbag68
(g89
g70
NtRp3633
(dp3634
g73
(dp3635
sg82
g3620
sg75
(lp3636
g68
(g69
g70
NtRp3637
(dp3638
g73
(dp3639
g81
I3
ssg82
g3633
sg75
(lp3640
S'gratis'
p3641
asbasbasbag68
(g84
g70
NtRp3642
(dp3643
g73
(dp3644
sg82
g3484
sg75
(lp3645
g68
(g89
g70
NtRp3646
(dp3647
g73
(dp3648
g93
g94
ssg82
g3642
sg75
(lp3649
S'city'
p3650
asbag68
(g89
g70
NtRp3651
(dp3652
g73
(dp3653
g100
g101
ssg82
g3642
sg75
(lp3654
S':'
asbag68
(g89
g70
NtRp3655
(dp3656
g73
(dp3657
sg82
g3642
sg75
(lp3658
g68
(g69
g70
NtRp3659
(dp3660
g73
(dp3661
g81
I3
ssg82
g3655
sg75
(lp3662
S'Salta'
p3663
asbasbasbag68
(g84
g70
NtRp3664
(dp3665
g73
(dp3666
sg82
g3484
sg75
(lp3667
g68
(g89
g70
NtRp3668
(dp3669
g73
(dp3670
g93
g94
ssg82
g3664
sg75
(lp3671
S'company_home_page'
p3672
asbag68
(g89
g70
NtRp3673
(dp3674
g73
(dp3675
g100
g101
ssg82
g3664
sg75
(lp3676
S':'
asbag68
(g89
g70
NtRp3677
(dp3678
g73
(dp3679
sg82
g3664
sg75
(lp3680
g68
(g69
g70
NtRp3681
(dp3682
g73
(dp3683
g81
I3
ssg82
g3677
sg75
(lp3684
S'http://www.esdebian.org'
p3685
asbasbasbag68
(g84
g70
NtRp3686
(dp3687
g73
(dp3688
sg82
g3484
sg75
(lp3689
g68
(g89
g70
NtRp3690
(dp3691
g73
(dp3692
g93
g94
ssg82
g3686
sg75
(lp3693
S'company_name'
p3694
asbag68
(g89
g70
NtRp3695
(dp3696
g73
(dp3697
g100
g101
ssg82
g3686
sg75
(lp3698
S':'
asbag68
(g89
g70
NtRp3699
(dp3700
g73
(dp3701
sg82
g3686
sg75
(lp3702
g68
(g69
g70
NtRp3703
(dp3704
g73
(dp3705
g81
I3
ssg82
g3699
sg75
(lp3706
S'Debian OS'
p3707
asbasbasbag68
(g84
g70
NtRp3708
(dp3709
g73
(dp3710
sg82
g3484
sg75
(lp3711
g68
(g89
g70
NtRp3712
(dp3713
g73
(dp3714
g93
g94
ssg82
g3708
sg75
(lp3715
S'country'
p3716
asbag68
(g89
g70
NtRp3717
(dp3718
g73
(dp3719
g100
g101
ssg82
g3708
sg75
(lp3720
S':'
asbag68
(g89
g70
NtRp3721
(dp3722
g73
(dp3723
sg82
g3708
sg75
(lp3724
g68
(g69
g70
NtRp3725
(dp3726
g73
(dp3727
g81
I3
ssg82
g3721
sg75
(lp3728
S'Argentina'
p3729
asbasbasbag68
(g84
g70
NtRp3730
(dp3731
g73
(dp3732
sg82
g3484
sg75
(lp3733
g68
(g89
g70
NtRp3734
(dp3735
g73
(dp3736
g93
g94
ssg82
g3730
sg75
(lp3737
S'created_by_ip'
p3738
asbag68
(g89
g70
NtRp3739
(dp3740
g73
(dp3741
g100
g101
ssg82
g3730
sg75
(lp3742
S':'
asbag68
(g89
g70
NtRp3743
(dp3744
g73
(dp3745
sg82
g3730
sg75
(lp3746
g68
(g69
g70
NtRp3747
(dp3748
g73
(dp3749
g81
I3
ssg82
g3743
sg75
(lp3750
S'127.0.0.1'
p3751
asbasbasbag68
(g84
g70
NtRp3752
(dp3753
g73
(dp3754
sg82
g3484
sg75
(lp3755
g68
(g89
g70
NtRp3756
(dp3757
g73
(dp3758
g93
g94
ssg82
g3752
sg75
(lp3759
S'created_on'
p3760
asbag68
(g89
g70
NtRp3761
(dp3762
g73
(dp3763
g100
g101
ssg82
g3752
sg75
(lp3764
S':'
asbag68
(g89
g70
NtRp3765
(dp3766
g73
(dp3767
sg82
g3752
sg75
(lp3768
g68
(g69
g70
NtRp3769
(dp3770
g73
(dp3771
g81
I3
ssg82
g3765
sg75
(lp3772
S'datetime.datetime(2012, 3, 9, 2, 56, 49)'
p3773
asbasbasbag68
(g84
g70
NtRp3774
(dp3775
g73
(dp3776
sg82
g3484
sg75
(lp3777
g68
(g89
g70
NtRp3778
(dp3779
g73
(dp3780
g93
g94
ssg82
g3774
sg75
(lp3781
S'discount_coupon'
p3782
asbag68
(g89
g70
NtRp3783
(dp3784
g73
(dp3785
g100
g101
ssg82
g3774
sg75
(lp3786
S':'
asbag68
(g89
g70
NtRp3787
(dp3788
g73
(dp3789
sg82
g3774
sg75
(lp3790
g68
(g69
g70
NtRp3791
(dp3792
g73
(dp3793
g81
I3
ssg82
g3787
sg75
(lp3794
S'None'
p3795
asbasbasbag68
(g84
g70
NtRp3796
(dp3797
g73
(dp3798
sg82
g3484
sg75
(lp3799
g68
(g89
g70
NtRp3800
(dp3801
g73
(dp3802
g93
g94
ssg82
g3796
sg75
(lp3803
S'donation'
p3804
asbag68
(g89
g70
NtRp3805
(dp3806
g73
(dp3807
g100
g101
ssg82
g3796
sg75
(lp3808
S':'
asbag68
(g89
g70
NtRp3809
(dp3810
g73
(dp3811
sg82
g3796
sg75
(lp3812
g68
(g69
g70
NtRp3813
(dp3814
g73
(dp3815
g81
I3
ssg82
g3809
sg75
(lp3816
S'0.0'
p3817
asbasbasbag68
(g84
g70
NtRp3818
(dp3819
g73
(dp3820
sg82
g3484
sg75
(lp3821
g68
(g89
g70
NtRp3822
(dp3823
g73
(dp3824
g93
g94
ssg82
g3818
sg75
(lp3825
S'email'
p3826
asbag68
(g89
g70
NtRp3827
(dp3828
g73
(dp3829
g100
g101
ssg82
g3818
sg75
(lp3830
S':'
asbag68
(g89
g70
NtRp3831
(dp3832
g73
(dp3833
sg82
g3818
sg75
(lp3834
g68
(g69
g70
NtRp3835
(dp3836
g73
(dp3837
g81
I3
ssg82
g3831
sg75
(lp3838
S'marco@saltalug.org.ar'
p3839
asbasbasbag68
(g84
g70
NtRp3840
(dp3841
g73
(dp3842
sg82
g3484
sg75
(lp3843
g68
(g89
g70
NtRp3844
(dp3845
g73
(dp3846
g93
g94
ssg82
g3840
sg75
(lp3847
S'first_name'
p3848
asbag68
(g89
g70
NtRp3849
(dp3850
g73
(dp3851
g100
g101
ssg82
g3840
sg75
(lp3852
S':'
asbag68
(g89
g70
NtRp3853
(dp3854
g73
(dp3855
sg82
g3840
sg75
(lp3856
g68
(g69
g70
NtRp3857
(dp3858
g73
(dp3859
g81
I3
ssg82
g3853
sg75
(lp3860
S'Marco'
p3861
asbasbasbag68
(g84
g70
NtRp3862
(dp3863
g73
(dp3864
sg82
g3484
sg75
(lp3865
g68
(g89
g70
NtRp3866
(dp3867
g73
(dp3868
g93
g94
ssg82
g3862
sg75
(lp3869
S'id'
p3870
asbag68
(g89
g70
NtRp3871
(dp3872
g73
(dp3873
g100
g101
ssg82
g3862
sg75
(lp3874
S':'
asbag68
(g89
g70
NtRp3875
(dp3876
g73
(dp3877
sg82
g3862
sg75
(lp3878
g68
(g69
g70
NtRp3879
(dp3880
g73
(dp3881
g81
I3
ssg82
g3875
sg75
(lp3882
S'55'
p3883
asbasbasbag68
(g84
g70
NtRp3884
(dp3885
g73
(dp3886
sg82
g3484
sg75
(lp3887
g68
(g89
g70
NtRp3888
(dp3889
g73
(dp3890
g93
g94
ssg82
g3884
sg75
(lp3891
S'include_in_delegate_listing'
p3892
asbag68
(g89
g70
NtRp3893
(dp3894
g73
(dp3895
g100
g101
ssg82
g3884
sg75
(lp3896
S':'
asbag68
(g89
g70
NtRp3897
(dp3898
g73
(dp3899
sg82
g3884
sg75
(lp3900
g68
(g69
g70
NtRp3901
(dp3902
g73
(dp3903
g81
I3
ssg82
g3897
sg75
(lp3904
g1874
asbasbasbag68
(g84
g70
NtRp3905
(dp3906
g73
(dp3907
sg82
g3484
sg75
(lp3908
g68
(g89
g70
NtRp3909
(dp3910
g73
(dp3911
g93
g94
ssg82
g3905
sg75
(lp3912
S'installfest_hardware'
p3913
asbag68
(g89
g70
NtRp3914
(dp3915
g73
(dp3916
g100
g101
ssg82
g3905
sg75
(lp3917
S':'
asbag68
(g89
g70
NtRp3918
(dp3919
g73
(dp3920
sg82
g3905
sg75
(lp3921
g68
(g69
g70
NtRp3922
(dp3923
g73
(dp3924
g81
I3
ssg82
g3918
sg75
(lp3925
S'kakafono'
p3926
asbasbasbag68
(g84
g70
NtRp3927
(dp3928
g73
(dp3929
sg82
g3484
sg75
(lp3930
g68
(g89
g70
NtRp3931
(dp3932
g73
(dp3933
g93
g94
ssg82
g3927
sg75
(lp3934
S'installfest_os'
p3935
asbag68
(g89
g70
NtRp3936
(dp3937
g73
(dp3938
g100
g101
ssg82
g3927
sg75
(lp3939
S':'
asbag68
(g89
g70
NtRp3940
(dp3941
g73
(dp3942
sg82
g3927
sg75
(lp3943
g68
(g69
g70
NtRp3944
(dp3945
g73
(dp3946
g81
I3
ssg82
g3940
sg75
(lp3947
S'Debian'
p3948
asbasbasbag68
(g84
g70
NtRp3949
(dp3950
g73
(dp3951
sg82
g3484
sg75
(lp3952
g68
(g89
g70
NtRp3953
(dp3954
g73
(dp3955
g93
g94
ssg82
g3949
sg75
(lp3956
S'last_name'
p3957
asbag68
(g89
g70
NtRp3958
(dp3959
g73
(dp3960
g100
g101
ssg82
g3949
sg75
(lp3961
S':'
asbag68
(g89
g70
NtRp3962
(dp3963
g73
(dp3964
sg82
g3949
sg75
(lp3965
g68
(g69
g70
NtRp3966
(dp3967
g73
(dp3968
g81
I3
ssg82
g3962
sg75
(lp3969
S'Mansilla'
p3970
asbasbasbag68
(g84
g70
NtRp3971
(dp3972
g73
(dp3973
sg82
g3484
sg75
(lp3974
g68
(g89
g70
NtRp3975
(dp3976
g73
(dp3977
g93
g94
ssg82
g3971
sg75
(lp3978
S'latitude'
p3979
asbag68
(g89
g70
NtRp3980
(dp3981
g73
(dp3982
g100
g101
ssg82
g3971
sg75
(lp3983
S':'
asbag68
(g89
g70
NtRp3984
(dp3985
g73
(dp3986
sg82
g3971
sg75
(lp3987
g68
(g69
g70
NtRp3988
(dp3989
g73
(dp3990
g81
I3
ssg82
g3984
sg75
(lp3991
S'-24.8442777'
p3992
asbasbasbag68
(g84
g70
NtRp3993
(dp3994
g73
(dp3995
sg82
g3484
sg75
(lp3996
g68
(g89
g70
NtRp3997
(dp3998
g73
(dp3999
g93
g94
ssg82
g3993
sg75
(lp4000
S'longitude'
p4001
asbag68
(g89
g70
NtRp4002
(dp4003
g73
(dp4004
g100
g101
ssg82
g3993
sg75
(lp4005
S':'
asbag68
(g89
g70
NtRp4006
(dp4007
g73
(dp4008
sg82
g3993
sg75
(lp4009
g68
(g69
g70
NtRp4010
(dp4011
g73
(dp4012
g81
I3
ssg82
g4006
sg75
(lp4013
S'-65.4787676'
p4014
asbasbasbag68
(g84
g70
NtRp4015
(dp4016
g73
(dp4017
sg82
g3484
sg75
(lp4018
g68
(g89
g70
NtRp4019
(dp4020
g73
(dp4021
g93
g94
ssg82
g4015
sg75
(lp4022
S'manager'
p4023
asbag68
(g89
g70
NtRp4024
(dp4025
g73
(dp4026
g100
g101
ssg82
g4015
sg75
(lp4027
S':'
asbag68
(g89
g70
NtRp4028
(dp4029
g73
(dp4030
sg82
g4015
sg75
(lp4031
g68
(g69
g70
NtRp4032
(dp4033
g73
(dp4034
g81
I3
ssg82
g4028
sg75
(lp4035
g1874
asbasbasbag68
(g84
g70
NtRp4036
(dp4037
g73
(dp4038
sg82
g3484
sg75
(lp4039
g68
(g89
g70
NtRp4040
(dp4041
g73
(dp4042
g93
g94
ssg82
g4036
sg75
(lp4043
S'password'
p4044
asbag68
(g89
g70
NtRp4045
(dp4046
g73
(dp4047
g100
g101
ssg82
g4036
sg75
(lp4048
S':'
asbag68
(g89
g70
NtRp4049
(dp4050
g73
(dp4051
sg82
g4036
sg75
(lp4052
g68
(g69
g70
NtRp4053
(dp4054
g73
(dp4055
g81
I3
ssg82
g4049
sg75
(lp4056
S'121c120f6831e94b12b41d853c3f672b'
p4057
asbasbasbag68
(g84
g70
NtRp4058
(dp4059
g73
(dp4060
sg82
g3484
sg75
(lp4061
g68
(g89
g70
NtRp4062
(dp4063
g73
(dp4064
g93
g94
ssg82
g4058
sg75
(lp4065
S'personal_home_page'
p4066
asbag68
(g89
g70
NtRp4067
(dp4068
g73
(dp4069
g100
g101
ssg82
g4058
sg75
(lp4070
S':'
asbag68
(g89
g70
NtRp4071
(dp4072
g73
(dp4073
sg82
g4058
sg75
(lp4074
g68
(g69
g70
NtRp4075
(dp4076
g73
(dp4077
g81
I3
ssg82
g4071
sg75
(lp4078
S'http://www.esdebian.org'
p4079
asbasbasbag68
(g84
g70
NtRp4080
(dp4081
g73
(dp4082
sg82
g3484
sg75
(lp4083
g68
(g89
g70
NtRp4084
(dp4085
g73
(dp4086
g93
g94
ssg82
g4080
sg75
(lp4087
S'phone_number'
p4088
asbag68
(g89
g70
NtRp4089
(dp4090
g73
(dp4091
g100
g101
ssg82
g4080
sg75
(lp4092
S':'
asbag68
(g89
g70
NtRp4093
(dp4094
g73
(dp4095
sg82
g4080
sg75
(lp4096
g68
(g69
g70
NtRp4097
(dp4098
g73
(dp4099
g81
I3
ssg82
g4093
sg75
(lp4100
S'76543456789'
p4101
asbasbasbag68
(g84
g70
NtRp4102
(dp4103
g73
(dp4104
sg82
g3484
sg75
(lp4105
g68
(g89
g70
NtRp4106
(dp4107
g73
(dp4108
g93
g94
ssg82
g4102
sg75
(lp4109
S'registration_key'
p4110
asbag68
(g89
g70
NtRp4111
(dp4112
g73
(dp4113
g100
g101
ssg82
g4102
sg75
(lp4114
S':'
asbag68
(g89
g70
NtRp4115
(dp4116
g73
(dp4117
sg82
g4102
sg75
(lp4118
g68
(g69
g70
NtRp4119
(dp4120
g73
(dp4121
g81
I3
ssg82
g4115
sg75
(lp4122
S''
asbasbasbag68
(g84
g70
NtRp4123
(dp4124
g73
(dp4125
sg82
g3484
sg75
(lp4126
g68
(g89
g70
NtRp4127
(dp4128
g73
(dp4129
g93
g94
ssg82
g4123
sg75
(lp4130
S'resume'
p4131
asbag68
(g89
g70
NtRp4132
(dp4133
g73
(dp4134
g100
g101
ssg82
g4123
sg75
(lp4135
S':'
asbag68
(g89
g70
NtRp4136
(dp4137
g73
(dp4138
sg82
g4123
sg75
(lp4139
g68
(g69
g70
NtRp4140
(dp4141
g73
(dp4142
g81
I3
ssg82
g4136
sg75
(lp4143
S'None'
p4144
asbasbasbag68
(g84
g70
NtRp4145
(dp4146
g73
(dp4147
sg82
g3484
sg75
(lp4148
g68
(g89
g70
NtRp4149
(dp4150
g73
(dp4151
g93
g94
ssg82
g4145
sg75
(lp4152
S'reviewer'
p4153
asbag68
(g89
g70
NtRp4154
(dp4155
g73
(dp4156
g100
g101
ssg82
g4145
sg75
(lp4157
S':'
asbag68
(g89
g70
NtRp4158
(dp4159
g73
(dp4160
sg82
g4145
sg75
(lp4161
g68
(g69
g70
NtRp4162
(dp4163
g73
(dp4164
g81
I3
ssg82
g4158
sg75
(lp4165
g1874
asbasbasbag68
(g84
g70
NtRp4166
(dp4167
g73
(dp4168
sg82
g3484
sg75
(lp4169
g68
(g89
g70
NtRp4170
(dp4171
g73
(dp4172
g93
g94
ssg82
g4166
sg75
(lp4173
S'session_chair'
p4174
asbag68
(g89
g70
NtRp4175
(dp4176
g73
(dp4177
g100
g101
ssg82
g4166
sg75
(lp4178
S':'
asbag68
(g89
g70
NtRp4179
(dp4180
g73
(dp4181
sg82
g4166
sg75
(lp4182
g68
(g69
g70
NtRp4183
(dp4184
g73
(dp4185
g81
I3
ssg82
g4179
sg75
(lp4186
g111
asbasbasbag68
(g84
g70
NtRp4187
(dp4188
g73
(dp4189
sg82
g3484
sg75
(lp4190
g68
(g89
g70
NtRp4191
(dp4192
g73
(dp4193
g93
g94
ssg82
g4187
sg75
(lp4194
S'speaker'
p4195
asbag68
(g89
g70
NtRp4196
(dp4197
g73
(dp4198
g100
g101
ssg82
g4187
sg75
(lp4199
S':'
asbag68
(g89
g70
NtRp4200
(dp4201
g73
(dp4202
sg82
g4187
sg75
(lp4203
g68
(g69
g70
NtRp4204
(dp4205
g73
(dp4206
g81
I3
ssg82
g4200
sg75
(lp4207
g111
asbasbasbag68
(g84
g70
NtRp4208
(dp4209
g73
(dp4210
sg82
g3484
sg75
(lp4211
g68
(g89
g70
NtRp4212
(dp4213
g73
(dp4214
g93
g94
ssg82
g4208
sg75
(lp4215
S'state'
p4216
asbag68
(g89
g70
NtRp4217
(dp4218
g73
(dp4219
g100
g101
ssg82
g4208
sg75
(lp4220
S':'
asbag68
(g89
g70
NtRp4221
(dp4222
g73
(dp4223
sg82
g4208
sg75
(lp4224
g68
(g69
g70
NtRp4225
(dp4226
g73
(dp4227
g81
I3
ssg82
g4221
sg75
(lp4228
S'Salta'
p4229
asbasbasbag68
(g84
g70
NtRp4230
(dp4231
g73
(dp4232
sg82
g3484
sg75
(lp4233
g68
(g89
g70
NtRp4234
(dp4235
g73
(dp4236
g93
g94
ssg82
g4230
sg75
(lp4237
S'tutorials'
p4238
asbag68
(g89
g70
NtRp4239
(dp4240
g73
(dp4241
g100
g101
ssg82
g4230
sg75
(lp4242
S':'
asbag68
(g89
g70
NtRp4243
(dp4244
g73
(dp4245
sg82
g4230
sg75
(lp4246
g68
(g69
g70
NtRp4247
(dp4248
g73
(dp4249
g81
I3
ssg82
g4243
sg75
(lp4250
S'None'
p4251
asbasbasbag68
(g84
g70
NtRp4252
(dp4253
g73
(dp4254
sg82
g3484
sg75
(lp4255
g68
(g89
g70
NtRp4256
(dp4257
g73
(dp4258
g93
g94
ssg82
g4252
sg75
(lp4259
S'zip_code'
p4260
asbag68
(g89
g70
NtRp4261
(dp4262
g73
(dp4263
g100
g101
ssg82
g4252
sg75
(lp4264
S':'
asbag68
(g89
g70
NtRp4265
(dp4266
g73
(dp4267
sg82
g4252
sg75
(lp4268
g68
(g69
g70
NtRp4269
(dp4270
g73
(dp4271
g81
I3
ssg82
g4265
sg75
(lp4272
S'4400'
p4273
asbasbasbasbasbasbasbag68
(g84
g70
NtRp4274
(dp4275
g73
(dp4276
sg82
g3372
sg75
(lp4277
g68
(g89
g70
NtRp4278
(dp4279
g73
(dp4280
g93
g94
ssg82
g4274
sg75
(lp4281
S'user_groups'
p4282
asbag68
(g89
g70
NtRp4283
(dp4284
g73
(dp4285
g100
g101
ssg82
g4274
sg75
(lp4286
S':'
asbag68
(g89
g70
NtRp4287
(dp4288
g73
(dp4289
sg82
g4274
sg75
(lp4290
g68
(g69
g70
NtRp4291
(dp4292
g73
(dp4293
g81
I4
ssg82
g4287
sg75
(lp4294
g68
(g77
g70
NtRp4295
(dp4296
g73
(dp4297
g81
I3
ssg82
Nsg75
(lp4298
g68
(g84
g70
NtRp4299
(dp4300
g73
(dp4301
sg82
g4295
sg75
(lp4302
g68
(g89
g70
NtRp4303
(dp4304
g73
(dp4305
g93
g94
ssg82
g4299
sg75
(lp4306
S'15'
p4307
asbag68
(g89
g70
NtRp4308
(dp4309
g73
(dp4310
g100
g101
ssg82
g4299
sg75
(lp4311
S':'
asbag68
(g89
g70
NtRp4312
(dp4313
g73
(dp4314
sg82
g4299
sg75
(lp4315
g68
(g69
g70
NtRp4316
(dp4317
g73
(dp4318
g81
I3
ssg82
g4312
sg75
(lp4319
S'plugin_flatpages'
p4320
asbasbasbasbasbasbasbasbasbasbasbag68
(g84
g70
NtRp4321
(dp4322
g73
(dp4323
sg82
g3259
sg75
(lp4324
g68
(g89
g70
NtRp4325
(dp4326
g73
(dp4327
g93
g94
ssg82
g4321
sg75
(lp4328
S'balance'
p4329
asbag68
(g89
g70
NtRp4330
(dp4331
g73
(dp4332
g100
g101
ssg82
g4321
sg75
(lp4333
S':'
asbag68
(g89
g70
NtRp4334
(dp4335
g73
(dp4336
sg82
g4321
sg75
(lp4337
g68
(g69
g70
NtRp4338
(dp4339
g73
(dp4340
g81
I5
ssg82
g4334
sg75
(lp4341
S'0.0'
p4342
asbasbasbag68
(g84
g70
NtRp4343
(dp4344
g73
(dp4345
sg82
g3259
sg75
(lp4346
g68
(g89
g70
NtRp4347
(dp4348
g73
(dp4349
g93
g94
ssg82
g4343
sg75
(lp4350
S'manager'
p4351
asbag68
(g89
g70
NtRp4352
(dp4353
g73
(dp4354
g100
g101
ssg82
g4343
sg75
(lp4355
S':'
asbag68
(g89
g70
NtRp4356
(dp4357
g73
(dp4358
sg82
g4343
sg75
(lp4359
g68
(g69
g70
NtRp4360
(dp4361
g73
(dp4362
g81
I5
ssg82
g4356
sg75
(lp4363
g1874
asbasbasbag68
(g84
g70
NtRp4364
(dp4365
g73
(dp4366
sg82
g3259
sg75
(lp4367
g68
(g89
g70
NtRp4368
(dp4369
g73
(dp4370
g93
g94
ssg82
g4364
sg75
(lp4371
S't2'
p4372
asbag68
(g89
g70
NtRp4373
(dp4374
g73
(dp4375
g100
g101
ssg82
g4364
sg75
(lp4376
S':'
asbag68
(g89
g70
NtRp4377
(dp4378
g73
(dp4379
sg82
g4364
sg75
(lp4380
g68
(g69
g70
NtRp4381
(dp4382
g73
(dp4383
g81
I5
ssg82
g4377
sg75
(lp4384
g68
(g77
g70
NtRp4385
(dp4386
g73
(dp4387
g81
I4
ssg82
Nsg75
(lp4388
g68
(g84
g70
NtRp4389
(dp4390
g73
(dp4391
sg82
g4385
sg75
(lp4392
g68
(g89
g70
NtRp4393
(dp4394
g73
(dp4395
g93
g94
ssg82
g4389
sg75
(lp4396
S'my_groups_id'
p4397
asbag68
(g89
g70
NtRp4398
(dp4399
g73
(dp4400
g100
g101
ssg82
g4389
sg75
(lp4401
S':'
asbag68
(g89
g70
NtRp4402
(dp4403
g73
(dp4404
sg82
g4389
sg75
(lp4405
g68
(g69
g70
NtRp4406
(dp4407
g73
(dp4408
g81
I4
ssg82
g4402
sg75
(lp4409
g68
(g77
g70
NtRp4410
(dp4411
g73
(dp4412
g81
I3
ssg82
Nsg75
(lp4413
sbasbasbasbasbasbasbasbasbasbsS'etype'
p4414
S"<type 'exceptions.SyntaxError'>"
p4415
sS'date'
p4416
S'Fri Mar  9 18:29:27 2012'
p4417
sS'response'
p4418
g68
(g69
g70
NtRp4419
(dp4420
g73
(dp4421
sg75
(lp4422
g68
(g77
g70
NtRp4423
(dp4424
g73
(dp4425
g81
I5
ssg82
Nsg75
(lp4426
g68
(g84
g70
NtRp4427
(dp4428
g73
(dp4429
sg82
g4423
sg75
(lp4430
g68
(g89
g70
NtRp4431
(dp4432
g73
(dp4433
g93
g94
ssg82
g4427
sg75
(lp4434
g166
asbag68
(g89
g70
NtRp4435
(dp4436
g73
(dp4437
g100
g101
ssg82
g4427
sg75
(lp4438
S':'
asbag68
(g89
g70
NtRp4439
(dp4440
g73
(dp4441
sg82
g4427
sg75
(lp4442
g68
(g69
g70
NtRp4443
(dp4444
g73
(dp4445
g81
I5
ssg82
g4439
sg75
(lp4446
S'<cStringIO.StringO object at 0x3588730>'
p4447
asbasbasbag68
(g84
g70
NtRp4448
(dp4449
g73
(dp4450
sg82
g4423
sg75
(lp4451
g68
(g89
g70
NtRp4452
(dp4453
g73
(dp4454
g93
g94
ssg82
g4448
sg75
(lp4455
g232
asbag68
(g89
g70
NtRp4456
(dp4457
g73
(dp4458
g100
g101
ssg82
g4448
sg75
(lp4459
S':'
asbag68
(g89
g70
NtRp4460
(dp4461
g73
(dp4462
sg82
g4448
sg75
(lp4463
g68
(g69
g70
NtRp4464
(dp4465
g73
(dp4466
g81
I5
ssg82
g4460
sg75
(lp4467
g68
(g77
g70
NtRp4468
(dp4469
g73
(dp4470
g81
I4
ssg82
Nsg75
(lp4471
g68
(g84
g70
NtRp4472
(dp4473
g73
(dp4474
sg82
g4468
sg75
(lp4475
g68
(g89
g70
NtRp4476
(dp4477
g73
(dp4478
g93
g94
ssg82
g4472
sg75
(lp4479
S'session_id_flisol2012'
p4480
asbag68
(g89
g70
NtRp4481
(dp4482
g73
(dp4483
g100
g101
ssg82
g4472
sg75
(lp4484
S':'
asbag68
(g89
g70
NtRp4485
(dp4486
g73
(dp4487
sg82
g4472
sg75
(lp4488
g68
(g69
g70
NtRp4489
(dp4490
g73
(dp4491
g81
I4
ssg82
g4485
sg75
(lp4492
g68
(g77
g70
NtRp4493
(dp4494
g73
(dp4495
g81
I3
ssg82
Nsg75
(lp4496
g68
(g84
g70
NtRp4497
(dp4498
g73
(dp4499
sg82
g4493
sg75
(lp4500
g68
(g89
g70
NtRp4501
(dp4502
g73
(dp4503
g93
g94
ssg82
g4497
sg75
(lp4504
g282
asbag68
(g89
g70
NtRp4505
(dp4506
g73
(dp4507
g100
g101
ssg82
g4497
sg75
(lp4508
S':'
asbag68
(g89
g70
NtRp4509
(dp4510
g73
(dp4511
sg82
g4497
sg75
(lp4512
g68
(g69
g70
NtRp4513
(dp4514
g73
(dp4515
g81
I3
ssg82
g4509
sg75
(lp4516
S''
asbasbasbag68
(g84
g70
NtRp4517
(dp4518
g73
(dp4519
sg82
g4493
sg75
(lp4520
g68
(g89
g70
NtRp4521
(dp4522
g73
(dp4523
g93
g94
ssg82
g4517
sg75
(lp4524
g303
asbag68
(g89
g70
NtRp4525
(dp4526
g73
(dp4527
g100
g101
ssg82
g4517
sg75
(lp4528
S':'
asbag68
(g89
g70
NtRp4529
(dp4530
g73
(dp4531
sg82
g4517
sg75
(lp4532
g68
(g69
g70
NtRp4533
(dp4534
g73
(dp4535
g81
I3
ssg82
g4529
sg75
(lp4536
S''
asbasbasbag68
(g84
g70
NtRp4537
(dp4538
g73
(dp4539
sg82
g4493
sg75
(lp4540
g68
(g89
g70
NtRp4541
(dp4542
g73
(dp4543
g93
g94
ssg82
g4537
sg75
(lp4544
g324
asbag68
(g89
g70
NtRp4545
(dp4546
g73
(dp4547
g100
g101
ssg82
g4537
sg75
(lp4548
S':'
asbag68
(g89
g70
NtRp4549
(dp4550
g73
(dp4551
sg82
g4537
sg75
(lp4552
g68
(g69
g70
NtRp4553
(dp4554
g73
(dp4555
g81
I3
ssg82
g4549
sg75
(lp4556
S''
asbasbasbag68
(g84
g70
NtRp4557
(dp4558
g73
(dp4559
sg82
g4493
sg75
(lp4560
g68
(g89
g70
NtRp4561
(dp4562
g73
(dp4563
g93
g94
ssg82
g4557
sg75
(lp4564
g345
asbag68
(g89
g70
NtRp4565
(dp4566
g73
(dp4567
g100
g101
ssg82
g4557
sg75
(lp4568
S':'
asbag68
(g89
g70
NtRp4569
(dp4570
g73
(dp4571
sg82
g4557
sg75
(lp4572
g68
(g69
g70
NtRp4573
(dp4574
g73
(dp4575
g81
I3
ssg82
g4569
sg75
(lp4576
S''
asbasbasbag68
(g84
g70
NtRp4577
(dp4578
g73
(dp4579
sg82
g4493
sg75
(lp4580
g68
(g89
g70
NtRp4581
(dp4582
g73
(dp4583
g93
g94
ssg82
g4577
sg75
(lp4584
g366
asbag68
(g89
g70
NtRp4585
(dp4586
g73
(dp4587
g100
g101
ssg82
g4577
sg75
(lp4588
S':'
asbag68
(g89
g70
NtRp4589
(dp4590
g73
(dp4591
sg82
g4577
sg75
(lp4592
g68
(g69
g70
NtRp4593
(dp4594
g73
(dp4595
g81
I3
ssg82
g4589
sg75
(lp4596
S''
asbasbasbag68
(g84
g70
NtRp4597
(dp4598
g73
(dp4599
sg82
g4493
sg75
(lp4600
g68
(g89
g70
NtRp4601
(dp4602
g73
(dp4603
g93
g94
ssg82
g4597
sg75
(lp4604
g387
asbag68
(g89
g70
NtRp4605
(dp4606
g73
(dp4607
g100
g101
ssg82
g4597
sg75
(lp4608
S':'
asbag68
(g89
g70
NtRp4609
(dp4610
g73
(dp4611
sg82
g4597
sg75
(lp4612
g68
(g69
g70
NtRp4613
(dp4614
g73
(dp4615
g81
I3
ssg82
g4609
sg75
(lp4616
S'/'
asbasbasbag68
(g84
g70
NtRp4617
(dp4618
g73
(dp4619
sg82
g4493
sg75
(lp4620
g68
(g89
g70
NtRp4621
(dp4622
g73
(dp4623
g93
g94
ssg82
g4617
sg75
(lp4624
g408
asbag68
(g89
g70
NtRp4625
(dp4626
g73
(dp4627
g100
g101
ssg82
g4617
sg75
(lp4628
S':'
asbag68
(g89
g70
NtRp4629
(dp4630
g73
(dp4631
sg82
g4617
sg75
(lp4632
g68
(g69
g70
NtRp4633
(dp4634
g73
(dp4635
g81
I3
ssg82
g4629
sg75
(lp4636
S''
asbasbasbag68
(g84
g70
NtRp4637
(dp4638
g73
(dp4639
sg82
g4493
sg75
(lp4640
g68
(g89
g70
NtRp4641
(dp4642
g73
(dp4643
g93
g94
ssg82
g4637
sg75
(lp4644
g429
asbag68
(g89
g70
NtRp4645
(dp4646
g73
(dp4647
g100
g101
ssg82
g4637
sg75
(lp4648
S':'
asbag68
(g89
g70
NtRp4649
(dp4650
g73
(dp4651
sg82
g4637
sg75
(lp4652
g68
(g69
g70
NtRp4653
(dp4654
g73
(dp4655
g81
I3
ssg82
g4649
sg75
(lp4656
S''
asbasbasbasbasbasbasbasbasbasbasbag68
(g84
g70
NtRp4657
(dp4658
g73
(dp4659
sg82
g4423
sg75
(lp4660
g68
(g89
g70
NtRp4661
(dp4662
g73
(dp4663
g93
g94
ssg82
g4657
sg75
(lp4664
S'delimiters'
p4665
asbag68
(g89
g70
NtRp4666
(dp4667
g73
(dp4668
g100
g101
ssg82
g4657
sg75
(lp4669
S':'
asbag68
(g89
g70
NtRp4670
(dp4671
g73
(dp4672
sg82
g4657
sg75
(lp4673
g68
(g69
g70
NtRp4674
(dp4675
g73
(dp4676
g81
I5
ssg82
g4670
sg75
(lp4677
g68
(g77
g70
NtRp4678
(dp4679
g73
(dp4680
g81
I4
ssg82
Nsg75
(lp4681
g68
(g84
g70
NtRp4682
(dp4683
g73
(dp4684
sg82
g4678
sg75
(lp4685
g68
(g89
g70
NtRp4686
(dp4687
g73
(dp4688
sg82
g4682
sg75
(lp4689
g68
(g69
g70
NtRp4690
(dp4691
g73
(dp4692
g81
I4
ssg82
g4686
sg75
(lp4693
S'{{'
p4694
asbasbasbag68
(g84
g70
NtRp4695
(dp4696
g73
(dp4697
sg82
g4678
sg75
(lp4698
g68
(g89
g70
NtRp4699
(dp4700
g73
(dp4701
sg82
g4695
sg75
(lp4702
g68
(g69
g70
NtRp4703
(dp4704
g73
(dp4705
g81
I4
ssg82
g4699
sg75
(lp4706
S'}}'
p4707
asbasbasbasbasbasbasbag68
(g84
g70
NtRp4708
(dp4709
g73
(dp4710
sg82
g4423
sg75
(lp4711
g68
(g89
g70
NtRp4712
(dp4713
g73
(dp4714
g93
g94
ssg82
g4708
sg75
(lp4715
S'description'
p4716
asbag68
(g89
g70
NtRp4717
(dp4718
g73
(dp4719
g100
g101
ssg82
g4708
sg75
(lp4720
S':'
asbag68
(g89
g70
NtRp4721
(dp4722
g73
(dp4723
sg82
g4708
sg75
(lp4724
g68
(g69
g70
NtRp4725
(dp4726
g73
(dp4727
g81
I5
ssg82
g4721
sg75
(lp4728
S'Hecho con web2py'
p4729
asbasbasbag68
(g84
g70
NtRp4730
(dp4731
g73
(dp4732
sg82
g4423
sg75
(lp4733
g68
(g89
g70
NtRp4734
(dp4735
g73
(dp4736
g93
g94
ssg82
g4730
sg75
(lp4737
S'files'
p4738
asbag68
(g89
g70
NtRp4739
(dp4740
g73
(dp4741
g100
g101
ssg82
g4730
sg75
(lp4742
S':'
asbag68
(g89
g70
NtRp4743
(dp4744
g73
(dp4745
sg82
g4730
sg75
(lp4746
g68
(g69
g70
NtRp4747
(dp4748
g73
(dp4749
g81
I5
ssg82
g4743
sg75
(lp4750
g68
(g77
g70
NtRp4751
(dp4752
g73
(dp4753
g81
I4
ssg82
Nsg75
(lp4754
g68
(g84
g70
NtRp4755
(dp4756
g73
(dp4757
sg82
g4751
sg75
(lp4758
g68
(g89
g70
NtRp4759
(dp4760
g73
(dp4761
sg82
g4755
sg75
(lp4762
g68
(g69
g70
NtRp4763
(dp4764
g73
(dp4765
g81
I4
ssg82
g4759
sg75
(lp4766
S'/plugin_t2/static/t2/scripts/jquery.js'
p4767
asbasbasbag68
(g84
g70
NtRp4768
(dp4769
g73
(dp4770
sg82
g4751
sg75
(lp4771
g68
(g89
g70
NtRp4772
(dp4773
g73
(dp4774
sg82
g4768
sg75
(lp4775
g68
(g69
g70
NtRp4776
(dp4777
g73
(dp4778
g81
I4
ssg82
g4772
sg75
(lp4779
S'/plugin_t2/static/t2/styles/calendar.css'
p4780
asbasbasbag68
(g84
g70
NtRp4781
(dp4782
g73
(dp4783
sg82
g4751
sg75
(lp4784
g68
(g89
g70
NtRp4785
(dp4786
g73
(dp4787
sg82
g4781
sg75
(lp4788
g68
(g69
g70
NtRp4789
(dp4790
g73
(dp4791
g81
I4
ssg82
g4785
sg75
(lp4792
S'/plugin_t2/static/t2/scripts/calendar.js'
p4793
asbasbasbag68
(g84
g70
NtRp4794
(dp4795
g73
(dp4796
sg82
g4751
sg75
(lp4797
g68
(g89
g70
NtRp4798
(dp4799
g73
(dp4800
sg82
g4794
sg75
(lp4801
g68
(g69
g70
NtRp4802
(dp4803
g73
(dp4804
g81
I4
ssg82
g4798
sg75
(lp4805
S'/plugin_t2/static/t2/styles/sfmenu.css'
p4806
asbasbasbag68
(g84
g70
NtRp4807
(dp4808
g73
(dp4809
sg82
g4751
sg75
(lp4810
g68
(g89
g70
NtRp4811
(dp4812
g73
(dp4813
sg82
g4807
sg75
(lp4814
g68
(g69
g70
NtRp4815
(dp4816
g73
(dp4817
g81
I4
ssg82
g4811
sg75
(lp4818
S'/plugin_t2/static/t2/scripts/sfmenu.js'
p4819
asbasbasbag68
(g84
g70
NtRp4820
(dp4821
g73
(dp4822
sg82
g4751
sg75
(lp4823
g68
(g89
g70
NtRp4824
(dp4825
g73
(dp4826
sg82
g4820
sg75
(lp4827
g68
(g69
g70
NtRp4828
(dp4829
g73
(dp4830
g81
I4
ssg82
g4824
sg75
(lp4831
S'/plugin_t2/static/t2/scripts/fancyzoom.min.js'
p4832
asbasbasbag68
(g84
g70
NtRp4833
(dp4834
g73
(dp4835
sg82
g4751
sg75
(lp4836
g68
(g89
g70
NtRp4837
(dp4838
g73
(dp4839
sg82
g4833
sg75
(lp4840
g68
(g69
g70
NtRp4841
(dp4842
g73
(dp4843
g81
I4
ssg82
g4837
sg75
(lp4844
S'/plugin_t2/static/t2/styles/rating.css'
p4845
asbasbasbag68
(g84
g70
NtRp4846
(dp4847
g73
(dp4848
sg82
g4751
sg75
(lp4849
g68
(g89
g70
NtRp4850
(dp4851
g73
(dp4852
sg82
g4846
sg75
(lp4853
g68
(g69
g70
NtRp4854
(dp4855
g73
(dp4856
g81
I4
ssg82
g4850
sg75
(lp4857
S'/plugin_t2/static/t2/scripts/rating.js'
p4858
asbasbasbag68
(g84
g70
NtRp4859
(dp4860
g73
(dp4861
sg82
g4751
sg75
(lp4862
g68
(g89
g70
NtRp4863
(dp4864
g73
(dp4865
sg82
g4859
sg75
(lp4866
g68
(g69
g70
NtRp4867
(dp4868
g73
(dp4869
g81
I4
ssg82
g4863
sg75
(lp4870
S'/plugin_t2/static/t2/scripts/web2py.js'
p4871
asbasbasbasbasbasbasbag68
(g84
g70
NtRp4872
(dp4873
g73
(dp4874
sg82
g4423
sg75
(lp4875
g68
(g89
g70
NtRp4876
(dp4877
g73
(dp4878
g93
g94
ssg82
g4872
sg75
(lp4879
S'flash'
p4880
asbag68
(g89
g70
NtRp4881
(dp4882
g73
(dp4883
g100
g101
ssg82
g4872
sg75
(lp4884
S':'
asbag68
(g89
g70
NtRp4885
(dp4886
g73
(dp4887
sg82
g4872
sg75
(lp4888
g68
(g69
g70
NtRp4889
(dp4890
g73
(dp4891
g81
I5
ssg82
g4885
sg75
(lp4892
S''
asbasbasbag68
(g84
g70
NtRp4893
(dp4894
g73
(dp4895
sg82
g4423
sg75
(lp4896
g68
(g89
g70
NtRp4897
(dp4898
g73
(dp4899
g93
g94
ssg82
g4893
sg75
(lp4900
S'footer'
p4901
asbag68
(g89
g70
NtRp4902
(dp4903
g73
(dp4904
g100
g101
ssg82
g4893
sg75
(lp4905
S':'
asbag68
(g89
g70
NtRp4906
(dp4907
g73
(dp4908
sg82
g4893
sg75
(lp4909
g68
(g69
g70
NtRp4910
(dp4911
g73
(dp4912
g81
I5
ssg82
g4906
sg75
(lp4913
S'<p>InstallFest <a href="http://www.flisol.info/">FLISOL</a> <b>28 de abril de 2012</b> - <a href="http://www.unsa.edu.ar/">Universidad Nacional de Salta</a><br/>\n<a href="http://www.flisol.info/FLISOL2012/Argentina/Salta">http://www.flisol.info/FLISOL2012/Argentina/Salta</a> - organizacion@saltalug.org.ar</p>'
p4914
asbasbasbag68
(g84
g70
NtRp4915
(dp4916
g73
(dp4917
sg82
g4423
sg75
(lp4918
g68
(g89
g70
NtRp4919
(dp4920
g73
(dp4921
g93
g94
ssg82
g4915
sg75
(lp4922
S'generic_patterns'
p4923
asbag68
(g89
g70
NtRp4924
(dp4925
g73
(dp4926
g100
g101
ssg82
g4915
sg75
(lp4927
S':'
asbag68
(g89
g70
NtRp4928
(dp4929
g73
(dp4930
sg82
g4915
sg75
(lp4931
g68
(g69
g70
NtRp4932
(dp4933
g73
(dp4934
g81
I5
ssg82
g4928
sg75
(lp4935
g68
(g77
g70
NtRp4936
(dp4937
g73
(dp4938
g81
I4
ssg82
Nsg75
(lp4939
sbasbasbasbag68
(g84
g70
NtRp4940
(dp4941
g73
(dp4942
sg82
g4423
sg75
(lp4943
g68
(g89
g70
NtRp4944
(dp4945
g73
(dp4946
g93
g94
ssg82
g4940
sg75
(lp4947
S'headers'
p4948
asbag68
(g89
g70
NtRp4949
(dp4950
g73
(dp4951
g100
g101
ssg82
g4940
sg75
(lp4952
S':'
asbag68
(g89
g70
NtRp4953
(dp4954
g73
(dp4955
sg82
g4940
sg75
(lp4956
g68
(g69
g70
NtRp4957
(dp4958
g73
(dp4959
g81
I5
ssg82
g4953
sg75
(lp4960
g68
(g77
g70
NtRp4961
(dp4962
g73
(dp4963
g81
I4
ssg82
Nsg75
(lp4964
g68
(g84
g70
NtRp4965
(dp4966
g73
(dp4967
sg82
g4961
sg75
(lp4968
g68
(g89
g70
NtRp4969
(dp4970
g73
(dp4971
g93
g94
ssg82
g4965
sg75
(lp4972
S'Cache-Control'
p4973
asbag68
(g89
g70
NtRp4974
(dp4975
g73
(dp4976
g100
g101
ssg82
g4965
sg75
(lp4977
S':'
asbag68
(g89
g70
NtRp4978
(dp4979
g73
(dp4980
sg82
g4965
sg75
(lp4981
g68
(g69
g70
NtRp4982
(dp4983
g73
(dp4984
g81
I4
ssg82
g4978
sg75
(lp4985
S'no-store, no-cache, must-revalidate, post-check=0, pre-check=0'
p4986
asbasbasbag68
(g84
g70
NtRp4987
(dp4988
g73
(dp4989
sg82
g4961
sg75
(lp4990
g68
(g89
g70
NtRp4991
(dp4992
g73
(dp4993
g93
g94
ssg82
g4987
sg75
(lp4994
S'Content-Type'
p4995
asbag68
(g89
g70
NtRp4996
(dp4997
g73
(dp4998
g100
g101
ssg82
g4987
sg75
(lp4999
S':'
asbag68
(g89
g70
NtRp5000
(dp5001
g73
(dp5002
sg82
g4987
sg75
(lp5003
g68
(g69
g70
NtRp5004
(dp5005
g73
(dp5006
g81
I4
ssg82
g5000
sg75
(lp5007
S'text/html; charset=utf-8'
p5008
asbasbasbag68
(g84
g70
NtRp5009
(dp5010
g73
(dp5011
sg82
g4961
sg75
(lp5012
g68
(g89
g70
NtRp5013
(dp5014
g73
(dp5015
g93
g94
ssg82
g5009
sg75
(lp5016
S'Expires'
p5017
asbag68
(g89
g70
NtRp5018
(dp5019
g73
(dp5020
g100
g101
ssg82
g5009
sg75
(lp5021
S':'
asbag68
(g89
g70
NtRp5022
(dp5023
g73
(dp5024
sg82
g5009
sg75
(lp5025
g68
(g69
g70
NtRp5026
(dp5027
g73
(dp5028
g81
I4
ssg82
g5022
sg75
(lp5029
S'Fri, 09 Mar 2012 21:29:27 GMT'
p5030
asbasbasbag68
(g84
g70
NtRp5031
(dp5032
g73
(dp5033
sg82
g4961
sg75
(lp5034
g68
(g89
g70
NtRp5035
(dp5036
g73
(dp5037
g93
g94
ssg82
g5031
sg75
(lp5038
S'Pragma'
p5039
asbag68
(g89
g70
NtRp5040
(dp5041
g73
(dp5042
g100
g101
ssg82
g5031
sg75
(lp5043
S':'
asbag68
(g89
g70
NtRp5044
(dp5045
g73
(dp5046
sg82
g5031
sg75
(lp5047
g68
(g69
g70
NtRp5048
(dp5049
g73
(dp5050
g81
I4
ssg82
g5044
sg75
(lp5051
S'no-cache'
p5052
asbasbasbag68
(g84
g70
NtRp5053
(dp5054
g73
(dp5055
sg82
g4961
sg75
(lp5056
g68
(g89
g70
NtRp5057
(dp5058
g73
(dp5059
g93
g94
ssg82
g5053
sg75
(lp5060
S'X-Powered-By'
p5061
asbag68
(g89
g70
NtRp5062
(dp5063
g73
(dp5064
g100
g101
ssg82
g5053
sg75
(lp5065
S':'
asbag68
(g89
g70
NtRp5066
(dp5067
g73
(dp5068
sg82
g5053
sg75
(lp5069
g68
(g69
g70
NtRp5070
(dp5071
g73
(dp5072
g81
I4
ssg82
g5066
sg75
(lp5073
S'web2py'
p5074
asbasbasbasbasbasbasbag68
(g84
g70
NtRp5075
(dp5076
g73
(dp5077
sg82
g4423
sg75
(lp5078
g68
(g89
g70
NtRp5079
(dp5080
g73
(dp5081
g93
g94
ssg82
g5075
sg75
(lp5082
S'keywords'
p5083
asbag68
(g89
g70
NtRp5084
(dp5085
g73
(dp5086
g100
g101
ssg82
g5075
sg75
(lp5087
S':'
asbag68
(g89
g70
NtRp5088
(dp5089
g73
(dp5090
sg82
g5075
sg75
(lp5091
g68
(g69
g70
NtRp5092
(dp5093
g73
(dp5094
g81
I5
ssg82
g5088
sg75
(lp5095
S'festival, instalaci\xc3\xb3n, software libre, salta, argentina, flisol'
p5096
asbasbasbag68
(g84
g70
NtRp5097
(dp5098
g73
(dp5099
sg82
g4423
sg75
(lp5100
g68
(g89
g70
NtRp5101
(dp5102
g73
(dp5103
g93
g94
ssg82
g5097
sg75
(lp5104
S'menu'
p5105
asbag68
(g89
g70
NtRp5106
(dp5107
g73
(dp5108
g100
g101
ssg82
g5097
sg75
(lp5109
S':'
asbag68
(g89
g70
NtRp5110
(dp5111
g73
(dp5112
sg82
g5097
sg75
(lp5113
g68
(g69
g70
NtRp5114
(dp5115
g73
(dp5116
g81
I5
ssg82
g5110
sg75
(lp5117
g68
(g77
g70
NtRp5118
(dp5119
g73
(dp5120
g81
I4
ssg82
Nsg75
(lp5121
g68
(g84
g70
NtRp5122
(dp5123
g73
(dp5124
sg82
g5118
sg75
(lp5125
g68
(g89
g70
NtRp5126
(dp5127
g73
(dp5128
sg82
g5122
sg75
(lp5129
g68
(g69
g70
NtRp5130
(dp5131
g73
(dp5132
g81
I4
ssg82
g5126
sg75
(lp5133
g68
(g77
g70
NtRp5134
(dp5135
g73
(dp5136
g81
I3
ssg82
Nsg75
(lp5137
g68
(g84
g70
NtRp5138
(dp5139
g73
(dp5140
sg82
g5134
sg75
(lp5141
g68
(g89
g70
NtRp5142
(dp5143
g73
(dp5144
sg82
g5138
sg75
(lp5145
g68
(g69
g70
NtRp5146
(dp5147
g73
(dp5148
g81
I3
ssg82
g5142
sg75
(lp5149
cgluon.languages
lazyT_unpickle
p5150
(S't\t\x00\x00\x00Principal'
tRp5151
asbasbasbag68
(g84
g70
NtRp5152
(dp5153
g73
(dp5154
sg82
g5134
sg75
(lp5155
g68
(g89
g70
NtRp5156
(dp5157
g73
(dp5158
sg82
g5152
sg75
(lp5159
g68
(g69
g70
NtRp5160
(dp5161
g73
(dp5162
g81
I3
ssg82
g5156
sg75
(lp5163
g111
asbasbasbag68
(g84
g70
NtRp5164
(dp5165
g73
(dp5166
sg82
g5134
sg75
(lp5167
g68
(g89
g70
NtRp5168
(dp5169
g73
(dp5170
sg82
g5164
sg75
(lp5171
g68
(g69
g70
NtRp5172
(dp5173
g73
(dp5174
g81
I3
ssg82
g5168
sg75
(lp5175
S'/flisol2012/default/index'
p5176
asbasbasbasbasbasbasbag68
(g84
g70
NtRp5177
(dp5178
g73
(dp5179
sg82
g5118
sg75
(lp5180
g68
(g89
g70
NtRp5181
(dp5182
g73
(dp5183
sg82
g5177
sg75
(lp5184
g68
(g69
g70
NtRp5185
(dp5186
g73
(dp5187
g81
I4
ssg82
g5181
sg75
(lp5188
g68
(g77
g70
NtRp5189
(dp5190
g73
(dp5191
g81
I3
ssg82
Nsg75
(lp5192
g68
(g84
g70
NtRp5193
(dp5194
g73
(dp5195
sg82
g5189
sg75
(lp5196
g68
(g89
g70
NtRp5197
(dp5198
g73
(dp5199
sg82
g5193
sg75
(lp5200
g68
(g69
g70
NtRp5201
(dp5202
g73
(dp5203
g81
I3
ssg82
g5197
sg75
(lp5204
g5150
(S't\x0b\x00\x00\x00Conferencia'
tRp5205
asbasbasbag68
(g84
g70
NtRp5206
(dp5207
g73
(dp5208
sg82
g5189
sg75
(lp5209
g68
(g89
g70
NtRp5210
(dp5211
g73
(dp5212
sg82
g5206
sg75
(lp5213
g68
(g69
g70
NtRp5214
(dp5215
g73
(dp5216
g81
I3
ssg82
g5210
sg75
(lp5217
g111
asbasbasbag68
(g84
g70
NtRp5218
(dp5219
g73
(dp5220
sg82
g5189
sg75
(lp5221
g68
(g89
g70
NtRp5222
(dp5223
g73
(dp5224
sg82
g5218
sg75
(lp5225
g68
(g69
g70
NtRp5226
(dp5227
g73
(dp5228
g81
I3
ssg82
g5222
sg75
(lp5229
S'#'
asbasbasbag68
(g84
g70
NtRp5230
(dp5231
g73
(dp5232
sg82
g5189
sg75
(lp5233
g68
(g89
g70
NtRp5234
(dp5235
g73
(dp5236
sg82
g5230
sg75
(lp5237
g68
(g69
g70
NtRp5238
(dp5239
g73
(dp5240
g81
I3
ssg82
g5234
sg75
(lp5241
g68
(g77
g70
NtRp5242
(dp5243
g73
(dp5244
g81
I2
ssg82
Nsg75
(lp5245
g68
(g84
g70
NtRp5246
(dp5247
g73
(dp5248
sg82
g5242
sg75
(lp5249
g68
(g89
g70
NtRp5250
(dp5251
g73
(dp5252
sg82
g5246
sg75
(lp5253
g68
(g69
g70
NtRp5254
(dp5255
g73
(dp5256
g81
I2
ssg82
g5250
sg75
(lp5257
g68
(g77
g70
NtRp5258
(dp5259
g73
(dp5260
g81
I1
ssg82
Nsg75
(lp5261
g68
(g84
g70
NtRp5262
(dp5263
g73
(dp5264
sg82
g5258
sg75
(lp5265
g68
(g89
g70
NtRp5266
(dp5267
g73
(dp5268
sg82
g5262
sg75
(lp5269
g68
(g69
g70
NtRp5270
(dp5271
g73
(dp5272
g81
I1
ssg82
g5266
sg75
(lp5273
g5150
(S's\t\x00\x00\x00Acerca de'
tRp5274
asbasbasbag68
(g84
g70
NtRp5275
(dp5276
g73
(dp5277
sg82
g5258
sg75
(lp5278
g68
(g89
g70
NtRp5279
(dp5280
g73
(dp5281
sg82
g5275
sg75
(lp5282
g68
(g69
g70
NtRp5283
(dp5284
g73
(dp5285
g81
I1
ssg82
g5279
sg75
(lp5286
I01
asbasbasbag68
(g84
g70
NtRp5287
(dp5288
g73
(dp5289
sg82
g5258
sg75
(lp5290
g68
(g89
g70
NtRp5291
(dp5292
g73
(dp5293
sg82
g5287
sg75
(lp5294
g68
(g69
g70
NtRp5295
(dp5296
g73
(dp5297
g81
I1
ssg82
g5291
sg75
(lp5298
S'/flisol2012/conference/about'
p5299
asbasbasbasbasbasbasbag68
(g84
g70
NtRp5300
(dp5301
g73
(dp5302
sg82
g5242
sg75
(lp5303
g68
(g89
g70
NtRp5304
(dp5305
g73
(dp5306
sg82
g5300
sg75
(lp5307
g68
(g69
g70
NtRp5308
(dp5309
g73
(dp5310
g81
I2
ssg82
g5304
sg75
(lp5311
g68
(g77
g70
NtRp5312
(dp5313
g73
(dp5314
g81
I1
ssg82
Nsg75
(lp5315
g68
(g84
g70
NtRp5316
(dp5317
g73
(dp5318
sg82
g5312
sg75
(lp5319
g68
(g89
g70
NtRp5320
(dp5321
g73
(dp5322
sg82
g5316
sg75
(lp5323
g68
(g69
g70
NtRp5324
(dp5325
g73
(dp5326
g81
I1
ssg82
g5320
sg75
(lp5327
g5150
(S't\x05\x00\x00\x00Lugar'
tRp5328
asbasbasbag68
(g84
g70
NtRp5329
(dp5330
g73
(dp5331
sg82
g5312
sg75
(lp5332
g68
(g89
g70
NtRp5333
(dp5334
g73
(dp5335
sg82
g5329
sg75
(lp5336
g68
(g69
g70
NtRp5337
(dp5338
g73
(dp5339
g81
I1
ssg82
g5333
sg75
(lp5340
I01
asbasbasbag68
(g84
g70
NtRp5341
(dp5342
g73
(dp5343
sg82
g5312
sg75
(lp5344
g68
(g89
g70
NtRp5345
(dp5346
g73
(dp5347
sg82
g5341
sg75
(lp5348
g68
(g69
g70
NtRp5349
(dp5350
g73
(dp5351
g81
I1
ssg82
g5345
sg75
(lp5352
S'/flisol2012/conference/venue'
p5353
asbasbasbasbasbasbasbag68
(g84
g70
NtRp5354
(dp5355
g73
(dp5356
sg82
g5242
sg75
(lp5357
g68
(g89
g70
NtRp5358
(dp5359
g73
(dp5360
sg82
g5354
sg75
(lp5361
g68
(g69
g70
NtRp5362
(dp5363
g73
(dp5364
g81
I2
ssg82
g5358
sg75
(lp5365
g68
(g77
g70
NtRp5366
(dp5367
g73
(dp5368
g81
I1
ssg82
Nsg75
(lp5369
g68
(g84
g70
NtRp5370
(dp5371
g73
(dp5372
sg82
g5366
sg75
(lp5373
g68
(g89
g70
NtRp5374
(dp5375
g73
(dp5376
sg82
g5370
sg75
(lp5377
g68
(g69
g70
NtRp5378
(dp5379
g73
(dp5380
g81
I1
ssg82
g5374
sg75
(lp5381
g5150
(S't\x08\x00\x00\x00Software'
tRp5382
asbasbasbag68
(g84
g70
NtRp5383
(dp5384
g73
(dp5385
sg82
g5366
sg75
(lp5386
g68
(g89
g70
NtRp5387
(dp5388
g73
(dp5389
sg82
g5383
sg75
(lp5390
g68
(g69
g70
NtRp5391
(dp5392
g73
(dp5393
g81
I1
ssg82
g5387
sg75
(lp5394
I01
asbasbasbag68
(g84
g70
NtRp5395
(dp5396
g73
(dp5397
sg82
g5366
sg75
(lp5398
g68
(g89
g70
NtRp5399
(dp5400
g73
(dp5401
sg82
g5395
sg75
(lp5402
g68
(g69
g70
NtRp5403
(dp5404
g73
(dp5405
g81
I1
ssg82
g5399
sg75
(lp5406
S'/flisol2012/conference/software'
p5407
asbasbasbasbasbasbasbag68
(g84
g70
NtRp5408
(dp5409
g73
(dp5410
sg82
g5242
sg75
(lp5411
g68
(g89
g70
NtRp5412
(dp5413
g73
(dp5414
sg82
g5408
sg75
(lp5415
g68
(g69
g70
NtRp5416
(dp5417
g73
(dp5418
g81
I2
ssg82
g5412
sg75
(lp5419
g68
(g77
g70
NtRp5420
(dp5421
g73
(dp5422
g81
I1
ssg82
Nsg75
(lp5423
g68
(g84
g70
NtRp5424
(dp5425
g73
(dp5426
sg82
g5420
sg75
(lp5427
g68
(g89
g70
NtRp5428
(dp5429
g73
(dp5430
sg82
g5424
sg75
(lp5431
g68
(g69
g70
NtRp5432
(dp5433
g73
(dp5434
g81
I1
ssg82
g5428
sg75
(lp5435
g5150
(S't\x06\x00\x00\x00Agenda'
tRp5436
asbasbasbag68
(g84
g70
NtRp5437
(dp5438
g73
(dp5439
sg82
g5420
sg75
(lp5440
g68
(g89
g70
NtRp5441
(dp5442
g73
(dp5443
sg82
g5437
sg75
(lp5444
g68
(g69
g70
NtRp5445
(dp5446
g73
(dp5447
g81
I1
ssg82
g5441
sg75
(lp5448
I01
asbasbasbag68
(g84
g70
NtRp5449
(dp5450
g73
(dp5451
sg82
g5420
sg75
(lp5452
g68
(g89
g70
NtRp5453
(dp5454
g73
(dp5455
sg82
g5449
sg75
(lp5456
g68
(g69
g70
NtRp5457
(dp5458
g73
(dp5459
g81
I1
ssg82
g5453
sg75
(lp5460
S'/flisol2012/conference/schedule'
p5461
asbasbasbasbasbasbasbag68
(g84
g70
NtRp5462
(dp5463
g73
(dp5464
sg82
g5242
sg75
(lp5465
g68
(g89
g70
NtRp5466
(dp5467
g73
(dp5468
sg82
g5462
sg75
(lp5469
g68
(g69
g70
NtRp5470
(dp5471
g73
(dp5472
g81
I2
ssg82
g5466
sg75
(lp5473
g68
(g77
g70
NtRp5474
(dp5475
g73
(dp5476
g81
I1
ssg82
Nsg75
(lp5477
g68
(g84
g70
NtRp5478
(dp5479
g73
(dp5480
sg82
g5474
sg75
(lp5481
g68
(g89
g70
NtRp5482
(dp5483
g73
(dp5484
sg82
g5478
sg75
(lp5485
g68
(g69
g70
NtRp5486
(dp5487
g73
(dp5488
g81
I1
ssg82
g5482
sg75
(lp5489
g5150
(S't\x0b\x00\x00\x00Comunidades'
tRp5490
asbasbasbag68
(g84
g70
NtRp5491
(dp5492
g73
(dp5493
sg82
g5474
sg75
(lp5494
g68
(g89
g70
NtRp5495
(dp5496
g73
(dp5497
sg82
g5491
sg75
(lp5498
g68
(g69
g70
NtRp5499
(dp5500
g73
(dp5501
g81
I1
ssg82
g5495
sg75
(lp5502
I01
asbasbasbag68
(g84
g70
NtRp5503
(dp5504
g73
(dp5505
sg82
g5474
sg75
(lp5506
g68
(g89
g70
NtRp5507
(dp5508
g73
(dp5509
sg82
g5503
sg75
(lp5510
g68
(g69
g70
NtRp5511
(dp5512
g73
(dp5513
g81
I1
ssg82
g5507
sg75
(lp5514
S'/flisol2012/conference/communities'
p5515
asbasbasbasbasbasbasbag68
(g84
g70
NtRp5516
(dp5517
g73
(dp5518
sg82
g5242
sg75
(lp5519
g68
(g89
g70
NtRp5520
(dp5521
g73
(dp5522
sg82
g5516
sg75
(lp5523
g68
(g69
g70
NtRp5524
(dp5525
g73
(dp5526
g81
I2
ssg82
g5520
sg75
(lp5527
g68
(g77
g70
NtRp5528
(dp5529
g73
(dp5530
g81
I1
ssg82
Nsg75
(lp5531
g68
(g84
g70
NtRp5532
(dp5533
g73
(dp5534
sg82
g5528
sg75
(lp5535
g68
(g89
g70
NtRp5536
(dp5537
g73
(dp5538
sg82
g5532
sg75
(lp5539
g68
(g69
g70
NtRp5540
(dp5541
g73
(dp5542
g81
I1
ssg82
g5536
sg75
(lp5543
g5150
(S's\x15\x00\x00\x00Propuestas de charlas'
tRp5544
asbasbasbag68
(g84
g70
NtRp5545
(dp5546
g73
(dp5547
sg82
g5528
sg75
(lp5548
g68
(g89
g70
NtRp5549
(dp5550
g73
(dp5551
sg82
g5545
sg75
(lp5552
g68
(g69
g70
NtRp5553
(dp5554
g73
(dp5555
g81
I1
ssg82
g5549
sg75
(lp5556
I01
asbasbasbag68
(g84
g70
NtRp5557
(dp5558
g73
(dp5559
sg82
g5528
sg75
(lp5560
g68
(g89
g70
NtRp5561
(dp5562
g73
(dp5563
sg82
g5557
sg75
(lp5564
g68
(g69
g70
NtRp5565
(dp5566
g73
(dp5567
g81
I1
ssg82
g5561
sg75
(lp5568
S'/flisol2012/conference/proposals'
p5569
asbasbasbasbasbasbasbag68
(g84
g70
NtRp5570
(dp5571
g73
(dp5572
sg82
g5242
sg75
(lp5573
g68
(g89
g70
NtRp5574
(dp5575
g73
(dp5576
sg82
g5570
sg75
(lp5577
g68
(g69
g70
NtRp5578
(dp5579
g73
(dp5580
g81
I2
ssg82
g5574
sg75
(lp5581
g68
(g77
g70
NtRp5582
(dp5583
g73
(dp5584
g81
I1
ssg82
Nsg75
(lp5585
g68
(g84
g70
NtRp5586
(dp5587
g73
(dp5588
sg82
g5582
sg75
(lp5589
g68
(g89
g70
NtRp5590
(dp5591
g73
(dp5592
sg82
g5586
sg75
(lp5593
g68
(g69
g70
NtRp5594
(dp5595
g73
(dp5596
g81
I1
ssg82
g5590
sg75
(lp5597
g5150
(S't\r\x00\x00\x00Organizadores'
tRp5598
asbasbasbag68
(g84
g70
NtRp5599
(dp5600
g73
(dp5601
sg82
g5582
sg75
(lp5602
g68
(g89
g70
NtRp5603
(dp5604
g73
(dp5605
sg82
g5599
sg75
(lp5606
g68
(g69
g70
NtRp5607
(dp5608
g73
(dp5609
g81
I1
ssg82
g5603
sg75
(lp5610
I01
asbasbasbag68
(g84
g70
NtRp5611
(dp5612
g73
(dp5613
sg82
g5582
sg75
(lp5614
g68
(g89
g70
NtRp5615
(dp5616
g73
(dp5617
sg82
g5611
sg75
(lp5618
g68
(g69
g70
NtRp5619
(dp5620
g73
(dp5621
g81
I1
ssg82
g5615
sg75
(lp5622
S'/flisol2012/conference/staff'
p5623
asbasbasbasbasbasbasbasbasbasbasbasbasbasbasbag68
(g84
g70
NtRp5624
(dp5625
g73
(dp5626
sg82
g5118
sg75
(lp5627
g68
(g89
g70
NtRp5628
(dp5629
g73
(dp5630
sg82
g5624
sg75
(lp5631
g68
(g69
g70
NtRp5632
(dp5633
g73
(dp5634
g81
I4
ssg82
g5628
sg75
(lp5635
g68
(g77
g70
NtRp5636
(dp5637
g73
(dp5638
g81
I3
ssg82
Nsg75
(lp5639
g68
(g84
g70
NtRp5640
(dp5641
g73
(dp5642
sg82
g5636
sg75
(lp5643
g68
(g89
g70
NtRp5644
(dp5645
g73
(dp5646
sg82
g5640
sg75
(lp5647
g68
(g69
g70
NtRp5648
(dp5649
g73
(dp5650
g81
I3
ssg82
g5644
sg75
(lp5651
g5150
(S's\r\x00\x00\x00Estad\xc3\xadsticas'
tRp5652
asbasbasbag68
(g84
g70
NtRp5653
(dp5654
g73
(dp5655
sg82
g5636
sg75
(lp5656
g68
(g89
g70
NtRp5657
(dp5658
g73
(dp5659
sg82
g5653
sg75
(lp5660
g68
(g69
g70
NtRp5661
(dp5662
g73
(dp5663
g81
I3
ssg82
g5657
sg75
(lp5664
g111
asbasbasbag68
(g84
g70
NtRp5665
(dp5666
g73
(dp5667
sg82
g5636
sg75
(lp5668
g68
(g89
g70
NtRp5669
(dp5670
g73
(dp5671
sg82
g5665
sg75
(lp5672
g68
(g69
g70
NtRp5673
(dp5674
g73
(dp5675
g81
I3
ssg82
g5669
sg75
(lp5676
S'#'
asbasbasbag68
(g84
g70
NtRp5677
(dp5678
g73
(dp5679
sg82
g5636
sg75
(lp5680
g68
(g89
g70
NtRp5681
(dp5682
g73
(dp5683
sg82
g5677
sg75
(lp5684
g68
(g69
g70
NtRp5685
(dp5686
g73
(dp5687
g81
I3
ssg82
g5681
sg75
(lp5688
g68
(g77
g70
NtRp5689
(dp5690
g73
(dp5691
g81
I2
ssg82
Nsg75
(lp5692
g68
(g84
g70
NtRp5693
(dp5694
g73
(dp5695
sg82
g5689
sg75
(lp5696
g68
(g89
g70
NtRp5697
(dp5698
g73
(dp5699
sg82
g5693
sg75
(lp5700
g68
(g69
g70
NtRp5701
(dp5702
g73
(dp5703
g81
I2
ssg82
g5697
sg75
(lp5704
g68
(g77
g70
NtRp5705
(dp5706
g73
(dp5707
g81
I1
ssg82
Nsg75
(lp5708
g68
(g84
g70
NtRp5709
(dp5710
g73
(dp5711
sg82
g5705
sg75
(lp5712
g68
(g89
g70
NtRp5713
(dp5714
g73
(dp5715
sg82
g5709
sg75
(lp5716
g68
(g69
g70
NtRp5717
(dp5718
g73
(dp5719
g81
I1
ssg82
g5713
sg75
(lp5720
g5150
(S't\t\x00\x00\x00Entidades'
tRp5721
asbasbasbag68
(g84
g70
NtRp5722
(dp5723
g73
(dp5724
sg82
g5705
sg75
(lp5725
g68
(g89
g70
NtRp5726
(dp5727
g73
(dp5728
sg82
g5722
sg75
(lp5729
g68
(g69
g70
NtRp5730
(dp5731
g73
(dp5732
g81
I1
ssg82
g5726
sg75
(lp5733
I00
asbasbasbag68
(g84
g70
NtRp5734
(dp5735
g73
(dp5736
sg82
g5705
sg75
(lp5737
g68
(g89
g70
NtRp5738
(dp5739
g73
(dp5740
sg82
g5734
sg75
(lp5741
g68
(g69
g70
NtRp5742
(dp5743
g73
(dp5744
g81
I1
ssg82
g5738
sg75
(lp5745
S'/flisol2012/default/companies'
p5746
asbasbasbasbasbasbasbag68
(g84
g70
NtRp5747
(dp5748
g73
(dp5749
sg82
g5689
sg75
(lp5750
g68
(g89
g70
NtRp5751
(dp5752
g73
(dp5753
sg82
g5747
sg75
(lp5754
g68
(g69
g70
NtRp5755
(dp5756
g73
(dp5757
g81
I2
ssg82
g5751
sg75
(lp5758
g68
(g77
g70
NtRp5759
(dp5760
g73
(dp5761
g81
I1
ssg82
Nsg75
(lp5762
g68
(g84
g70
NtRp5763
(dp5764
g73
(dp5765
sg82
g5759
sg75
(lp5766
g68
(g89
g70
NtRp5767
(dp5768
g73
(dp5769
sg82
g5763
sg75
(lp5770
g68
(g69
g70
NtRp5771
(dp5772
g73
(dp5773
g81
I1
ssg82
g5767
sg75
(lp5774
g5150
(S't\n\x00\x00\x00Asistentes'
tRp5775
asbasbasbag68
(g84
g70
NtRp5776
(dp5777
g73
(dp5778
sg82
g5759
sg75
(lp5779
g68
(g89
g70
NtRp5780
(dp5781
g73
(dp5782
sg82
g5776
sg75
(lp5783
g68
(g69
g70
NtRp5784
(dp5785
g73
(dp5786
g81
I1
ssg82
g5780
sg75
(lp5787
I00
asbasbasbag68
(g84
g70
NtRp5788
(dp5789
g73
(dp5790
sg82
g5759
sg75
(lp5791
g68
(g89
g70
NtRp5792
(dp5793
g73
(dp5794
sg82
g5788
sg75
(lp5795
g68
(g69
g70
NtRp5796
(dp5797
g73
(dp5798
g81
I1
ssg82
g5792
sg75
(lp5799
S'/flisol2012/default/attendees'
p5800
asbasbasbasbasbasbasbag68
(g84
g70
NtRp5801
(dp5802
g73
(dp5803
sg82
g5689
sg75
(lp5804
g68
(g89
g70
NtRp5805
(dp5806
g73
(dp5807
sg82
g5801
sg75
(lp5808
g68
(g69
g70
NtRp5809
(dp5810
g73
(dp5811
g81
I2
ssg82
g5805
sg75
(lp5812
g68
(g77
g70
NtRp5813
(dp5814
g73
(dp5815
g81
I1
ssg82
Nsg75
(lp5816
g68
(g84
g70
NtRp5817
(dp5818
g73
(dp5819
sg82
g5813
sg75
(lp5820
g68
(g89
g70
NtRp5821
(dp5822
g73
(dp5823
sg82
g5817
sg75
(lp5824
g68
(g69
g70
NtRp5825
(dp5826
g73
(dp5827
g81
I1
ssg82
g5821
sg75
(lp5828
g5150
(S't\t\x00\x00\x00Diagramas'
tRp5829
asbasbasbag68
(g84
g70
NtRp5830
(dp5831
g73
(dp5832
sg82
g5813
sg75
(lp5833
g68
(g89
g70
NtRp5834
(dp5835
g73
(dp5836
sg82
g5830
sg75
(lp5837
g68
(g69
g70
NtRp5838
(dp5839
g73
(dp5840
g81
I1
ssg82
g5834
sg75
(lp5841
I00
asbasbasbag68
(g84
g70
NtRp5842
(dp5843
g73
(dp5844
sg82
g5813
sg75
(lp5845
g68
(g89
g70
NtRp5846
(dp5847
g73
(dp5848
sg82
g5842
sg75
(lp5849
g68
(g69
g70
NtRp5850
(dp5851
g73
(dp5852
g81
I1
ssg82
g5846
sg75
(lp5853
S'/flisol2012/default/charts'
p5854
asbasbasbasbasbasbasbag68
(g84
g70
NtRp5855
(dp5856
g73
(dp5857
sg82
g5689
sg75
(lp5858
g68
(g89
g70
NtRp5859
(dp5860
g73
(dp5861
sg82
g5855
sg75
(lp5862
g68
(g69
g70
NtRp5863
(dp5864
g73
(dp5865
g81
I2
ssg82
g5859
sg75
(lp5866
g68
(g77
g70
NtRp5867
(dp5868
g73
(dp5869
g81
I1
ssg82
Nsg75
(lp5870
g68
(g84
g70
NtRp5871
(dp5872
g73
(dp5873
sg82
g5867
sg75
(lp5874
g68
(g89
g70
NtRp5875
(dp5876
g73
(dp5877
sg82
g5871
sg75
(lp5878
g68
(g69
g70
NtRp5879
(dp5880
g73
(dp5881
g81
I1
ssg82
g5875
sg75
(lp5882
g5150
(S't\x05\x00\x00\x00Mapas'
tRp5883
asbasbasbag68
(g84
g70
NtRp5884
(dp5885
g73
(dp5886
sg82
g5867
sg75
(lp5887
g68
(g89
g70
NtRp5888
(dp5889
g73
(dp5890
sg82
g5884
sg75
(lp5891
g68
(g69
g70
NtRp5892
(dp5893
g73
(dp5894
g81
I1
ssg82
g5888
sg75
(lp5895
I00
asbasbasbag68
(g84
g70
NtRp5896
(dp5897
g73
(dp5898
sg82
g5867
sg75
(lp5899
g68
(g89
g70
NtRp5900
(dp5901
g73
(dp5902
sg82
g5896
sg75
(lp5903
g68
(g69
g70
NtRp5904
(dp5905
g73
(dp5906
g81
I1
ssg82
g5900
sg75
(lp5907
S'/flisol2012/default/maps'
p5908
asbasbasbasbasbasbasbag68
(g84
g70
NtRp5909
(dp5910
g73
(dp5911
sg82
g5689
sg75
(lp5912
g68
(g89
g70
NtRp5913
(dp5914
g73
(dp5915
sg82
g5909
sg75
(lp5916
g68
(g69
g70
NtRp5917
(dp5918
g73
(dp5919
g81
I2
ssg82
g5913
sg75
(lp5920
g68
(g77
g70
NtRp5921
(dp5922
g73
(dp5923
g81
I1
ssg82
Nsg75
(lp5924
g68
(g84
g70
NtRp5925
(dp5926
g73
(dp5927
sg82
g5921
sg75
(lp5928
g68
(g89
g70
NtRp5929
(dp5930
g73
(dp5931
sg82
g5925
sg75
(lp5932
g68
(g69
g70
NtRp5933
(dp5934
g73
(dp5935
g81
I1
ssg82
g5929
sg75
(lp5936
g5150
(S's\x11\x00\x00\x00Charlas aceptadas'
tRp5937
asbasbasbag68
(g84
g70
NtRp5938
(dp5939
g73
(dp5940
sg82
g5921
sg75
(lp5941
g68
(g89
g70
NtRp5942
(dp5943
g73
(dp5944
sg82
g5938
sg75
(lp5945
g68
(g69
g70
NtRp5946
(dp5947
g73
(dp5948
g81
I1
ssg82
g5942
sg75
(lp5949
I00
asbasbasbag68
(g84
g70
NtRp5950
(dp5951
g73
(dp5952
sg82
g5921
sg75
(lp5953
g68
(g89
g70
NtRp5954
(dp5955
g73
(dp5956
sg82
g5950
sg75
(lp5957
g68
(g69
g70
NtRp5958
(dp5959
g73
(dp5960
g81
I1
ssg82
g5954
sg75
(lp5961
S'/flisol2012/default/accepted_talks'
p5962
asbasbasbasbasbasbasbag68
(g84
g70
NtRp5963
(dp5964
g73
(dp5965
sg82
g5689
sg75
(lp5966
g68
(g89
g70
NtRp5967
(dp5968
g73
(dp5969
sg82
g5963
sg75
(lp5970
g68
(g69
g70
NtRp5971
(dp5972
g73
(dp5973
g81
I2
ssg82
g5967
sg75
(lp5974
g68
(g77
g70
NtRp5975
(dp5976
g73
(dp5977
g81
I1
ssg82
Nsg75
(lp5978
g68
(g84
g70
NtRp5979
(dp5980
g73
(dp5981
sg82
g5975
sg75
(lp5982
g68
(g89
g70
NtRp5983
(dp5984
g73
(dp5985
sg82
g5979
sg75
(lp5986
g68
(g69
g70
NtRp5987
(dp5988
g73
(dp5989
g81
I1
ssg82
g5983
sg75
(lp5990
g5150
(S's\x12\x00\x00\x00Charlas propuestas'
tRp5991
asbasbasbag68
(g84
g70
NtRp5992
(dp5993
g73
(dp5994
sg82
g5975
sg75
(lp5995
g68
(g89
g70
NtRp5996
(dp5997
g73
(dp5998
sg82
g5992
sg75
(lp5999
g68
(g69
g70
NtRp6000
(dp6001
g73
(dp6002
g81
I1
ssg82
g5996
sg75
(lp6003
I00
asbasbasbag68
(g84
g70
NtRp6004
(dp6005
g73
(dp6006
sg82
g5975
sg75
(lp6007
g68
(g89
g70
NtRp6008
(dp6009
g73
(dp6010
sg82
g6004
sg75
(lp6011
g68
(g69
g70
NtRp6012
(dp6013
g73
(dp6014
g81
I1
ssg82
g6008
sg75
(lp6015
S'/flisol2012/default/proposed_talks'
p6016
asbasbasbasbasbasbasbasbasbasbasbasbasbasbasbag68
(g84
g70
NtRp6017
(dp6018
g73
(dp6019
sg82
g5118
sg75
(lp6020
g68
(g89
g70
NtRp6021
(dp6022
g73
(dp6023
sg82
g6017
sg75
(lp6024
g68
(g69
g70
NtRp6025
(dp6026
g73
(dp6027
g81
I4
ssg82
g6021
sg75
(lp6028
g68
(g77
g70
NtRp6029
(dp6030
g73
(dp6031
g81
I3
ssg82
Nsg75
(lp6032
g68
(g84
g70
NtRp6033
(dp6034
g73
(dp6035
sg82
g6029
sg75
(lp6036
g68
(g89
g70
NtRp6037
(dp6038
g73
(dp6039
sg82
g6033
sg75
(lp6040
g68
(g69
g70
NtRp6041
(dp6042
g73
(dp6043
g81
I3
ssg82
g6037
sg75
(lp6044
g5150
(S's\t\x00\x00\x00Acerca de'
tRp6045
asbasbasbag68
(g84
g70
NtRp6046
(dp6047
g73
(dp6048
sg82
g6029
sg75
(lp6049
g68
(g89
g70
NtRp6050
(dp6051
g73
(dp6052
sg82
g6046
sg75
(lp6053
g68
(g69
g70
NtRp6054
(dp6055
g73
(dp6056
g81
I3
ssg82
g6050
sg75
(lp6057
g111
asbasbasbag68
(g84
g70
NtRp6058
(dp6059
g73
(dp6060
sg82
g6029
sg75
(lp6061
g68
(g89
g70
NtRp6062
(dp6063
g73
(dp6064
sg82
g6058
sg75
(lp6065
g68
(g69
g70
NtRp6066
(dp6067
g73
(dp6068
g81
I3
ssg82
g6062
sg75
(lp6069
S'/flisol2012/default/about'
p6070
asbasbasbasbasbasbasbag68
(g84
g70
NtRp6071
(dp6072
g73
(dp6073
sg82
g5118
sg75
(lp6074
g68
(g89
g70
NtRp6075
(dp6076
g73
(dp6077
sg82
g6071
sg75
(lp6078
g68
(g69
g70
NtRp6079
(dp6080
g73
(dp6081
g81
I4
ssg82
g6075
sg75
(lp6082
g68
(g77
g70
NtRp6083
(dp6084
g73
(dp6085
g81
I3
ssg82
Nsg75
(lp6086
g68
(g84
g70
NtRp6087
(dp6088
g73
(dp6089
sg82
g6083
sg75
(lp6090
g68
(g89
g70
NtRp6091
(dp6092
g73
(dp6093
sg82
g6087
sg75
(lp6094
g68
(g69
g70
NtRp6095
(dp6096
g73
(dp6097
g81
I3
ssg82
g6091
sg75
(lp6098
g5150
(S't\x08\x00\x00\x00Expenses'
tRp6099
asbasbasbag68
(g84
g70
NtRp6100
(dp6101
g73
(dp6102
sg82
g6083
sg75
(lp6103
g68
(g89
g70
NtRp6104
(dp6105
g73
(dp6106
sg82
g6100
sg75
(lp6107
g68
(g69
g70
NtRp6108
(dp6109
g73
(dp6110
g81
I3
ssg82
g6104
sg75
(lp6111
g1874
asbasbasbag68
(g84
g70
NtRp6112
(dp6113
g73
(dp6114
sg82
g6083
sg75
(lp6115
g68
(g89
g70
NtRp6116
(dp6117
g73
(dp6118
sg82
g6112
sg75
(lp6119
g68
(g69
g70
NtRp6120
(dp6121
g73
(dp6122
g81
I3
ssg82
g6116
sg75
(lp6123
S'/flisol2012/expenses/index'
p6124
asbasbasbasbasbasbasbag68
(g84
g70
NtRp6125
(dp6126
g73
(dp6127
sg82
g5118
sg75
(lp6128
g68
(g89
g70
NtRp6129
(dp6130
g73
(dp6131
sg82
g6125
sg75
(lp6132
g68
(g69
g70
NtRp6133
(dp6134
g73
(dp6135
g81
I4
ssg82
g6129
sg75
(lp6136
g68
(g77
g70
NtRp6137
(dp6138
g73
(dp6139
g81
I3
ssg82
Nsg75
(lp6140
g68
(g84
g70
NtRp6141
(dp6142
g73
(dp6143
sg82
g6137
sg75
(lp6144
g68
(g89
g70
NtRp6145
(dp6146
g73
(dp6147
sg82
g6141
sg75
(lp6148
g68
(g69
g70
NtRp6149
(dp6150
g73
(dp6151
g81
I3
ssg82
g6145
sg75
(lp6152
g5150
(S't\x06\x00\x00\x00Perfil'
tRp6153
asbasbasbag68
(g84
g70
NtRp6154
(dp6155
g73
(dp6156
sg82
g6137
sg75
(lp6157
g68
(g89
g70
NtRp6158
(dp6159
g73
(dp6160
sg82
g6154
sg75
(lp6161
g68
(g69
g70
NtRp6162
(dp6163
g73
(dp6164
g81
I3
ssg82
g6158
sg75
(lp6165
g111
asbasbasbag68
(g84
g70
NtRp6166
(dp6167
g73
(dp6168
sg82
g6137
sg75
(lp6169
g68
(g89
g70
NtRp6170
(dp6171
g73
(dp6172
sg82
g6166
sg75
(lp6173
g68
(g69
g70
NtRp6174
(dp6175
g73
(dp6176
g81
I3
ssg82
g6170
sg75
(lp6177
S'/flisol2012/default/profile'
p6178
asbasbasbasbasbasbasbag68
(g84
g70
NtRp6179
(dp6180
g73
(dp6181
sg82
g5118
sg75
(lp6182
g68
(g89
g70
NtRp6183
(dp6184
g73
(dp6185
sg82
g6179
sg75
(lp6186
g68
(g69
g70
NtRp6187
(dp6188
g73
(dp6189
g81
I4
ssg82
g6183
sg75
(lp6190
g68
(g77
g70
NtRp6191
(dp6192
g73
(dp6193
g81
I3
ssg82
Nsg75
(lp6194
g68
(g84
g70
NtRp6195
(dp6196
g73
(dp6197
sg82
g6191
sg75
(lp6198
g68
(g89
g70
NtRp6199
(dp6200
g73
(dp6201
sg82
g6195
sg75
(lp6202
g68
(g69
g70
NtRp6203
(dp6204
g73
(dp6205
g81
I3
ssg82
g6199
sg75
(lp6206
g5150
(S's\x0e\x00\x00\x00Cerrar Sesi\xc3\xb3n'
tRp6207
asbasbasbag68
(g84
g70
NtRp6208
(dp6209
g73
(dp6210
sg82
g6191
sg75
(lp6211
g68
(g89
g70
NtRp6212
(dp6213
g73
(dp6214
sg82
g6208
sg75
(lp6215
g68
(g69
g70
NtRp6216
(dp6217
g73
(dp6218
g81
I3
ssg82
g6212
sg75
(lp6219
g111
asbasbasbag68
(g84
g70
NtRp6220
(dp6221
g73
(dp6222
sg82
g6191
sg75
(lp6223
g68
(g89
g70
NtRp6224
(dp6225
g73
(dp6226
sg82
g6220
sg75
(lp6227
g68
(g69
g70
NtRp6228
(dp6229
g73
(dp6230
g81
I3
ssg82
g6224
sg75
(lp6231
S'/flisol2012/default/logout'
p6232
asbasbasbasbasbasbasbag68
(g84
g70
NtRp6233
(dp6234
g73
(dp6235
sg82
g5118
sg75
(lp6236
g68
(g89
g70
NtRp6237
(dp6238
g73
(dp6239
sg82
g6233
sg75
(lp6240
g68
(g69
g70
NtRp6241
(dp6242
g73
(dp6243
g81
I4
ssg82
g6237
sg75
(lp6244
g68
(g77
g70
NtRp6245
(dp6246
g73
(dp6247
g81
I3
ssg82
Nsg75
(lp6248
g68
(g84
g70
NtRp6249
(dp6250
g73
(dp6251
sg82
g6245
sg75
(lp6252
g68
(g89
g70
NtRp6253
(dp6254
g73
(dp6255
sg82
g6249
sg75
(lp6256
g68
(g69
g70
NtRp6257
(dp6258
g73
(dp6259
g81
I3
ssg82
g6253
sg75
(lp6260
g5150
(S't\n\x00\x00\x00Administre'
tRp6261
asbasbasbag68
(g84
g70
NtRp6262
(dp6263
g73
(dp6264
sg82
g6245
sg75
(lp6265
g68
(g89
g70
NtRp6266
(dp6267
g73
(dp6268
sg82
g6262
sg75
(lp6269
g68
(g69
g70
NtRp6270
(dp6271
g73
(dp6272
g81
I3
ssg82
g6266
sg75
(lp6273
g111
asbasbasbag68
(g84
g70
NtRp6274
(dp6275
g73
(dp6276
sg82
g6245
sg75
(lp6277
g68
(g89
g70
NtRp6278
(dp6279
g73
(dp6280
sg82
g6274
sg75
(lp6281
g68
(g69
g70
NtRp6282
(dp6283
g73
(dp6284
g81
I3
ssg82
g6278
sg75
(lp6285
S'#'
asbasbasbag68
(g84
g70
NtRp6286
(dp6287
g73
(dp6288
sg82
g6245
sg75
(lp6289
g68
(g89
g70
NtRp6290
(dp6291
g73
(dp6292
sg82
g6286
sg75
(lp6293
g68
(g69
g70
NtRp6294
(dp6295
g73
(dp6296
g81
I3
ssg82
g6290
sg75
(lp6297
g68
(g77
g70
NtRp6298
(dp6299
g73
(dp6300
g81
I2
ssg82
Nsg75
(lp6301
g68
(g84
g70
NtRp6302
(dp6303
g73
(dp6304
sg82
g6298
sg75
(lp6305
g68
(g89
g70
NtRp6306
(dp6307
g73
(dp6308
sg82
g6302
sg75
(lp6309
g68
(g69
g70
NtRp6310
(dp6311
g73
(dp6312
g81
I2
ssg82
g6306
sg75
(lp6313
g68
(g77
g70
NtRp6314
(dp6315
g73
(dp6316
g81
I1
ssg82
Nsg75
(lp6317
g68
(g84
g70
NtRp6318
(dp6319
g73
(dp6320
sg82
g6314
sg75
(lp6321
g68
(g89
g70
NtRp6322
(dp6323
g73
(dp6324
sg82
g6318
sg75
(lp6325
g68
(g69
g70
NtRp6326
(dp6327
g73
(dp6328
g81
I1
ssg82
g6322
sg75
(lp6329
g5150
(S't\x08\x00\x00\x00Finanzas'
tRp6330
asbasbasbag68
(g84
g70
NtRp6331
(dp6332
g73
(dp6333
sg82
g6314
sg75
(lp6334
g68
(g89
g70
NtRp6335
(dp6336
g73
(dp6337
sg82
g6331
sg75
(lp6338
g68
(g69
g70
NtRp6339
(dp6340
g73
(dp6341
g81
I1
ssg82
g6335
sg75
(lp6342
I00
asbasbasbag68
(g84
g70
NtRp6343
(dp6344
g73
(dp6345
sg82
g6314
sg75
(lp6346
g68
(g89
g70
NtRp6347
(dp6348
g73
(dp6349
sg82
g6343
sg75
(lp6350
g68
(g69
g70
NtRp6351
(dp6352
g73
(dp6353
g81
I1
ssg82
g6347
sg75
(lp6354
S'/flisol2012/default/financials'
p6355
asbasbasbasbasbasbasbag68
(g84
g70
NtRp6356
(dp6357
g73
(dp6358
sg82
g6298
sg75
(lp6359
g68
(g89
g70
NtRp6360
(dp6361
g73
(dp6362
sg82
g6356
sg75
(lp6363
g68
(g69
g70
NtRp6364
(dp6365
g73
(dp6366
g81
I2
ssg82
g6360
sg75
(lp6367
g68
(g77
g70
NtRp6368
(dp6369
g73
(dp6370
g81
I1
ssg82
Nsg75
(lp6371
g68
(g84
g70
NtRp6372
(dp6373
g73
(dp6374
sg82
g6368
sg75
(lp6375
g68
(g89
g70
NtRp6376
(dp6377
g73
(dp6378
sg82
g6372
sg75
(lp6379
g68
(g69
g70
NtRp6380
(dp6381
g73
(dp6382
g81
I1
ssg82
g6376
sg75
(lp6383
g5150
(S't\x05\x00\x00\x00Pagos'
tRp6384
asbasbasbag68
(g84
g70
NtRp6385
(dp6386
g73
(dp6387
sg82
g6368
sg75
(lp6388
g68
(g89
g70
NtRp6389
(dp6390
g73
(dp6391
sg82
g6385
sg75
(lp6392
g68
(g69
g70
NtRp6393
(dp6394
g73
(dp6395
g81
I1
ssg82
g6389
sg75
(lp6396
I00
asbasbasbag68
(g84
g70
NtRp6397
(dp6398
g73
(dp6399
sg82
g6368
sg75
(lp6400
g68
(g89
g70
NtRp6401
(dp6402
g73
(dp6403
sg82
g6397
sg75
(lp6404
g68
(g69
g70
NtRp6405
(dp6406
g73
(dp6407
g81
I1
ssg82
g6401
sg75
(lp6408
S'/flisol2012/default/payments'
p6409
asbasbasbasbasbasbasbag68
(g84
g70
NtRp6410
(dp6411
g73
(dp6412
sg82
g6298
sg75
(lp6413
g68
(g89
g70
NtRp6414
(dp6415
g73
(dp6416
sg82
g6410
sg75
(lp6417
g68
(g69
g70
NtRp6418
(dp6419
g73
(dp6420
g81
I2
ssg82
g6414
sg75
(lp6421
g68
(g77
g70
NtRp6422
(dp6423
g73
(dp6424
g81
I1
ssg82
Nsg75
(lp6425
g68
(g84
g70
NtRp6426
(dp6427
g73
(dp6428
sg82
g6422
sg75
(lp6429
g68
(g89
g70
NtRp6430
(dp6431
g73
(dp6432
sg82
g6426
sg75
(lp6433
g68
(g69
g70
NtRp6434
(dp6435
g73
(dp6436
g81
I1
ssg82
g6430
sg75
(lp6437
g5150
(S's!\x00\x00\x00Lista de correos de Participantes'
tRp6438
asbasbasbag68
(g84
g70
NtRp6439
(dp6440
g73
(dp6441
sg82
g6422
sg75
(lp6442
g68
(g89
g70
NtRp6443
(dp6444
g73
(dp6445
sg82
g6439
sg75
(lp6446
g68
(g69
g70
NtRp6447
(dp6448
g73
(dp6449
g81
I1
ssg82
g6443
sg75
(lp6450
I00
asbasbasbag68
(g84
g70
NtRp6451
(dp6452
g73
(dp6453
sg82
g6422
sg75
(lp6454
g68
(g89
g70
NtRp6455
(dp6456
g73
(dp6457
sg82
g6451
sg75
(lp6458
g68
(g69
g70
NtRp6459
(dp6460
g73
(dp6461
g81
I1
ssg82
g6455
sg75
(lp6462
S'/flisol2012/default/maillist'
p6463
asbasbasbasbasbasbasbag68
(g84
g70
NtRp6464
(dp6465
g73
(dp6466
sg82
g6298
sg75
(lp6467
g68
(g89
g70
NtRp6468
(dp6469
g73
(dp6470
sg82
g6464
sg75
(lp6471
g68
(g69
g70
NtRp6472
(dp6473
g73
(dp6474
g81
I2
ssg82
g6468
sg75
(lp6475
g68
(g77
g70
NtRp6476
(dp6477
g73
(dp6478
g81
I1
ssg82
Nsg75
(lp6479
g68
(g84
g70
NtRp6480
(dp6481
g73
(dp6482
sg82
g6476
sg75
(lp6483
g68
(g89
g70
NtRp6484
(dp6485
g73
(dp6486
sg82
g6480
sg75
(lp6487
g68
(g69
g70
NtRp6488
(dp6489
g73
(dp6490
g81
I1
ssg82
g6484
sg75
(lp6491
g5150
(S't\x10\x00\x00\x00Identificaciones'
tRp6492
asbasbasbag68
(g84
g70
NtRp6493
(dp6494
g73
(dp6495
sg82
g6476
sg75
(lp6496
g68
(g89
g70
NtRp6497
(dp6498
g73
(dp6499
sg82
g6493
sg75
(lp6500
g68
(g69
g70
NtRp6501
(dp6502
g73
(dp6503
g81
I1
ssg82
g6497
sg75
(lp6504
I00
asbasbasbag68
(g84
g70
NtRp6505
(dp6506
g73
(dp6507
sg82
g6476
sg75
(lp6508
g68
(g89
g70
NtRp6509
(dp6510
g73
(dp6511
sg82
g6505
sg75
(lp6512
g68
(g69
g70
NtRp6513
(dp6514
g73
(dp6515
g81
I1
ssg82
g6509
sg75
(lp6516
S'/flisol2012/default/badge/auth_user'
p6517
asbasbasbasbasbasbasbag68
(g84
g70
NtRp6518
(dp6519
g73
(dp6520
sg82
g6298
sg75
(lp6521
g68
(g89
g70
NtRp6522
(dp6523
g73
(dp6524
sg82
g6518
sg75
(lp6525
g68
(g69
g70
NtRp6526
(dp6527
g73
(dp6528
g81
I2
ssg82
g6522
sg75
(lp6529
g68
(g77
g70
NtRp6530
(dp6531
g73
(dp6532
g81
I1
ssg82
Nsg75
(lp6533
g68
(g84
g70
NtRp6534
(dp6535
g73
(dp6536
sg82
g6530
sg75
(lp6537
g68
(g89
g70
NtRp6538
(dp6539
g73
(dp6540
sg82
g6534
sg75
(lp6541
g68
(g69
g70
NtRp6542
(dp6543
g73
(dp6544
g81
I1
ssg82
g6538
sg75
(lp6545
g5150
(S't\n\x00\x00\x00Tutoriales'
tRp6546
asbasbasbag68
(g84
g70
NtRp6547
(dp6548
g73
(dp6549
sg82
g6530
sg75
(lp6550
g68
(g89
g70
NtRp6551
(dp6552
g73
(dp6553
sg82
g6547
sg75
(lp6554
g68
(g69
g70
NtRp6555
(dp6556
g73
(dp6557
g81
I1
ssg82
g6551
sg75
(lp6558
I00
asbasbasbag68
(g84
g70
NtRp6559
(dp6560
g73
(dp6561
sg82
g6530
sg75
(lp6562
g68
(g89
g70
NtRp6563
(dp6564
g73
(dp6565
sg82
g6559
sg75
(lp6566
g68
(g69
g70
NtRp6567
(dp6568
g73
(dp6569
g81
I1
ssg82
g6563
sg75
(lp6570
S'/flisol2012/default/list_by_tutorial'
p6571
asbasbasbasbasbasbasbag68
(g84
g70
NtRp6572
(dp6573
g73
(dp6574
sg82
g6298
sg75
(lp6575
g68
(g89
g70
NtRp6576
(dp6577
g73
(dp6578
sg82
g6572
sg75
(lp6579
g68
(g69
g70
NtRp6580
(dp6581
g73
(dp6582
g81
I2
ssg82
g6576
sg75
(lp6583
g68
(g77
g70
NtRp6584
(dp6585
g73
(dp6586
g81
I1
ssg82
Nsg75
(lp6587
g68
(g84
g70
NtRp6588
(dp6589
g73
(dp6590
sg82
g6584
sg75
(lp6591
g68
(g89
g70
NtRp6592
(dp6593
g73
(dp6594
sg82
g6588
sg75
(lp6595
g68
(g69
g70
NtRp6596
(dp6597
g73
(dp6598
g81
I1
ssg82
g6592
sg75
(lp6599
g5150
(S's\x0e\x00\x00\x00*** FA-CSV ???'
tRp6600
asbasbasbag68
(g84
g70
NtRp6601
(dp6602
g73
(dp6603
sg82
g6584
sg75
(lp6604
g68
(g89
g70
NtRp6605
(dp6606
g73
(dp6607
sg82
g6601
sg75
(lp6608
g68
(g69
g70
NtRp6609
(dp6610
g73
(dp6611
g81
I1
ssg82
g6605
sg75
(lp6612
I00
asbasbasbag68
(g84
g70
NtRp6613
(dp6614
g73
(dp6615
sg82
g6584
sg75
(lp6616
g68
(g89
g70
NtRp6617
(dp6618
g73
(dp6619
sg82
g6613
sg75
(lp6620
g68
(g69
g70
NtRp6621
(dp6622
g73
(dp6623
g81
I1
ssg82
g6617
sg75
(lp6624
S'/flisol2012/default/fa_csv'
p6625
asbasbasbasbasbasbasbag68
(g84
g70
NtRp6626
(dp6627
g73
(dp6628
sg82
g6298
sg75
(lp6629
g68
(g89
g70
NtRp6630
(dp6631
g73
(dp6632
sg82
g6626
sg75
(lp6633
g68
(g69
g70
NtRp6634
(dp6635
g73
(dp6636
g81
I2
ssg82
g6630
sg75
(lp6637
g68
(g77
g70
NtRp6638
(dp6639
g73
(dp6640
g81
I1
ssg82
Nsg75
(lp6641
g68
(g84
g70
NtRp6642
(dp6643
g73
(dp6644
sg82
g6638
sg75
(lp6645
g68
(g89
g70
NtRp6646
(dp6647
g73
(dp6648
sg82
g6642
sg75
(lp6649
g68
(g69
g70
NtRp6650
(dp6651
g73
(dp6652
g81
I1
ssg82
g6646
sg75
(lp6653
g5150
(S's\x16\x00\x00\x00*** FA-(email all) ???'
tRp6654
asbasbasbag68
(g84
g70
NtRp6655
(dp6656
g73
(dp6657
sg82
g6638
sg75
(lp6658
g68
(g89
g70
NtRp6659
(dp6660
g73
(dp6661
sg82
g6655
sg75
(lp6662
g68
(g69
g70
NtRp6663
(dp6664
g73
(dp6665
g81
I1
ssg82
g6659
sg75
(lp6666
I00
asbasbasbag68
(g84
g70
NtRp6667
(dp6668
g73
(dp6669
sg82
g6638
sg75
(lp6670
g68
(g89
g70
NtRp6671
(dp6672
g73
(dp6673
sg82
g6667
sg75
(lp6674
g68
(g69
g70
NtRp6675
(dp6676
g73
(dp6677
g81
I1
ssg82
g6671
sg75
(lp6678
S'/flisol2012/default/fa_email_all'
p6679
asbasbasbasbasbasbasbag68
(g84
g70
NtRp6680
(dp6681
g73
(dp6682
sg82
g6298
sg75
(lp6683
g68
(g89
g70
NtRp6684
(dp6685
g73
(dp6686
sg82
g6680
sg75
(lp6687
g68
(g69
g70
NtRp6688
(dp6689
g73
(dp6690
g81
I2
ssg82
g6684
sg75
(lp6691
g68
(g77
g70
NtRp6692
(dp6693
g73
(dp6694
g81
I1
ssg82
Nsg75
(lp6695
g68
(g84
g70
NtRp6696
(dp6697
g73
(dp6698
sg82
g6692
sg75
(lp6699
g68
(g89
g70
NtRp6700
(dp6701
g73
(dp6702
sg82
g6696
sg75
(lp6703
g68
(g69
g70
NtRp6704
(dp6705
g73
(dp6706
g81
I1
ssg82
g6700
sg75
(lp6707
S'[auth_user]'
p6708
asbasbasbag68
(g84
g70
NtRp6709
(dp6710
g73
(dp6711
sg82
g6692
sg75
(lp6712
g68
(g89
g70
NtRp6713
(dp6714
g73
(dp6715
sg82
g6709
sg75
(lp6716
g68
(g69
g70
NtRp6717
(dp6718
g73
(dp6719
g81
I1
ssg82
g6713
sg75
(lp6720
I00
asbasbasbag68
(g84
g70
NtRp6721
(dp6722
g73
(dp6723
sg82
g6692
sg75
(lp6724
g68
(g89
g70
NtRp6725
(dp6726
g73
(dp6727
sg82
g6721
sg75
(lp6728
g68
(g69
g70
NtRp6729
(dp6730
g73
(dp6731
g81
I1
ssg82
g6725
sg75
(lp6732
S'/flisol2012/default/create/auth_user'
p6733
asbasbasbasbasbasbasbag68
(g84
g70
NtRp6734
(dp6735
g73
(dp6736
sg82
g6298
sg75
(lp6737
g68
(g89
g70
NtRp6738
(dp6739
g73
(dp6740
sg82
g6734
sg75
(lp6741
g68
(g69
g70
NtRp6742
(dp6743
g73
(dp6744
g81
I2
ssg82
g6738
sg75
(lp6745
g68
(g77
g70
NtRp6746
(dp6747
g73
(dp6748
g81
I1
ssg82
Nsg75
(lp6749
g68
(g84
g70
NtRp6750
(dp6751
g73
(dp6752
sg82
g6746
sg75
(lp6753
g68
(g89
g70
NtRp6754
(dp6755
g73
(dp6756
sg82
g6750
sg75
(lp6757
g68
(g69
g70
NtRp6758
(dp6759
g73
(dp6760
g81
I1
ssg82
g6754
sg75
(lp6761
S'[auth_group]'
p6762
asbasbasbag68
(g84
g70
NtRp6763
(dp6764
g73
(dp6765
sg82
g6746
sg75
(lp6766
g68
(g89
g70
NtRp6767
(dp6768
g73
(dp6769
sg82
g6763
sg75
(lp6770
g68
(g69
g70
NtRp6771
(dp6772
g73
(dp6773
g81
I1
ssg82
g6767
sg75
(lp6774
I00
asbasbasbag68
(g84
g70
NtRp6775
(dp6776
g73
(dp6777
sg82
g6746
sg75
(lp6778
g68
(g89
g70
NtRp6779
(dp6780
g73
(dp6781
sg82
g6775
sg75
(lp6782
g68
(g69
g70
NtRp6783
(dp6784
g73
(dp6785
g81
I1
ssg82
g6779
sg75
(lp6786
S'/flisol2012/default/create/auth_group'
p6787
asbasbasbasbasbasbasbag68
(g84
g70
NtRp6788
(dp6789
g73
(dp6790
sg82
g6298
sg75
(lp6791
g68
(g89
g70
NtRp6792
(dp6793
g73
(dp6794
sg82
g6788
sg75
(lp6795
g68
(g69
g70
NtRp6796
(dp6797
g73
(dp6798
g81
I2
ssg82
g6792
sg75
(lp6799
g68
(g77
g70
NtRp6800
(dp6801
g73
(dp6802
g81
I1
ssg82
Nsg75
(lp6803
g68
(g84
g70
NtRp6804
(dp6805
g73
(dp6806
sg82
g6800
sg75
(lp6807
g68
(g89
g70
NtRp6808
(dp6809
g73
(dp6810
sg82
g6804
sg75
(lp6811
g68
(g69
g70
NtRp6812
(dp6813
g73
(dp6814
g81
I1
ssg82
g6808
sg75
(lp6815
S'[auth_membership]'
p6816
asbasbasbag68
(g84
g70
NtRp6817
(dp6818
g73
(dp6819
sg82
g6800
sg75
(lp6820
g68
(g89
g70
NtRp6821
(dp6822
g73
(dp6823
sg82
g6817
sg75
(lp6824
g68
(g69
g70
NtRp6825
(dp6826
g73
(dp6827
g81
I1
ssg82
g6821
sg75
(lp6828
I00
asbasbasbag68
(g84
g70
NtRp6829
(dp6830
g73
(dp6831
sg82
g6800
sg75
(lp6832
g68
(g89
g70
NtRp6833
(dp6834
g73
(dp6835
sg82
g6829
sg75
(lp6836
g68
(g69
g70
NtRp6837
(dp6838
g73
(dp6839
g81
I1
ssg82
g6833
sg75
(lp6840
S'/flisol2012/default/create/auth_membership'
p6841
asbasbasbasbasbasbasbag68
(g84
g70
NtRp6842
(dp6843
g73
(dp6844
sg82
g6298
sg75
(lp6845
g68
(g89
g70
NtRp6846
(dp6847
g73
(dp6848
sg82
g6842
sg75
(lp6849
g68
(g69
g70
NtRp6850
(dp6851
g73
(dp6852
g81
I2
ssg82
g6846
sg75
(lp6853
g68
(g77
g70
NtRp6854
(dp6855
g73
(dp6856
g81
I1
ssg82
Nsg75
(lp6857
g68
(g84
g70
NtRp6858
(dp6859
g73
(dp6860
sg82
g6854
sg75
(lp6861
g68
(g89
g70
NtRp6862
(dp6863
g73
(dp6864
sg82
g6858
sg75
(lp6865
g68
(g69
g70
NtRp6866
(dp6867
g73
(dp6868
g81
I1
ssg82
g6862
sg75
(lp6869
S'[auth_permission]'
p6870
asbasbasbag68
(g84
g70
NtRp6871
(dp6872
g73
(dp6873
sg82
g6854
sg75
(lp6874
g68
(g89
g70
NtRp6875
(dp6876
g73
(dp6877
sg82
g6871
sg75
(lp6878
g68
(g69
g70
NtRp6879
(dp6880
g73
(dp6881
g81
I1
ssg82
g6875
sg75
(lp6882
I00
asbasbasbag68
(g84
g70
NtRp6883
(dp6884
g73
(dp6885
sg82
g6854
sg75
(lp6886
g68
(g89
g70
NtRp6887
(dp6888
g73
(dp6889
sg82
g6883
sg75
(lp6890
g68
(g69
g70
NtRp6891
(dp6892
g73
(dp6893
g81
I1
ssg82
g6887
sg75
(lp6894
S'/flisol2012/default/create/auth_permission'
p6895
asbasbasbasbasbasbasbag68
(g84
g70
NtRp6896
(dp6897
g73
(dp6898
sg82
g6298
sg75
(lp6899
g68
(g89
g70
NtRp6900
(dp6901
g73
(dp6902
sg82
g6896
sg75
(lp6903
g68
(g69
g70
NtRp6904
(dp6905
g73
(dp6906
g81
I2
ssg82
g6900
sg75
(lp6907
g68
(g77
g70
NtRp6908
(dp6909
g73
(dp6910
g81
I1
ssg82
Nsg75
(lp6911
g68
(g84
g70
NtRp6912
(dp6913
g73
(dp6914
sg82
g6908
sg75
(lp6915
g68
(g89
g70
NtRp6916
(dp6917
g73
(dp6918
sg82
g6912
sg75
(lp6919
g68
(g69
g70
NtRp6920
(dp6921
g73
(dp6922
g81
I1
ssg82
g6916
sg75
(lp6923
S'[auth_event]'
p6924
asbasbasbag68
(g84
g70
NtRp6925
(dp6926
g73
(dp6927
sg82
g6908
sg75
(lp6928
g68
(g89
g70
NtRp6929
(dp6930
g73
(dp6931
sg82
g6925
sg75
(lp6932
g68
(g69
g70
NtRp6933
(dp6934
g73
(dp6935
g81
I1
ssg82
g6929
sg75
(lp6936
I00
asbasbasbag68
(g84
g70
NtRp6937
(dp6938
g73
(dp6939
sg82
g6908
sg75
(lp6940
g68
(g89
g70
NtRp6941
(dp6942
g73
(dp6943
sg82
g6937
sg75
(lp6944
g68
(g69
g70
NtRp6945
(dp6946
g73
(dp6947
g81
I1
ssg82
g6941
sg75
(lp6948
S'/flisol2012/default/create/auth_event'
p6949
asbasbasbasbasbasbasbag68
(g84
g70
NtRp6950
(dp6951
g73
(dp6952
sg82
g6298
sg75
(lp6953
g68
(g89
g70
NtRp6954
(dp6955
g73
(dp6956
sg82
g6950
sg75
(lp6957
g68
(g69
g70
NtRp6958
(dp6959
g73
(dp6960
g81
I2
ssg82
g6954
sg75
(lp6961
g68
(g77
g70
NtRp6962
(dp6963
g73
(dp6964
g81
I1
ssg82
Nsg75
(lp6965
g68
(g84
g70
NtRp6966
(dp6967
g73
(dp6968
sg82
g6962
sg75
(lp6969
g68
(g89
g70
NtRp6970
(dp6971
g73
(dp6972
sg82
g6966
sg75
(lp6973
g68
(g69
g70
NtRp6974
(dp6975
g73
(dp6976
g81
I1
ssg82
g6970
sg75
(lp6977
S'[auth_cas]'
p6978
asbasbasbag68
(g84
g70
NtRp6979
(dp6980
g73
(dp6981
sg82
g6962
sg75
(lp6982
g68
(g89
g70
NtRp6983
(dp6984
g73
(dp6985
sg82
g6979
sg75
(lp6986
g68
(g69
g70
NtRp6987
(dp6988
g73
(dp6989
g81
I1
ssg82
g6983
sg75
(lp6990
I00
asbasbasbag68
(g84
g70
NtRp6991
(dp6992
g73
(dp6993
sg82
g6962
sg75
(lp6994
g68
(g89
g70
NtRp6995
(dp6996
g73
(dp6997
sg82
g6991
sg75
(lp6998
g68
(g69
g70
NtRp6999
(dp7000
g73
(dp7001
g81
I1
ssg82
g6995
sg75
(lp7002
S'/flisol2012/default/create/auth_cas'
p7003
asbasbasbasbasbasbasbag68
(g84
g70
NtRp7004
(dp7005
g73
(dp7006
sg82
g6298
sg75
(lp7007
g68
(g89
g70
NtRp7008
(dp7009
g73
(dp7010
sg82
g7004
sg75
(lp7011
g68
(g69
g70
NtRp7012
(dp7013
g73
(dp7014
g81
I2
ssg82
g7008
sg75
(lp7015
g68
(g77
g70
NtRp7016
(dp7017
g73
(dp7018
g81
I1
ssg82
Nsg75
(lp7019
g68
(g84
g70
NtRp7020
(dp7021
g73
(dp7022
sg82
g7016
sg75
(lp7023
g68
(g89
g70
NtRp7024
(dp7025
g73
(dp7026
sg82
g7020
sg75
(lp7027
g68
(g69
g70
NtRp7028
(dp7029
g73
(dp7030
g81
I1
ssg82
g7024
sg75
(lp7031
S'[payment]'
p7032
asbasbasbag68
(g84
g70
NtRp7033
(dp7034
g73
(dp7035
sg82
g7016
sg75
(lp7036
g68
(g89
g70
NtRp7037
(dp7038
g73
(dp7039
sg82
g7033
sg75
(lp7040
g68
(g69
g70
NtRp7041
(dp7042
g73
(dp7043
g81
I1
ssg82
g7037
sg75
(lp7044
I00
asbasbasbag68
(g84
g70
NtRp7045
(dp7046
g73
(dp7047
sg82
g7016
sg75
(lp7048
g68
(g89
g70
NtRp7049
(dp7050
g73
(dp7051
sg82
g7045
sg75
(lp7052
g68
(g69
g70
NtRp7053
(dp7054
g73
(dp7055
g81
I1
ssg82
g7049
sg75
(lp7056
S'/flisol2012/default/create/payment'
p7057
asbasbasbasbasbasbasbag68
(g84
g70
NtRp7058
(dp7059
g73
(dp7060
sg82
g6298
sg75
(lp7061
g68
(g89
g70
NtRp7062
(dp7063
g73
(dp7064
sg82
g7058
sg75
(lp7065
g68
(g69
g70
NtRp7066
(dp7067
g73
(dp7068
g81
I2
ssg82
g7062
sg75
(lp7069
g68
(g77
g70
NtRp7070
(dp7071
g73
(dp7072
g81
I1
ssg82
Nsg75
(lp7073
g68
(g84
g70
NtRp7074
(dp7075
g73
(dp7076
sg82
g7070
sg75
(lp7077
g68
(g89
g70
NtRp7078
(dp7079
g73
(dp7080
sg82
g7074
sg75
(lp7081
g68
(g69
g70
NtRp7082
(dp7083
g73
(dp7084
g81
I1
ssg82
g7078
sg75
(lp7085
S'[money_transfer]'
p7086
asbasbasbag68
(g84
g70
NtRp7087
(dp7088
g73
(dp7089
sg82
g7070
sg75
(lp7090
g68
(g89
g70
NtRp7091
(dp7092
g73
(dp7093
sg82
g7087
sg75
(lp7094
g68
(g69
g70
NtRp7095
(dp7096
g73
(dp7097
g81
I1
ssg82
g7091
sg75
(lp7098
I00
asbasbasbag68
(g84
g70
NtRp7099
(dp7100
g73
(dp7101
sg82
g7070
sg75
(lp7102
g68
(g89
g70
NtRp7103
(dp7104
g73
(dp7105
sg82
g7099
sg75
(lp7106
g68
(g69
g70
NtRp7107
(dp7108
g73
(dp7109
g81
I1
ssg82
g7103
sg75
(lp7110
S'/flisol2012/default/create/money_transfer'
p7111
asbasbasbasbasbasbasbag68
(g84
g70
NtRp7112
(dp7113
g73
(dp7114
sg82
g6298
sg75
(lp7115
g68
(g89
g70
NtRp7116
(dp7117
g73
(dp7118
sg82
g7112
sg75
(lp7119
g68
(g69
g70
NtRp7120
(dp7121
g73
(dp7122
g81
I2
ssg82
g7116
sg75
(lp7123
g68
(g77
g70
NtRp7124
(dp7125
g73
(dp7126
g81
I1
ssg82
Nsg75
(lp7127
g68
(g84
g70
NtRp7128
(dp7129
g73
(dp7130
sg82
g7124
sg75
(lp7131
g68
(g89
g70
NtRp7132
(dp7133
g73
(dp7134
sg82
g7128
sg75
(lp7135
g68
(g69
g70
NtRp7136
(dp7137
g73
(dp7138
g81
I1
ssg82
g7132
sg75
(lp7139
S'[coupon]'
p7140
asbasbasbag68
(g84
g70
NtRp7141
(dp7142
g73
(dp7143
sg82
g7124
sg75
(lp7144
g68
(g89
g70
NtRp7145
(dp7146
g73
(dp7147
sg82
g7141
sg75
(lp7148
g68
(g69
g70
NtRp7149
(dp7150
g73
(dp7151
g81
I1
ssg82
g7145
sg75
(lp7152
I00
asbasbasbag68
(g84
g70
NtRp7153
(dp7154
g73
(dp7155
sg82
g7124
sg75
(lp7156
g68
(g89
g70
NtRp7157
(dp7158
g73
(dp7159
sg82
g7153
sg75
(lp7160
g68
(g69
g70
NtRp7161
(dp7162
g73
(dp7163
g81
I1
ssg82
g7157
sg75
(lp7164
S'/flisol2012/default/create/coupon'
p7165
asbasbasbasbasbasbasbag68
(g84
g70
NtRp7166
(dp7167
g73
(dp7168
sg82
g6298
sg75
(lp7169
g68
(g89
g70
NtRp7170
(dp7171
g73
(dp7172
sg82
g7166
sg75
(lp7173
g68
(g69
g70
NtRp7174
(dp7175
g73
(dp7176
g81
I2
ssg82
g7170
sg75
(lp7177
g68
(g77
g70
NtRp7178
(dp7179
g73
(dp7180
g81
I1
ssg82
Nsg75
(lp7181
g68
(g84
g70
NtRp7182
(dp7183
g73
(dp7184
sg82
g7178
sg75
(lp7185
g68
(g89
g70
NtRp7186
(dp7187
g73
(dp7188
sg82
g7182
sg75
(lp7189
g68
(g69
g70
NtRp7190
(dp7191
g73
(dp7192
g81
I1
ssg82
g7186
sg75
(lp7193
S'[talk]'
p7194
asbasbasbag68
(g84
g70
NtRp7195
(dp7196
g73
(dp7197
sg82
g7178
sg75
(lp7198
g68
(g89
g70
NtRp7199
(dp7200
g73
(dp7201
sg82
g7195
sg75
(lp7202
g68
(g69
g70
NtRp7203
(dp7204
g73
(dp7205
g81
I1
ssg82
g7199
sg75
(lp7206
I00
asbasbasbag68
(g84
g70
NtRp7207
(dp7208
g73
(dp7209
sg82
g7178
sg75
(lp7210
g68
(g89
g70
NtRp7211
(dp7212
g73
(dp7213
sg82
g7207
sg75
(lp7214
g68
(g69
g70
NtRp7215
(dp7216
g73
(dp7217
g81
I1
ssg82
g7211
sg75
(lp7218
S'/flisol2012/default/create/talk'
p7219
asbasbasbasbasbasbasbag68
(g84
g70
NtRp7220
(dp7221
g73
(dp7222
sg82
g6298
sg75
(lp7223
g68
(g89
g70
NtRp7224
(dp7225
g73
(dp7226
sg82
g7220
sg75
(lp7227
g68
(g69
g70
NtRp7228
(dp7229
g73
(dp7230
g81
I2
ssg82
g7224
sg75
(lp7231
g68
(g77
g70
NtRp7232
(dp7233
g73
(dp7234
g81
I1
ssg82
Nsg75
(lp7235
g68
(g84
g70
NtRp7236
(dp7237
g73
(dp7238
sg82
g7232
sg75
(lp7239
g68
(g89
g70
NtRp7240
(dp7241
g73
(dp7242
sg82
g7236
sg75
(lp7243
g68
(g69
g70
NtRp7244
(dp7245
g73
(dp7246
g81
I1
ssg82
g7240
sg75
(lp7247
S'[talk_archived]'
p7248
asbasbasbag68
(g84
g70
NtRp7249
(dp7250
g73
(dp7251
sg82
g7232
sg75
(lp7252
g68
(g89
g70
NtRp7253
(dp7254
g73
(dp7255
sg82
g7249
sg75
(lp7256
g68
(g69
g70
NtRp7257
(dp7258
g73
(dp7259
g81
I1
ssg82
g7253
sg75
(lp7260
I00
asbasbasbag68
(g84
g70
NtRp7261
(dp7262
g73
(dp7263
sg82
g7232
sg75
(lp7264
g68
(g89
g70
NtRp7265
(dp7266
g73
(dp7267
sg82
g7261
sg75
(lp7268
g68
(g69
g70
NtRp7269
(dp7270
g73
(dp7271
g81
I1
ssg82
g7265
sg75
(lp7272
S'/flisol2012/default/create/talk_archived'
p7273
asbasbasbasbasbasbasbag68
(g84
g70
NtRp7274
(dp7275
g73
(dp7276
sg82
g6298
sg75
(lp7277
g68
(g89
g70
NtRp7278
(dp7279
g73
(dp7280
sg82
g7274
sg75
(lp7281
g68
(g69
g70
NtRp7282
(dp7283
g73
(dp7284
g81
I2
ssg82
g7278
sg75
(lp7285
g68
(g77
g70
NtRp7286
(dp7287
g73
(dp7288
g81
I1
ssg82
Nsg75
(lp7289
g68
(g84
g70
NtRp7290
(dp7291
g73
(dp7292
sg82
g7286
sg75
(lp7293
g68
(g89
g70
NtRp7294
(dp7295
g73
(dp7296
sg82
g7290
sg75
(lp7297
g68
(g69
g70
NtRp7298
(dp7299
g73
(dp7300
g81
I1
ssg82
g7294
sg75
(lp7301
S'[fa]'
p7302
asbasbasbag68
(g84
g70
NtRp7303
(dp7304
g73
(dp7305
sg82
g7286
sg75
(lp7306
g68
(g89
g70
NtRp7307
(dp7308
g73
(dp7309
sg82
g7303
sg75
(lp7310
g68
(g69
g70
NtRp7311
(dp7312
g73
(dp7313
g81
I1
ssg82
g7307
sg75
(lp7314
I00
asbasbasbag68
(g84
g70
NtRp7315
(dp7316
g73
(dp7317
sg82
g7286
sg75
(lp7318
g68
(g89
g70
NtRp7319
(dp7320
g73
(dp7321
sg82
g7315
sg75
(lp7322
g68
(g69
g70
NtRp7323
(dp7324
g73
(dp7325
g81
I1
ssg82
g7319
sg75
(lp7326
S'/flisol2012/default/create/fa'
p7327
asbasbasbasbasbasbasbag68
(g84
g70
NtRp7328
(dp7329
g73
(dp7330
sg82
g6298
sg75
(lp7331
g68
(g89
g70
NtRp7332
(dp7333
g73
(dp7334
sg82
g7328
sg75
(lp7335
g68
(g69
g70
NtRp7336
(dp7337
g73
(dp7338
g81
I2
ssg82
g7332
sg75
(lp7339
g68
(g77
g70
NtRp7340
(dp7341
g73
(dp7342
g81
I1
ssg82
Nsg75
(lp7343
g68
(g84
g70
NtRp7344
(dp7345
g73
(dp7346
sg82
g7340
sg75
(lp7347
g68
(g89
g70
NtRp7348
(dp7349
g73
(dp7350
sg82
g7344
sg75
(lp7351
g68
(g69
g70
NtRp7352
(dp7353
g73
(dp7354
g81
I1
ssg82
g7348
sg75
(lp7355
S'[person]'
p7356
asbasbasbag68
(g84
g70
NtRp7357
(dp7358
g73
(dp7359
sg82
g7340
sg75
(lp7360
g68
(g89
g70
NtRp7361
(dp7362
g73
(dp7363
sg82
g7357
sg75
(lp7364
g68
(g69
g70
NtRp7365
(dp7366
g73
(dp7367
g81
I1
ssg82
g7361
sg75
(lp7368
I00
asbasbasbag68
(g84
g70
NtRp7369
(dp7370
g73
(dp7371
sg82
g7340
sg75
(lp7372
g68
(g89
g70
NtRp7373
(dp7374
g73
(dp7375
sg82
g7369
sg75
(lp7376
g68
(g69
g70
NtRp7377
(dp7378
g73
(dp7379
g81
I1
ssg82
g7373
sg75
(lp7380
S'/flisol2012/default/create/t2_person'
p7381
asbasbasbasbasbasbasbag68
(g84
g70
NtRp7382
(dp7383
g73
(dp7384
sg82
g6298
sg75
(lp7385
g68
(g89
g70
NtRp7386
(dp7387
g73
(dp7388
sg82
g7382
sg75
(lp7389
g68
(g69
g70
NtRp7390
(dp7391
g73
(dp7392
g81
I2
ssg82
g7386
sg75
(lp7393
g68
(g77
g70
NtRp7394
(dp7395
g73
(dp7396
g81
I1
ssg82
Nsg75
(lp7397
g68
(g84
g70
NtRp7398
(dp7399
g73
(dp7400
sg82
g7394
sg75
(lp7401
g68
(g89
g70
NtRp7402
(dp7403
g73
(dp7404
sg82
g7398
sg75
(lp7405
g68
(g69
g70
NtRp7406
(dp7407
g73
(dp7408
g81
I1
ssg82
g7402
sg75
(lp7409
S'[group]'
p7410
asbasbasbag68
(g84
g70
NtRp7411
(dp7412
g73
(dp7413
sg82
g7394
sg75
(lp7414
g68
(g89
g70
NtRp7415
(dp7416
g73
(dp7417
sg82
g7411
sg75
(lp7418
g68
(g69
g70
NtRp7419
(dp7420
g73
(dp7421
g81
I1
ssg82
g7415
sg75
(lp7422
I00
asbasbasbag68
(g84
g70
NtRp7423
(dp7424
g73
(dp7425
sg82
g7394
sg75
(lp7426
g68
(g89
g70
NtRp7427
(dp7428
g73
(dp7429
sg82
g7423
sg75
(lp7430
g68
(g69
g70
NtRp7431
(dp7432
g73
(dp7433
g81
I1
ssg82
g7427
sg75
(lp7434
S'/flisol2012/default/create/t2_group'
p7435
asbasbasbasbasbasbasbag68
(g84
g70
NtRp7436
(dp7437
g73
(dp7438
sg82
g6298
sg75
(lp7439
g68
(g89
g70
NtRp7440
(dp7441
g73
(dp7442
sg82
g7436
sg75
(lp7443
g68
(g69
g70
NtRp7444
(dp7445
g73
(dp7446
g81
I2
ssg82
g7440
sg75
(lp7447
g68
(g77
g70
NtRp7448
(dp7449
g73
(dp7450
g81
I1
ssg82
Nsg75
(lp7451
g68
(g84
g70
NtRp7452
(dp7453
g73
(dp7454
sg82
g7448
sg75
(lp7455
g68
(g89
g70
NtRp7456
(dp7457
g73
(dp7458
sg82
g7452
sg75
(lp7459
g68
(g69
g70
NtRp7460
(dp7461
g73
(dp7462
g81
I1
ssg82
g7456
sg75
(lp7463
S'[membership]'
p7464
asbasbasbag68
(g84
g70
NtRp7465
(dp7466
g73
(dp7467
sg82
g7448
sg75
(lp7468
g68
(g89
g70
NtRp7469
(dp7470
g73
(dp7471
sg82
g7465
sg75
(lp7472
g68
(g69
g70
NtRp7473
(dp7474
g73
(dp7475
g81
I1
ssg82
g7469
sg75
(lp7476
I00
asbasbasbag68
(g84
g70
NtRp7477
(dp7478
g73
(dp7479
sg82
g7448
sg75
(lp7480
g68
(g89
g70
NtRp7481
(dp7482
g73
(dp7483
sg82
g7477
sg75
(lp7484
g68
(g69
g70
NtRp7485
(dp7486
g73
(dp7487
g81
I1
ssg82
g7481
sg75
(lp7488
S'/flisol2012/default/create/t2_membership'
p7489
asbasbasbasbasbasbasbag68
(g84
g70
NtRp7490
(dp7491
g73
(dp7492
sg82
g6298
sg75
(lp7493
g68
(g89
g70
NtRp7494
(dp7495
g73
(dp7496
sg82
g7490
sg75
(lp7497
g68
(g69
g70
NtRp7498
(dp7499
g73
(dp7500
g81
I2
ssg82
g7494
sg75
(lp7501
g68
(g77
g70
NtRp7502
(dp7503
g73
(dp7504
g81
I1
ssg82
Nsg75
(lp7505
g68
(g84
g70
NtRp7506
(dp7507
g73
(dp7508
sg82
g7502
sg75
(lp7509
g68
(g89
g70
NtRp7510
(dp7511
g73
(dp7512
sg82
g7506
sg75
(lp7513
g68
(g69
g70
NtRp7514
(dp7515
g73
(dp7516
g81
I1
ssg82
g7510
sg75
(lp7517
S'[access]'
p7518
asbasbasbag68
(g84
g70
NtRp7519
(dp7520
g73
(dp7521
sg82
g7502
sg75
(lp7522
g68
(g89
g70
NtRp7523
(dp7524
g73
(dp7525
sg82
g7519
sg75
(lp7526
g68
(g69
g70
NtRp7527
(dp7528
g73
(dp7529
g81
I1
ssg82
g7523
sg75
(lp7530
I00
asbasbasbag68
(g84
g70
NtRp7531
(dp7532
g73
(dp7533
sg82
g7502
sg75
(lp7534
g68
(g89
g70
NtRp7535
(dp7536
g73
(dp7537
sg82
g7531
sg75
(lp7538
g68
(g69
g70
NtRp7539
(dp7540
g73
(dp7541
g81
I1
ssg82
g7535
sg75
(lp7542
S'/flisol2012/default/create/t2_access'
p7543
asbasbasbasbasbasbasbag68
(g84
g70
NtRp7544
(dp7545
g73
(dp7546
sg82
g6298
sg75
(lp7547
g68
(g89
g70
NtRp7548
(dp7549
g73
(dp7550
sg82
g7544
sg75
(lp7551
g68
(g69
g70
NtRp7552
(dp7553
g73
(dp7554
g81
I2
ssg82
g7548
sg75
(lp7555
g68
(g77
g70
NtRp7556
(dp7557
g73
(dp7558
g81
I1
ssg82
Nsg75
(lp7559
g68
(g84
g70
NtRp7560
(dp7561
g73
(dp7562
sg82
g7556
sg75
(lp7563
g68
(g89
g70
NtRp7564
(dp7565
g73
(dp7566
sg82
g7560
sg75
(lp7567
g68
(g69
g70
NtRp7568
(dp7569
g73
(dp7570
g81
I1
ssg82
g7564
sg75
(lp7571
S'[attachment]'
p7572
asbasbasbag68
(g84
g70
NtRp7573
(dp7574
g73
(dp7575
sg82
g7556
sg75
(lp7576
g68
(g89
g70
NtRp7577
(dp7578
g73
(dp7579
sg82
g7573
sg75
(lp7580
g68
(g69
g70
NtRp7581
(dp7582
g73
(dp7583
g81
I1
ssg82
g7577
sg75
(lp7584
I00
asbasbasbag68
(g84
g70
NtRp7585
(dp7586
g73
(dp7587
sg82
g7556
sg75
(lp7588
g68
(g89
g70
NtRp7589
(dp7590
g73
(dp7591
sg82
g7585
sg75
(lp7592
g68
(g69
g70
NtRp7593
(dp7594
g73
(dp7595
g81
I1
ssg82
g7589
sg75
(lp7596
S'/flisol2012/default/create/t2_attachment'
p7597
asbasbasbasbasbasbasbag68
(g84
g70
NtRp7598
(dp7599
g73
(dp7600
sg82
g6298
sg75
(lp7601
g68
(g89
g70
NtRp7602
(dp7603
g73
(dp7604
sg82
g7598
sg75
(lp7605
g68
(g69
g70
NtRp7606
(dp7607
g73
(dp7608
g81
I2
ssg82
g7602
sg75
(lp7609
g68
(g77
g70
NtRp7610
(dp7611
g73
(dp7612
g81
I1
ssg82
Nsg75
(lp7613
g68
(g84
g70
NtRp7614
(dp7615
g73
(dp7616
sg82
g7610
sg75
(lp7617
g68
(g89
g70
NtRp7618
(dp7619
g73
(dp7620
sg82
g7614
sg75
(lp7621
g68
(g69
g70
NtRp7622
(dp7623
g73
(dp7624
g81
I1
ssg82
g7618
sg75
(lp7625
S'[comment]'
p7626
asbasbasbag68
(g84
g70
NtRp7627
(dp7628
g73
(dp7629
sg82
g7610
sg75
(lp7630
g68
(g89
g70
NtRp7631
(dp7632
g73
(dp7633
sg82
g7627
sg75
(lp7634
g68
(g69
g70
NtRp7635
(dp7636
g73
(dp7637
g81
I1
ssg82
g7631
sg75
(lp7638
I00
asbasbasbag68
(g84
g70
NtRp7639
(dp7640
g73
(dp7641
sg82
g7610
sg75
(lp7642
g68
(g89
g70
NtRp7643
(dp7644
g73
(dp7645
sg82
g7639
sg75
(lp7646
g68
(g69
g70
NtRp7647
(dp7648
g73
(dp7649
g81
I1
ssg82
g7643
sg75
(lp7650
S'/flisol2012/default/create/t2_comment'
p7651
asbasbasbasbasbasbasbag68
(g84
g70
NtRp7652
(dp7653
g73
(dp7654
sg82
g6298
sg75
(lp7655
g68
(g89
g70
NtRp7656
(dp7657
g73
(dp7658
sg82
g7652
sg75
(lp7659
g68
(g69
g70
NtRp7660
(dp7661
g73
(dp7662
g81
I2
ssg82
g7656
sg75
(lp7663
g68
(g77
g70
NtRp7664
(dp7665
g73
(dp7666
g81
I1
ssg82
Nsg75
(lp7667
g68
(g84
g70
NtRp7668
(dp7669
g73
(dp7670
sg82
g7664
sg75
(lp7671
g68
(g89
g70
NtRp7672
(dp7673
g73
(dp7674
sg82
g7668
sg75
(lp7675
g68
(g69
g70
NtRp7676
(dp7677
g73
(dp7678
g81
I1
ssg82
g7672
sg75
(lp7679
S'[review]'
p7680
asbasbasbag68
(g84
g70
NtRp7681
(dp7682
g73
(dp7683
sg82
g7664
sg75
(lp7684
g68
(g89
g70
NtRp7685
(dp7686
g73
(dp7687
sg82
g7681
sg75
(lp7688
g68
(g69
g70
NtRp7689
(dp7690
g73
(dp7691
g81
I1
ssg82
g7685
sg75
(lp7692
I00
asbasbasbag68
(g84
g70
NtRp7693
(dp7694
g73
(dp7695
sg82
g7664
sg75
(lp7696
g68
(g89
g70
NtRp7697
(dp7698
g73
(dp7699
sg82
g7693
sg75
(lp7700
g68
(g69
g70
NtRp7701
(dp7702
g73
(dp7703
g81
I1
ssg82
g7697
sg75
(lp7704
S'/flisol2012/default/create/t2_review'
p7705
asbasbasbasbasbasbasbag68
(g84
g70
NtRp7706
(dp7707
g73
(dp7708
sg82
g6298
sg75
(lp7709
g68
(g89
g70
NtRp7710
(dp7711
g73
(dp7712
sg82
g7706
sg75
(lp7713
g68
(g69
g70
NtRp7714
(dp7715
g73
(dp7716
g81
I2
ssg82
g7710
sg75
(lp7717
g68
(g77
g70
NtRp7718
(dp7719
g73
(dp7720
g81
I1
ssg82
Nsg75
(lp7721
g68
(g84
g70
NtRp7722
(dp7723
g73
(dp7724
sg82
g7718
sg75
(lp7725
g68
(g89
g70
NtRp7726
(dp7727
g73
(dp7728
sg82
g7722
sg75
(lp7729
g68
(g69
g70
NtRp7730
(dp7731
g73
(dp7732
g81
I1
ssg82
g7726
sg75
(lp7733
S'[wiki]'
p7734
asbasbasbag68
(g84
g70
NtRp7735
(dp7736
g73
(dp7737
sg82
g7718
sg75
(lp7738
g68
(g89
g70
NtRp7739
(dp7740
g73
(dp7741
sg82
g7735
sg75
(lp7742
g68
(g69
g70
NtRp7743
(dp7744
g73
(dp7745
g81
I1
ssg82
g7739
sg75
(lp7746
I00
asbasbasbag68
(g84
g70
NtRp7747
(dp7748
g73
(dp7749
sg82
g7718
sg75
(lp7750
g68
(g89
g70
NtRp7751
(dp7752
g73
(dp7753
sg82
g7747
sg75
(lp7754
g68
(g69
g70
NtRp7755
(dp7756
g73
(dp7757
g81
I1
ssg82
g7751
sg75
(lp7758
S'/flisol2012/default/create/t2_wiki'
p7759
asbasbasbasbasbasbasbag68
(g84
g70
NtRp7760
(dp7761
g73
(dp7762
sg82
g6298
sg75
(lp7763
g68
(g89
g70
NtRp7764
(dp7765
g73
(dp7766
sg82
g7760
sg75
(lp7767
g68
(g69
g70
NtRp7768
(dp7769
g73
(dp7770
g81
I2
ssg82
g7764
sg75
(lp7771
g68
(g77
g70
NtRp7772
(dp7773
g73
(dp7774
g81
I1
ssg82
Nsg75
(lp7775
g68
(g84
g70
NtRp7776
(dp7777
g73
(dp7778
sg82
g7772
sg75
(lp7779
g68
(g89
g70
NtRp7780
(dp7781
g73
(dp7782
sg82
g7776
sg75
(lp7783
g68
(g69
g70
NtRp7784
(dp7785
g73
(dp7786
g81
I1
ssg82
g7780
sg75
(lp7787
S'[expense_form]'
p7788
asbasbasbag68
(g84
g70
NtRp7789
(dp7790
g73
(dp7791
sg82
g7772
sg75
(lp7792
g68
(g89
g70
NtRp7793
(dp7794
g73
(dp7795
sg82
g7789
sg75
(lp7796
g68
(g69
g70
NtRp7797
(dp7798
g73
(dp7799
g81
I1
ssg82
g7793
sg75
(lp7800
I00
asbasbasbag68
(g84
g70
NtRp7801
(dp7802
g73
(dp7803
sg82
g7772
sg75
(lp7804
g68
(g89
g70
NtRp7805
(dp7806
g73
(dp7807
sg82
g7801
sg75
(lp7808
g68
(g69
g70
NtRp7809
(dp7810
g73
(dp7811
g81
I1
ssg82
g7805
sg75
(lp7812
S'/flisol2012/default/create/expense_form'
p7813
asbasbasbasbasbasbasbag68
(g84
g70
NtRp7814
(dp7815
g73
(dp7816
sg82
g6298
sg75
(lp7817
g68
(g89
g70
NtRp7818
(dp7819
g73
(dp7820
sg82
g7814
sg75
(lp7821
g68
(g69
g70
NtRp7822
(dp7823
g73
(dp7824
g81
I2
ssg82
g7818
sg75
(lp7825
g68
(g77
g70
NtRp7826
(dp7827
g73
(dp7828
g81
I1
ssg82
Nsg75
(lp7829
g68
(g84
g70
NtRp7830
(dp7831
g73
(dp7832
sg82
g7826
sg75
(lp7833
g68
(g89
g70
NtRp7834
(dp7835
g73
(dp7836
sg82
g7830
sg75
(lp7837
g68
(g69
g70
NtRp7838
(dp7839
g73
(dp7840
g81
I1
ssg82
g7834
sg75
(lp7841
S'[expense_item]'
p7842
asbasbasbag68
(g84
g70
NtRp7843
(dp7844
g73
(dp7845
sg82
g7826
sg75
(lp7846
g68
(g89
g70
NtRp7847
(dp7848
g73
(dp7849
sg82
g7843
sg75
(lp7850
g68
(g69
g70
NtRp7851
(dp7852
g73
(dp7853
g81
I1
ssg82
g7847
sg75
(lp7854
I00
asbasbasbag68
(g84
g70
NtRp7855
(dp7856
g73
(dp7857
sg82
g7826
sg75
(lp7858
g68
(g89
g70
NtRp7859
(dp7860
g73
(dp7861
sg82
g7855
sg75
(lp7862
g68
(g69
g70
NtRp7863
(dp7864
g73
(dp7865
g81
I1
ssg82
g7859
sg75
(lp7866
S'/flisol2012/default/create/expense_item'
p7867
asbasbasbasbasbasbasbag68
(g84
g70
NtRp7868
(dp7869
g73
(dp7870
sg82
g6298
sg75
(lp7871
g68
(g89
g70
NtRp7872
(dp7873
g73
(dp7874
sg82
g7868
sg75
(lp7875
g68
(g69
g70
NtRp7876
(dp7877
g73
(dp7878
g81
I2
ssg82
g7872
sg75
(lp7879
g68
(g77
g70
NtRp7880
(dp7881
g73
(dp7882
g81
I1
ssg82
Nsg75
(lp7883
g68
(g84
g70
NtRp7884
(dp7885
g73
(dp7886
sg82
g7880
sg75
(lp7887
g68
(g89
g70
NtRp7888
(dp7889
g73
(dp7890
sg82
g7884
sg75
(lp7891
g68
(g69
g70
NtRp7892
(dp7893
g73
(dp7894
g81
I1
ssg82
g7888
sg75
(lp7895
S'[asistente]'
p7896
asbasbasbag68
(g84
g70
NtRp7897
(dp7898
g73
(dp7899
sg82
g7880
sg75
(lp7900
g68
(g89
g70
NtRp7901
(dp7902
g73
(dp7903
sg82
g7897
sg75
(lp7904
g68
(g69
g70
NtRp7905
(dp7906
g73
(dp7907
g81
I1
ssg82
g7901
sg75
(lp7908
I00
asbasbasbag68
(g84
g70
NtRp7909
(dp7910
g73
(dp7911
sg82
g7880
sg75
(lp7912
g68
(g89
g70
NtRp7913
(dp7914
g73
(dp7915
sg82
g7909
sg75
(lp7916
g68
(g69
g70
NtRp7917
(dp7918
g73
(dp7919
g81
I1
ssg82
g7913
sg75
(lp7920
S'/flisol2012/default/create/asistente'
p7921
asbasbasbasbasbasbasbasbasbasbasbasbasbasbasbasbasbasbasbag68
(g84
g70
NtRp7922
(dp7923
g73
(dp7924
sg82
g4423
sg75
(lp7925
g68
(g89
g70
NtRp7926
(dp7927
g73
(dp7928
g93
g94
ssg82
g7922
sg75
(lp7929
S'meta'
p7930
asbag68
(g89
g70
NtRp7931
(dp7932
g73
(dp7933
g100
g101
ssg82
g7922
sg75
(lp7934
S':'
asbag68
(g89
g70
NtRp7935
(dp7936
g73
(dp7937
sg82
g7922
sg75
(lp7938
g68
(g69
g70
NtRp7939
(dp7940
g73
(dp7941
g81
I5
ssg82
g7935
sg75
(lp7942
g68
(g77
g70
NtRp7943
(dp7944
g73
(dp7945
g81
I4
ssg82
Nsg75
(lp7946
sbasbasbasbag68
(g84
g70
NtRp7947
(dp7948
g73
(dp7949
sg82
g4423
sg75
(lp7950
g68
(g89
g70
NtRp7951
(dp7952
g73
(dp7953
g93
g94
ssg82
g7947
sg75
(lp7954
S'postprocessing'
p7955
asbag68
(g89
g70
NtRp7956
(dp7957
g73
(dp7958
g100
g101
ssg82
g7947
sg75
(lp7959
S':'
asbag68
(g89
g70
NtRp7960
(dp7961
g73
(dp7962
sg82
g7947
sg75
(lp7963
g68
(g69
g70
NtRp7964
(dp7965
g73
(dp7966
g81
I5
ssg82
g7960
sg75
(lp7967
g68
(g77
g70
NtRp7968
(dp7969
g73
(dp7970
g81
I4
ssg82
Nsg75
(lp7971
sbasbasbasbag68
(g84
g70
NtRp7972
(dp7973
g73
(dp7974
sg82
g4423
sg75
(lp7975
g68
(g89
g70
NtRp7976
(dp7977
g73
(dp7978
g93
g94
ssg82
g7972
sg75
(lp7979
S'session_file'
p7980
asbag68
(g89
g70
NtRp7981
(dp7982
g73
(dp7983
g100
g101
ssg82
g7972
sg75
(lp7984
S':'
asbag68
(g89
g70
NtRp7985
(dp7986
g73
(dp7987
sg82
g7972
sg75
(lp7988
g68
(g69
g70
NtRp7989
(dp7990
g73
(dp7991
g81
I5
ssg82
g7985
sg75
(lp7992
S"<open file '/home/marco/flisol2012/web2py/applications/flisol2012/sessions/127.0.0.1-2ede3a58-f97e-48e1-8d0e-90e5ecfe16bf', mode 'rb+' at 0x419b9c0>"
p7993
asbasbasbag68
(g84
g70
NtRp7994
(dp7995
g73
(dp7996
sg82
g4423
sg75
(lp7997
g68
(g89
g70
NtRp7998
(dp7999
g73
(dp8000
g93
g94
ssg82
g7994
sg75
(lp8001
S'session_filename'
p8002
asbag68
(g89
g70
NtRp8003
(dp8004
g73
(dp8005
g100
g101
ssg82
g7994
sg75
(lp8006
S':'
asbag68
(g89
g70
NtRp8007
(dp8008
g73
(dp8009
sg82
g7994
sg75
(lp8010
g68
(g69
g70
NtRp8011
(dp8012
g73
(dp8013
g81
I5
ssg82
g8007
sg75
(lp8014
S'/home/marco/flisol2012/web2py/applications/flisol2012/sessions/127.0.0.1-2ede3a58-f97e-48e1-8d0e-90e5ecfe16bf'
p8015
asbasbasbag68
(g84
g70
NtRp8016
(dp8017
g73
(dp8018
sg82
g4423
sg75
(lp8019
g68
(g89
g70
NtRp8020
(dp8021
g73
(dp8022
g93
g94
ssg82
g8016
sg75
(lp8023
S'session_id'
p8024
asbag68
(g89
g70
NtRp8025
(dp8026
g73
(dp8027
g100
g101
ssg82
g8016
sg75
(lp8028
S':'
asbag68
(g89
g70
NtRp8029
(dp8030
g73
(dp8031
sg82
g8016
sg75
(lp8032
g68
(g69
g70
NtRp8033
(dp8034
g73
(dp8035
g81
I5
ssg82
g8029
sg75
(lp8036
S'127.0.0.1-2ede3a58-f97e-48e1-8d0e-90e5ecfe16bf'
p8037
asbasbasbag68
(g84
g70
NtRp8038
(dp8039
g73
(dp8040
sg82
g4423
sg75
(lp8041
g68
(g89
g70
NtRp8042
(dp8043
g73
(dp8044
g93
g94
ssg82
g8038
sg75
(lp8045
S'session_id_name'
p8046
asbag68
(g89
g70
NtRp8047
(dp8048
g73
(dp8049
g100
g101
ssg82
g8038
sg75
(lp8050
S':'
asbag68
(g89
g70
NtRp8051
(dp8052
g73
(dp8053
sg82
g8038
sg75
(lp8054
g68
(g69
g70
NtRp8055
(dp8056
g73
(dp8057
g81
I5
ssg82
g8051
sg75
(lp8058
g4480
asbasbasbag68
(g84
g70
NtRp8059
(dp8060
g73
(dp8061
sg82
g4423
sg75
(lp8062
g68
(g89
g70
NtRp8063
(dp8064
g73
(dp8065
g93
g94
ssg82
g8059
sg75
(lp8066
S'session_locked'
p8067
asbag68
(g89
g70
NtRp8068
(dp8069
g73
(dp8070
g100
g101
ssg82
g8059
sg75
(lp8071
S':'
asbag68
(g89
g70
NtRp8072
(dp8073
g73
(dp8074
sg82
g8059
sg75
(lp8075
g68
(g69
g70
NtRp8076
(dp8077
g73
(dp8078
g81
I5
ssg82
g8072
sg75
(lp8079
g1874
asbasbasbag68
(g84
g70
NtRp8080
(dp8081
g73
(dp8082
sg82
g4423
sg75
(lp8083
g68
(g89
g70
NtRp8084
(dp8085
g73
(dp8086
g93
g94
ssg82
g8080
sg75
(lp8087
S'session_new'
p8088
asbag68
(g89
g70
NtRp8089
(dp8090
g73
(dp8091
g100
g101
ssg82
g8080
sg75
(lp8092
S':'
asbag68
(g89
g70
NtRp8093
(dp8094
g73
(dp8095
sg82
g8080
sg75
(lp8096
g68
(g69
g70
NtRp8097
(dp8098
g73
(dp8099
g81
I5
ssg82
g8093
sg75
(lp8100
g111
asbasbasbag68
(g84
g70
NtRp8101
(dp8102
g73
(dp8103
sg82
g4423
sg75
(lp8104
g68
(g89
g70
NtRp8105
(dp8106
g73
(dp8107
g93
g94
ssg82
g8101
sg75
(lp8108
S'sidebar'
p8109
asbag68
(g89
g70
NtRp8110
(dp8111
g73
(dp8112
g100
g101
ssg82
g8101
sg75
(lp8113
S':'
asbag68
(g89
g70
NtRp8114
(dp8115
g73
(dp8116
sg82
g8101
sg75
(lp8117
g68
(g69
g70
NtRp8118
(dp8119
g73
(dp8120
g81
I5
ssg82
g8114
sg75
(lp8121
g68
(g77
g70
NtRp8122
(dp8123
g73
(dp8124
g81
I4
ssg82
Nsg75
(lp8125
g68
(g84
g70
NtRp8126
(dp8127
g73
(dp8128
sg82
g8122
sg75
(lp8129
g68
(g89
g70
NtRp8130
(dp8131
g73
(dp8132
sg82
g8126
sg75
(lp8133
g68
(g69
g70
NtRp8134
(dp8135
g73
(dp8136
g81
I4
ssg82
g8130
sg75
(lp8137
g68
(g77
g70
NtRp8138
(dp8139
g73
(dp8140
g81
I3
ssg82
Nsg75
(lp8141
g68
(g84
g70
NtRp8142
(dp8143
g73
(dp8144
sg82
g8138
sg75
(lp8145
g68
(g89
g70
NtRp8146
(dp8147
g73
(dp8148
sg82
g8142
sg75
(lp8149
g68
(g69
g70
NtRp8150
(dp8151
g73
(dp8152
g81
I3
ssg82
g8146
sg75
(lp8153
g5150
(S's\x0b\x00\x00\x00Sus Charlas'
tRp8154
asbasbasbag68
(g84
g70
NtRp8155
(dp8156
g73
(dp8157
sg82
g8138
sg75
(lp8158
g68
(g89
g70
NtRp8159
(dp8160
g73
(dp8161
sg82
g8155
sg75
(lp8162
g68
(g69
g70
NtRp8163
(dp8164
g73
(dp8165
g81
I3
ssg82
g8159
sg75
(lp8166
g68
(g77
g70
NtRp8167
(dp8168
g73
(dp8169
g81
I2
ssg82
Nsg75
(lp8170
g68
(g84
g70
NtRp8171
(dp8172
g73
(dp8173
sg82
g8167
sg75
(lp8174
g68
(g89
g70
NtRp8175
(dp8176
g73
(dp8177
sg82
g8171
sg75
(lp8178
g68
(g69
g70
NtRp8179
(dp8180
g73
(dp8181
g81
I2
ssg82
g8175
sg75
(lp8182
g68
(g77
g70
NtRp8183
(dp8184
g73
(dp8185
g81
I1
ssg82
Nsg75
(lp8186
g68
(g84
g70
NtRp8187
(dp8188
g73
(dp8189
sg82
g8183
sg75
(lp8190
g68
(g89
g70
NtRp8191
(dp8192
g73
(dp8193
sg82
g8187
sg75
(lp8194
g68
(g69
g70
NtRp8195
(dp8196
g73
(dp8197
g81
I1
ssg82
g8191
sg75
(lp8198
g5150
(S's\x0f\x00\x00\x00Proponer charla'
tRp8199
asbasbasbag68
(g84
g70
NtRp8200
(dp8201
g73
(dp8202
sg82
g8183
sg75
(lp8203
g68
(g89
g70
NtRp8204
(dp8205
g73
(dp8206
sg82
g8200
sg75
(lp8207
g68
(g69
g70
NtRp8208
(dp8209
g73
(dp8210
g81
I1
ssg82
g8204
sg75
(lp8211
S'/flisol2012/default/propose_talk'
p8212
asbasbasbasbasbasbasbasbasbasbasbasbasbasbasbasbasbasbasbag68
(g84
g70
NtRp8213
(dp8214
g73
(dp8215
sg82
g4423
sg75
(lp8216
g68
(g89
g70
NtRp8217
(dp8218
g73
(dp8219
g93
g94
ssg82
g8213
sg75
(lp8220
S'status'
p8221
asbag68
(g89
g70
NtRp8222
(dp8223
g73
(dp8224
g100
g101
ssg82
g8213
sg75
(lp8225
S':'
asbag68
(g89
g70
NtRp8226
(dp8227
g73
(dp8228
sg82
g8213
sg75
(lp8229
g68
(g69
g70
NtRp8230
(dp8231
g73
(dp8232
g81
I5
ssg82
g8226
sg75
(lp8233
S'200'
p8234
asbasbasbag68
(g84
g70
NtRp8235
(dp8236
g73
(dp8237
sg82
g4423
sg75
(lp8238
g68
(g89
g70
NtRp8239
(dp8240
g73
(dp8241
g93
g94
ssg82
g8235
sg75
(lp8242
S'subtitle'
p8243
asbag68
(g89
g70
NtRp8244
(dp8245
g73
(dp8246
g100
g101
ssg82
g8235
sg75
(lp8247
S':'
asbag68
(g89
g70
NtRp8248
(dp8249
g73
(dp8250
sg82
g8235
sg75
(lp8251
g68
(g69
g70
NtRp8252
(dp8253
g73
(dp8254
g81
I5
ssg82
g8248
sg75
(lp8255
S''
asbasbasbag68
(g84
g70
NtRp8256
(dp8257
g73
(dp8258
sg82
g4423
sg75
(lp8259
g68
(g89
g70
NtRp8260
(dp8261
g73
(dp8262
g93
g94
ssg82
g8256
sg75
(lp8263
S'title'
p8264
asbag68
(g89
g70
NtRp8265
(dp8266
g73
(dp8267
g100
g101
ssg82
g8256
sg75
(lp8268
S':'
asbag68
(g89
g70
NtRp8269
(dp8270
g73
(dp8271
sg82
g8256
sg75
(lp8272
g68
(g69
g70
NtRp8273
(dp8274
g73
(dp8275
g81
I5
ssg82
g8269
sg75
(lp8276
S'FLISOL 2012 - Salta'
p8277
asbasbasbag68
(g84
g70
NtRp8278
(dp8279
g73
(dp8280
sg82
g4423
sg75
(lp8281
g68
(g89
g70
NtRp8282
(dp8283
g73
(dp8284
g93
g94
ssg82
g8278
sg75
(lp8285
g2538
asbag68
(g89
g70
NtRp8286
(dp8287
g73
(dp8288
g100
g101
ssg82
g8278
sg75
(lp8289
S':'
asbag68
(g89
g70
NtRp8290
(dp8291
g73
(dp8292
sg82
g8278
sg75
(lp8293
g68
(g69
g70
NtRp8294
(dp8295
g73
(dp8296
g81
I5
ssg82
g8290
sg75
(lp8297
g2551
asbasbasbag68
(g84
g70
NtRp8298
(dp8299
g73
(dp8300
sg82
g4423
sg75
(lp8301
g68
(g89
g70
NtRp8302
(dp8303
g73
(dp8304
g93
g94
ssg82
g8298
sg75
(lp8305
S'view'
p8306
asbag68
(g89
g70
NtRp8307
(dp8308
g73
(dp8309
g100
g101
ssg82
g8298
sg75
(lp8310
S':'
asbag68
(g89
g70
NtRp8311
(dp8312
g73
(dp8313
sg82
g8298
sg75
(lp8314
g68
(g69
g70
NtRp8315
(dp8316
g73
(dp8317
g81
I5
ssg82
g8311
sg75
(lp8318
S'default/attendees.html'
p8319
asbasbasbasbasbsS'locals'
p8320
(dp8321
g4
S"'/home/marco/flisol2012/web2py/applications/flisol2012/views/default/attendees.html'"
p8322
sg6
S'\'response.write(\\\'<!DOCTYPE html PUBLIC "-//W3C//D...) {}</script>\\\\n</body>\\\\n</html>\\\\n\\\', escape=False)\''
p8323
sssS'traceback'
p8324
S'Traceback (most recent call last):\n  File "/home/marco/flisol2012/web2py/gluon/restricted.py", line 204, in restricted\n    ccode = compile2(code,layer)\n  File "/home/marco/flisol2012/web2py/gluon/restricted.py", line 189, in compile2\n    return compile(code.rstrip().replace(\'\\r\\n\',\'\\n\')+\'\\n\', layer, \'exec\')\n  File "/home/marco/flisol2012/web2py/applications/flisol2012/views/default/attendees.html", line 89\n    response.write(\'\\n\', escape=False)\n           ^\nSyntaxError: invalid syntax\n'
p8325
s.