(dp1
S'output'
p2
S"<type 'exceptions.SyntaxError'> EOL while scanning string literal (companies.html, line 96)"
p3
sS'layer'
p4
S'/home/marco/flisol2012/web2py/applications/flisol2012/views/default/companies.html'
p5
sS'code'
p6
S'response.write(\'<!DOCTYPE html PUBLIC "-//W3C//DTD XHTML 1.0 Strict//EN" "http://www.w3.org/TR/xhtml1/DTD/xhtml1-strict.dtd">\\n<!--\\nDesign by Free CSS Templates, modified by Massimo Di Pierro\\nhttp://www.freecsstemplates.org\\nReleased for free under a Creative Commons Attribution 2.5 License\\n\\nName       : Flavour\\nDescription: A two-column, fixed-width design with dark color scheme.\\nVersion    : 1.0\\nReleased   : 20080425\\n-->\\n<html xmlns="http://www.w3.org/1999/xhtml">\\n<head>\\n<title>\', escape=False)\nresponse.write(response.title or URL(r=request))\nresponse.write(\'</title>\\n<meta http-equiv="content-type" content="text/html; charset=utf-8" />\\n<meta name="keywords" content="\', escape=False)\nresponse.write(response.keywords)\nresponse.write(\'" />\\n<meta name="description" content="\', escape=False)\nresponse.write(response.description)\nresponse.write(\'" />\\n<link rel="icon" href="\', escape=False)\nresponse.write(URL(r=request,c=\'static\',f=\'favicon.ico\'))\nresponse.write(\'" type="image/x-icon">\\n<link rel="stylesheet" type="text/css" href="\', escape=False)\nresponse.write(URL(r=request,c=\'static\',f=\'style.css\'))\nresponse.write(\'" />\\n\', escape=False)\nimport os\nresponse.write(\'\\n<link href="\', escape=False)\nresponse.write(URL(r=request,c=\'static\',f=\'calendar.css\'))\nresponse.write(\'" rel="stylesheet" type="text/css" media="screen" charset="utf-8" />\\n<script src="\', escape=False)\nresponse.write(URL(r=request,c=\'static\',f=\'jquery.js\'))\nresponse.write(\'" type="text/javascript"></script>\\n<script src="\', escape=False)\nresponse.write(URL(r=request,c=\'static\',f=\'calendar.js\'))\nresponse.write(\'" type="text/javascript" charset="utf-8"></script>\\n<script type="text/javascript"><!--\\nfunction popup(url) {\\n  newwindow=window.open(url,\\\'name\\\',\\\'height=400,width=600\\\');\\n  if (window.focus) newwindow.focus();\\n  return false;\\n}\\nfunction collapse(id) { $(\\\'#\\\'+id).slideToggle(); }\\nfunction fade(id,value) { if(value>0) $(\\\'#\\\'+id).hide().fadeIn(\\\'slow\\\'); else $(\\\'#\\\'+id).show().fadeOut(\\\'slow\\\'); }\\nfunction ajax(u,s,t) {\\n  var query="";\\n  for(i=0; i<s.length; i++) { \\n     if(i>0) query=query+"&";\\n     query=query+encodeURIComponent(s[i])+"="+encodeURIComponent(document.getElementById(s[i]).value);\\n  }\\n  $.ajax({type: "POST", url: u, data: query, success: function(msg) { document.getElementById(t).innerHTML=msg; } });  \\n}\\nString.prototype.reverse = function () { return this.split(\\\'\\\').reverse().join(\\\'\\\');};\\n$(document).ready(function() {\\n$(\\\'.hidden\\\').hide();\\n$(\\\'.error\\\').hide().slideDown(\\\'slow\\\');\\n$(\\\'.flash\\\').hide().slideDown(\\\'slow\\\')\\n$(\\\'.flash\\\').click(function() { $(this).fadeOut(\\\'slow\\\'); return false; });\\n$(\\\'input.string\\\').attr(\\\'size\\\',50);\\n$(\\\'textarea.text\\\').attr(\\\'cols\\\',50).attr(\\\'rows\\\',10);\\n$(\\\'input.integer\\\').keyup(function(){this.value=this.value.reverse().replace(/[^0-9\\\\-]|\\\\-(?=.)/g,\\\'\\\').reverse();});\\n$(\\\'input.double\\\').keyup(function(){this.value=this.value.reverse().replace(/[^0-9\\\\-\\\\.]|[\\\\-](?=.)|[\\\\.](?=[0-9]*[\\\\.])/g,\\\'\\\').reverse();});\\n$(\\\'input.delete\\\').attr(\\\'onclick\\\',\\\'if(this.checked) if(!confirm("\', escape=False)\nresponse.write(T(\'Sure you want to delete this object?\'))\nresponse.write(\'")) this.checked=false;\\\');\\ntry {$("input.date").focus( function() {Calendar.setup({\\n     inputField:this.id, ifFormat:"\', escape=False)\nresponse.write(T(\'%Y-%m-%d\'))\nresponse.write(\'", showsTime:false\\n}); }); } catch(e) {};\\ntry { $("input.datetime").focus( function() {Calendar.setup({\\n     inputField:this.id, ifFormat:"\', escape=False)\nresponse.write(T(\'%Y-%m-%d %H:%M:%S\'))\nresponse.write(\'", showsTime: true,timeFormat: "24"\\n}); }); } catch(e) {};\\ntry { $("input.time").clockpick({\\n     starthour:0, endhour:23, showminutes:true, military:true\\n}); } catch(e) {};\\n});\\n//--></script>\', escape=False)\nresponse.write(\'\\n<script src="\', escape=False)\nresponse.write(URL(r=request,c=\'static\',f=\'scripts/sfmenu.js\'))\nresponse.write(\'"></script>\\n<script src="\', escape=False)\nresponse.write(URL(r=request,c=\'static\',f=\'scripts/jquery.dimensions.js\'))\nresponse.write(\'"></script><script src="\', escape=False)\nresponse.write(URL(r=request,c=\'static\',f=\'scripts/jqueryMultiSelect.js\'))\nresponse.write(\'"></script>\\n<link rel="stylesheet" type="text/css" href="\', escape=False)\nresponse.write(URL(r=request,c=\'static\',f=\'scripts/jqueryMultiSelect.css\'))\nresponse.write(\'" />\\n<script>\\n$(document).ready(function() { $(\\\'.sf-menu\\\').superfish({ animation: {height:\\\'show\\\'}, delay:500 }); \\n$(\\\'#auth_user_tutorials\\\').multiSelect({selectAll: false});\\n});\\n</script>\\n</head>\\n<body>\\n<div id="header">\\n  <div id="logo">\\n    <img alt="logo" src="\', escape=False)\nresponse.write(URL(r=request,c=\'static\',f=\'logo.png\'))\nresponse.write(\'"/>\\n    <h1>\', escape=False)\nresponse.write(response.title)\nresponse.write(\'</h1>\\n    <p>Festival latinoamericano de Instalaci\\xc3\\xb3n de Software Libre</p>\\n  </div>\\n  <div id="search">\\n    <form method="get" action="http://www.google.com/search">\\n      <fieldset>\\n        <input id="search-text" type="text" name="as_q" value="" size="15"/>\\n        <input type="hidden" name="as_sitesearch" value="\', escape=False)\nresponse.write(request.env.http_host)\nresponse.write(\'">\\n        <input type="submit" id="search-submit" value="Search" />\\n      </fieldset>\\n      <span style="color: #ffffff; font-size: smaller;">\', escape=False)\nresponse.write(T("Language"))\nresponse.write(\': <a href="?lang=es" style="color: #ffffff; font-size: smaller;">Espa\\xc3\\xb1ol</a>, <a href="?lang=pt" style="color: #ffffff; font-size: smaller;">Portugu\\xc3\\xaas</a>, <a href="?lang=en" style="color: #ffffff; font-size: smaller">English</a></a>\\n    </form>\\n  </div>\\n</div>\\n<div id="menu">\\n  \', escape=False)\nresponse.write(t2.menu(response.menu))\nresponse.write(\'\\n</div>\\n<div id="page">\\n  <div id="content">\\n    \', escape=False)\ntry:\n    if not response.flash and form.errors:\n        response.flash=T("There are errors in your form below")\n        pass\nexcept: pass\nresponse.write(\'\\n    \', escape=False)\nif response.flash:\n    response.write(\'<div class="flash">\', escape=False)\n    response.write(response.flash)\n    response.write(\'</div>\', escape=False)\n    pass\nresponse.write(\'\\n    \', escape=False)\nif auth.user:\n    response.write(\'<h3>\', escape=False)\n    response.write(T(\'Hello\'))\n    response.write(\' \', escape=False)\n    response.write(auth.user.first_name)\n    response.write(\'\\n    \', escape=False)\n    if session.manager:\n        response.write(\' (manager)\', escape=False)\n        pass\n    response.write(\'\\n    \', escape=False)\n    if session.balance is not None and session.balance>0 and not request.function==\'pay\':\n        response.write(\', \', escape=False)\n        response.write(T(\'You have not paid for your registration; the cost is\'))\n        response.write(\' $\', escape=False)\n        response.write(T(\'%0.2f\' % session.balance))\n        response.write(\' [\', escape=False)\n        response.write(A(T(\'pay now\'),_href=t2.action(\'pay\')))\n        response.write(\']\\n    \', escape=False)\n    elif session.balance is not None and session.balance<0 and not request.function==\'pay\':\n        response.write(\', \', escape=False)\n        response.write(T(\'You have a credit of\'))\n        response.write(\' $\', escape=False)\n        response.write(T(\'%0.2f\' % -session.balance))\n        response.write(\' [\', escape=False)\n        response.write(A(T(\'info\'),_href=t2.action(\'pay\')))\n        response.write(\']\', escape=False)\n        pass\n    response.write(\'</h3>\', escape=False)\n    pass\nresponse.write(\'\\n    \', escape=False)\nresponse.write(\'\\n\\n<div class="frame">\\n<h2>\', escape=False)\nresponse.write(T(\'Companies represented\'))\nresponse.write(\'</h2>\\n\', escape=False)\nif not session.manager:\n    response.write(\'<i>\', escape=False)\n    response.write(T(\'Below is a partial list of companies represented at the conference, who wished to make their attendance public.  The list is sorted by company name.\'))\n    response.write(\'</i>\', escape=False)\nelse:\n    response.write(\'<i>\', escape=False)\n    response.write(T(\'\n    Below is a complete list of companies representede at the conference.  Some companies do not wish to make their attendance publie.  This list is accessible by managers only.\'))\n    response.write(\'\\n</i>\', escape=False)\n    pass\nresponse.write(\'<br/><br/>\\n<table class="appear">\\n<tr><th>\', escape=False)\nresponse.write(T(\'Company\'))\nresponse.write(\'</th></tr>\\n\', escape=False)\ncompany_name=None\nresponse.write(\'\\n\', escape=False)\nfor row in rows:\n    response.write(\'\\n<tr>\\n\', escape=False)\n    if row.company_name!=company_name:\n        response.write(\'\\n<td>\', escape=False)\n        response.write(A(row.company_name,_href=row.company_home_page))\n        response.write(\'</td>\\n\', escape=False)\n        company_name=row.company_name\n        response.write(\'\\n\', escape=False)\n        pass\n    response.write(\'\\n</tr>\\n\', escape=False)\n    pass\nresponse.write(\'\\n</table>\\n</div>\\n\', escape=False)\nresponse.write(\'\\n    <br/><div class="frame"><h2>\', escape=False)\nresponse.write(T("About"))\nresponse.write(\' \', escape=False)\nresponse.write(response.title)\nresponse.write(\'</h2>\', escape=False)\nresponse.write(XML(response.footer))\nresponse.write(\'</div>\\n  </div>\\n  \', escape=False)\nif response.sidebar:\n    response.write(\'\\n  <div id="sidebar">  \\n    <ul>\\n      \', escape=False)\n    for _i in response.sidebar or []:\n        response.write(\'\\n      <li>\\n         <h2>\', escape=False)\n        response.write(_i[0])\n        response.write(\'</h2>\\n         \', escape=False)\n        if isinstance(_i[1],list):\n            response.write(\'\\n         <ul>\\n           \', escape=False)\n            for _j in _i[1]:\n                response.write(\'\\n           <li>\', escape=False)\n                response.write(A(_j[0],_href=_j[1]))\n                response.write(\'</li>\\n           \', escape=False)\n                pass\n            response.write(\'\\n         </ul>\\n         \', escape=False)\n        else:\n            response.write(\'\\n         <p>\', escape=False)\n            response.write(_i[1])\n            response.write(\'</p>\\n         \', escape=False)\n            pass\n        response.write(\'\\n      </li>\\n      \', escape=False)\n        pass\n    response.write(\'\\n    </ul>\\n  </div>\\n  \', escape=False)\n    pass\nresponse.write(\'\\n  <div style="clear: both;">&nbsp;</div>\\n  </div>\\n  <div id="footer">\\n    <p><a href="http://www.web2py.com.ar"><img src="\', escape=False)\nresponse.write(URL(r=request,c=\'static\',f=\'media/poweredby.png\'))\nresponse.write(\'" /></a></p>\\n  </div>\\n  <script type="text/javascript">\\nvar gaJsHost = (("https:" == document.location.protocol) ? "https://ssl." : "http://www.");\\ndocument.write(unescape("%3Cscript src=\\\'" + gaJsHost + "google-analytics.com/ga.js\\\' type=\\\'text/javascript\\\'%3E%3C/script%3E"));\\n</script>\\n<script type="text/javascript">\\ntry {\\nvar pageTracker = _gat._getTracker("UA-15712735-1");\\npageTracker._trackPageview();\\n} catch(err) {}</script>\\n</body>\\n</html>\\n\', escape=False)'
p7
sS'snapshot'
p8
(dp9
S'exception'
p10
(dp11
S'__getslice__'
p12
S"<method-wrapper '__getslice__' of exceptions.SyntaxError object>"
p13
sS'text'
p14
S'"    response.write(T(\'\\n"'
p15
sS'__str__'
p16
S"<method-wrapper '__str__' of exceptions.SyntaxError object>"
p17
sS'__reduce__'
p18
S'<built-in method __reduce__ of exceptions.SyntaxError object>'
p19
sS'__dict__'
p20
S'{}'
p21
sS'__sizeof__'
p22
S'<built-in method __sizeof__ of exceptions.SyntaxError object>'
p23
sS'__init__'
p24
S"<method-wrapper '__init__' of exceptions.SyntaxError object>"
p25
sS'__setattr__'
p26
S"<method-wrapper '__setattr__' of exceptions.SyntaxError object>"
p27
sS'__reduce_ex__'
p28
S'<built-in method __reduce_ex__ of exceptions.SyntaxError object>'
p29
sS'__new__'
p30
S'<built-in method __new__ of type object>'
p31
sS'__format__'
p32
S'<built-in method __format__ of exceptions.SyntaxError object>'
p33
sS'__class__'
p34
S"<type 'exceptions.SyntaxError'>"
p35
sS'filename'
p36
S"'/home/marco/flisol2012/web2py/applications/flisol2012/views/default/companies.html'"
p37
sS'lineno'
p38
S'96'
p39
sS'msg'
p40
S"'EOL while scanning string literal'"
p41
sS'__doc__'
p42
S"'Invalid syntax.'"
p43
sS'__getitem__'
p44
S"<method-wrapper '__getitem__' of exceptions.SyntaxError object>"
p45
sS'__setstate__'
p46
S'<built-in method __setstate__ of exceptions.SyntaxError object>'
p47
sS'__getattribute__'
p48
S"<method-wrapper '__getattribute__' of exceptions.SyntaxError object>"
p49
sS'print_file_and_line'
p50
S'None'
p51
sS'args'
p52
S'(\'EOL while scanning string literal\', (\'/home/marco/flisol2012/web2py/applications/flisol2012/views/default/companies.html\', 96, 22, "    response.write(T(\'\\n"))'
p53
sS'__subclasshook__'
p54
S'<built-in method __subclasshook__ of type object>'
p55
sS'offset'
p56
S'22'
p57
sS'__unicode__'
p58
S'<built-in method __unicode__ of exceptions.SyntaxError object>'
p59
sS'__delattr__'
p60
S"<method-wrapper '__delattr__' of exceptions.SyntaxError object>"
p61
sS'__repr__'
p62
S"<method-wrapper '__repr__' of exceptions.SyntaxError object>"
p63
sS'__hash__'
p64
S"<method-wrapper '__hash__' of exceptions.SyntaxError object>"
p65
ssS'evalue'
p66
S'EOL while scanning string literal (companies.html, line 96)'
p67
sS'request'
p68
ccopy_reg
_reconstructor
p69
(cgluon.html
BEAUTIFY
p70
c__builtin__
object
p71
NtRp72
(dp73
S'attributes'
p74
(dp75
sS'components'
p76
(lp77
g69
(cgluon.html
TABLE
p78
g71
NtRp79
(dp80
g74
(dp81
S'level'
p82
I5
ssS'parent'
p83
Nsg76
(lp84
g69
(cgluon.html
TR
p85
g71
NtRp86
(dp87
g74
(dp88
sg83
g79
sg76
(lp89
g69
(cgluon.html
TD
p90
g71
NtRp91
(dp92
g74
(dp93
S'_style'
p94
S'font-weight:bold;vertical-align:top'
p95
ssg83
g86
sg76
(lp96
S'ajax'
p97
asbag69
(g90
g71
NtRp98
(dp99
g74
(dp100
S'_valign'
p101
S'top'
p102
ssg83
g86
sg76
(lp103
S':'
asbag69
(g90
g71
NtRp104
(dp105
g74
(dp106
sg83
g86
sg76
(lp107
g69
(g70
g71
NtRp108
(dp109
g74
(dp110
g82
I5
ssg83
g104
sg76
(lp111
S'False'
p112
asbasbasbag69
(g85
g71
NtRp113
(dp114
g74
(dp115
sg83
g79
sg76
(lp116
g69
(g90
g71
NtRp117
(dp118
g74
(dp119
g94
g95
ssg83
g113
sg76
(lp120
S'application'
p121
asbag69
(g90
g71
NtRp122
(dp123
g74
(dp124
g101
g102
ssg83
g113
sg76
(lp125
S':'
asbag69
(g90
g71
NtRp126
(dp127
g74
(dp128
sg83
g113
sg76
(lp129
g69
(g70
g71
NtRp130
(dp131
g74
(dp132
g82
I5
ssg83
g126
sg76
(lp133
S'flisol2012'
p134
asbasbasbag69
(g85
g71
NtRp135
(dp136
g74
(dp137
sg83
g79
sg76
(lp138
g69
(g90
g71
NtRp139
(dp140
g74
(dp141
g94
g95
ssg83
g135
sg76
(lp142
g52
asbag69
(g90
g71
NtRp143
(dp144
g74
(dp145
g101
g102
ssg83
g135
sg76
(lp146
S':'
asbag69
(g90
g71
NtRp147
(dp148
g74
(dp149
sg83
g135
sg76
(lp150
g69
(g70
g71
NtRp151
(dp152
g74
(dp153
g82
I5
ssg83
g147
sg76
(lp154
g69
(g78
g71
NtRp155
(dp156
g74
(dp157
g82
I4
ssg83
Nsg76
(lp158
sbasbasbasbag69
(g85
g71
NtRp159
(dp160
g74
(dp161
sg83
g79
sg76
(lp162
g69
(g90
g71
NtRp163
(dp164
g74
(dp165
g94
g95
ssg83
g159
sg76
(lp166
S'body'
p167
asbag69
(g90
g71
NtRp168
(dp169
g74
(dp170
g101
g102
ssg83
g159
sg76
(lp171
S':'
asbag69
(g90
g71
NtRp172
(dp173
g74
(dp174
sg83
g159
sg76
(lp175
g69
(g70
g71
NtRp176
(dp177
g74
(dp178
g82
I5
ssg83
g172
sg76
(lp179
S'<cStringIO.StringO object at 0x7f4f103a5180>'
p180
asbasbasbag69
(g85
g71
NtRp181
(dp182
g74
(dp183
sg83
g79
sg76
(lp184
g69
(g90
g71
NtRp185
(dp186
g74
(dp187
g94
g95
ssg83
g181
sg76
(lp188
S'client'
p189
asbag69
(g90
g71
NtRp190
(dp191
g74
(dp192
g101
g102
ssg83
g181
sg76
(lp193
S':'
asbag69
(g90
g71
NtRp194
(dp195
g74
(dp196
sg83
g181
sg76
(lp197
g69
(g70
g71
NtRp198
(dp199
g74
(dp200
g82
I5
ssg83
g194
sg76
(lp201
S'127.0.0.1'
p202
asbasbasbag69
(g85
g71
NtRp203
(dp204
g74
(dp205
sg83
g79
sg76
(lp206
g69
(g90
g71
NtRp207
(dp208
g74
(dp209
g94
g95
ssg83
g203
sg76
(lp210
S'controller'
p211
asbag69
(g90
g71
NtRp212
(dp213
g74
(dp214
g101
g102
ssg83
g203
sg76
(lp215
S':'
asbag69
(g90
g71
NtRp216
(dp217
g74
(dp218
sg83
g203
sg76
(lp219
g69
(g70
g71
NtRp220
(dp221
g74
(dp222
g82
I5
ssg83
g216
sg76
(lp223
S'default'
p224
asbasbasbag69
(g85
g71
NtRp225
(dp226
g74
(dp227
sg83
g79
sg76
(lp228
g69
(g90
g71
NtRp229
(dp230
g74
(dp231
g94
g95
ssg83
g225
sg76
(lp232
S'cookies'
p233
asbag69
(g90
g71
NtRp234
(dp235
g74
(dp236
g101
g102
ssg83
g225
sg76
(lp237
S':'
asbag69
(g90
g71
NtRp238
(dp239
g74
(dp240
sg83
g225
sg76
(lp241
g69
(g70
g71
NtRp242
(dp243
g74
(dp244
g82
I5
ssg83
g238
sg76
(lp245
g69
(g78
g71
NtRp246
(dp247
g74
(dp248
g82
I4
ssg83
Nsg76
(lp249
g69
(g85
g71
NtRp250
(dp251
g74
(dp252
sg83
g246
sg76
(lp253
g69
(g90
g71
NtRp254
(dp255
g74
(dp256
g94
g95
ssg83
g250
sg76
(lp257
S'session_id_admin'
p258
asbag69
(g90
g71
NtRp259
(dp260
g74
(dp261
g101
g102
ssg83
g250
sg76
(lp262
S':'
asbag69
(g90
g71
NtRp263
(dp264
g74
(dp265
sg83
g250
sg76
(lp266
g69
(g70
g71
NtRp267
(dp268
g74
(dp269
g82
I4
ssg83
g263
sg76
(lp270
g69
(g78
g71
NtRp271
(dp272
g74
(dp273
g82
I3
ssg83
Nsg76
(lp274
g69
(g85
g71
NtRp275
(dp276
g74
(dp277
sg83
g271
sg76
(lp278
g69
(g90
g71
NtRp279
(dp280
g74
(dp281
g94
g95
ssg83
g275
sg76
(lp282
S'comment'
p283
asbag69
(g90
g71
NtRp284
(dp285
g74
(dp286
g101
g102
ssg83
g275
sg76
(lp287
S':'
asbag69
(g90
g71
NtRp288
(dp289
g74
(dp290
sg83
g275
sg76
(lp291
g69
(g70
g71
NtRp292
(dp293
g74
(dp294
g82
I3
ssg83
g288
sg76
(lp295
S''
asbasbasbag69
(g85
g71
NtRp296
(dp297
g74
(dp298
sg83
g271
sg76
(lp299
g69
(g90
g71
NtRp300
(dp301
g74
(dp302
g94
g95
ssg83
g296
sg76
(lp303
S'domain'
p304
asbag69
(g90
g71
NtRp305
(dp306
g74
(dp307
g101
g102
ssg83
g296
sg76
(lp308
S':'
asbag69
(g90
g71
NtRp309
(dp310
g74
(dp311
sg83
g296
sg76
(lp312
g69
(g70
g71
NtRp313
(dp314
g74
(dp315
g82
I3
ssg83
g309
sg76
(lp316
S''
asbasbasbag69
(g85
g71
NtRp317
(dp318
g74
(dp319
sg83
g271
sg76
(lp320
g69
(g90
g71
NtRp321
(dp322
g74
(dp323
g94
g95
ssg83
g317
sg76
(lp324
S'expires'
p325
asbag69
(g90
g71
NtRp326
(dp327
g74
(dp328
g101
g102
ssg83
g317
sg76
(lp329
S':'
asbag69
(g90
g71
NtRp330
(dp331
g74
(dp332
sg83
g317
sg76
(lp333
g69
(g70
g71
NtRp334
(dp335
g74
(dp336
g82
I3
ssg83
g330
sg76
(lp337
S''
asbasbasbag69
(g85
g71
NtRp338
(dp339
g74
(dp340
sg83
g271
sg76
(lp341
g69
(g90
g71
NtRp342
(dp343
g74
(dp344
g94
g95
ssg83
g338
sg76
(lp345
S'httponly'
p346
asbag69
(g90
g71
NtRp347
(dp348
g74
(dp349
g101
g102
ssg83
g338
sg76
(lp350
S':'
asbag69
(g90
g71
NtRp351
(dp352
g74
(dp353
sg83
g338
sg76
(lp354
g69
(g70
g71
NtRp355
(dp356
g74
(dp357
g82
I3
ssg83
g351
sg76
(lp358
S''
asbasbasbag69
(g85
g71
NtRp359
(dp360
g74
(dp361
sg83
g271
sg76
(lp362
g69
(g90
g71
NtRp363
(dp364
g74
(dp365
g94
g95
ssg83
g359
sg76
(lp366
S'max-age'
p367
asbag69
(g90
g71
NtRp368
(dp369
g74
(dp370
g101
g102
ssg83
g359
sg76
(lp371
S':'
asbag69
(g90
g71
NtRp372
(dp373
g74
(dp374
sg83
g359
sg76
(lp375
g69
(g70
g71
NtRp376
(dp377
g74
(dp378
g82
I3
ssg83
g372
sg76
(lp379
S''
asbasbasbag69
(g85
g71
NtRp380
(dp381
g74
(dp382
sg83
g271
sg76
(lp383
g69
(g90
g71
NtRp384
(dp385
g74
(dp386
g94
g95
ssg83
g380
sg76
(lp387
S'path'
p388
asbag69
(g90
g71
NtRp389
(dp390
g74
(dp391
g101
g102
ssg83
g380
sg76
(lp392
S':'
asbag69
(g90
g71
NtRp393
(dp394
g74
(dp395
sg83
g380
sg76
(lp396
g69
(g70
g71
NtRp397
(dp398
g74
(dp399
g82
I3
ssg83
g393
sg76
(lp400
S''
asbasbasbag69
(g85
g71
NtRp401
(dp402
g74
(dp403
sg83
g271
sg76
(lp404
g69
(g90
g71
NtRp405
(dp406
g74
(dp407
g94
g95
ssg83
g401
sg76
(lp408
S'secure'
p409
asbag69
(g90
g71
NtRp410
(dp411
g74
(dp412
g101
g102
ssg83
g401
sg76
(lp413
S':'
asbag69
(g90
g71
NtRp414
(dp415
g74
(dp416
sg83
g401
sg76
(lp417
g69
(g70
g71
NtRp418
(dp419
g74
(dp420
g82
I3
ssg83
g414
sg76
(lp421
S''
asbasbasbag69
(g85
g71
NtRp422
(dp423
g74
(dp424
sg83
g271
sg76
(lp425
g69
(g90
g71
NtRp426
(dp427
g74
(dp428
g94
g95
ssg83
g422
sg76
(lp429
S'version'
p430
asbag69
(g90
g71
NtRp431
(dp432
g74
(dp433
g101
g102
ssg83
g422
sg76
(lp434
S':'
asbag69
(g90
g71
NtRp435
(dp436
g74
(dp437
sg83
g422
sg76
(lp438
g69
(g70
g71
NtRp439
(dp440
g74
(dp441
g82
I3
ssg83
g435
sg76
(lp442
S''
asbasbasbasbasbasbasbag69
(g85
g71
NtRp443
(dp444
g74
(dp445
sg83
g246
sg76
(lp446
g69
(g90
g71
NtRp447
(dp448
g74
(dp449
g94
g95
ssg83
g443
sg76
(lp450
S'session_id_flisol2012'
p451
asbag69
(g90
g71
NtRp452
(dp453
g74
(dp454
g101
g102
ssg83
g443
sg76
(lp455
S':'
asbag69
(g90
g71
NtRp456
(dp457
g74
(dp458
sg83
g443
sg76
(lp459
g69
(g70
g71
NtRp460
(dp461
g74
(dp462
g82
I4
ssg83
g456
sg76
(lp463
g69
(g78
g71
NtRp464
(dp465
g74
(dp466
g82
I3
ssg83
Nsg76
(lp467
g69
(g85
g71
NtRp468
(dp469
g74
(dp470
sg83
g464
sg76
(lp471
g69
(g90
g71
NtRp472
(dp473
g74
(dp474
g94
g95
ssg83
g468
sg76
(lp475
g283
asbag69
(g90
g71
NtRp476
(dp477
g74
(dp478
g101
g102
ssg83
g468
sg76
(lp479
S':'
asbag69
(g90
g71
NtRp480
(dp481
g74
(dp482
sg83
g468
sg76
(lp483
g69
(g70
g71
NtRp484
(dp485
g74
(dp486
g82
I3
ssg83
g480
sg76
(lp487
S''
asbasbasbag69
(g85
g71
NtRp488
(dp489
g74
(dp490
sg83
g464
sg76
(lp491
g69
(g90
g71
NtRp492
(dp493
g74
(dp494
g94
g95
ssg83
g488
sg76
(lp495
g304
asbag69
(g90
g71
NtRp496
(dp497
g74
(dp498
g101
g102
ssg83
g488
sg76
(lp499
S':'
asbag69
(g90
g71
NtRp500
(dp501
g74
(dp502
sg83
g488
sg76
(lp503
g69
(g70
g71
NtRp504
(dp505
g74
(dp506
g82
I3
ssg83
g500
sg76
(lp507
S''
asbasbasbag69
(g85
g71
NtRp508
(dp509
g74
(dp510
sg83
g464
sg76
(lp511
g69
(g90
g71
NtRp512
(dp513
g74
(dp514
g94
g95
ssg83
g508
sg76
(lp515
g325
asbag69
(g90
g71
NtRp516
(dp517
g74
(dp518
g101
g102
ssg83
g508
sg76
(lp519
S':'
asbag69
(g90
g71
NtRp520
(dp521
g74
(dp522
sg83
g508
sg76
(lp523
g69
(g70
g71
NtRp524
(dp525
g74
(dp526
g82
I3
ssg83
g520
sg76
(lp527
S''
asbasbasbag69
(g85
g71
NtRp528
(dp529
g74
(dp530
sg83
g464
sg76
(lp531
g69
(g90
g71
NtRp532
(dp533
g74
(dp534
g94
g95
ssg83
g528
sg76
(lp535
g346
asbag69
(g90
g71
NtRp536
(dp537
g74
(dp538
g101
g102
ssg83
g528
sg76
(lp539
S':'
asbag69
(g90
g71
NtRp540
(dp541
g74
(dp542
sg83
g528
sg76
(lp543
g69
(g70
g71
NtRp544
(dp545
g74
(dp546
g82
I3
ssg83
g540
sg76
(lp547
S''
asbasbasbag69
(g85
g71
NtRp548
(dp549
g74
(dp550
sg83
g464
sg76
(lp551
g69
(g90
g71
NtRp552
(dp553
g74
(dp554
g94
g95
ssg83
g548
sg76
(lp555
g367
asbag69
(g90
g71
NtRp556
(dp557
g74
(dp558
g101
g102
ssg83
g548
sg76
(lp559
S':'
asbag69
(g90
g71
NtRp560
(dp561
g74
(dp562
sg83
g548
sg76
(lp563
g69
(g70
g71
NtRp564
(dp565
g74
(dp566
g82
I3
ssg83
g560
sg76
(lp567
S''
asbasbasbag69
(g85
g71
NtRp568
(dp569
g74
(dp570
sg83
g464
sg76
(lp571
g69
(g90
g71
NtRp572
(dp573
g74
(dp574
g94
g95
ssg83
g568
sg76
(lp575
g388
asbag69
(g90
g71
NtRp576
(dp577
g74
(dp578
g101
g102
ssg83
g568
sg76
(lp579
S':'
asbag69
(g90
g71
NtRp580
(dp581
g74
(dp582
sg83
g568
sg76
(lp583
g69
(g70
g71
NtRp584
(dp585
g74
(dp586
g82
I3
ssg83
g580
sg76
(lp587
S''
asbasbasbag69
(g85
g71
NtRp588
(dp589
g74
(dp590
sg83
g464
sg76
(lp591
g69
(g90
g71
NtRp592
(dp593
g74
(dp594
g94
g95
ssg83
g588
sg76
(lp595
g409
asbag69
(g90
g71
NtRp596
(dp597
g74
(dp598
g101
g102
ssg83
g588
sg76
(lp599
S':'
asbag69
(g90
g71
NtRp600
(dp601
g74
(dp602
sg83
g588
sg76
(lp603
g69
(g70
g71
NtRp604
(dp605
g74
(dp606
g82
I3
ssg83
g600
sg76
(lp607
S''
asbasbasbag69
(g85
g71
NtRp608
(dp609
g74
(dp610
sg83
g464
sg76
(lp611
g69
(g90
g71
NtRp612
(dp613
g74
(dp614
g94
g95
ssg83
g608
sg76
(lp615
g430
asbag69
(g90
g71
NtRp616
(dp617
g74
(dp618
g101
g102
ssg83
g608
sg76
(lp619
S':'
asbag69
(g90
g71
NtRp620
(dp621
g74
(dp622
sg83
g608
sg76
(lp623
g69
(g70
g71
NtRp624
(dp625
g74
(dp626
g82
I3
ssg83
g620
sg76
(lp627
S''
asbasbasbasbasbasbasbag69
(g85
g71
NtRp628
(dp629
g74
(dp630
sg83
g246
sg76
(lp631
g69
(g90
g71
NtRp632
(dp633
g74
(dp634
g94
g95
ssg83
g628
sg76
(lp635
S'session_id_reingart'
p636
asbag69
(g90
g71
NtRp637
(dp638
g74
(dp639
g101
g102
ssg83
g628
sg76
(lp640
S':'
asbag69
(g90
g71
NtRp641
(dp642
g74
(dp643
sg83
g628
sg76
(lp644
g69
(g70
g71
NtRp645
(dp646
g74
(dp647
g82
I4
ssg83
g641
sg76
(lp648
g69
(g78
g71
NtRp649
(dp650
g74
(dp651
g82
I3
ssg83
Nsg76
(lp652
g69
(g85
g71
NtRp653
(dp654
g74
(dp655
sg83
g649
sg76
(lp656
g69
(g90
g71
NtRp657
(dp658
g74
(dp659
g94
g95
ssg83
g653
sg76
(lp660
g283
asbag69
(g90
g71
NtRp661
(dp662
g74
(dp663
g101
g102
ssg83
g653
sg76
(lp664
S':'
asbag69
(g90
g71
NtRp665
(dp666
g74
(dp667
sg83
g653
sg76
(lp668
g69
(g70
g71
NtRp669
(dp670
g74
(dp671
g82
I3
ssg83
g665
sg76
(lp672
S''
asbasbasbag69
(g85
g71
NtRp673
(dp674
g74
(dp675
sg83
g649
sg76
(lp676
g69
(g90
g71
NtRp677
(dp678
g74
(dp679
g94
g95
ssg83
g673
sg76
(lp680
g304
asbag69
(g90
g71
NtRp681
(dp682
g74
(dp683
g101
g102
ssg83
g673
sg76
(lp684
S':'
asbag69
(g90
g71
NtRp685
(dp686
g74
(dp687
sg83
g673
sg76
(lp688
g69
(g70
g71
NtRp689
(dp690
g74
(dp691
g82
I3
ssg83
g685
sg76
(lp692
S''
asbasbasbag69
(g85
g71
NtRp693
(dp694
g74
(dp695
sg83
g649
sg76
(lp696
g69
(g90
g71
NtRp697
(dp698
g74
(dp699
g94
g95
ssg83
g693
sg76
(lp700
g325
asbag69
(g90
g71
NtRp701
(dp702
g74
(dp703
g101
g102
ssg83
g693
sg76
(lp704
S':'
asbag69
(g90
g71
NtRp705
(dp706
g74
(dp707
sg83
g693
sg76
(lp708
g69
(g70
g71
NtRp709
(dp710
g74
(dp711
g82
I3
ssg83
g705
sg76
(lp712
S''
asbasbasbag69
(g85
g71
NtRp713
(dp714
g74
(dp715
sg83
g649
sg76
(lp716
g69
(g90
g71
NtRp717
(dp718
g74
(dp719
g94
g95
ssg83
g713
sg76
(lp720
g346
asbag69
(g90
g71
NtRp721
(dp722
g74
(dp723
g101
g102
ssg83
g713
sg76
(lp724
S':'
asbag69
(g90
g71
NtRp725
(dp726
g74
(dp727
sg83
g713
sg76
(lp728
g69
(g70
g71
NtRp729
(dp730
g74
(dp731
g82
I3
ssg83
g725
sg76
(lp732
S''
asbasbasbag69
(g85
g71
NtRp733
(dp734
g74
(dp735
sg83
g649
sg76
(lp736
g69
(g90
g71
NtRp737
(dp738
g74
(dp739
g94
g95
ssg83
g733
sg76
(lp740
g367
asbag69
(g90
g71
NtRp741
(dp742
g74
(dp743
g101
g102
ssg83
g733
sg76
(lp744
S':'
asbag69
(g90
g71
NtRp745
(dp746
g74
(dp747
sg83
g733
sg76
(lp748
g69
(g70
g71
NtRp749
(dp750
g74
(dp751
g82
I3
ssg83
g745
sg76
(lp752
S''
asbasbasbag69
(g85
g71
NtRp753
(dp754
g74
(dp755
sg83
g649
sg76
(lp756
g69
(g90
g71
NtRp757
(dp758
g74
(dp759
g94
g95
ssg83
g753
sg76
(lp760
g388
asbag69
(g90
g71
NtRp761
(dp762
g74
(dp763
g101
g102
ssg83
g753
sg76
(lp764
S':'
asbag69
(g90
g71
NtRp765
(dp766
g74
(dp767
sg83
g753
sg76
(lp768
g69
(g70
g71
NtRp769
(dp770
g74
(dp771
g82
I3
ssg83
g765
sg76
(lp772
S''
asbasbasbag69
(g85
g71
NtRp773
(dp774
g74
(dp775
sg83
g649
sg76
(lp776
g69
(g90
g71
NtRp777
(dp778
g74
(dp779
g94
g95
ssg83
g773
sg76
(lp780
g409
asbag69
(g90
g71
NtRp781
(dp782
g74
(dp783
g101
g102
ssg83
g773
sg76
(lp784
S':'
asbag69
(g90
g71
NtRp785
(dp786
g74
(dp787
sg83
g773
sg76
(lp788
g69
(g70
g71
NtRp789
(dp790
g74
(dp791
g82
I3
ssg83
g785
sg76
(lp792
S''
asbasbasbag69
(g85
g71
NtRp793
(dp794
g74
(dp795
sg83
g649
sg76
(lp796
g69
(g90
g71
NtRp797
(dp798
g74
(dp799
g94
g95
ssg83
g793
sg76
(lp800
g430
asbag69
(g90
g71
NtRp801
(dp802
g74
(dp803
g101
g102
ssg83
g793
sg76
(lp804
S':'
asbag69
(g90
g71
NtRp805
(dp806
g74
(dp807
sg83
g793
sg76
(lp808
g69
(g70
g71
NtRp809
(dp810
g74
(dp811
g82
I3
ssg83
g805
sg76
(lp812
S''
asbasbasbasbasbasbasbag69
(g85
g71
NtRp813
(dp814
g74
(dp815
sg83
g246
sg76
(lp816
g69
(g90
g71
NtRp817
(dp818
g74
(dp819
g94
g95
ssg83
g813
sg76
(lp820
S'session_id_welcome'
p821
asbag69
(g90
g71
NtRp822
(dp823
g74
(dp824
g101
g102
ssg83
g813
sg76
(lp825
S':'
asbag69
(g90
g71
NtRp826
(dp827
g74
(dp828
sg83
g813
sg76
(lp829
g69
(g70
g71
NtRp830
(dp831
g74
(dp832
g82
I4
ssg83
g826
sg76
(lp833
g69
(g78
g71
NtRp834
(dp835
g74
(dp836
g82
I3
ssg83
Nsg76
(lp837
g69
(g85
g71
NtRp838
(dp839
g74
(dp840
sg83
g834
sg76
(lp841
g69
(g90
g71
NtRp842
(dp843
g74
(dp844
g94
g95
ssg83
g838
sg76
(lp845
g283
asbag69
(g90
g71
NtRp846
(dp847
g74
(dp848
g101
g102
ssg83
g838
sg76
(lp849
S':'
asbag69
(g90
g71
NtRp850
(dp851
g74
(dp852
sg83
g838
sg76
(lp853
g69
(g70
g71
NtRp854
(dp855
g74
(dp856
g82
I3
ssg83
g850
sg76
(lp857
S''
asbasbasbag69
(g85
g71
NtRp858
(dp859
g74
(dp860
sg83
g834
sg76
(lp861
g69
(g90
g71
NtRp862
(dp863
g74
(dp864
g94
g95
ssg83
g858
sg76
(lp865
g304
asbag69
(g90
g71
NtRp866
(dp867
g74
(dp868
g101
g102
ssg83
g858
sg76
(lp869
S':'
asbag69
(g90
g71
NtRp870
(dp871
g74
(dp872
sg83
g858
sg76
(lp873
g69
(g70
g71
NtRp874
(dp875
g74
(dp876
g82
I3
ssg83
g870
sg76
(lp877
S''
asbasbasbag69
(g85
g71
NtRp878
(dp879
g74
(dp880
sg83
g834
sg76
(lp881
g69
(g90
g71
NtRp882
(dp883
g74
(dp884
g94
g95
ssg83
g878
sg76
(lp885
g325
asbag69
(g90
g71
NtRp886
(dp887
g74
(dp888
g101
g102
ssg83
g878
sg76
(lp889
S':'
asbag69
(g90
g71
NtRp890
(dp891
g74
(dp892
sg83
g878
sg76
(lp893
g69
(g70
g71
NtRp894
(dp895
g74
(dp896
g82
I3
ssg83
g890
sg76
(lp897
S''
asbasbasbag69
(g85
g71
NtRp898
(dp899
g74
(dp900
sg83
g834
sg76
(lp901
g69
(g90
g71
NtRp902
(dp903
g74
(dp904
g94
g95
ssg83
g898
sg76
(lp905
g346
asbag69
(g90
g71
NtRp906
(dp907
g74
(dp908
g101
g102
ssg83
g898
sg76
(lp909
S':'
asbag69
(g90
g71
NtRp910
(dp911
g74
(dp912
sg83
g898
sg76
(lp913
g69
(g70
g71
NtRp914
(dp915
g74
(dp916
g82
I3
ssg83
g910
sg76
(lp917
S''
asbasbasbag69
(g85
g71
NtRp918
(dp919
g74
(dp920
sg83
g834
sg76
(lp921
g69
(g90
g71
NtRp922
(dp923
g74
(dp924
g94
g95
ssg83
g918
sg76
(lp925
g367
asbag69
(g90
g71
NtRp926
(dp927
g74
(dp928
g101
g102
ssg83
g918
sg76
(lp929
S':'
asbag69
(g90
g71
NtRp930
(dp931
g74
(dp932
sg83
g918
sg76
(lp933
g69
(g70
g71
NtRp934
(dp935
g74
(dp936
g82
I3
ssg83
g930
sg76
(lp937
S''
asbasbasbag69
(g85
g71
NtRp938
(dp939
g74
(dp940
sg83
g834
sg76
(lp941
g69
(g90
g71
NtRp942
(dp943
g74
(dp944
g94
g95
ssg83
g938
sg76
(lp945
g388
asbag69
(g90
g71
NtRp946
(dp947
g74
(dp948
g101
g102
ssg83
g938
sg76
(lp949
S':'
asbag69
(g90
g71
NtRp950
(dp951
g74
(dp952
sg83
g938
sg76
(lp953
g69
(g70
g71
NtRp954
(dp955
g74
(dp956
g82
I3
ssg83
g950
sg76
(lp957
S''
asbasbasbag69
(g85
g71
NtRp958
(dp959
g74
(dp960
sg83
g834
sg76
(lp961
g69
(g90
g71
NtRp962
(dp963
g74
(dp964
g94
g95
ssg83
g958
sg76
(lp965
g409
asbag69
(g90
g71
NtRp966
(dp967
g74
(dp968
g101
g102
ssg83
g958
sg76
(lp969
S':'
asbag69
(g90
g71
NtRp970
(dp971
g74
(dp972
sg83
g958
sg76
(lp973
g69
(g70
g71
NtRp974
(dp975
g74
(dp976
g82
I3
ssg83
g970
sg76
(lp977
S''
asbasbasbag69
(g85
g71
NtRp978
(dp979
g74
(dp980
sg83
g834
sg76
(lp981
g69
(g90
g71
NtRp982
(dp983
g74
(dp984
g94
g95
ssg83
g978
sg76
(lp985
g430
asbag69
(g90
g71
NtRp986
(dp987
g74
(dp988
g101
g102
ssg83
g978
sg76
(lp989
S':'
asbag69
(g90
g71
NtRp990
(dp991
g74
(dp992
sg83
g978
sg76
(lp993
g69
(g70
g71
NtRp994
(dp995
g74
(dp996
g82
I3
ssg83
g990
sg76
(lp997
S''
asbasbasbasbasbasbasbasbasbasbasbag69
(g85
g71
NtRp998
(dp999
g74
(dp1000
sg83
g79
sg76
(lp1001
g69
(g90
g71
NtRp1002
(dp1003
g74
(dp1004
g94
g95
ssg83
g998
sg76
(lp1005
S'env'
p1006
asbag69
(g90
g71
NtRp1007
(dp1008
g74
(dp1009
g101
g102
ssg83
g998
sg76
(lp1010
S':'
asbag69
(g90
g71
NtRp1011
(dp1012
g74
(dp1013
sg83
g998
sg76
(lp1014
g69
(g70
g71
NtRp1015
(dp1016
g74
(dp1017
g82
I5
ssg83
g1011
sg76
(lp1018
g69
(g78
g71
NtRp1019
(dp1020
g74
(dp1021
g82
I4
ssg83
Nsg76
(lp1022
g69
(g85
g71
NtRp1023
(dp1024
g74
(dp1025
sg83
g1019
sg76
(lp1026
g69
(g90
g71
NtRp1027
(dp1028
g74
(dp1029
g94
g95
ssg83
g1023
sg76
(lp1030
S'app_folders'
p1031
asbag69
(g90
g71
NtRp1032
(dp1033
g74
(dp1034
g101
g102
ssg83
g1023
sg76
(lp1035
S':'
asbag69
(g90
g71
NtRp1036
(dp1037
g74
(dp1038
sg83
g1023
sg76
(lp1039
g69
(g70
g71
NtRp1040
(dp1041
g74
(dp1042
g82
I4
ssg83
g1036
sg76
(lp1043
S"set(['/home/marco/flisol2012/web2py/applications/welcome/', '/home/marco/flisol2012/web2py/applications/flisol2012/', '/home/marco/flisol2012/web2py/applications/admin/'])"
p1044
asbasbasbag69
(g85
g71
NtRp1045
(dp1046
g74
(dp1047
sg83
g1019
sg76
(lp1048
g69
(g90
g71
NtRp1049
(dp1050
g74
(dp1051
g94
g95
ssg83
g1045
sg76
(lp1052
S'applications_parent'
p1053
asbag69
(g90
g71
NtRp1054
(dp1055
g74
(dp1056
g101
g102
ssg83
g1045
sg76
(lp1057
S':'
asbag69
(g90
g71
NtRp1058
(dp1059
g74
(dp1060
sg83
g1045
sg76
(lp1061
g69
(g70
g71
NtRp1062
(dp1063
g74
(dp1064
g82
I4
ssg83
g1058
sg76
(lp1065
S'/home/marco/flisol2012/web2py'
p1066
asbasbasbag69
(g85
g71
NtRp1067
(dp1068
g74
(dp1069
sg83
g1019
sg76
(lp1070
g69
(g90
g71
NtRp1071
(dp1072
g74
(dp1073
g94
g95
ssg83
g1067
sg76
(lp1074
S'cmd_args'
p1075
asbag69
(g90
g71
NtRp1076
(dp1077
g74
(dp1078
g101
g102
ssg83
g1067
sg76
(lp1079
S':'
asbag69
(g90
g71
NtRp1080
(dp1081
g74
(dp1082
sg83
g1067
sg76
(lp1083
g69
(g70
g71
NtRp1084
(dp1085
g74
(dp1086
g82
I4
ssg83
g1080
sg76
(lp1087
g69
(g78
g71
NtRp1088
(dp1089
g74
(dp1090
g82
I3
ssg83
Nsg76
(lp1091
sbasbasbasbag69
(g85
g71
NtRp1092
(dp1093
g74
(dp1094
sg83
g1019
sg76
(lp1095
g69
(g90
g71
NtRp1096
(dp1097
g74
(dp1098
g94
g95
ssg83
g1092
sg76
(lp1099
S'cmd_options'
p1100
asbag69
(g90
g71
NtRp1101
(dp1102
g74
(dp1103
g101
g102
ssg83
g1092
sg76
(lp1104
S':'
asbag69
(g90
g71
NtRp1105
(dp1106
g74
(dp1107
sg83
g1092
sg76
(lp1108
g69
(g70
g71
NtRp1109
(dp1110
g74
(dp1111
g82
I4
ssg83
g1105
sg76
(lp1112
S"<Values at 0x1bd6908: {'verbose': False, 'ip': '127.0.0.1', 'shutdown_timeout': 5, 'taskbar': False, 'nocron': False, 'pid_filename': 'httpserver.pid', 'maxthreads': None, 'softcron': False, 'server_name': 'malena', 'bpython': False, 'nogui': False, 'port': 8000, 'extcron': False, 'debuglevel': 30, 'test': None, 'folder': '/home/marco/flisol2012/web2py', 'config': '', 'import_models': False, 'winservice': '', 'shell': None, 'run': '', 'log_filename': 'httpserver.log', 'args': [''], 'socket_timeout': 5, 'ssl_ca_certificate': None, 'scheduler': None, 'profiler_filename': None, 'ssl_private_key': '', 'password': 'asd', 'request_queue_size': 5, 'ssl_certificate': '', 'cronjob': False, 'numthreads': None, 'quiet': False, 'interfaces': None, 'minthreads': None, 'timeout': 10, 'plain': False, 'nobanner': False}>"
p1113
asbasbasbag69
(g85
g71
NtRp1114
(dp1115
g74
(dp1116
sg83
g1019
sg76
(lp1117
g69
(g90
g71
NtRp1118
(dp1119
g74
(dp1120
g94
g95
ssg83
g1114
sg76
(lp1121
S'db_sessions'
p1122
asbag69
(g90
g71
NtRp1123
(dp1124
g74
(dp1125
g101
g102
ssg83
g1114
sg76
(lp1126
S':'
asbag69
(g90
g71
NtRp1127
(dp1128
g74
(dp1129
sg83
g1114
sg76
(lp1130
g69
(g70
g71
NtRp1131
(dp1132
g74
(dp1133
g82
I4
ssg83
g1127
sg76
(lp1134
S'set([])'
p1135
asbasbasbag69
(g85
g71
NtRp1136
(dp1137
g74
(dp1138
sg83
g1019
sg76
(lp1139
g69
(g90
g71
NtRp1140
(dp1141
g74
(dp1142
g94
g95
ssg83
g1136
sg76
(lp1143
S'debugging'
p1144
asbag69
(g90
g71
NtRp1145
(dp1146
g74
(dp1147
g101
g102
ssg83
g1136
sg76
(lp1148
S':'
asbag69
(g90
g71
NtRp1149
(dp1150
g74
(dp1151
sg83
g1136
sg76
(lp1152
g69
(g70
g71
NtRp1153
(dp1154
g74
(dp1155
g82
I4
ssg83
g1149
sg76
(lp1156
g112
asbasbasbag69
(g85
g71
NtRp1157
(dp1158
g74
(dp1159
sg83
g1019
sg76
(lp1160
g69
(g90
g71
NtRp1161
(dp1162
g74
(dp1163
g94
g95
ssg83
g1157
sg76
(lp1164
S'gluon_parent'
p1165
asbag69
(g90
g71
NtRp1166
(dp1167
g74
(dp1168
g101
g102
ssg83
g1157
sg76
(lp1169
S':'
asbag69
(g90
g71
NtRp1170
(dp1171
g74
(dp1172
sg83
g1157
sg76
(lp1173
g69
(g70
g71
NtRp1174
(dp1175
g74
(dp1176
g82
I4
ssg83
g1170
sg76
(lp1177
S'/home/marco/flisol2012/web2py'
p1178
asbasbasbag69
(g85
g71
NtRp1179
(dp1180
g74
(dp1181
sg83
g1019
sg76
(lp1182
g69
(g90
g71
NtRp1183
(dp1184
g74
(dp1185
g94
g95
ssg83
g1179
sg76
(lp1186
S'http_accept'
p1187
asbag69
(g90
g71
NtRp1188
(dp1189
g74
(dp1190
g101
g102
ssg83
g1179
sg76
(lp1191
S':'
asbag69
(g90
g71
NtRp1192
(dp1193
g74
(dp1194
sg83
g1179
sg76
(lp1195
g69
(g70
g71
NtRp1196
(dp1197
g74
(dp1198
g82
I4
ssg83
g1192
sg76
(lp1199
S'text/html,application/xhtml+xml,application/xml;q=0.9,*/*;q=0.8'
p1200
asbasbasbag69
(g85
g71
NtRp1201
(dp1202
g74
(dp1203
sg83
g1019
sg76
(lp1204
g69
(g90
g71
NtRp1205
(dp1206
g74
(dp1207
g94
g95
ssg83
g1201
sg76
(lp1208
S'http_accept_encoding'
p1209
asbag69
(g90
g71
NtRp1210
(dp1211
g74
(dp1212
g101
g102
ssg83
g1201
sg76
(lp1213
S':'
asbag69
(g90
g71
NtRp1214
(dp1215
g74
(dp1216
sg83
g1201
sg76
(lp1217
g69
(g70
g71
NtRp1218
(dp1219
g74
(dp1220
g82
I4
ssg83
g1214
sg76
(lp1221
S'gzip, deflate'
p1222
asbasbasbag69
(g85
g71
NtRp1223
(dp1224
g74
(dp1225
sg83
g1019
sg76
(lp1226
g69
(g90
g71
NtRp1227
(dp1228
g74
(dp1229
g94
g95
ssg83
g1223
sg76
(lp1230
S'http_accept_language'
p1231
asbag69
(g90
g71
NtRp1232
(dp1233
g74
(dp1234
g101
g102
ssg83
g1223
sg76
(lp1235
S':'
asbag69
(g90
g71
NtRp1236
(dp1237
g74
(dp1238
sg83
g1223
sg76
(lp1239
g69
(g70
g71
NtRp1240
(dp1241
g74
(dp1242
g82
I4
ssg83
g1236
sg76
(lp1243
S'es-ar,es;q=0.8,en-us;q=0.5,en;q=0.3'
p1244
asbasbasbag69
(g85
g71
NtRp1245
(dp1246
g74
(dp1247
sg83
g1019
sg76
(lp1248
g69
(g90
g71
NtRp1249
(dp1250
g74
(dp1251
g94
g95
ssg83
g1245
sg76
(lp1252
S'http_connection'
p1253
asbag69
(g90
g71
NtRp1254
(dp1255
g74
(dp1256
g101
g102
ssg83
g1245
sg76
(lp1257
S':'
asbag69
(g90
g71
NtRp1258
(dp1259
g74
(dp1260
sg83
g1245
sg76
(lp1261
g69
(g70
g71
NtRp1262
(dp1263
g74
(dp1264
g82
I4
ssg83
g1258
sg76
(lp1265
S'keep-alive'
p1266
asbasbasbag69
(g85
g71
NtRp1267
(dp1268
g74
(dp1269
sg83
g1019
sg76
(lp1270
g69
(g90
g71
NtRp1271
(dp1272
g74
(dp1273
g94
g95
ssg83
g1267
sg76
(lp1274
S'http_cookie'
p1275
asbag69
(g90
g71
NtRp1276
(dp1277
g74
(dp1278
g101
g102
ssg83
g1267
sg76
(lp1279
S':'
asbag69
(g90
g71
NtRp1280
(dp1281
g74
(dp1282
sg83
g1267
sg76
(lp1283
g69
(g70
g71
NtRp1284
(dp1285
g74
(dp1286
g82
I4
ssg83
g1280
sg76
(lp1287
S'__utma=96992031.1881515701.1331265087.1331309329.1331316385.4; __utmc=96992031; __utmz=96992031.1331265087.1.1.utmcsr=(direct)|utmccn=(direct)|utmcmd=(none); session_id_admin=127.0.0.1-9f819232-d34d-431b-a66d-efef7821a17b; session_id_reingart=127.0.0.1-c638efce-62e3-46b3-bb1a-e04405c01702; session_id_flisol2012=127.0.0.1-2ede3a58-f97e-48e1-8d0e-90e5ecfe16bf; __utmb=96992031.98.10.1331316385; session_id_welcome=127.0.0.1-d9714dec-041d-4a2a-a113-75a39351e0db'
p1288
asbasbasbag69
(g85
g71
NtRp1289
(dp1290
g74
(dp1291
sg83
g1019
sg76
(lp1292
g69
(g90
g71
NtRp1293
(dp1294
g74
(dp1295
g94
g95
ssg83
g1289
sg76
(lp1296
S'http_host'
p1297
asbag69
(g90
g71
NtRp1298
(dp1299
g74
(dp1300
g101
g102
ssg83
g1289
sg76
(lp1301
S':'
asbag69
(g90
g71
NtRp1302
(dp1303
g74
(dp1304
sg83
g1289
sg76
(lp1305
g69
(g70
g71
NtRp1306
(dp1307
g74
(dp1308
g82
I4
ssg83
g1302
sg76
(lp1309
S'127.0.0.1:8000'
p1310
asbasbasbag69
(g85
g71
NtRp1311
(dp1312
g74
(dp1313
sg83
g1019
sg76
(lp1314
g69
(g90
g71
NtRp1315
(dp1316
g74
(dp1317
g94
g95
ssg83
g1311
sg76
(lp1318
S'http_referer'
p1319
asbag69
(g90
g71
NtRp1320
(dp1321
g74
(dp1322
g101
g102
ssg83
g1311
sg76
(lp1323
S':'
asbag69
(g90
g71
NtRp1324
(dp1325
g74
(dp1326
sg83
g1311
sg76
(lp1327
g69
(g70
g71
NtRp1328
(dp1329
g74
(dp1330
g82
I4
ssg83
g1324
sg76
(lp1331
S'http://127.0.0.1:8000/flisol2012/default/index'
p1332
asbasbasbag69
(g85
g71
NtRp1333
(dp1334
g74
(dp1335
sg83
g1019
sg76
(lp1336
g69
(g90
g71
NtRp1337
(dp1338
g74
(dp1339
g94
g95
ssg83
g1333
sg76
(lp1340
S'http_user_agent'
p1341
asbag69
(g90
g71
NtRp1342
(dp1343
g74
(dp1344
g101
g102
ssg83
g1333
sg76
(lp1345
S':'
asbag69
(g90
g71
NtRp1346
(dp1347
g74
(dp1348
sg83
g1333
sg76
(lp1349
g69
(g70
g71
NtRp1350
(dp1351
g74
(dp1352
g82
I4
ssg83
g1346
sg76
(lp1353
S'Mozilla/5.0 (X11; Linux x86_64; rv:11.0) Gecko/20100101 Firefox/11.0 Iceweasel/11.0'
p1354
asbasbasbag69
(g85
g71
NtRp1355
(dp1356
g74
(dp1357
sg83
g1019
sg76
(lp1358
g69
(g90
g71
NtRp1359
(dp1360
g74
(dp1361
g94
g95
ssg83
g1355
sg76
(lp1362
S'is_jython'
p1363
asbag69
(g90
g71
NtRp1364
(dp1365
g74
(dp1366
g101
g102
ssg83
g1355
sg76
(lp1367
S':'
asbag69
(g90
g71
NtRp1368
(dp1369
g74
(dp1370
sg83
g1355
sg76
(lp1371
g69
(g70
g71
NtRp1372
(dp1373
g74
(dp1374
g82
I4
ssg83
g1368
sg76
(lp1375
g112
asbasbasbag69
(g85
g71
NtRp1376
(dp1377
g74
(dp1378
sg83
g1019
sg76
(lp1379
g69
(g90
g71
NtRp1380
(dp1381
g74
(dp1382
g94
g95
ssg83
g1376
sg76
(lp1383
S'is_pypy'
p1384
asbag69
(g90
g71
NtRp1385
(dp1386
g74
(dp1387
g101
g102
ssg83
g1376
sg76
(lp1388
S':'
asbag69
(g90
g71
NtRp1389
(dp1390
g74
(dp1391
sg83
g1376
sg76
(lp1392
g69
(g70
g71
NtRp1393
(dp1394
g74
(dp1395
g82
I4
ssg83
g1389
sg76
(lp1396
g112
asbasbasbag69
(g85
g71
NtRp1397
(dp1398
g74
(dp1399
sg83
g1019
sg76
(lp1400
g69
(g90
g71
NtRp1401
(dp1402
g74
(dp1403
g94
g95
ssg83
g1397
sg76
(lp1404
S'path_info'
p1405
asbag69
(g90
g71
NtRp1406
(dp1407
g74
(dp1408
g101
g102
ssg83
g1397
sg76
(lp1409
S':'
asbag69
(g90
g71
NtRp1410
(dp1411
g74
(dp1412
sg83
g1397
sg76
(lp1413
g69
(g70
g71
NtRp1414
(dp1415
g74
(dp1416
g82
I4
ssg83
g1410
sg76
(lp1417
S'/flisol2012/default/companies'
p1418
asbasbasbag69
(g85
g71
NtRp1419
(dp1420
g74
(dp1421
sg83
g1019
sg76
(lp1422
g69
(g90
g71
NtRp1423
(dp1424
g74
(dp1425
g94
g95
ssg83
g1419
sg76
(lp1426
S'query_string'
p1427
asbag69
(g90
g71
NtRp1428
(dp1429
g74
(dp1430
g101
g102
ssg83
g1419
sg76
(lp1431
S':'
asbag69
(g90
g71
NtRp1432
(dp1433
g74
(dp1434
sg83
g1419
sg76
(lp1435
g69
(g70
g71
NtRp1436
(dp1437
g74
(dp1438
g82
I4
ssg83
g1432
sg76
(lp1439
S''
asbasbasbag69
(g85
g71
NtRp1440
(dp1441
g74
(dp1442
sg83
g1019
sg76
(lp1443
g69
(g90
g71
NtRp1444
(dp1445
g74
(dp1446
g94
g95
ssg83
g1440
sg76
(lp1447
S'remote_addr'
p1448
asbag69
(g90
g71
NtRp1449
(dp1450
g74
(dp1451
g101
g102
ssg83
g1440
sg76
(lp1452
S':'
asbag69
(g90
g71
NtRp1453
(dp1454
g74
(dp1455
sg83
g1440
sg76
(lp1456
g69
(g70
g71
NtRp1457
(dp1458
g74
(dp1459
g82
I4
ssg83
g1453
sg76
(lp1460
g202
asbasbasbag69
(g85
g71
NtRp1461
(dp1462
g74
(dp1463
sg83
g1019
sg76
(lp1464
g69
(g90
g71
NtRp1465
(dp1466
g74
(dp1467
g94
g95
ssg83
g1461
sg76
(lp1468
S'remote_port'
p1469
asbag69
(g90
g71
NtRp1470
(dp1471
g74
(dp1472
g101
g102
ssg83
g1461
sg76
(lp1473
S':'
asbag69
(g90
g71
NtRp1474
(dp1475
g74
(dp1476
sg83
g1461
sg76
(lp1477
g69
(g70
g71
NtRp1478
(dp1479
g74
(dp1480
g82
I4
ssg83
g1474
sg76
(lp1481
S'40679'
p1482
asbasbasbag69
(g85
g71
NtRp1483
(dp1484
g74
(dp1485
sg83
g1019
sg76
(lp1486
g69
(g90
g71
NtRp1487
(dp1488
g74
(dp1489
g94
g95
ssg83
g1483
sg76
(lp1490
S'request_method'
p1491
asbag69
(g90
g71
NtRp1492
(dp1493
g74
(dp1494
g101
g102
ssg83
g1483
sg76
(lp1495
S':'
asbag69
(g90
g71
NtRp1496
(dp1497
g74
(dp1498
sg83
g1483
sg76
(lp1499
g69
(g70
g71
NtRp1500
(dp1501
g74
(dp1502
g82
I4
ssg83
g1496
sg76
(lp1503
S'GET'
p1504
asbasbasbag69
(g85
g71
NtRp1505
(dp1506
g74
(dp1507
sg83
g1019
sg76
(lp1508
g69
(g90
g71
NtRp1509
(dp1510
g74
(dp1511
g94
g95
ssg83
g1505
sg76
(lp1512
S'script_name'
p1513
asbag69
(g90
g71
NtRp1514
(dp1515
g74
(dp1516
g101
g102
ssg83
g1505
sg76
(lp1517
S':'
asbag69
(g90
g71
NtRp1518
(dp1519
g74
(dp1520
sg83
g1505
sg76
(lp1521
g69
(g70
g71
NtRp1522
(dp1523
g74
(dp1524
g82
I4
ssg83
g1518
sg76
(lp1525
S''
asbasbasbag69
(g85
g71
NtRp1526
(dp1527
g74
(dp1528
sg83
g1019
sg76
(lp1529
g69
(g90
g71
NtRp1530
(dp1531
g74
(dp1532
g94
g95
ssg83
g1526
sg76
(lp1533
S'server_name'
p1534
asbag69
(g90
g71
NtRp1535
(dp1536
g74
(dp1537
g101
g102
ssg83
g1526
sg76
(lp1538
S':'
asbag69
(g90
g71
NtRp1539
(dp1540
g74
(dp1541
sg83
g1526
sg76
(lp1542
g69
(g70
g71
NtRp1543
(dp1544
g74
(dp1545
g82
I4
ssg83
g1539
sg76
(lp1546
S'malena'
p1547
asbasbasbag69
(g85
g71
NtRp1548
(dp1549
g74
(dp1550
sg83
g1019
sg76
(lp1551
g69
(g90
g71
NtRp1552
(dp1553
g74
(dp1554
g94
g95
ssg83
g1548
sg76
(lp1555
S'server_port'
p1556
asbag69
(g90
g71
NtRp1557
(dp1558
g74
(dp1559
g101
g102
ssg83
g1548
sg76
(lp1560
S':'
asbag69
(g90
g71
NtRp1561
(dp1562
g74
(dp1563
sg83
g1548
sg76
(lp1564
g69
(g70
g71
NtRp1565
(dp1566
g74
(dp1567
g82
I4
ssg83
g1561
sg76
(lp1568
S'8000'
p1569
asbasbasbag69
(g85
g71
NtRp1570
(dp1571
g74
(dp1572
sg83
g1019
sg76
(lp1573
g69
(g90
g71
NtRp1574
(dp1575
g74
(dp1576
g94
g95
ssg83
g1570
sg76
(lp1577
S'server_protocol'
p1578
asbag69
(g90
g71
NtRp1579
(dp1580
g74
(dp1581
g101
g102
ssg83
g1570
sg76
(lp1582
S':'
asbag69
(g90
g71
NtRp1583
(dp1584
g74
(dp1585
sg83
g1570
sg76
(lp1586
g69
(g70
g71
NtRp1587
(dp1588
g74
(dp1589
g82
I4
ssg83
g1583
sg76
(lp1590
S'HTTP/1.1'
p1591
asbasbasbag69
(g85
g71
NtRp1592
(dp1593
g74
(dp1594
sg83
g1019
sg76
(lp1595
g69
(g90
g71
NtRp1596
(dp1597
g74
(dp1598
g94
g95
ssg83
g1592
sg76
(lp1599
S'server_software'
p1600
asbag69
(g90
g71
NtRp1601
(dp1602
g74
(dp1603
g101
g102
ssg83
g1592
sg76
(lp1604
S':'
asbag69
(g90
g71
NtRp1605
(dp1606
g74
(dp1607
sg83
g1592
sg76
(lp1608
g69
(g70
g71
NtRp1609
(dp1610
g74
(dp1611
g82
I4
ssg83
g1605
sg76
(lp1612
S'Rocket 1.2.4'
p1613
asbasbasbag69
(g85
g71
NtRp1614
(dp1615
g74
(dp1616
sg83
g1019
sg76
(lp1617
g69
(g90
g71
NtRp1618
(dp1619
g74
(dp1620
g94
g95
ssg83
g1614
sg76
(lp1621
S'web2py_crontype'
p1622
asbag69
(g90
g71
NtRp1623
(dp1624
g74
(dp1625
g101
g102
ssg83
g1614
sg76
(lp1626
S':'
asbag69
(g90
g71
NtRp1627
(dp1628
g74
(dp1629
sg83
g1614
sg76
(lp1630
g69
(g70
g71
NtRp1631
(dp1632
g74
(dp1633
g82
I4
ssg83
g1627
sg76
(lp1634
S'hard'
p1635
asbasbasbag69
(g85
g71
NtRp1636
(dp1637
g74
(dp1638
sg83
g1019
sg76
(lp1639
g69
(g90
g71
NtRp1640
(dp1641
g74
(dp1642
g94
g95
ssg83
g1636
sg76
(lp1643
S'web2py_path'
p1644
asbag69
(g90
g71
NtRp1645
(dp1646
g74
(dp1647
g101
g102
ssg83
g1636
sg76
(lp1648
S':'
asbag69
(g90
g71
NtRp1649
(dp1650
g74
(dp1651
sg83
g1636
sg76
(lp1652
g69
(g70
g71
NtRp1653
(dp1654
g74
(dp1655
g82
I4
ssg83
g1649
sg76
(lp1656
g1066
asbasbasbag69
(g85
g71
NtRp1657
(dp1658
g74
(dp1659
sg83
g1019
sg76
(lp1660
g69
(g90
g71
NtRp1661
(dp1662
g74
(dp1663
g94
g95
ssg83
g1657
sg76
(lp1664
S'web2py_version'
p1665
asbag69
(g90
g71
NtRp1666
(dp1667
g74
(dp1668
g101
g102
ssg83
g1657
sg76
(lp1669
S':'
asbag69
(g90
g71
NtRp1670
(dp1671
g74
(dp1672
sg83
g1657
sg76
(lp1673
g69
(g70
g71
NtRp1674
(dp1675
g74
(dp1676
g82
I4
ssg83
g1670
sg76
(lp1677
g69
(g78
g71
NtRp1678
(dp1679
g74
(dp1680
g82
I3
ssg83
Nsg76
(lp1681
g69
(g85
g71
NtRp1682
(dp1683
g74
(dp1684
sg83
g1678
sg76
(lp1685
g69
(g90
g71
NtRp1686
(dp1687
g74
(dp1688
sg83
g1682
sg76
(lp1689
g69
(g70
g71
NtRp1690
(dp1691
g74
(dp1692
g82
I3
ssg83
g1686
sg76
(lp1693
S'1'
asbasbasbag69
(g85
g71
NtRp1694
(dp1695
g74
(dp1696
sg83
g1678
sg76
(lp1697
g69
(g90
g71
NtRp1698
(dp1699
g74
(dp1700
sg83
g1694
sg76
(lp1701
g69
(g70
g71
NtRp1702
(dp1703
g74
(dp1704
g82
I3
ssg83
g1698
sg76
(lp1705
S'99'
p1706
asbasbasbag69
(g85
g71
NtRp1707
(dp1708
g74
(dp1709
sg83
g1678
sg76
(lp1710
g69
(g90
g71
NtRp1711
(dp1712
g74
(dp1713
sg83
g1707
sg76
(lp1714
g69
(g70
g71
NtRp1715
(dp1716
g74
(dp1717
g82
I3
ssg83
g1711
sg76
(lp1718
S'7'
asbasbasbag69
(g85
g71
NtRp1719
(dp1720
g74
(dp1721
sg83
g1678
sg76
(lp1722
g69
(g90
g71
NtRp1723
(dp1724
g74
(dp1725
sg83
g1719
sg76
(lp1726
g69
(g70
g71
NtRp1727
(dp1728
g74
(dp1729
g82
I3
ssg83
g1723
sg76
(lp1730
S'datetime.datetime(2012, 3, 4, 22, 12, 8)'
p1731
asbasbasbag69
(g85
g71
NtRp1732
(dp1733
g74
(dp1734
sg83
g1678
sg76
(lp1735
g69
(g90
g71
NtRp1736
(dp1737
g74
(dp1738
sg83
g1732
sg76
(lp1739
g69
(g70
g71
NtRp1740
(dp1741
g74
(dp1742
g82
I3
ssg83
g1736
sg76
(lp1743
S'stable'
p1744
asbasbasbasbasbasbasbag69
(g85
g71
NtRp1745
(dp1746
g74
(dp1747
sg83
g1019
sg76
(lp1748
g69
(g90
g71
NtRp1749
(dp1750
g74
(dp1751
g94
g95
ssg83
g1745
sg76
(lp1752
S'wsgi_errors'
p1753
asbag69
(g90
g71
NtRp1754
(dp1755
g74
(dp1756
g101
g102
ssg83
g1745
sg76
(lp1757
S':'
asbag69
(g90
g71
NtRp1758
(dp1759
g74
(dp1760
sg83
g1745
sg76
(lp1761
g69
(g70
g71
NtRp1762
(dp1763
g74
(dp1764
g82
I4
ssg83
g1758
sg76
(lp1765
S"<open file '<stderr>', mode 'w' at 0x7f4f2366f270>"
p1766
asbasbasbag69
(g85
g71
NtRp1767
(dp1768
g74
(dp1769
sg83
g1019
sg76
(lp1770
g69
(g90
g71
NtRp1771
(dp1772
g74
(dp1773
g94
g95
ssg83
g1767
sg76
(lp1774
S'wsgi_file_wrapper'
p1775
asbag69
(g90
g71
NtRp1776
(dp1777
g74
(dp1778
g101
g102
ssg83
g1767
sg76
(lp1779
S':'
asbag69
(g90
g71
NtRp1780
(dp1781
g74
(dp1782
sg83
g1767
sg76
(lp1783
g69
(g70
g71
NtRp1784
(dp1785
g74
(dp1786
g82
I4
ssg83
g1780
sg76
(lp1787
S'<class wsgiref.util.FileWrapper at 0x1abc460>'
p1788
asbasbasbag69
(g85
g71
NtRp1789
(dp1790
g74
(dp1791
sg83
g1019
sg76
(lp1792
g69
(g90
g71
NtRp1793
(dp1794
g74
(dp1795
g94
g95
ssg83
g1789
sg76
(lp1796
S'wsgi_input'
p1797
asbag69
(g90
g71
NtRp1798
(dp1799
g74
(dp1800
g101
g102
ssg83
g1789
sg76
(lp1801
S':'
asbag69
(g90
g71
NtRp1802
(dp1803
g74
(dp1804
sg83
g1789
sg76
(lp1805
g69
(g70
g71
NtRp1806
(dp1807
g74
(dp1808
g82
I4
ssg83
g1802
sg76
(lp1809
S'<socket._fileobject object at 0x7f4f101ae750>'
p1810
asbasbasbag69
(g85
g71
NtRp1811
(dp1812
g74
(dp1813
sg83
g1019
sg76
(lp1814
g69
(g90
g71
NtRp1815
(dp1816
g74
(dp1817
g94
g95
ssg83
g1811
sg76
(lp1818
S'wsgi_multiprocess'
p1819
asbag69
(g90
g71
NtRp1820
(dp1821
g74
(dp1822
g101
g102
ssg83
g1811
sg76
(lp1823
S':'
asbag69
(g90
g71
NtRp1824
(dp1825
g74
(dp1826
sg83
g1811
sg76
(lp1827
g69
(g70
g71
NtRp1828
(dp1829
g74
(dp1830
g82
I4
ssg83
g1824
sg76
(lp1831
g112
asbasbasbag69
(g85
g71
NtRp1832
(dp1833
g74
(dp1834
sg83
g1019
sg76
(lp1835
g69
(g90
g71
NtRp1836
(dp1837
g74
(dp1838
g94
g95
ssg83
g1832
sg76
(lp1839
S'wsgi_multithread'
p1840
asbag69
(g90
g71
NtRp1841
(dp1842
g74
(dp1843
g101
g102
ssg83
g1832
sg76
(lp1844
S':'
asbag69
(g90
g71
NtRp1845
(dp1846
g74
(dp1847
sg83
g1832
sg76
(lp1848
g69
(g70
g71
NtRp1849
(dp1850
g74
(dp1851
g82
I4
ssg83
g1845
sg76
(lp1852
S'True'
p1853
asbasbasbag69
(g85
g71
NtRp1854
(dp1855
g74
(dp1856
sg83
g1019
sg76
(lp1857
g69
(g90
g71
NtRp1858
(dp1859
g74
(dp1860
g94
g95
ssg83
g1854
sg76
(lp1861
S'wsgi_run_once'
p1862
asbag69
(g90
g71
NtRp1863
(dp1864
g74
(dp1865
g101
g102
ssg83
g1854
sg76
(lp1866
S':'
asbag69
(g90
g71
NtRp1867
(dp1868
g74
(dp1869
sg83
g1854
sg76
(lp1870
g69
(g70
g71
NtRp1871
(dp1872
g74
(dp1873
g82
I4
ssg83
g1867
sg76
(lp1874
g112
asbasbasbag69
(g85
g71
NtRp1875
(dp1876
g74
(dp1877
sg83
g1019
sg76
(lp1878
g69
(g90
g71
NtRp1879
(dp1880
g74
(dp1881
g94
g95
ssg83
g1875
sg76
(lp1882
S'wsgi_url_scheme'
p1883
asbag69
(g90
g71
NtRp1884
(dp1885
g74
(dp1886
g101
g102
ssg83
g1875
sg76
(lp1887
S':'
asbag69
(g90
g71
NtRp1888
(dp1889
g74
(dp1890
sg83
g1875
sg76
(lp1891
g69
(g70
g71
NtRp1892
(dp1893
g74
(dp1894
g82
I4
ssg83
g1888
sg76
(lp1895
S'http'
p1896
asbasbasbag69
(g85
g71
NtRp1897
(dp1898
g74
(dp1899
sg83
g1019
sg76
(lp1900
g69
(g90
g71
NtRp1901
(dp1902
g74
(dp1903
g94
g95
ssg83
g1897
sg76
(lp1904
S'wsgi_version'
p1905
asbag69
(g90
g71
NtRp1906
(dp1907
g74
(dp1908
g101
g102
ssg83
g1897
sg76
(lp1909
S':'
asbag69
(g90
g71
NtRp1910
(dp1911
g74
(dp1912
sg83
g1897
sg76
(lp1913
g69
(g70
g71
NtRp1914
(dp1915
g74
(dp1916
g82
I4
ssg83
g1910
sg76
(lp1917
g69
(g78
g71
NtRp1918
(dp1919
g74
(dp1920
g82
I3
ssg83
Nsg76
(lp1921
g69
(g85
g71
NtRp1922
(dp1923
g74
(dp1924
sg83
g1918
sg76
(lp1925
g69
(g90
g71
NtRp1926
(dp1927
g74
(dp1928
sg83
g1922
sg76
(lp1929
g69
(g70
g71
NtRp1930
(dp1931
g74
(dp1932
g82
I3
ssg83
g1926
sg76
(lp1933
S'1'
asbasbasbag69
(g85
g71
NtRp1934
(dp1935
g74
(dp1936
sg83
g1918
sg76
(lp1937
g69
(g90
g71
NtRp1938
(dp1939
g74
(dp1940
sg83
g1934
sg76
(lp1941
g69
(g70
g71
NtRp1942
(dp1943
g74
(dp1944
g82
I3
ssg83
g1938
sg76
(lp1945
S'0'
asbasbasbasbasbasbasbasbasbasbasbag69
(g85
g71
NtRp1946
(dp1947
g74
(dp1948
sg83
g79
sg76
(lp1949
g69
(g90
g71
NtRp1950
(dp1951
g74
(dp1952
g94
g95
ssg83
g1946
sg76
(lp1953
S'extension'
p1954
asbag69
(g90
g71
NtRp1955
(dp1956
g74
(dp1957
g101
g102
ssg83
g1946
sg76
(lp1958
S':'
asbag69
(g90
g71
NtRp1959
(dp1960
g74
(dp1961
sg83
g1946
sg76
(lp1962
g69
(g70
g71
NtRp1963
(dp1964
g74
(dp1965
g82
I5
ssg83
g1959
sg76
(lp1966
S'html'
p1967
asbasbasbag69
(g85
g71
NtRp1968
(dp1969
g74
(dp1970
sg83
g79
sg76
(lp1971
g69
(g90
g71
NtRp1972
(dp1973
g74
(dp1974
g94
g95
ssg83
g1968
sg76
(lp1975
S'folder'
p1976
asbag69
(g90
g71
NtRp1977
(dp1978
g74
(dp1979
g101
g102
ssg83
g1968
sg76
(lp1980
S':'
asbag69
(g90
g71
NtRp1981
(dp1982
g74
(dp1983
sg83
g1968
sg76
(lp1984
g69
(g70
g71
NtRp1985
(dp1986
g74
(dp1987
g82
I5
ssg83
g1981
sg76
(lp1988
S'/home/marco/flisol2012/web2py/applications/flisol2012/'
p1989
asbasbasbag69
(g85
g71
NtRp1990
(dp1991
g74
(dp1992
sg83
g79
sg76
(lp1993
g69
(g90
g71
NtRp1994
(dp1995
g74
(dp1996
g94
g95
ssg83
g1990
sg76
(lp1997
S'function'
p1998
asbag69
(g90
g71
NtRp1999
(dp2000
g74
(dp2001
g101
g102
ssg83
g1990
sg76
(lp2002
S':'
asbag69
(g90
g71
NtRp2003
(dp2004
g74
(dp2005
sg83
g1990
sg76
(lp2006
g69
(g70
g71
NtRp2007
(dp2008
g74
(dp2009
g82
I5
ssg83
g2003
sg76
(lp2010
S'companies'
p2011
asbasbasbag69
(g85
g71
NtRp2012
(dp2013
g74
(dp2014
sg83
g79
sg76
(lp2015
g69
(g90
g71
NtRp2016
(dp2017
g74
(dp2018
g94
g95
ssg83
g2012
sg76
(lp2019
S'get_vars'
p2020
asbag69
(g90
g71
NtRp2021
(dp2022
g74
(dp2023
g101
g102
ssg83
g2012
sg76
(lp2024
S':'
asbag69
(g90
g71
NtRp2025
(dp2026
g74
(dp2027
sg83
g2012
sg76
(lp2028
g69
(g70
g71
NtRp2029
(dp2030
g74
(dp2031
g82
I5
ssg83
g2025
sg76
(lp2032
g69
(g78
g71
NtRp2033
(dp2034
g74
(dp2035
g82
I4
ssg83
Nsg76
(lp2036
sbasbasbasbag69
(g85
g71
NtRp2037
(dp2038
g74
(dp2039
sg83
g79
sg76
(lp2040
g69
(g90
g71
NtRp2041
(dp2042
g74
(dp2043
g94
g95
ssg83
g2037
sg76
(lp2044
S'global_settings'
p2045
asbag69
(g90
g71
NtRp2046
(dp2047
g74
(dp2048
g101
g102
ssg83
g2037
sg76
(lp2049
S':'
asbag69
(g90
g71
NtRp2050
(dp2051
g74
(dp2052
sg83
g2037
sg76
(lp2053
g69
(g70
g71
NtRp2054
(dp2055
g74
(dp2056
g82
I5
ssg83
g2050
sg76
(lp2057
g69
(g78
g71
NtRp2058
(dp2059
g74
(dp2060
g82
I4
ssg83
Nsg76
(lp2061
g69
(g85
g71
NtRp2062
(dp2063
g74
(dp2064
sg83
g2058
sg76
(lp2065
g69
(g90
g71
NtRp2066
(dp2067
g74
(dp2068
g94
g95
ssg83
g2062
sg76
(lp2069
g1031
asbag69
(g90
g71
NtRp2070
(dp2071
g74
(dp2072
g101
g102
ssg83
g2062
sg76
(lp2073
S':'
asbag69
(g90
g71
NtRp2074
(dp2075
g74
(dp2076
sg83
g2062
sg76
(lp2077
g69
(g70
g71
NtRp2078
(dp2079
g74
(dp2080
g82
I4
ssg83
g2074
sg76
(lp2081
S"set(['/home/marco/flisol2012/web2py/applications/welcome/', '/home/marco/flisol2012/web2py/applications/flisol2012/', '/home/marco/flisol2012/web2py/applications/admin/'])"
p2082
asbasbasbag69
(g85
g71
NtRp2083
(dp2084
g74
(dp2085
sg83
g2058
sg76
(lp2086
g69
(g90
g71
NtRp2087
(dp2088
g74
(dp2089
g94
g95
ssg83
g2083
sg76
(lp2090
g1053
asbag69
(g90
g71
NtRp2091
(dp2092
g74
(dp2093
g101
g102
ssg83
g2083
sg76
(lp2094
S':'
asbag69
(g90
g71
NtRp2095
(dp2096
g74
(dp2097
sg83
g2083
sg76
(lp2098
g69
(g70
g71
NtRp2099
(dp2100
g74
(dp2101
g82
I4
ssg83
g2095
sg76
(lp2102
g1066
asbasbasbag69
(g85
g71
NtRp2103
(dp2104
g74
(dp2105
sg83
g2058
sg76
(lp2106
g69
(g90
g71
NtRp2107
(dp2108
g74
(dp2109
g94
g95
ssg83
g2103
sg76
(lp2110
g1075
asbag69
(g90
g71
NtRp2111
(dp2112
g74
(dp2113
g101
g102
ssg83
g2103
sg76
(lp2114
S':'
asbag69
(g90
g71
NtRp2115
(dp2116
g74
(dp2117
sg83
g2103
sg76
(lp2118
g69
(g70
g71
NtRp2119
(dp2120
g74
(dp2121
g82
I4
ssg83
g2115
sg76
(lp2122
g69
(g78
g71
NtRp2123
(dp2124
g74
(dp2125
g82
I3
ssg83
Nsg76
(lp2126
sbasbasbasbag69
(g85
g71
NtRp2127
(dp2128
g74
(dp2129
sg83
g2058
sg76
(lp2130
g69
(g90
g71
NtRp2131
(dp2132
g74
(dp2133
g94
g95
ssg83
g2127
sg76
(lp2134
g1100
asbag69
(g90
g71
NtRp2135
(dp2136
g74
(dp2137
g101
g102
ssg83
g2127
sg76
(lp2138
S':'
asbag69
(g90
g71
NtRp2139
(dp2140
g74
(dp2141
sg83
g2127
sg76
(lp2142
g69
(g70
g71
NtRp2143
(dp2144
g74
(dp2145
g82
I4
ssg83
g2139
sg76
(lp2146
S"<Values at 0x1bd6908: {'verbose': False, 'ip': '127.0.0.1', 'shutdown_timeout': 5, 'taskbar': False, 'nocron': False, 'pid_filename': 'httpserver.pid', 'maxthreads': None, 'softcron': False, 'server_name': 'malena', 'bpython': False, 'nogui': False, 'port': 8000, 'extcron': False, 'debuglevel': 30, 'test': None, 'folder': '/home/marco/flisol2012/web2py', 'config': '', 'import_models': False, 'winservice': '', 'shell': None, 'run': '', 'log_filename': 'httpserver.log', 'args': [''], 'socket_timeout': 5, 'ssl_ca_certificate': None, 'scheduler': None, 'profiler_filename': None, 'ssl_private_key': '', 'password': 'asd', 'request_queue_size': 5, 'ssl_certificate': '', 'cronjob': False, 'numthreads': None, 'quiet': False, 'interfaces': None, 'minthreads': None, 'timeout': 10, 'plain': False, 'nobanner': False}>"
p2147
asbasbasbag69
(g85
g71
NtRp2148
(dp2149
g74
(dp2150
sg83
g2058
sg76
(lp2151
g69
(g90
g71
NtRp2152
(dp2153
g74
(dp2154
g94
g95
ssg83
g2148
sg76
(lp2155
g1122
asbag69
(g90
g71
NtRp2156
(dp2157
g74
(dp2158
g101
g102
ssg83
g2148
sg76
(lp2159
S':'
asbag69
(g90
g71
NtRp2160
(dp2161
g74
(dp2162
sg83
g2148
sg76
(lp2163
g69
(g70
g71
NtRp2164
(dp2165
g74
(dp2166
g82
I4
ssg83
g2160
sg76
(lp2167
S'set([])'
p2168
asbasbasbag69
(g85
g71
NtRp2169
(dp2170
g74
(dp2171
sg83
g2058
sg76
(lp2172
g69
(g90
g71
NtRp2173
(dp2174
g74
(dp2175
g94
g95
ssg83
g2169
sg76
(lp2176
g1144
asbag69
(g90
g71
NtRp2177
(dp2178
g74
(dp2179
g101
g102
ssg83
g2169
sg76
(lp2180
S':'
asbag69
(g90
g71
NtRp2181
(dp2182
g74
(dp2183
sg83
g2169
sg76
(lp2184
g69
(g70
g71
NtRp2185
(dp2186
g74
(dp2187
g82
I4
ssg83
g2181
sg76
(lp2188
g112
asbasbasbag69
(g85
g71
NtRp2189
(dp2190
g74
(dp2191
sg83
g2058
sg76
(lp2192
g69
(g90
g71
NtRp2193
(dp2194
g74
(dp2195
g94
g95
ssg83
g2189
sg76
(lp2196
g1165
asbag69
(g90
g71
NtRp2197
(dp2198
g74
(dp2199
g101
g102
ssg83
g2189
sg76
(lp2200
S':'
asbag69
(g90
g71
NtRp2201
(dp2202
g74
(dp2203
sg83
g2189
sg76
(lp2204
g69
(g70
g71
NtRp2205
(dp2206
g74
(dp2207
g82
I4
ssg83
g2201
sg76
(lp2208
g1178
asbasbasbag69
(g85
g71
NtRp2209
(dp2210
g74
(dp2211
sg83
g2058
sg76
(lp2212
g69
(g90
g71
NtRp2213
(dp2214
g74
(dp2215
g94
g95
ssg83
g2209
sg76
(lp2216
g1363
asbag69
(g90
g71
NtRp2217
(dp2218
g74
(dp2219
g101
g102
ssg83
g2209
sg76
(lp2220
S':'
asbag69
(g90
g71
NtRp2221
(dp2222
g74
(dp2223
sg83
g2209
sg76
(lp2224
g69
(g70
g71
NtRp2225
(dp2226
g74
(dp2227
g82
I4
ssg83
g2221
sg76
(lp2228
g112
asbasbasbag69
(g85
g71
NtRp2229
(dp2230
g74
(dp2231
sg83
g2058
sg76
(lp2232
g69
(g90
g71
NtRp2233
(dp2234
g74
(dp2235
g94
g95
ssg83
g2229
sg76
(lp2236
g1384
asbag69
(g90
g71
NtRp2237
(dp2238
g74
(dp2239
g101
g102
ssg83
g2229
sg76
(lp2240
S':'
asbag69
(g90
g71
NtRp2241
(dp2242
g74
(dp2243
sg83
g2229
sg76
(lp2244
g69
(g70
g71
NtRp2245
(dp2246
g74
(dp2247
g82
I4
ssg83
g2241
sg76
(lp2248
g112
asbasbasbag69
(g85
g71
NtRp2249
(dp2250
g74
(dp2251
sg83
g2058
sg76
(lp2252
g69
(g90
g71
NtRp2253
(dp2254
g74
(dp2255
g94
g95
ssg83
g2249
sg76
(lp2256
g1622
asbag69
(g90
g71
NtRp2257
(dp2258
g74
(dp2259
g101
g102
ssg83
g2249
sg76
(lp2260
S':'
asbag69
(g90
g71
NtRp2261
(dp2262
g74
(dp2263
sg83
g2249
sg76
(lp2264
g69
(g70
g71
NtRp2265
(dp2266
g74
(dp2267
g82
I4
ssg83
g2261
sg76
(lp2268
g1635
asbasbasbag69
(g85
g71
NtRp2269
(dp2270
g74
(dp2271
sg83
g2058
sg76
(lp2272
g69
(g90
g71
NtRp2273
(dp2274
g74
(dp2275
g94
g95
ssg83
g2269
sg76
(lp2276
g1665
asbag69
(g90
g71
NtRp2277
(dp2278
g74
(dp2279
g101
g102
ssg83
g2269
sg76
(lp2280
S':'
asbag69
(g90
g71
NtRp2281
(dp2282
g74
(dp2283
sg83
g2269
sg76
(lp2284
g69
(g70
g71
NtRp2285
(dp2286
g74
(dp2287
g82
I4
ssg83
g2281
sg76
(lp2288
g69
(g78
g71
NtRp2289
(dp2290
g74
(dp2291
g82
I3
ssg83
Nsg76
(lp2292
g69
(g85
g71
NtRp2293
(dp2294
g74
(dp2295
sg83
g2289
sg76
(lp2296
g69
(g90
g71
NtRp2297
(dp2298
g74
(dp2299
sg83
g2293
sg76
(lp2300
g69
(g70
g71
NtRp2301
(dp2302
g74
(dp2303
g82
I3
ssg83
g2297
sg76
(lp2304
S'1'
asbasbasbag69
(g85
g71
NtRp2305
(dp2306
g74
(dp2307
sg83
g2289
sg76
(lp2308
g69
(g90
g71
NtRp2309
(dp2310
g74
(dp2311
sg83
g2305
sg76
(lp2312
g69
(g70
g71
NtRp2313
(dp2314
g74
(dp2315
g82
I3
ssg83
g2309
sg76
(lp2316
S'99'
p2317
asbasbasbag69
(g85
g71
NtRp2318
(dp2319
g74
(dp2320
sg83
g2289
sg76
(lp2321
g69
(g90
g71
NtRp2322
(dp2323
g74
(dp2324
sg83
g2318
sg76
(lp2325
g69
(g70
g71
NtRp2326
(dp2327
g74
(dp2328
g82
I3
ssg83
g2322
sg76
(lp2329
S'7'
asbasbasbag69
(g85
g71
NtRp2330
(dp2331
g74
(dp2332
sg83
g2289
sg76
(lp2333
g69
(g90
g71
NtRp2334
(dp2335
g74
(dp2336
sg83
g2330
sg76
(lp2337
g69
(g70
g71
NtRp2338
(dp2339
g74
(dp2340
g82
I3
ssg83
g2334
sg76
(lp2341
S'datetime.datetime(2012, 3, 4, 22, 12, 8)'
p2342
asbasbasbag69
(g85
g71
NtRp2343
(dp2344
g74
(dp2345
sg83
g2289
sg76
(lp2346
g69
(g90
g71
NtRp2347
(dp2348
g74
(dp2349
sg83
g2343
sg76
(lp2350
g69
(g70
g71
NtRp2351
(dp2352
g74
(dp2353
g82
I3
ssg83
g2347
sg76
(lp2354
g1744
asbasbasbasbasbasbasbasbasbasbasbag69
(g85
g71
NtRp2355
(dp2356
g74
(dp2357
sg83
g79
sg76
(lp2358
g69
(g90
g71
NtRp2359
(dp2360
g74
(dp2361
g94
g95
ssg83
g2355
sg76
(lp2362
S'is_https'
p2363
asbag69
(g90
g71
NtRp2364
(dp2365
g74
(dp2366
g101
g102
ssg83
g2355
sg76
(lp2367
S':'
asbag69
(g90
g71
NtRp2368
(dp2369
g74
(dp2370
sg83
g2355
sg76
(lp2371
g69
(g70
g71
NtRp2372
(dp2373
g74
(dp2374
g82
I5
ssg83
g2368
sg76
(lp2375
g112
asbasbasbag69
(g85
g71
NtRp2376
(dp2377
g74
(dp2378
sg83
g79
sg76
(lp2379
g69
(g90
g71
NtRp2380
(dp2381
g74
(dp2382
g94
g95
ssg83
g2376
sg76
(lp2383
S'is_local'
p2384
asbag69
(g90
g71
NtRp2385
(dp2386
g74
(dp2387
g101
g102
ssg83
g2376
sg76
(lp2388
S':'
asbag69
(g90
g71
NtRp2389
(dp2390
g74
(dp2391
sg83
g2376
sg76
(lp2392
g69
(g70
g71
NtRp2393
(dp2394
g74
(dp2395
g82
I5
ssg83
g2389
sg76
(lp2396
g1853
asbasbasbag69
(g85
g71
NtRp2397
(dp2398
g74
(dp2399
sg83
g79
sg76
(lp2400
g69
(g90
g71
NtRp2401
(dp2402
g74
(dp2403
g94
g95
ssg83
g2397
sg76
(lp2404
S'is_restful'
p2405
asbag69
(g90
g71
NtRp2406
(dp2407
g74
(dp2408
g101
g102
ssg83
g2397
sg76
(lp2409
S':'
asbag69
(g90
g71
NtRp2410
(dp2411
g74
(dp2412
sg83
g2397
sg76
(lp2413
g69
(g70
g71
NtRp2414
(dp2415
g74
(dp2416
g82
I5
ssg83
g2410
sg76
(lp2417
g112
asbasbasbag69
(g85
g71
NtRp2418
(dp2419
g74
(dp2420
sg83
g79
sg76
(lp2421
g69
(g90
g71
NtRp2422
(dp2423
g74
(dp2424
g94
g95
ssg83
g2418
sg76
(lp2425
S'now'
p2426
asbag69
(g90
g71
NtRp2427
(dp2428
g74
(dp2429
g101
g102
ssg83
g2418
sg76
(lp2430
S':'
asbag69
(g90
g71
NtRp2431
(dp2432
g74
(dp2433
sg83
g2418
sg76
(lp2434
g69
(g70
g71
NtRp2435
(dp2436
g74
(dp2437
g82
I5
ssg83
g2431
sg76
(lp2438
S'datetime.datetime(2012, 3, 9, 18, 36, 40, 461944)'
p2439
asbasbasbag69
(g85
g71
NtRp2440
(dp2441
g74
(dp2442
sg83
g79
sg76
(lp2443
g69
(g90
g71
NtRp2444
(dp2445
g74
(dp2446
g94
g95
ssg83
g2440
sg76
(lp2447
S'post_vars'
p2448
asbag69
(g90
g71
NtRp2449
(dp2450
g74
(dp2451
g101
g102
ssg83
g2440
sg76
(lp2452
S':'
asbag69
(g90
g71
NtRp2453
(dp2454
g74
(dp2455
sg83
g2440
sg76
(lp2456
g69
(g70
g71
NtRp2457
(dp2458
g74
(dp2459
g82
I5
ssg83
g2453
sg76
(lp2460
g69
(g78
g71
NtRp2461
(dp2462
g74
(dp2463
g82
I4
ssg83
Nsg76
(lp2464
sbasbasbasbag69
(g85
g71
NtRp2465
(dp2466
g74
(dp2467
sg83
g79
sg76
(lp2468
g69
(g90
g71
NtRp2469
(dp2470
g74
(dp2471
g94
g95
ssg83
g2465
sg76
(lp2472
S'url'
p2473
asbag69
(g90
g71
NtRp2474
(dp2475
g74
(dp2476
g101
g102
ssg83
g2465
sg76
(lp2477
S':'
asbag69
(g90
g71
NtRp2478
(dp2479
g74
(dp2480
sg83
g2465
sg76
(lp2481
g69
(g70
g71
NtRp2482
(dp2483
g74
(dp2484
g82
I5
ssg83
g2478
sg76
(lp2485
S'/flisol2012/default/companies'
p2486
asbasbasbag69
(g85
g71
NtRp2487
(dp2488
g74
(dp2489
sg83
g79
sg76
(lp2490
g69
(g90
g71
NtRp2491
(dp2492
g74
(dp2493
g94
g95
ssg83
g2487
sg76
(lp2494
S'utcnow'
p2495
asbag69
(g90
g71
NtRp2496
(dp2497
g74
(dp2498
g101
g102
ssg83
g2487
sg76
(lp2499
S':'
asbag69
(g90
g71
NtRp2500
(dp2501
g74
(dp2502
sg83
g2487
sg76
(lp2503
g69
(g70
g71
NtRp2504
(dp2505
g74
(dp2506
g82
I5
ssg83
g2500
sg76
(lp2507
S'datetime.datetime(2012, 3, 9, 21, 36, 40, 461984)'
p2508
asbasbasbag69
(g85
g71
NtRp2509
(dp2510
g74
(dp2511
sg83
g79
sg76
(lp2512
g69
(g90
g71
NtRp2513
(dp2514
g74
(dp2515
g94
g95
ssg83
g2509
sg76
(lp2516
S'uuid'
p2517
asbag69
(g90
g71
NtRp2518
(dp2519
g74
(dp2520
g101
g102
ssg83
g2509
sg76
(lp2521
S':'
asbag69
(g90
g71
NtRp2522
(dp2523
g74
(dp2524
sg83
g2509
sg76
(lp2525
g69
(g70
g71
NtRp2526
(dp2527
g74
(dp2528
g82
I5
ssg83
g2522
sg76
(lp2529
S'flisol2012/127.0.0.1.2012-03-09.18-36-40.a80093a5-ab0e-43b7-b106-758fb794db00'
p2530
asbasbasbag69
(g85
g71
NtRp2531
(dp2532
g74
(dp2533
sg83
g79
sg76
(lp2534
g69
(g90
g71
NtRp2535
(dp2536
g74
(dp2537
g94
g95
ssg83
g2531
sg76
(lp2538
S'vars'
p2539
asbag69
(g90
g71
NtRp2540
(dp2541
g74
(dp2542
g101
g102
ssg83
g2531
sg76
(lp2543
S':'
asbag69
(g90
g71
NtRp2544
(dp2545
g74
(dp2546
sg83
g2531
sg76
(lp2547
g69
(g70
g71
NtRp2548
(dp2549
g74
(dp2550
g82
I5
ssg83
g2544
sg76
(lp2551
g69
(g78
g71
NtRp2552
(dp2553
g74
(dp2554
g82
I4
ssg83
Nsg76
(lp2555
sbasbasbasbag69
(g85
g71
NtRp2556
(dp2557
g74
(dp2558
sg83
g79
sg76
(lp2559
g69
(g90
g71
NtRp2560
(dp2561
g74
(dp2562
g94
g95
ssg83
g2556
sg76
(lp2563
S'wsgi'
p2564
asbag69
(g90
g71
NtRp2565
(dp2566
g74
(dp2567
g101
g102
ssg83
g2556
sg76
(lp2568
S':'
asbag69
(g90
g71
NtRp2569
(dp2570
g74
(dp2571
sg83
g2556
sg76
(lp2572
g69
(g70
g71
NtRp2573
(dp2574
g74
(dp2575
g82
I5
ssg83
g2569
sg76
(lp2576
g69
(g78
g71
NtRp2577
(dp2578
g74
(dp2579
g82
I4
ssg83
Nsg76
(lp2580
g69
(g85
g71
NtRp2581
(dp2582
g74
(dp2583
sg83
g2577
sg76
(lp2584
g69
(g90
g71
NtRp2585
(dp2586
g74
(dp2587
g94
g95
ssg83
g2581
sg76
(lp2588
S'environ'
p2589
asbag69
(g90
g71
NtRp2590
(dp2591
g74
(dp2592
g101
g102
ssg83
g2581
sg76
(lp2593
S':'
asbag69
(g90
g71
NtRp2594
(dp2595
g74
(dp2596
sg83
g2581
sg76
(lp2597
g69
(g70
g71
NtRp2598
(dp2599
g74
(dp2600
g82
I4
ssg83
g2594
sg76
(lp2601
g69
(g78
g71
NtRp2602
(dp2603
g74
(dp2604
g82
I3
ssg83
Nsg76
(lp2605
g69
(g85
g71
NtRp2606
(dp2607
g74
(dp2608
sg83
g2602
sg76
(lp2609
g69
(g90
g71
NtRp2610
(dp2611
g74
(dp2612
g94
g95
ssg83
g2606
sg76
(lp2613
S'HTTP_ACCEPT'
p2614
asbag69
(g90
g71
NtRp2615
(dp2616
g74
(dp2617
g101
g102
ssg83
g2606
sg76
(lp2618
S':'
asbag69
(g90
g71
NtRp2619
(dp2620
g74
(dp2621
sg83
g2606
sg76
(lp2622
g69
(g70
g71
NtRp2623
(dp2624
g74
(dp2625
g82
I3
ssg83
g2619
sg76
(lp2626
g1200
asbasbasbag69
(g85
g71
NtRp2627
(dp2628
g74
(dp2629
sg83
g2602
sg76
(lp2630
g69
(g90
g71
NtRp2631
(dp2632
g74
(dp2633
g94
g95
ssg83
g2627
sg76
(lp2634
S'HTTP_ACCEPT_ENCODING'
p2635
asbag69
(g90
g71
NtRp2636
(dp2637
g74
(dp2638
g101
g102
ssg83
g2627
sg76
(lp2639
S':'
asbag69
(g90
g71
NtRp2640
(dp2641
g74
(dp2642
sg83
g2627
sg76
(lp2643
g69
(g70
g71
NtRp2644
(dp2645
g74
(dp2646
g82
I3
ssg83
g2640
sg76
(lp2647
g1222
asbasbasbag69
(g85
g71
NtRp2648
(dp2649
g74
(dp2650
sg83
g2602
sg76
(lp2651
g69
(g90
g71
NtRp2652
(dp2653
g74
(dp2654
g94
g95
ssg83
g2648
sg76
(lp2655
S'HTTP_ACCEPT_LANGUAGE'
p2656
asbag69
(g90
g71
NtRp2657
(dp2658
g74
(dp2659
g101
g102
ssg83
g2648
sg76
(lp2660
S':'
asbag69
(g90
g71
NtRp2661
(dp2662
g74
(dp2663
sg83
g2648
sg76
(lp2664
g69
(g70
g71
NtRp2665
(dp2666
g74
(dp2667
g82
I3
ssg83
g2661
sg76
(lp2668
g1244
asbasbasbag69
(g85
g71
NtRp2669
(dp2670
g74
(dp2671
sg83
g2602
sg76
(lp2672
g69
(g90
g71
NtRp2673
(dp2674
g74
(dp2675
g94
g95
ssg83
g2669
sg76
(lp2676
S'HTTP_CONNECTION'
p2677
asbag69
(g90
g71
NtRp2678
(dp2679
g74
(dp2680
g101
g102
ssg83
g2669
sg76
(lp2681
S':'
asbag69
(g90
g71
NtRp2682
(dp2683
g74
(dp2684
sg83
g2669
sg76
(lp2685
g69
(g70
g71
NtRp2686
(dp2687
g74
(dp2688
g82
I3
ssg83
g2682
sg76
(lp2689
g1266
asbasbasbag69
(g85
g71
NtRp2690
(dp2691
g74
(dp2692
sg83
g2602
sg76
(lp2693
g69
(g90
g71
NtRp2694
(dp2695
g74
(dp2696
g94
g95
ssg83
g2690
sg76
(lp2697
S'HTTP_COOKIE'
p2698
asbag69
(g90
g71
NtRp2699
(dp2700
g74
(dp2701
g101
g102
ssg83
g2690
sg76
(lp2702
S':'
asbag69
(g90
g71
NtRp2703
(dp2704
g74
(dp2705
sg83
g2690
sg76
(lp2706
g69
(g70
g71
NtRp2707
(dp2708
g74
(dp2709
g82
I3
ssg83
g2703
sg76
(lp2710
g1288
asbasbasbag69
(g85
g71
NtRp2711
(dp2712
g74
(dp2713
sg83
g2602
sg76
(lp2714
g69
(g90
g71
NtRp2715
(dp2716
g74
(dp2717
g94
g95
ssg83
g2711
sg76
(lp2718
S'HTTP_HOST'
p2719
asbag69
(g90
g71
NtRp2720
(dp2721
g74
(dp2722
g101
g102
ssg83
g2711
sg76
(lp2723
S':'
asbag69
(g90
g71
NtRp2724
(dp2725
g74
(dp2726
sg83
g2711
sg76
(lp2727
g69
(g70
g71
NtRp2728
(dp2729
g74
(dp2730
g82
I3
ssg83
g2724
sg76
(lp2731
g1310
asbasbasbag69
(g85
g71
NtRp2732
(dp2733
g74
(dp2734
sg83
g2602
sg76
(lp2735
g69
(g90
g71
NtRp2736
(dp2737
g74
(dp2738
g94
g95
ssg83
g2732
sg76
(lp2739
S'HTTP_REFERER'
p2740
asbag69
(g90
g71
NtRp2741
(dp2742
g74
(dp2743
g101
g102
ssg83
g2732
sg76
(lp2744
S':'
asbag69
(g90
g71
NtRp2745
(dp2746
g74
(dp2747
sg83
g2732
sg76
(lp2748
g69
(g70
g71
NtRp2749
(dp2750
g74
(dp2751
g82
I3
ssg83
g2745
sg76
(lp2752
g1332
asbasbasbag69
(g85
g71
NtRp2753
(dp2754
g74
(dp2755
sg83
g2602
sg76
(lp2756
g69
(g90
g71
NtRp2757
(dp2758
g74
(dp2759
g94
g95
ssg83
g2753
sg76
(lp2760
S'HTTP_USER_AGENT'
p2761
asbag69
(g90
g71
NtRp2762
(dp2763
g74
(dp2764
g101
g102
ssg83
g2753
sg76
(lp2765
S':'
asbag69
(g90
g71
NtRp2766
(dp2767
g74
(dp2768
sg83
g2753
sg76
(lp2769
g69
(g70
g71
NtRp2770
(dp2771
g74
(dp2772
g82
I3
ssg83
g2766
sg76
(lp2773
g1354
asbasbasbag69
(g85
g71
NtRp2774
(dp2775
g74
(dp2776
sg83
g2602
sg76
(lp2777
g69
(g90
g71
NtRp2778
(dp2779
g74
(dp2780
g94
g95
ssg83
g2774
sg76
(lp2781
S'PATH_INFO'
p2782
asbag69
(g90
g71
NtRp2783
(dp2784
g74
(dp2785
g101
g102
ssg83
g2774
sg76
(lp2786
S':'
asbag69
(g90
g71
NtRp2787
(dp2788
g74
(dp2789
sg83
g2774
sg76
(lp2790
g69
(g70
g71
NtRp2791
(dp2792
g74
(dp2793
g82
I3
ssg83
g2787
sg76
(lp2794
g1418
asbasbasbag69
(g85
g71
NtRp2795
(dp2796
g74
(dp2797
sg83
g2602
sg76
(lp2798
g69
(g90
g71
NtRp2799
(dp2800
g74
(dp2801
g94
g95
ssg83
g2795
sg76
(lp2802
S'QUERY_STRING'
p2803
asbag69
(g90
g71
NtRp2804
(dp2805
g74
(dp2806
g101
g102
ssg83
g2795
sg76
(lp2807
S':'
asbag69
(g90
g71
NtRp2808
(dp2809
g74
(dp2810
sg83
g2795
sg76
(lp2811
g69
(g70
g71
NtRp2812
(dp2813
g74
(dp2814
g82
I3
ssg83
g2808
sg76
(lp2815
S''
asbasbasbag69
(g85
g71
NtRp2816
(dp2817
g74
(dp2818
sg83
g2602
sg76
(lp2819
g69
(g90
g71
NtRp2820
(dp2821
g74
(dp2822
g94
g95
ssg83
g2816
sg76
(lp2823
S'REMOTE_ADDR'
p2824
asbag69
(g90
g71
NtRp2825
(dp2826
g74
(dp2827
g101
g102
ssg83
g2816
sg76
(lp2828
S':'
asbag69
(g90
g71
NtRp2829
(dp2830
g74
(dp2831
sg83
g2816
sg76
(lp2832
g69
(g70
g71
NtRp2833
(dp2834
g74
(dp2835
g82
I3
ssg83
g2829
sg76
(lp2836
g202
asbasbasbag69
(g85
g71
NtRp2837
(dp2838
g74
(dp2839
sg83
g2602
sg76
(lp2840
g69
(g90
g71
NtRp2841
(dp2842
g74
(dp2843
g94
g95
ssg83
g2837
sg76
(lp2844
S'REMOTE_PORT'
p2845
asbag69
(g90
g71
NtRp2846
(dp2847
g74
(dp2848
g101
g102
ssg83
g2837
sg76
(lp2849
S':'
asbag69
(g90
g71
NtRp2850
(dp2851
g74
(dp2852
sg83
g2837
sg76
(lp2853
g69
(g70
g71
NtRp2854
(dp2855
g74
(dp2856
g82
I3
ssg83
g2850
sg76
(lp2857
g1482
asbasbasbag69
(g85
g71
NtRp2858
(dp2859
g74
(dp2860
sg83
g2602
sg76
(lp2861
g69
(g90
g71
NtRp2862
(dp2863
g74
(dp2864
g94
g95
ssg83
g2858
sg76
(lp2865
S'REQUEST_METHOD'
p2866
asbag69
(g90
g71
NtRp2867
(dp2868
g74
(dp2869
g101
g102
ssg83
g2858
sg76
(lp2870
S':'
asbag69
(g90
g71
NtRp2871
(dp2872
g74
(dp2873
sg83
g2858
sg76
(lp2874
g69
(g70
g71
NtRp2875
(dp2876
g74
(dp2877
g82
I3
ssg83
g2871
sg76
(lp2878
g1504
asbasbasbag69
(g85
g71
NtRp2879
(dp2880
g74
(dp2881
sg83
g2602
sg76
(lp2882
g69
(g90
g71
NtRp2883
(dp2884
g74
(dp2885
g94
g95
ssg83
g2879
sg76
(lp2886
S'SCRIPT_NAME'
p2887
asbag69
(g90
g71
NtRp2888
(dp2889
g74
(dp2890
g101
g102
ssg83
g2879
sg76
(lp2891
S':'
asbag69
(g90
g71
NtRp2892
(dp2893
g74
(dp2894
sg83
g2879
sg76
(lp2895
g69
(g70
g71
NtRp2896
(dp2897
g74
(dp2898
g82
I3
ssg83
g2892
sg76
(lp2899
S''
asbasbasbag69
(g85
g71
NtRp2900
(dp2901
g74
(dp2902
sg83
g2602
sg76
(lp2903
g69
(g90
g71
NtRp2904
(dp2905
g74
(dp2906
g94
g95
ssg83
g2900
sg76
(lp2907
S'SERVER_NAME'
p2908
asbag69
(g90
g71
NtRp2909
(dp2910
g74
(dp2911
g101
g102
ssg83
g2900
sg76
(lp2912
S':'
asbag69
(g90
g71
NtRp2913
(dp2914
g74
(dp2915
sg83
g2900
sg76
(lp2916
g69
(g70
g71
NtRp2917
(dp2918
g74
(dp2919
g82
I3
ssg83
g2913
sg76
(lp2920
g1547
asbasbasbag69
(g85
g71
NtRp2921
(dp2922
g74
(dp2923
sg83
g2602
sg76
(lp2924
g69
(g90
g71
NtRp2925
(dp2926
g74
(dp2927
g94
g95
ssg83
g2921
sg76
(lp2928
S'SERVER_PORT'
p2929
asbag69
(g90
g71
NtRp2930
(dp2931
g74
(dp2932
g101
g102
ssg83
g2921
sg76
(lp2933
S':'
asbag69
(g90
g71
NtRp2934
(dp2935
g74
(dp2936
sg83
g2921
sg76
(lp2937
g69
(g70
g71
NtRp2938
(dp2939
g74
(dp2940
g82
I3
ssg83
g2934
sg76
(lp2941
g1569
asbasbasbag69
(g85
g71
NtRp2942
(dp2943
g74
(dp2944
sg83
g2602
sg76
(lp2945
g69
(g90
g71
NtRp2946
(dp2947
g74
(dp2948
g94
g95
ssg83
g2942
sg76
(lp2949
S'SERVER_PROTOCOL'
p2950
asbag69
(g90
g71
NtRp2951
(dp2952
g74
(dp2953
g101
g102
ssg83
g2942
sg76
(lp2954
S':'
asbag69
(g90
g71
NtRp2955
(dp2956
g74
(dp2957
sg83
g2942
sg76
(lp2958
g69
(g70
g71
NtRp2959
(dp2960
g74
(dp2961
g82
I3
ssg83
g2955
sg76
(lp2962
g1591
asbasbasbag69
(g85
g71
NtRp2963
(dp2964
g74
(dp2965
sg83
g2602
sg76
(lp2966
g69
(g90
g71
NtRp2967
(dp2968
g74
(dp2969
g94
g95
ssg83
g2963
sg76
(lp2970
S'SERVER_SOFTWARE'
p2971
asbag69
(g90
g71
NtRp2972
(dp2973
g74
(dp2974
g101
g102
ssg83
g2963
sg76
(lp2975
S':'
asbag69
(g90
g71
NtRp2976
(dp2977
g74
(dp2978
sg83
g2963
sg76
(lp2979
g69
(g70
g71
NtRp2980
(dp2981
g74
(dp2982
g82
I3
ssg83
g2976
sg76
(lp2983
g1613
asbasbasbag69
(g85
g71
NtRp2984
(dp2985
g74
(dp2986
sg83
g2602
sg76
(lp2987
g69
(g90
g71
NtRp2988
(dp2989
g74
(dp2990
g94
g95
ssg83
g2984
sg76
(lp2991
S'wsgi.errors'
p2992
asbag69
(g90
g71
NtRp2993
(dp2994
g74
(dp2995
g101
g102
ssg83
g2984
sg76
(lp2996
S':'
asbag69
(g90
g71
NtRp2997
(dp2998
g74
(dp2999
sg83
g2984
sg76
(lp3000
g69
(g70
g71
NtRp3001
(dp3002
g74
(dp3003
g82
I3
ssg83
g2997
sg76
(lp3004
S"<open file '<stderr>', mode 'w' at 0x7f4f2366f270>"
p3005
asbasbasbag69
(g85
g71
NtRp3006
(dp3007
g74
(dp3008
sg83
g2602
sg76
(lp3009
g69
(g90
g71
NtRp3010
(dp3011
g74
(dp3012
g94
g95
ssg83
g3006
sg76
(lp3013
S'wsgi.file_wrapper'
p3014
asbag69
(g90
g71
NtRp3015
(dp3016
g74
(dp3017
g101
g102
ssg83
g3006
sg76
(lp3018
S':'
asbag69
(g90
g71
NtRp3019
(dp3020
g74
(dp3021
sg83
g3006
sg76
(lp3022
g69
(g70
g71
NtRp3023
(dp3024
g74
(dp3025
g82
I3
ssg83
g3019
sg76
(lp3026
S'<class wsgiref.util.FileWrapper at 0x1abc460>'
p3027
asbasbasbag69
(g85
g71
NtRp3028
(dp3029
g74
(dp3030
sg83
g2602
sg76
(lp3031
g69
(g90
g71
NtRp3032
(dp3033
g74
(dp3034
g94
g95
ssg83
g3028
sg76
(lp3035
S'wsgi.input'
p3036
asbag69
(g90
g71
NtRp3037
(dp3038
g74
(dp3039
g101
g102
ssg83
g3028
sg76
(lp3040
S':'
asbag69
(g90
g71
NtRp3041
(dp3042
g74
(dp3043
sg83
g3028
sg76
(lp3044
g69
(g70
g71
NtRp3045
(dp3046
g74
(dp3047
g82
I3
ssg83
g3041
sg76
(lp3048
S'<cStringIO.StringO object at 0x7f4f103a5180>'
p3049
asbasbasbag69
(g85
g71
NtRp3050
(dp3051
g74
(dp3052
sg83
g2602
sg76
(lp3053
g69
(g90
g71
NtRp3054
(dp3055
g74
(dp3056
g94
g95
ssg83
g3050
sg76
(lp3057
S'wsgi.multiprocess'
p3058
asbag69
(g90
g71
NtRp3059
(dp3060
g74
(dp3061
g101
g102
ssg83
g3050
sg76
(lp3062
S':'
asbag69
(g90
g71
NtRp3063
(dp3064
g74
(dp3065
sg83
g3050
sg76
(lp3066
g69
(g70
g71
NtRp3067
(dp3068
g74
(dp3069
g82
I3
ssg83
g3063
sg76
(lp3070
g112
asbasbasbag69
(g85
g71
NtRp3071
(dp3072
g74
(dp3073
sg83
g2602
sg76
(lp3074
g69
(g90
g71
NtRp3075
(dp3076
g74
(dp3077
g94
g95
ssg83
g3071
sg76
(lp3078
S'wsgi.multithread'
p3079
asbag69
(g90
g71
NtRp3080
(dp3081
g74
(dp3082
g101
g102
ssg83
g3071
sg76
(lp3083
S':'
asbag69
(g90
g71
NtRp3084
(dp3085
g74
(dp3086
sg83
g3071
sg76
(lp3087
g69
(g70
g71
NtRp3088
(dp3089
g74
(dp3090
g82
I3
ssg83
g3084
sg76
(lp3091
g1853
asbasbasbag69
(g85
g71
NtRp3092
(dp3093
g74
(dp3094
sg83
g2602
sg76
(lp3095
g69
(g90
g71
NtRp3096
(dp3097
g74
(dp3098
g94
g95
ssg83
g3092
sg76
(lp3099
S'wsgi.run_once'
p3100
asbag69
(g90
g71
NtRp3101
(dp3102
g74
(dp3103
g101
g102
ssg83
g3092
sg76
(lp3104
S':'
asbag69
(g90
g71
NtRp3105
(dp3106
g74
(dp3107
sg83
g3092
sg76
(lp3108
g69
(g70
g71
NtRp3109
(dp3110
g74
(dp3111
g82
I3
ssg83
g3105
sg76
(lp3112
g112
asbasbasbag69
(g85
g71
NtRp3113
(dp3114
g74
(dp3115
sg83
g2602
sg76
(lp3116
g69
(g90
g71
NtRp3117
(dp3118
g74
(dp3119
g94
g95
ssg83
g3113
sg76
(lp3120
S'wsgi.url_scheme'
p3121
asbag69
(g90
g71
NtRp3122
(dp3123
g74
(dp3124
g101
g102
ssg83
g3113
sg76
(lp3125
S':'
asbag69
(g90
g71
NtRp3126
(dp3127
g74
(dp3128
sg83
g3113
sg76
(lp3129
g69
(g70
g71
NtRp3130
(dp3131
g74
(dp3132
g82
I3
ssg83
g3126
sg76
(lp3133
g1896
asbasbasbag69
(g85
g71
NtRp3134
(dp3135
g74
(dp3136
sg83
g2602
sg76
(lp3137
g69
(g90
g71
NtRp3138
(dp3139
g74
(dp3140
g94
g95
ssg83
g3134
sg76
(lp3141
S'wsgi.version'
p3142
asbag69
(g90
g71
NtRp3143
(dp3144
g74
(dp3145
g101
g102
ssg83
g3134
sg76
(lp3146
S':'
asbag69
(g90
g71
NtRp3147
(dp3148
g74
(dp3149
sg83
g3134
sg76
(lp3150
g69
(g70
g71
NtRp3151
(dp3152
g74
(dp3153
g82
I3
ssg83
g3147
sg76
(lp3154
S'1'
asbasbasbasbasbasbasbasbasbasbasbasbasbsS'frames'
p3155
(lp3156
(dp3157
S'file'
p3158
S'/home/marco/flisol2012/web2py/gluon/restricted.py'
p3159
sS'dump'
p3160
(dp3161
S'code'
p3162
S'\'response.write(\\\'<!DOCTYPE html PUBLIC "-//W3C//D...) {}</script>\\\\n</body>\\\\n</html>\\\\n\\\', escape=False)\''
p3163
sS'layer'
p3164
S"'/home/marco/flisol2012/web2py/applications/flisol2012/views/default/companies.html'"
p3165
sS'global compile2'
p3166
S'<function compile2>'
p3167
sS'ccode'
p3168
S'undefined'
p3169
ssS'lnum'
p3170
I204
sS'lines'
p3171
(dp3172
I199
S"    environment['__name__'] = '__restricted__'"
p3173
sI200
S'    try:'
p3174
sI201
S'        if type(code) == types.CodeType:'
p3175
sI202
S'            ccode = code'
p3176
sI203
S'        else:'
p3177
sI204
S'            ccode = compile2(code,layer)'
p3178
sI205
S'        exec ccode in environment'
p3179
sI206
S'    except HTTP:'
p3180
sI207
S'        raise'
p3181
sI208
S'    except RestrictedError:'
p3182
ssS'call'
p3183
S'(code=\'response.write(\\\'<!DOCTYPE html PUBLIC "-//W3C//D...) {}</script>\\\\n</body>\\\\n</html>\\\\n\\\', escape=False)\', environment={\'A\': <class \'gluon.html.A\'>, \'ATTENDEE_TYPES\': ((\'gratis\', <lazyT \'Gratuito, $0\'>),), \'ATTENDEE_TYPE_COST\': {None: 0.0, \'gratis\': 0.0}, \'Auth\': <class \'gluon.tools.Auth\'>, \'B\': <class \'gluon.html.B\'>, \'BEAUTIFY\': <class \'gluon.html.BEAUTIFY\'>, \'BODY\': <class \'gluon.html.BODY\'>, \'BR\': <class \'gluon.html.BR\'>, \'BUTTON\': <class \'gluon.html.BUTTON\'>, \'CAT\': <class \'gluon.html.CAT\'>, ...}, layer=\'/home/marco/flisol2012/web2py/applications/flisol2012/views/default/companies.html\')'
p3184
sS'func'
p3185
S'restricted'
p3186
sa(dp3187
g3158
S'/home/marco/flisol2012/web2py/gluon/restricted.py'
p3188
sg3160
(dp3189
S'builtincompile'
p3190
S'<built-in function compile>'
p3191
sS'code'
p3192
S'\'response.write(\\\'<!DOCTYPE html PUBLIC "-//W3C//D...) {}</script>\\\\n</body>\\\\n</html>\\\\n\\\', escape=False)\''
p3193
sS'code.rstrip'
p3194
S'<built-in method rstrip of str object>'
p3195
sS').replace'
p3196
g3169
sS'layer'
p3197
S"'/home/marco/flisol2012/web2py/applications/flisol2012/views/default/companies.html'"
p3198
ssg3170
I189
sg3171
(dp3199
I192
S'    """'
p3200
sI193
S'    runs code in environment and returns the output. if an exception occurs'
p3201
sI184
S''
sI185
S'def compile2(code,layer):'
p3202
sI186
S'    """'
p3203
sI187
S"    The +'\\n' is necessary else compile fails when code ends in a comment."
p3204
sI188
S'    """'
p3205
sI189
S"    return compile(code.rstrip().replace('\\r\\n','\\n')+'\\n', layer, 'exec')"
p3206
sI190
S''
sI191
S"def restricted(code, environment=None, layer='Unknown'):"
p3207
ssg3183
S'(code=\'response.write(\\\'<!DOCTYPE html PUBLIC "-//W3C//D...) {}</script>\\\\n</body>\\\\n</html>\\\\n\\\', escape=False)\', layer=\'/home/marco/flisol2012/web2py/applications/flisol2012/views/default/companies.html\')'
p3208
sg3185
S'compile2'
p3209
sasS'pyver'
p3210
S'Python 2.7.2+: /usr/bin/python'
p3211
sS'session'
p3212
g69
(g70
g71
NtRp3213
(dp3214
g74
(dp3215
sg76
(lp3216
g69
(g78
g71
NtRp3217
(dp3218
g74
(dp3219
g82
I5
ssg83
Nsg76
(lp3220
g69
(g85
g71
NtRp3221
(dp3222
g74
(dp3223
sg83
g3217
sg76
(lp3224
g69
(g90
g71
NtRp3225
(dp3226
g74
(dp3227
g94
g95
ssg83
g3221
sg76
(lp3228
S'amount_added'
p3229
asbag69
(g90
g71
NtRp3230
(dp3231
g74
(dp3232
g101
g102
ssg83
g3221
sg76
(lp3233
S':'
asbag69
(g90
g71
NtRp3234
(dp3235
g74
(dp3236
sg83
g3221
sg76
(lp3237
g69
(g70
g71
NtRp3238
(dp3239
g74
(dp3240
g82
I5
ssg83
g3234
sg76
(lp3241
S'0.0'
p3242
asbasbasbag69
(g85
g71
NtRp3243
(dp3244
g74
(dp3245
sg83
g3217
sg76
(lp3246
g69
(g90
g71
NtRp3247
(dp3248
g74
(dp3249
g94
g95
ssg83
g3243
sg76
(lp3250
S'amount_billed'
p3251
asbag69
(g90
g71
NtRp3252
(dp3253
g74
(dp3254
g101
g102
ssg83
g3243
sg76
(lp3255
S':'
asbag69
(g90
g71
NtRp3256
(dp3257
g74
(dp3258
sg83
g3243
sg76
(lp3259
g69
(g70
g71
NtRp3260
(dp3261
g74
(dp3262
g82
I5
ssg83
g3256
sg76
(lp3263
S'0.0'
p3264
asbasbasbag69
(g85
g71
NtRp3265
(dp3266
g74
(dp3267
sg83
g3217
sg76
(lp3268
g69
(g90
g71
NtRp3269
(dp3270
g74
(dp3271
g94
g95
ssg83
g3265
sg76
(lp3272
S'amount_paid'
p3273
asbag69
(g90
g71
NtRp3274
(dp3275
g74
(dp3276
g101
g102
ssg83
g3265
sg76
(lp3277
S':'
asbag69
(g90
g71
NtRp3278
(dp3279
g74
(dp3280
sg83
g3265
sg76
(lp3281
g69
(g70
g71
NtRp3282
(dp3283
g74
(dp3284
g82
I5
ssg83
g3278
sg76
(lp3285
S'0.0'
p3286
asbasbasbag69
(g85
g71
NtRp3287
(dp3288
g74
(dp3289
sg83
g3217
sg76
(lp3290
g69
(g90
g71
NtRp3291
(dp3292
g74
(dp3293
g94
g95
ssg83
g3287
sg76
(lp3294
S'amount_subtracted'
p3295
asbag69
(g90
g71
NtRp3296
(dp3297
g74
(dp3298
g101
g102
ssg83
g3287
sg76
(lp3299
S':'
asbag69
(g90
g71
NtRp3300
(dp3301
g74
(dp3302
sg83
g3287
sg76
(lp3303
g69
(g70
g71
NtRp3304
(dp3305
g74
(dp3306
g82
I5
ssg83
g3300
sg76
(lp3307
S'0.0'
p3308
asbasbasbag69
(g85
g71
NtRp3309
(dp3310
g74
(dp3311
sg83
g3217
sg76
(lp3312
g69
(g90
g71
NtRp3313
(dp3314
g74
(dp3315
g94
g95
ssg83
g3309
sg76
(lp3316
S'auth'
p3317
asbag69
(g90
g71
NtRp3318
(dp3319
g74
(dp3320
g101
g102
ssg83
g3309
sg76
(lp3321
S':'
asbag69
(g90
g71
NtRp3322
(dp3323
g74
(dp3324
sg83
g3309
sg76
(lp3325
g69
(g70
g71
NtRp3326
(dp3327
g74
(dp3328
g82
I5
ssg83
g3322
sg76
(lp3329
g69
(g78
g71
NtRp3330
(dp3331
g74
(dp3332
g82
I4
ssg83
Nsg76
(lp3333
g69
(g85
g71
NtRp3334
(dp3335
g74
(dp3336
sg83
g3330
sg76
(lp3337
g69
(g90
g71
NtRp3338
(dp3339
g74
(dp3340
g94
g95
ssg83
g3334
sg76
(lp3341
S'expiration'
p3342
asbag69
(g90
g71
NtRp3343
(dp3344
g74
(dp3345
g101
g102
ssg83
g3334
sg76
(lp3346
S':'
asbag69
(g90
g71
NtRp3347
(dp3348
g74
(dp3349
sg83
g3334
sg76
(lp3350
g69
(g70
g71
NtRp3351
(dp3352
g74
(dp3353
g82
I4
ssg83
g3347
sg76
(lp3354
S'3600'
p3355
asbasbasbag69
(g85
g71
NtRp3356
(dp3357
g74
(dp3358
sg83
g3330
sg76
(lp3359
g69
(g90
g71
NtRp3360
(dp3361
g74
(dp3362
g94
g95
ssg83
g3356
sg76
(lp3363
S'hmac_key'
p3364
asbag69
(g90
g71
NtRp3365
(dp3366
g74
(dp3367
g101
g102
ssg83
g3356
sg76
(lp3368
S':'
asbag69
(g90
g71
NtRp3369
(dp3370
g74
(dp3371
sg83
g3356
sg76
(lp3372
g69
(g70
g71
NtRp3373
(dp3374
g74
(dp3375
g82
I4
ssg83
g3369
sg76
(lp3376
S'045d0b9c-7347-403d-bb13-cdac39166793'
p3377
asbasbasbag69
(g85
g71
NtRp3378
(dp3379
g74
(dp3380
sg83
g3330
sg76
(lp3381
g69
(g90
g71
NtRp3382
(dp3383
g74
(dp3384
g94
g95
ssg83
g3378
sg76
(lp3385
S'last_visit'
p3386
asbag69
(g90
g71
NtRp3387
(dp3388
g74
(dp3389
g101
g102
ssg83
g3378
sg76
(lp3390
S':'
asbag69
(g90
g71
NtRp3391
(dp3392
g74
(dp3393
sg83
g3378
sg76
(lp3394
g69
(g70
g71
NtRp3395
(dp3396
g74
(dp3397
g82
I4
ssg83
g3391
sg76
(lp3398
S'datetime.datetime(2012, 3, 9, 18, 36, 40, 461944)'
p3399
asbasbasbag69
(g85
g71
NtRp3400
(dp3401
g74
(dp3402
sg83
g3330
sg76
(lp3403
g69
(g90
g71
NtRp3404
(dp3405
g74
(dp3406
g94
g95
ssg83
g3400
sg76
(lp3407
S'remember'
p3408
asbag69
(g90
g71
NtRp3409
(dp3410
g74
(dp3411
g101
g102
ssg83
g3400
sg76
(lp3412
S':'
asbag69
(g90
g71
NtRp3413
(dp3414
g74
(dp3415
sg83
g3400
sg76
(lp3416
g69
(g70
g71
NtRp3417
(dp3418
g74
(dp3419
g82
I4
ssg83
g3413
sg76
(lp3420
g112
asbasbasbag69
(g85
g71
NtRp3421
(dp3422
g74
(dp3423
sg83
g3330
sg76
(lp3424
g69
(g90
g71
NtRp3425
(dp3426
g74
(dp3427
g94
g95
ssg83
g3421
sg76
(lp3428
S'user'
p3429
asbag69
(g90
g71
NtRp3430
(dp3431
g74
(dp3432
g101
g102
ssg83
g3421
sg76
(lp3433
S':'
asbag69
(g90
g71
NtRp3434
(dp3435
g74
(dp3436
sg83
g3421
sg76
(lp3437
g69
(g70
g71
NtRp3438
(dp3439
g74
(dp3440
g82
I4
ssg83
g3434
sg76
(lp3441
g69
(g78
g71
NtRp3442
(dp3443
g74
(dp3444
g82
I3
ssg83
Nsg76
(lp3445
g69
(g85
g71
NtRp3446
(dp3447
g74
(dp3448
sg83
g3442
sg76
(lp3449
g69
(g90
g71
NtRp3450
(dp3451
g74
(dp3452
g94
g95
ssg83
g3446
sg76
(lp3453
S'address'
p3454
asbag69
(g90
g71
NtRp3455
(dp3456
g74
(dp3457
g101
g102
ssg83
g3446
sg76
(lp3458
S':'
asbag69
(g90
g71
NtRp3459
(dp3460
g74
(dp3461
sg83
g3446
sg76
(lp3462
g69
(g70
g71
NtRp3463
(dp3464
g74
(dp3465
g82
I3
ssg83
g3459
sg76
(lp3466
S'Santa Lucia S/N'
p3467
asbasbasbag69
(g85
g71
NtRp3468
(dp3469
g74
(dp3470
sg83
g3442
sg76
(lp3471
g69
(g90
g71
NtRp3472
(dp3473
g74
(dp3474
g94
g95
ssg83
g3468
sg76
(lp3475
S'amount_added'
p3476
asbag69
(g90
g71
NtRp3477
(dp3478
g74
(dp3479
g101
g102
ssg83
g3468
sg76
(lp3480
S':'
asbag69
(g90
g71
NtRp3481
(dp3482
g74
(dp3483
sg83
g3468
sg76
(lp3484
g69
(g70
g71
NtRp3485
(dp3486
g74
(dp3487
g82
I3
ssg83
g3481
sg76
(lp3488
S'0.0'
p3489
asbasbasbag69
(g85
g71
NtRp3490
(dp3491
g74
(dp3492
sg83
g3442
sg76
(lp3493
g69
(g90
g71
NtRp3494
(dp3495
g74
(dp3496
g94
g95
ssg83
g3490
sg76
(lp3497
S'amount_billed'
p3498
asbag69
(g90
g71
NtRp3499
(dp3500
g74
(dp3501
g101
g102
ssg83
g3490
sg76
(lp3502
S':'
asbag69
(g90
g71
NtRp3503
(dp3504
g74
(dp3505
sg83
g3490
sg76
(lp3506
g69
(g70
g71
NtRp3507
(dp3508
g74
(dp3509
g82
I3
ssg83
g3503
sg76
(lp3510
S'0.0'
p3511
asbasbasbag69
(g85
g71
NtRp3512
(dp3513
g74
(dp3514
sg83
g3442
sg76
(lp3515
g69
(g90
g71
NtRp3516
(dp3517
g74
(dp3518
g94
g95
ssg83
g3512
sg76
(lp3519
S'amount_due'
p3520
asbag69
(g90
g71
NtRp3521
(dp3522
g74
(dp3523
g101
g102
ssg83
g3512
sg76
(lp3524
S':'
asbag69
(g90
g71
NtRp3525
(dp3526
g74
(dp3527
sg83
g3512
sg76
(lp3528
g69
(g70
g71
NtRp3529
(dp3530
g74
(dp3531
g82
I3
ssg83
g3525
sg76
(lp3532
S'0.0'
p3533
asbasbasbag69
(g85
g71
NtRp3534
(dp3535
g74
(dp3536
sg83
g3442
sg76
(lp3537
g69
(g90
g71
NtRp3538
(dp3539
g74
(dp3540
g94
g95
ssg83
g3534
sg76
(lp3541
S'amount_paid'
p3542
asbag69
(g90
g71
NtRp3543
(dp3544
g74
(dp3545
g101
g102
ssg83
g3534
sg76
(lp3546
S':'
asbag69
(g90
g71
NtRp3547
(dp3548
g74
(dp3549
sg83
g3534
sg76
(lp3550
g69
(g70
g71
NtRp3551
(dp3552
g74
(dp3553
g82
I3
ssg83
g3547
sg76
(lp3554
S'0.0'
p3555
asbasbasbag69
(g85
g71
NtRp3556
(dp3557
g74
(dp3558
sg83
g3442
sg76
(lp3559
g69
(g90
g71
NtRp3560
(dp3561
g74
(dp3562
g94
g95
ssg83
g3556
sg76
(lp3563
S'amount_subtracted'
p3564
asbag69
(g90
g71
NtRp3565
(dp3566
g74
(dp3567
g101
g102
ssg83
g3556
sg76
(lp3568
S':'
asbag69
(g90
g71
NtRp3569
(dp3570
g74
(dp3571
sg83
g3556
sg76
(lp3572
g69
(g70
g71
NtRp3573
(dp3574
g74
(dp3575
g82
I3
ssg83
g3569
sg76
(lp3576
S'0.0'
p3577
asbasbasbag69
(g85
g71
NtRp3578
(dp3579
g74
(dp3580
sg83
g3442
sg76
(lp3581
g69
(g90
g71
NtRp3582
(dp3583
g74
(dp3584
g94
g95
ssg83
g3578
sg76
(lp3585
S'attendee_type'
p3586
asbag69
(g90
g71
NtRp3587
(dp3588
g74
(dp3589
g101
g102
ssg83
g3578
sg76
(lp3590
S':'
asbag69
(g90
g71
NtRp3591
(dp3592
g74
(dp3593
sg83
g3578
sg76
(lp3594
g69
(g70
g71
NtRp3595
(dp3596
g74
(dp3597
g82
I3
ssg83
g3591
sg76
(lp3598
S'gratis'
p3599
asbasbasbag69
(g85
g71
NtRp3600
(dp3601
g74
(dp3602
sg83
g3442
sg76
(lp3603
g69
(g90
g71
NtRp3604
(dp3605
g74
(dp3606
g94
g95
ssg83
g3600
sg76
(lp3607
S'city'
p3608
asbag69
(g90
g71
NtRp3609
(dp3610
g74
(dp3611
g101
g102
ssg83
g3600
sg76
(lp3612
S':'
asbag69
(g90
g71
NtRp3613
(dp3614
g74
(dp3615
sg83
g3600
sg76
(lp3616
g69
(g70
g71
NtRp3617
(dp3618
g74
(dp3619
g82
I3
ssg83
g3613
sg76
(lp3620
S'Salta'
p3621
asbasbasbag69
(g85
g71
NtRp3622
(dp3623
g74
(dp3624
sg83
g3442
sg76
(lp3625
g69
(g90
g71
NtRp3626
(dp3627
g74
(dp3628
g94
g95
ssg83
g3622
sg76
(lp3629
S'company_home_page'
p3630
asbag69
(g90
g71
NtRp3631
(dp3632
g74
(dp3633
g101
g102
ssg83
g3622
sg76
(lp3634
S':'
asbag69
(g90
g71
NtRp3635
(dp3636
g74
(dp3637
sg83
g3622
sg76
(lp3638
g69
(g70
g71
NtRp3639
(dp3640
g74
(dp3641
g82
I3
ssg83
g3635
sg76
(lp3642
S'http://www.esdebian.org'
p3643
asbasbasbag69
(g85
g71
NtRp3644
(dp3645
g74
(dp3646
sg83
g3442
sg76
(lp3647
g69
(g90
g71
NtRp3648
(dp3649
g74
(dp3650
g94
g95
ssg83
g3644
sg76
(lp3651
S'company_name'
p3652
asbag69
(g90
g71
NtRp3653
(dp3654
g74
(dp3655
g101
g102
ssg83
g3644
sg76
(lp3656
S':'
asbag69
(g90
g71
NtRp3657
(dp3658
g74
(dp3659
sg83
g3644
sg76
(lp3660
g69
(g70
g71
NtRp3661
(dp3662
g74
(dp3663
g82
I3
ssg83
g3657
sg76
(lp3664
S'Debian OS'
p3665
asbasbasbag69
(g85
g71
NtRp3666
(dp3667
g74
(dp3668
sg83
g3442
sg76
(lp3669
g69
(g90
g71
NtRp3670
(dp3671
g74
(dp3672
g94
g95
ssg83
g3666
sg76
(lp3673
S'country'
p3674
asbag69
(g90
g71
NtRp3675
(dp3676
g74
(dp3677
g101
g102
ssg83
g3666
sg76
(lp3678
S':'
asbag69
(g90
g71
NtRp3679
(dp3680
g74
(dp3681
sg83
g3666
sg76
(lp3682
g69
(g70
g71
NtRp3683
(dp3684
g74
(dp3685
g82
I3
ssg83
g3679
sg76
(lp3686
S'Argentina'
p3687
asbasbasbag69
(g85
g71
NtRp3688
(dp3689
g74
(dp3690
sg83
g3442
sg76
(lp3691
g69
(g90
g71
NtRp3692
(dp3693
g74
(dp3694
g94
g95
ssg83
g3688
sg76
(lp3695
S'created_by_ip'
p3696
asbag69
(g90
g71
NtRp3697
(dp3698
g74
(dp3699
g101
g102
ssg83
g3688
sg76
(lp3700
S':'
asbag69
(g90
g71
NtRp3701
(dp3702
g74
(dp3703
sg83
g3688
sg76
(lp3704
g69
(g70
g71
NtRp3705
(dp3706
g74
(dp3707
g82
I3
ssg83
g3701
sg76
(lp3708
S'127.0.0.1'
p3709
asbasbasbag69
(g85
g71
NtRp3710
(dp3711
g74
(dp3712
sg83
g3442
sg76
(lp3713
g69
(g90
g71
NtRp3714
(dp3715
g74
(dp3716
g94
g95
ssg83
g3710
sg76
(lp3717
S'created_on'
p3718
asbag69
(g90
g71
NtRp3719
(dp3720
g74
(dp3721
g101
g102
ssg83
g3710
sg76
(lp3722
S':'
asbag69
(g90
g71
NtRp3723
(dp3724
g74
(dp3725
sg83
g3710
sg76
(lp3726
g69
(g70
g71
NtRp3727
(dp3728
g74
(dp3729
g82
I3
ssg83
g3723
sg76
(lp3730
S'datetime.datetime(2012, 3, 9, 2, 56, 49)'
p3731
asbasbasbag69
(g85
g71
NtRp3732
(dp3733
g74
(dp3734
sg83
g3442
sg76
(lp3735
g69
(g90
g71
NtRp3736
(dp3737
g74
(dp3738
g94
g95
ssg83
g3732
sg76
(lp3739
S'discount_coupon'
p3740
asbag69
(g90
g71
NtRp3741
(dp3742
g74
(dp3743
g101
g102
ssg83
g3732
sg76
(lp3744
S':'
asbag69
(g90
g71
NtRp3745
(dp3746
g74
(dp3747
sg83
g3732
sg76
(lp3748
g69
(g70
g71
NtRp3749
(dp3750
g74
(dp3751
g82
I3
ssg83
g3745
sg76
(lp3752
S'None'
p3753
asbasbasbag69
(g85
g71
NtRp3754
(dp3755
g74
(dp3756
sg83
g3442
sg76
(lp3757
g69
(g90
g71
NtRp3758
(dp3759
g74
(dp3760
g94
g95
ssg83
g3754
sg76
(lp3761
S'donation'
p3762
asbag69
(g90
g71
NtRp3763
(dp3764
g74
(dp3765
g101
g102
ssg83
g3754
sg76
(lp3766
S':'
asbag69
(g90
g71
NtRp3767
(dp3768
g74
(dp3769
sg83
g3754
sg76
(lp3770
g69
(g70
g71
NtRp3771
(dp3772
g74
(dp3773
g82
I3
ssg83
g3767
sg76
(lp3774
S'0.0'
p3775
asbasbasbag69
(g85
g71
NtRp3776
(dp3777
g74
(dp3778
sg83
g3442
sg76
(lp3779
g69
(g90
g71
NtRp3780
(dp3781
g74
(dp3782
g94
g95
ssg83
g3776
sg76
(lp3783
S'email'
p3784
asbag69
(g90
g71
NtRp3785
(dp3786
g74
(dp3787
g101
g102
ssg83
g3776
sg76
(lp3788
S':'
asbag69
(g90
g71
NtRp3789
(dp3790
g74
(dp3791
sg83
g3776
sg76
(lp3792
g69
(g70
g71
NtRp3793
(dp3794
g74
(dp3795
g82
I3
ssg83
g3789
sg76
(lp3796
S'marco@saltalug.org.ar'
p3797
asbasbasbag69
(g85
g71
NtRp3798
(dp3799
g74
(dp3800
sg83
g3442
sg76
(lp3801
g69
(g90
g71
NtRp3802
(dp3803
g74
(dp3804
g94
g95
ssg83
g3798
sg76
(lp3805
S'first_name'
p3806
asbag69
(g90
g71
NtRp3807
(dp3808
g74
(dp3809
g101
g102
ssg83
g3798
sg76
(lp3810
S':'
asbag69
(g90
g71
NtRp3811
(dp3812
g74
(dp3813
sg83
g3798
sg76
(lp3814
g69
(g70
g71
NtRp3815
(dp3816
g74
(dp3817
g82
I3
ssg83
g3811
sg76
(lp3818
S'Marco'
p3819
asbasbasbag69
(g85
g71
NtRp3820
(dp3821
g74
(dp3822
sg83
g3442
sg76
(lp3823
g69
(g90
g71
NtRp3824
(dp3825
g74
(dp3826
g94
g95
ssg83
g3820
sg76
(lp3827
S'id'
p3828
asbag69
(g90
g71
NtRp3829
(dp3830
g74
(dp3831
g101
g102
ssg83
g3820
sg76
(lp3832
S':'
asbag69
(g90
g71
NtRp3833
(dp3834
g74
(dp3835
sg83
g3820
sg76
(lp3836
g69
(g70
g71
NtRp3837
(dp3838
g74
(dp3839
g82
I3
ssg83
g3833
sg76
(lp3840
S'55'
p3841
asbasbasbag69
(g85
g71
NtRp3842
(dp3843
g74
(dp3844
sg83
g3442
sg76
(lp3845
g69
(g90
g71
NtRp3846
(dp3847
g74
(dp3848
g94
g95
ssg83
g3842
sg76
(lp3849
S'include_in_delegate_listing'
p3850
asbag69
(g90
g71
NtRp3851
(dp3852
g74
(dp3853
g101
g102
ssg83
g3842
sg76
(lp3854
S':'
asbag69
(g90
g71
NtRp3855
(dp3856
g74
(dp3857
sg83
g3842
sg76
(lp3858
g69
(g70
g71
NtRp3859
(dp3860
g74
(dp3861
g82
I3
ssg83
g3855
sg76
(lp3862
g1853
asbasbasbag69
(g85
g71
NtRp3863
(dp3864
g74
(dp3865
sg83
g3442
sg76
(lp3866
g69
(g90
g71
NtRp3867
(dp3868
g74
(dp3869
g94
g95
ssg83
g3863
sg76
(lp3870
S'installfest_hardware'
p3871
asbag69
(g90
g71
NtRp3872
(dp3873
g74
(dp3874
g101
g102
ssg83
g3863
sg76
(lp3875
S':'
asbag69
(g90
g71
NtRp3876
(dp3877
g74
(dp3878
sg83
g3863
sg76
(lp3879
g69
(g70
g71
NtRp3880
(dp3881
g74
(dp3882
g82
I3
ssg83
g3876
sg76
(lp3883
S'kakafono'
p3884
asbasbasbag69
(g85
g71
NtRp3885
(dp3886
g74
(dp3887
sg83
g3442
sg76
(lp3888
g69
(g90
g71
NtRp3889
(dp3890
g74
(dp3891
g94
g95
ssg83
g3885
sg76
(lp3892
S'installfest_os'
p3893
asbag69
(g90
g71
NtRp3894
(dp3895
g74
(dp3896
g101
g102
ssg83
g3885
sg76
(lp3897
S':'
asbag69
(g90
g71
NtRp3898
(dp3899
g74
(dp3900
sg83
g3885
sg76
(lp3901
g69
(g70
g71
NtRp3902
(dp3903
g74
(dp3904
g82
I3
ssg83
g3898
sg76
(lp3905
S'Debian'
p3906
asbasbasbag69
(g85
g71
NtRp3907
(dp3908
g74
(dp3909
sg83
g3442
sg76
(lp3910
g69
(g90
g71
NtRp3911
(dp3912
g74
(dp3913
g94
g95
ssg83
g3907
sg76
(lp3914
S'last_name'
p3915
asbag69
(g90
g71
NtRp3916
(dp3917
g74
(dp3918
g101
g102
ssg83
g3907
sg76
(lp3919
S':'
asbag69
(g90
g71
NtRp3920
(dp3921
g74
(dp3922
sg83
g3907
sg76
(lp3923
g69
(g70
g71
NtRp3924
(dp3925
g74
(dp3926
g82
I3
ssg83
g3920
sg76
(lp3927
S'Mansilla'
p3928
asbasbasbag69
(g85
g71
NtRp3929
(dp3930
g74
(dp3931
sg83
g3442
sg76
(lp3932
g69
(g90
g71
NtRp3933
(dp3934
g74
(dp3935
g94
g95
ssg83
g3929
sg76
(lp3936
S'latitude'
p3937
asbag69
(g90
g71
NtRp3938
(dp3939
g74
(dp3940
g101
g102
ssg83
g3929
sg76
(lp3941
S':'
asbag69
(g90
g71
NtRp3942
(dp3943
g74
(dp3944
sg83
g3929
sg76
(lp3945
g69
(g70
g71
NtRp3946
(dp3947
g74
(dp3948
g82
I3
ssg83
g3942
sg76
(lp3949
S'-24.8442777'
p3950
asbasbasbag69
(g85
g71
NtRp3951
(dp3952
g74
(dp3953
sg83
g3442
sg76
(lp3954
g69
(g90
g71
NtRp3955
(dp3956
g74
(dp3957
g94
g95
ssg83
g3951
sg76
(lp3958
S'longitude'
p3959
asbag69
(g90
g71
NtRp3960
(dp3961
g74
(dp3962
g101
g102
ssg83
g3951
sg76
(lp3963
S':'
asbag69
(g90
g71
NtRp3964
(dp3965
g74
(dp3966
sg83
g3951
sg76
(lp3967
g69
(g70
g71
NtRp3968
(dp3969
g74
(dp3970
g82
I3
ssg83
g3964
sg76
(lp3971
S'-65.4787676'
p3972
asbasbasbag69
(g85
g71
NtRp3973
(dp3974
g74
(dp3975
sg83
g3442
sg76
(lp3976
g69
(g90
g71
NtRp3977
(dp3978
g74
(dp3979
g94
g95
ssg83
g3973
sg76
(lp3980
S'manager'
p3981
asbag69
(g90
g71
NtRp3982
(dp3983
g74
(dp3984
g101
g102
ssg83
g3973
sg76
(lp3985
S':'
asbag69
(g90
g71
NtRp3986
(dp3987
g74
(dp3988
sg83
g3973
sg76
(lp3989
g69
(g70
g71
NtRp3990
(dp3991
g74
(dp3992
g82
I3
ssg83
g3986
sg76
(lp3993
g1853
asbasbasbag69
(g85
g71
NtRp3994
(dp3995
g74
(dp3996
sg83
g3442
sg76
(lp3997
g69
(g90
g71
NtRp3998
(dp3999
g74
(dp4000
g94
g95
ssg83
g3994
sg76
(lp4001
S'password'
p4002
asbag69
(g90
g71
NtRp4003
(dp4004
g74
(dp4005
g101
g102
ssg83
g3994
sg76
(lp4006
S':'
asbag69
(g90
g71
NtRp4007
(dp4008
g74
(dp4009
sg83
g3994
sg76
(lp4010
g69
(g70
g71
NtRp4011
(dp4012
g74
(dp4013
g82
I3
ssg83
g4007
sg76
(lp4014
S'121c120f6831e94b12b41d853c3f672b'
p4015
asbasbasbag69
(g85
g71
NtRp4016
(dp4017
g74
(dp4018
sg83
g3442
sg76
(lp4019
g69
(g90
g71
NtRp4020
(dp4021
g74
(dp4022
g94
g95
ssg83
g4016
sg76
(lp4023
S'personal_home_page'
p4024
asbag69
(g90
g71
NtRp4025
(dp4026
g74
(dp4027
g101
g102
ssg83
g4016
sg76
(lp4028
S':'
asbag69
(g90
g71
NtRp4029
(dp4030
g74
(dp4031
sg83
g4016
sg76
(lp4032
g69
(g70
g71
NtRp4033
(dp4034
g74
(dp4035
g82
I3
ssg83
g4029
sg76
(lp4036
S'http://www.esdebian.org'
p4037
asbasbasbag69
(g85
g71
NtRp4038
(dp4039
g74
(dp4040
sg83
g3442
sg76
(lp4041
g69
(g90
g71
NtRp4042
(dp4043
g74
(dp4044
g94
g95
ssg83
g4038
sg76
(lp4045
S'phone_number'
p4046
asbag69
(g90
g71
NtRp4047
(dp4048
g74
(dp4049
g101
g102
ssg83
g4038
sg76
(lp4050
S':'
asbag69
(g90
g71
NtRp4051
(dp4052
g74
(dp4053
sg83
g4038
sg76
(lp4054
g69
(g70
g71
NtRp4055
(dp4056
g74
(dp4057
g82
I3
ssg83
g4051
sg76
(lp4058
S'76543456789'
p4059
asbasbasbag69
(g85
g71
NtRp4060
(dp4061
g74
(dp4062
sg83
g3442
sg76
(lp4063
g69
(g90
g71
NtRp4064
(dp4065
g74
(dp4066
g94
g95
ssg83
g4060
sg76
(lp4067
S'registration_key'
p4068
asbag69
(g90
g71
NtRp4069
(dp4070
g74
(dp4071
g101
g102
ssg83
g4060
sg76
(lp4072
S':'
asbag69
(g90
g71
NtRp4073
(dp4074
g74
(dp4075
sg83
g4060
sg76
(lp4076
g69
(g70
g71
NtRp4077
(dp4078
g74
(dp4079
g82
I3
ssg83
g4073
sg76
(lp4080
S''
asbasbasbag69
(g85
g71
NtRp4081
(dp4082
g74
(dp4083
sg83
g3442
sg76
(lp4084
g69
(g90
g71
NtRp4085
(dp4086
g74
(dp4087
g94
g95
ssg83
g4081
sg76
(lp4088
S'resume'
p4089
asbag69
(g90
g71
NtRp4090
(dp4091
g74
(dp4092
g101
g102
ssg83
g4081
sg76
(lp4093
S':'
asbag69
(g90
g71
NtRp4094
(dp4095
g74
(dp4096
sg83
g4081
sg76
(lp4097
g69
(g70
g71
NtRp4098
(dp4099
g74
(dp4100
g82
I3
ssg83
g4094
sg76
(lp4101
S'None'
p4102
asbasbasbag69
(g85
g71
NtRp4103
(dp4104
g74
(dp4105
sg83
g3442
sg76
(lp4106
g69
(g90
g71
NtRp4107
(dp4108
g74
(dp4109
g94
g95
ssg83
g4103
sg76
(lp4110
S'reviewer'
p4111
asbag69
(g90
g71
NtRp4112
(dp4113
g74
(dp4114
g101
g102
ssg83
g4103
sg76
(lp4115
S':'
asbag69
(g90
g71
NtRp4116
(dp4117
g74
(dp4118
sg83
g4103
sg76
(lp4119
g69
(g70
g71
NtRp4120
(dp4121
g74
(dp4122
g82
I3
ssg83
g4116
sg76
(lp4123
g1853
asbasbasbag69
(g85
g71
NtRp4124
(dp4125
g74
(dp4126
sg83
g3442
sg76
(lp4127
g69
(g90
g71
NtRp4128
(dp4129
g74
(dp4130
g94
g95
ssg83
g4124
sg76
(lp4131
S'session_chair'
p4132
asbag69
(g90
g71
NtRp4133
(dp4134
g74
(dp4135
g101
g102
ssg83
g4124
sg76
(lp4136
S':'
asbag69
(g90
g71
NtRp4137
(dp4138
g74
(dp4139
sg83
g4124
sg76
(lp4140
g69
(g70
g71
NtRp4141
(dp4142
g74
(dp4143
g82
I3
ssg83
g4137
sg76
(lp4144
g112
asbasbasbag69
(g85
g71
NtRp4145
(dp4146
g74
(dp4147
sg83
g3442
sg76
(lp4148
g69
(g90
g71
NtRp4149
(dp4150
g74
(dp4151
g94
g95
ssg83
g4145
sg76
(lp4152
S'speaker'
p4153
asbag69
(g90
g71
NtRp4154
(dp4155
g74
(dp4156
g101
g102
ssg83
g4145
sg76
(lp4157
S':'
asbag69
(g90
g71
NtRp4158
(dp4159
g74
(dp4160
sg83
g4145
sg76
(lp4161
g69
(g70
g71
NtRp4162
(dp4163
g74
(dp4164
g82
I3
ssg83
g4158
sg76
(lp4165
g112
asbasbasbag69
(g85
g71
NtRp4166
(dp4167
g74
(dp4168
sg83
g3442
sg76
(lp4169
g69
(g90
g71
NtRp4170
(dp4171
g74
(dp4172
g94
g95
ssg83
g4166
sg76
(lp4173
S'state'
p4174
asbag69
(g90
g71
NtRp4175
(dp4176
g74
(dp4177
g101
g102
ssg83
g4166
sg76
(lp4178
S':'
asbag69
(g90
g71
NtRp4179
(dp4180
g74
(dp4181
sg83
g4166
sg76
(lp4182
g69
(g70
g71
NtRp4183
(dp4184
g74
(dp4185
g82
I3
ssg83
g4179
sg76
(lp4186
S'Salta'
p4187
asbasbasbag69
(g85
g71
NtRp4188
(dp4189
g74
(dp4190
sg83
g3442
sg76
(lp4191
g69
(g90
g71
NtRp4192
(dp4193
g74
(dp4194
g94
g95
ssg83
g4188
sg76
(lp4195
S'tutorials'
p4196
asbag69
(g90
g71
NtRp4197
(dp4198
g74
(dp4199
g101
g102
ssg83
g4188
sg76
(lp4200
S':'
asbag69
(g90
g71
NtRp4201
(dp4202
g74
(dp4203
sg83
g4188
sg76
(lp4204
g69
(g70
g71
NtRp4205
(dp4206
g74
(dp4207
g82
I3
ssg83
g4201
sg76
(lp4208
S'None'
p4209
asbasbasbag69
(g85
g71
NtRp4210
(dp4211
g74
(dp4212
sg83
g3442
sg76
(lp4213
g69
(g90
g71
NtRp4214
(dp4215
g74
(dp4216
g94
g95
ssg83
g4210
sg76
(lp4217
S'zip_code'
p4218
asbag69
(g90
g71
NtRp4219
(dp4220
g74
(dp4221
g101
g102
ssg83
g4210
sg76
(lp4222
S':'
asbag69
(g90
g71
NtRp4223
(dp4224
g74
(dp4225
sg83
g4210
sg76
(lp4226
g69
(g70
g71
NtRp4227
(dp4228
g74
(dp4229
g82
I3
ssg83
g4223
sg76
(lp4230
S'4400'
p4231
asbasbasbasbasbasbasbag69
(g85
g71
NtRp4232
(dp4233
g74
(dp4234
sg83
g3330
sg76
(lp4235
g69
(g90
g71
NtRp4236
(dp4237
g74
(dp4238
g94
g95
ssg83
g4232
sg76
(lp4239
S'user_groups'
p4240
asbag69
(g90
g71
NtRp4241
(dp4242
g74
(dp4243
g101
g102
ssg83
g4232
sg76
(lp4244
S':'
asbag69
(g90
g71
NtRp4245
(dp4246
g74
(dp4247
sg83
g4232
sg76
(lp4248
g69
(g70
g71
NtRp4249
(dp4250
g74
(dp4251
g82
I4
ssg83
g4245
sg76
(lp4252
g69
(g78
g71
NtRp4253
(dp4254
g74
(dp4255
g82
I3
ssg83
Nsg76
(lp4256
g69
(g85
g71
NtRp4257
(dp4258
g74
(dp4259
sg83
g4253
sg76
(lp4260
g69
(g90
g71
NtRp4261
(dp4262
g74
(dp4263
g94
g95
ssg83
g4257
sg76
(lp4264
S'15'
p4265
asbag69
(g90
g71
NtRp4266
(dp4267
g74
(dp4268
g101
g102
ssg83
g4257
sg76
(lp4269
S':'
asbag69
(g90
g71
NtRp4270
(dp4271
g74
(dp4272
sg83
g4257
sg76
(lp4273
g69
(g70
g71
NtRp4274
(dp4275
g74
(dp4276
g82
I3
ssg83
g4270
sg76
(lp4277
S'plugin_flatpages'
p4278
asbasbasbasbasbasbasbasbasbasbasbag69
(g85
g71
NtRp4279
(dp4280
g74
(dp4281
sg83
g3217
sg76
(lp4282
g69
(g90
g71
NtRp4283
(dp4284
g74
(dp4285
g94
g95
ssg83
g4279
sg76
(lp4286
S'balance'
p4287
asbag69
(g90
g71
NtRp4288
(dp4289
g74
(dp4290
g101
g102
ssg83
g4279
sg76
(lp4291
S':'
asbag69
(g90
g71
NtRp4292
(dp4293
g74
(dp4294
sg83
g4279
sg76
(lp4295
g69
(g70
g71
NtRp4296
(dp4297
g74
(dp4298
g82
I5
ssg83
g4292
sg76
(lp4299
S'0.0'
p4300
asbasbasbag69
(g85
g71
NtRp4301
(dp4302
g74
(dp4303
sg83
g3217
sg76
(lp4304
g69
(g90
g71
NtRp4305
(dp4306
g74
(dp4307
g94
g95
ssg83
g4301
sg76
(lp4308
S'manager'
p4309
asbag69
(g90
g71
NtRp4310
(dp4311
g74
(dp4312
g101
g102
ssg83
g4301
sg76
(lp4313
S':'
asbag69
(g90
g71
NtRp4314
(dp4315
g74
(dp4316
sg83
g4301
sg76
(lp4317
g69
(g70
g71
NtRp4318
(dp4319
g74
(dp4320
g82
I5
ssg83
g4314
sg76
(lp4321
g1853
asbasbasbag69
(g85
g71
NtRp4322
(dp4323
g74
(dp4324
sg83
g3217
sg76
(lp4325
g69
(g90
g71
NtRp4326
(dp4327
g74
(dp4328
g94
g95
ssg83
g4322
sg76
(lp4329
S't2'
p4330
asbag69
(g90
g71
NtRp4331
(dp4332
g74
(dp4333
g101
g102
ssg83
g4322
sg76
(lp4334
S':'
asbag69
(g90
g71
NtRp4335
(dp4336
g74
(dp4337
sg83
g4322
sg76
(lp4338
g69
(g70
g71
NtRp4339
(dp4340
g74
(dp4341
g82
I5
ssg83
g4335
sg76
(lp4342
g69
(g78
g71
NtRp4343
(dp4344
g74
(dp4345
g82
I4
ssg83
Nsg76
(lp4346
g69
(g85
g71
NtRp4347
(dp4348
g74
(dp4349
sg83
g4343
sg76
(lp4350
g69
(g90
g71
NtRp4351
(dp4352
g74
(dp4353
g94
g95
ssg83
g4347
sg76
(lp4354
S'my_groups_id'
p4355
asbag69
(g90
g71
NtRp4356
(dp4357
g74
(dp4358
g101
g102
ssg83
g4347
sg76
(lp4359
S':'
asbag69
(g90
g71
NtRp4360
(dp4361
g74
(dp4362
sg83
g4347
sg76
(lp4363
g69
(g70
g71
NtRp4364
(dp4365
g74
(dp4366
g82
I4
ssg83
g4360
sg76
(lp4367
g69
(g78
g71
NtRp4368
(dp4369
g74
(dp4370
g82
I3
ssg83
Nsg76
(lp4371
sbasbasbasbasbasbasbasbasbasbsS'etype'
p4372
S"<type 'exceptions.SyntaxError'>"
p4373
sS'date'
p4374
S'Fri Mar  9 18:36:40 2012'
p4375
sS'response'
p4376
g69
(g70
g71
NtRp4377
(dp4378
g74
(dp4379
sg76
(lp4380
g69
(g78
g71
NtRp4381
(dp4382
g74
(dp4383
g82
I5
ssg83
Nsg76
(lp4384
g69
(g85
g71
NtRp4385
(dp4386
g74
(dp4387
sg83
g4381
sg76
(lp4388
g69
(g90
g71
NtRp4389
(dp4390
g74
(dp4391
g94
g95
ssg83
g4385
sg76
(lp4392
g167
asbag69
(g90
g71
NtRp4393
(dp4394
g74
(dp4395
g101
g102
ssg83
g4385
sg76
(lp4396
S':'
asbag69
(g90
g71
NtRp4397
(dp4398
g74
(dp4399
sg83
g4385
sg76
(lp4400
g69
(g70
g71
NtRp4401
(dp4402
g74
(dp4403
g82
I5
ssg83
g4397
sg76
(lp4404
S'<cStringIO.StringO object at 0x7f4f103a23b0>'
p4405
asbasbasbag69
(g85
g71
NtRp4406
(dp4407
g74
(dp4408
sg83
g4381
sg76
(lp4409
g69
(g90
g71
NtRp4410
(dp4411
g74
(dp4412
g94
g95
ssg83
g4406
sg76
(lp4413
g233
asbag69
(g90
g71
NtRp4414
(dp4415
g74
(dp4416
g101
g102
ssg83
g4406
sg76
(lp4417
S':'
asbag69
(g90
g71
NtRp4418
(dp4419
g74
(dp4420
sg83
g4406
sg76
(lp4421
g69
(g70
g71
NtRp4422
(dp4423
g74
(dp4424
g82
I5
ssg83
g4418
sg76
(lp4425
g69
(g78
g71
NtRp4426
(dp4427
g74
(dp4428
g82
I4
ssg83
Nsg76
(lp4429
g69
(g85
g71
NtRp4430
(dp4431
g74
(dp4432
sg83
g4426
sg76
(lp4433
g69
(g90
g71
NtRp4434
(dp4435
g74
(dp4436
g94
g95
ssg83
g4430
sg76
(lp4437
S'session_id_flisol2012'
p4438
asbag69
(g90
g71
NtRp4439
(dp4440
g74
(dp4441
g101
g102
ssg83
g4430
sg76
(lp4442
S':'
asbag69
(g90
g71
NtRp4443
(dp4444
g74
(dp4445
sg83
g4430
sg76
(lp4446
g69
(g70
g71
NtRp4447
(dp4448
g74
(dp4449
g82
I4
ssg83
g4443
sg76
(lp4450
g69
(g78
g71
NtRp4451
(dp4452
g74
(dp4453
g82
I3
ssg83
Nsg76
(lp4454
g69
(g85
g71
NtRp4455
(dp4456
g74
(dp4457
sg83
g4451
sg76
(lp4458
g69
(g90
g71
NtRp4459
(dp4460
g74
(dp4461
g94
g95
ssg83
g4455
sg76
(lp4462
g283
asbag69
(g90
g71
NtRp4463
(dp4464
g74
(dp4465
g101
g102
ssg83
g4455
sg76
(lp4466
S':'
asbag69
(g90
g71
NtRp4467
(dp4468
g74
(dp4469
sg83
g4455
sg76
(lp4470
g69
(g70
g71
NtRp4471
(dp4472
g74
(dp4473
g82
I3
ssg83
g4467
sg76
(lp4474
S''
asbasbasbag69
(g85
g71
NtRp4475
(dp4476
g74
(dp4477
sg83
g4451
sg76
(lp4478
g69
(g90
g71
NtRp4479
(dp4480
g74
(dp4481
g94
g95
ssg83
g4475
sg76
(lp4482
g304
asbag69
(g90
g71
NtRp4483
(dp4484
g74
(dp4485
g101
g102
ssg83
g4475
sg76
(lp4486
S':'
asbag69
(g90
g71
NtRp4487
(dp4488
g74
(dp4489
sg83
g4475
sg76
(lp4490
g69
(g70
g71
NtRp4491
(dp4492
g74
(dp4493
g82
I3
ssg83
g4487
sg76
(lp4494
S''
asbasbasbag69
(g85
g71
NtRp4495
(dp4496
g74
(dp4497
sg83
g4451
sg76
(lp4498
g69
(g90
g71
NtRp4499
(dp4500
g74
(dp4501
g94
g95
ssg83
g4495
sg76
(lp4502
g325
asbag69
(g90
g71
NtRp4503
(dp4504
g74
(dp4505
g101
g102
ssg83
g4495
sg76
(lp4506
S':'
asbag69
(g90
g71
NtRp4507
(dp4508
g74
(dp4509
sg83
g4495
sg76
(lp4510
g69
(g70
g71
NtRp4511
(dp4512
g74
(dp4513
g82
I3
ssg83
g4507
sg76
(lp4514
S''
asbasbasbag69
(g85
g71
NtRp4515
(dp4516
g74
(dp4517
sg83
g4451
sg76
(lp4518
g69
(g90
g71
NtRp4519
(dp4520
g74
(dp4521
g94
g95
ssg83
g4515
sg76
(lp4522
g346
asbag69
(g90
g71
NtRp4523
(dp4524
g74
(dp4525
g101
g102
ssg83
g4515
sg76
(lp4526
S':'
asbag69
(g90
g71
NtRp4527
(dp4528
g74
(dp4529
sg83
g4515
sg76
(lp4530
g69
(g70
g71
NtRp4531
(dp4532
g74
(dp4533
g82
I3
ssg83
g4527
sg76
(lp4534
S''
asbasbasbag69
(g85
g71
NtRp4535
(dp4536
g74
(dp4537
sg83
g4451
sg76
(lp4538
g69
(g90
g71
NtRp4539
(dp4540
g74
(dp4541
g94
g95
ssg83
g4535
sg76
(lp4542
g367
asbag69
(g90
g71
NtRp4543
(dp4544
g74
(dp4545
g101
g102
ssg83
g4535
sg76
(lp4546
S':'
asbag69
(g90
g71
NtRp4547
(dp4548
g74
(dp4549
sg83
g4535
sg76
(lp4550
g69
(g70
g71
NtRp4551
(dp4552
g74
(dp4553
g82
I3
ssg83
g4547
sg76
(lp4554
S''
asbasbasbag69
(g85
g71
NtRp4555
(dp4556
g74
(dp4557
sg83
g4451
sg76
(lp4558
g69
(g90
g71
NtRp4559
(dp4560
g74
(dp4561
g94
g95
ssg83
g4555
sg76
(lp4562
g388
asbag69
(g90
g71
NtRp4563
(dp4564
g74
(dp4565
g101
g102
ssg83
g4555
sg76
(lp4566
S':'
asbag69
(g90
g71
NtRp4567
(dp4568
g74
(dp4569
sg83
g4555
sg76
(lp4570
g69
(g70
g71
NtRp4571
(dp4572
g74
(dp4573
g82
I3
ssg83
g4567
sg76
(lp4574
S'/'
asbasbasbag69
(g85
g71
NtRp4575
(dp4576
g74
(dp4577
sg83
g4451
sg76
(lp4578
g69
(g90
g71
NtRp4579
(dp4580
g74
(dp4581
g94
g95
ssg83
g4575
sg76
(lp4582
g409
asbag69
(g90
g71
NtRp4583
(dp4584
g74
(dp4585
g101
g102
ssg83
g4575
sg76
(lp4586
S':'
asbag69
(g90
g71
NtRp4587
(dp4588
g74
(dp4589
sg83
g4575
sg76
(lp4590
g69
(g70
g71
NtRp4591
(dp4592
g74
(dp4593
g82
I3
ssg83
g4587
sg76
(lp4594
S''
asbasbasbag69
(g85
g71
NtRp4595
(dp4596
g74
(dp4597
sg83
g4451
sg76
(lp4598
g69
(g90
g71
NtRp4599
(dp4600
g74
(dp4601
g94
g95
ssg83
g4595
sg76
(lp4602
g430
asbag69
(g90
g71
NtRp4603
(dp4604
g74
(dp4605
g101
g102
ssg83
g4595
sg76
(lp4606
S':'
asbag69
(g90
g71
NtRp4607
(dp4608
g74
(dp4609
sg83
g4595
sg76
(lp4610
g69
(g70
g71
NtRp4611
(dp4612
g74
(dp4613
g82
I3
ssg83
g4607
sg76
(lp4614
S''
asbasbasbasbasbasbasbasbasbasbasbag69
(g85
g71
NtRp4615
(dp4616
g74
(dp4617
sg83
g4381
sg76
(lp4618
g69
(g90
g71
NtRp4619
(dp4620
g74
(dp4621
g94
g95
ssg83
g4615
sg76
(lp4622
S'delimiters'
p4623
asbag69
(g90
g71
NtRp4624
(dp4625
g74
(dp4626
g101
g102
ssg83
g4615
sg76
(lp4627
S':'
asbag69
(g90
g71
NtRp4628
(dp4629
g74
(dp4630
sg83
g4615
sg76
(lp4631
g69
(g70
g71
NtRp4632
(dp4633
g74
(dp4634
g82
I5
ssg83
g4628
sg76
(lp4635
g69
(g78
g71
NtRp4636
(dp4637
g74
(dp4638
g82
I4
ssg83
Nsg76
(lp4639
g69
(g85
g71
NtRp4640
(dp4641
g74
(dp4642
sg83
g4636
sg76
(lp4643
g69
(g90
g71
NtRp4644
(dp4645
g74
(dp4646
sg83
g4640
sg76
(lp4647
g69
(g70
g71
NtRp4648
(dp4649
g74
(dp4650
g82
I4
ssg83
g4644
sg76
(lp4651
S'{{'
p4652
asbasbasbag69
(g85
g71
NtRp4653
(dp4654
g74
(dp4655
sg83
g4636
sg76
(lp4656
g69
(g90
g71
NtRp4657
(dp4658
g74
(dp4659
sg83
g4653
sg76
(lp4660
g69
(g70
g71
NtRp4661
(dp4662
g74
(dp4663
g82
I4
ssg83
g4657
sg76
(lp4664
S'}}'
p4665
asbasbasbasbasbasbasbag69
(g85
g71
NtRp4666
(dp4667
g74
(dp4668
sg83
g4381
sg76
(lp4669
g69
(g90
g71
NtRp4670
(dp4671
g74
(dp4672
g94
g95
ssg83
g4666
sg76
(lp4673
S'description'
p4674
asbag69
(g90
g71
NtRp4675
(dp4676
g74
(dp4677
g101
g102
ssg83
g4666
sg76
(lp4678
S':'
asbag69
(g90
g71
NtRp4679
(dp4680
g74
(dp4681
sg83
g4666
sg76
(lp4682
g69
(g70
g71
NtRp4683
(dp4684
g74
(dp4685
g82
I5
ssg83
g4679
sg76
(lp4686
S'Hecho con web2py'
p4687
asbasbasbag69
(g85
g71
NtRp4688
(dp4689
g74
(dp4690
sg83
g4381
sg76
(lp4691
g69
(g90
g71
NtRp4692
(dp4693
g74
(dp4694
g94
g95
ssg83
g4688
sg76
(lp4695
S'files'
p4696
asbag69
(g90
g71
NtRp4697
(dp4698
g74
(dp4699
g101
g102
ssg83
g4688
sg76
(lp4700
S':'
asbag69
(g90
g71
NtRp4701
(dp4702
g74
(dp4703
sg83
g4688
sg76
(lp4704
g69
(g70
g71
NtRp4705
(dp4706
g74
(dp4707
g82
I5
ssg83
g4701
sg76
(lp4708
g69
(g78
g71
NtRp4709
(dp4710
g74
(dp4711
g82
I4
ssg83
Nsg76
(lp4712
g69
(g85
g71
NtRp4713
(dp4714
g74
(dp4715
sg83
g4709
sg76
(lp4716
g69
(g90
g71
NtRp4717
(dp4718
g74
(dp4719
sg83
g4713
sg76
(lp4720
g69
(g70
g71
NtRp4721
(dp4722
g74
(dp4723
g82
I4
ssg83
g4717
sg76
(lp4724
S'/plugin_t2/static/t2/scripts/jquery.js'
p4725
asbasbasbag69
(g85
g71
NtRp4726
(dp4727
g74
(dp4728
sg83
g4709
sg76
(lp4729
g69
(g90
g71
NtRp4730
(dp4731
g74
(dp4732
sg83
g4726
sg76
(lp4733
g69
(g70
g71
NtRp4734
(dp4735
g74
(dp4736
g82
I4
ssg83
g4730
sg76
(lp4737
S'/plugin_t2/static/t2/styles/calendar.css'
p4738
asbasbasbag69
(g85
g71
NtRp4739
(dp4740
g74
(dp4741
sg83
g4709
sg76
(lp4742
g69
(g90
g71
NtRp4743
(dp4744
g74
(dp4745
sg83
g4739
sg76
(lp4746
g69
(g70
g71
NtRp4747
(dp4748
g74
(dp4749
g82
I4
ssg83
g4743
sg76
(lp4750
S'/plugin_t2/static/t2/scripts/calendar.js'
p4751
asbasbasbag69
(g85
g71
NtRp4752
(dp4753
g74
(dp4754
sg83
g4709
sg76
(lp4755
g69
(g90
g71
NtRp4756
(dp4757
g74
(dp4758
sg83
g4752
sg76
(lp4759
g69
(g70
g71
NtRp4760
(dp4761
g74
(dp4762
g82
I4
ssg83
g4756
sg76
(lp4763
S'/plugin_t2/static/t2/styles/sfmenu.css'
p4764
asbasbasbag69
(g85
g71
NtRp4765
(dp4766
g74
(dp4767
sg83
g4709
sg76
(lp4768
g69
(g90
g71
NtRp4769
(dp4770
g74
(dp4771
sg83
g4765
sg76
(lp4772
g69
(g70
g71
NtRp4773
(dp4774
g74
(dp4775
g82
I4
ssg83
g4769
sg76
(lp4776
S'/plugin_t2/static/t2/scripts/sfmenu.js'
p4777
asbasbasbag69
(g85
g71
NtRp4778
(dp4779
g74
(dp4780
sg83
g4709
sg76
(lp4781
g69
(g90
g71
NtRp4782
(dp4783
g74
(dp4784
sg83
g4778
sg76
(lp4785
g69
(g70
g71
NtRp4786
(dp4787
g74
(dp4788
g82
I4
ssg83
g4782
sg76
(lp4789
S'/plugin_t2/static/t2/scripts/fancyzoom.min.js'
p4790
asbasbasbag69
(g85
g71
NtRp4791
(dp4792
g74
(dp4793
sg83
g4709
sg76
(lp4794
g69
(g90
g71
NtRp4795
(dp4796
g74
(dp4797
sg83
g4791
sg76
(lp4798
g69
(g70
g71
NtRp4799
(dp4800
g74
(dp4801
g82
I4
ssg83
g4795
sg76
(lp4802
S'/plugin_t2/static/t2/styles/rating.css'
p4803
asbasbasbag69
(g85
g71
NtRp4804
(dp4805
g74
(dp4806
sg83
g4709
sg76
(lp4807
g69
(g90
g71
NtRp4808
(dp4809
g74
(dp4810
sg83
g4804
sg76
(lp4811
g69
(g70
g71
NtRp4812
(dp4813
g74
(dp4814
g82
I4
ssg83
g4808
sg76
(lp4815
S'/plugin_t2/static/t2/scripts/rating.js'
p4816
asbasbasbag69
(g85
g71
NtRp4817
(dp4818
g74
(dp4819
sg83
g4709
sg76
(lp4820
g69
(g90
g71
NtRp4821
(dp4822
g74
(dp4823
sg83
g4817
sg76
(lp4824
g69
(g70
g71
NtRp4825
(dp4826
g74
(dp4827
g82
I4
ssg83
g4821
sg76
(lp4828
S'/plugin_t2/static/t2/scripts/web2py.js'
p4829
asbasbasbasbasbasbasbag69
(g85
g71
NtRp4830
(dp4831
g74
(dp4832
sg83
g4381
sg76
(lp4833
g69
(g90
g71
NtRp4834
(dp4835
g74
(dp4836
g94
g95
ssg83
g4830
sg76
(lp4837
S'flash'
p4838
asbag69
(g90
g71
NtRp4839
(dp4840
g74
(dp4841
g101
g102
ssg83
g4830
sg76
(lp4842
S':'
asbag69
(g90
g71
NtRp4843
(dp4844
g74
(dp4845
sg83
g4830
sg76
(lp4846
g69
(g70
g71
NtRp4847
(dp4848
g74
(dp4849
g82
I5
ssg83
g4843
sg76
(lp4850
S''
asbasbasbag69
(g85
g71
NtRp4851
(dp4852
g74
(dp4853
sg83
g4381
sg76
(lp4854
g69
(g90
g71
NtRp4855
(dp4856
g74
(dp4857
g94
g95
ssg83
g4851
sg76
(lp4858
S'footer'
p4859
asbag69
(g90
g71
NtRp4860
(dp4861
g74
(dp4862
g101
g102
ssg83
g4851
sg76
(lp4863
S':'
asbag69
(g90
g71
NtRp4864
(dp4865
g74
(dp4866
sg83
g4851
sg76
(lp4867
g69
(g70
g71
NtRp4868
(dp4869
g74
(dp4870
g82
I5
ssg83
g4864
sg76
(lp4871
S'<p>InstallFest <a href="http://www.flisol.info/">FLISOL</a> <b>28 de abril de 2012</b> - <a href="http://www.unsa.edu.ar/">Universidad Nacional de Salta</a><br/>\n<a href="http://www.flisol.info/FLISOL2012/Argentina/Salta">http://www.flisol.info/FLISOL2012/Argentina/Salta</a> - organizacion@saltalug.org.ar</p>'
p4872
asbasbasbag69
(g85
g71
NtRp4873
(dp4874
g74
(dp4875
sg83
g4381
sg76
(lp4876
g69
(g90
g71
NtRp4877
(dp4878
g74
(dp4879
g94
g95
ssg83
g4873
sg76
(lp4880
S'generic_patterns'
p4881
asbag69
(g90
g71
NtRp4882
(dp4883
g74
(dp4884
g101
g102
ssg83
g4873
sg76
(lp4885
S':'
asbag69
(g90
g71
NtRp4886
(dp4887
g74
(dp4888
sg83
g4873
sg76
(lp4889
g69
(g70
g71
NtRp4890
(dp4891
g74
(dp4892
g82
I5
ssg83
g4886
sg76
(lp4893
g69
(g78
g71
NtRp4894
(dp4895
g74
(dp4896
g82
I4
ssg83
Nsg76
(lp4897
sbasbasbasbag69
(g85
g71
NtRp4898
(dp4899
g74
(dp4900
sg83
g4381
sg76
(lp4901
g69
(g90
g71
NtRp4902
(dp4903
g74
(dp4904
g94
g95
ssg83
g4898
sg76
(lp4905
S'headers'
p4906
asbag69
(g90
g71
NtRp4907
(dp4908
g74
(dp4909
g101
g102
ssg83
g4898
sg76
(lp4910
S':'
asbag69
(g90
g71
NtRp4911
(dp4912
g74
(dp4913
sg83
g4898
sg76
(lp4914
g69
(g70
g71
NtRp4915
(dp4916
g74
(dp4917
g82
I5
ssg83
g4911
sg76
(lp4918
g69
(g78
g71
NtRp4919
(dp4920
g74
(dp4921
g82
I4
ssg83
Nsg76
(lp4922
g69
(g85
g71
NtRp4923
(dp4924
g74
(dp4925
sg83
g4919
sg76
(lp4926
g69
(g90
g71
NtRp4927
(dp4928
g74
(dp4929
g94
g95
ssg83
g4923
sg76
(lp4930
S'Cache-Control'
p4931
asbag69
(g90
g71
NtRp4932
(dp4933
g74
(dp4934
g101
g102
ssg83
g4923
sg76
(lp4935
S':'
asbag69
(g90
g71
NtRp4936
(dp4937
g74
(dp4938
sg83
g4923
sg76
(lp4939
g69
(g70
g71
NtRp4940
(dp4941
g74
(dp4942
g82
I4
ssg83
g4936
sg76
(lp4943
S'no-store, no-cache, must-revalidate, post-check=0, pre-check=0'
p4944
asbasbasbag69
(g85
g71
NtRp4945
(dp4946
g74
(dp4947
sg83
g4919
sg76
(lp4948
g69
(g90
g71
NtRp4949
(dp4950
g74
(dp4951
g94
g95
ssg83
g4945
sg76
(lp4952
S'Content-Type'
p4953
asbag69
(g90
g71
NtRp4954
(dp4955
g74
(dp4956
g101
g102
ssg83
g4945
sg76
(lp4957
S':'
asbag69
(g90
g71
NtRp4958
(dp4959
g74
(dp4960
sg83
g4945
sg76
(lp4961
g69
(g70
g71
NtRp4962
(dp4963
g74
(dp4964
g82
I4
ssg83
g4958
sg76
(lp4965
S'text/html; charset=utf-8'
p4966
asbasbasbag69
(g85
g71
NtRp4967
(dp4968
g74
(dp4969
sg83
g4919
sg76
(lp4970
g69
(g90
g71
NtRp4971
(dp4972
g74
(dp4973
g94
g95
ssg83
g4967
sg76
(lp4974
S'Expires'
p4975
asbag69
(g90
g71
NtRp4976
(dp4977
g74
(dp4978
g101
g102
ssg83
g4967
sg76
(lp4979
S':'
asbag69
(g90
g71
NtRp4980
(dp4981
g74
(dp4982
sg83
g4967
sg76
(lp4983
g69
(g70
g71
NtRp4984
(dp4985
g74
(dp4986
g82
I4
ssg83
g4980
sg76
(lp4987
S'Fri, 09 Mar 2012 21:36:40 GMT'
p4988
asbasbasbag69
(g85
g71
NtRp4989
(dp4990
g74
(dp4991
sg83
g4919
sg76
(lp4992
g69
(g90
g71
NtRp4993
(dp4994
g74
(dp4995
g94
g95
ssg83
g4989
sg76
(lp4996
S'Pragma'
p4997
asbag69
(g90
g71
NtRp4998
(dp4999
g74
(dp5000
g101
g102
ssg83
g4989
sg76
(lp5001
S':'
asbag69
(g90
g71
NtRp5002
(dp5003
g74
(dp5004
sg83
g4989
sg76
(lp5005
g69
(g70
g71
NtRp5006
(dp5007
g74
(dp5008
g82
I4
ssg83
g5002
sg76
(lp5009
S'no-cache'
p5010
asbasbasbag69
(g85
g71
NtRp5011
(dp5012
g74
(dp5013
sg83
g4919
sg76
(lp5014
g69
(g90
g71
NtRp5015
(dp5016
g74
(dp5017
g94
g95
ssg83
g5011
sg76
(lp5018
S'X-Powered-By'
p5019
asbag69
(g90
g71
NtRp5020
(dp5021
g74
(dp5022
g101
g102
ssg83
g5011
sg76
(lp5023
S':'
asbag69
(g90
g71
NtRp5024
(dp5025
g74
(dp5026
sg83
g5011
sg76
(lp5027
g69
(g70
g71
NtRp5028
(dp5029
g74
(dp5030
g82
I4
ssg83
g5024
sg76
(lp5031
S'web2py'
p5032
asbasbasbasbasbasbasbag69
(g85
g71
NtRp5033
(dp5034
g74
(dp5035
sg83
g4381
sg76
(lp5036
g69
(g90
g71
NtRp5037
(dp5038
g74
(dp5039
g94
g95
ssg83
g5033
sg76
(lp5040
S'keywords'
p5041
asbag69
(g90
g71
NtRp5042
(dp5043
g74
(dp5044
g101
g102
ssg83
g5033
sg76
(lp5045
S':'
asbag69
(g90
g71
NtRp5046
(dp5047
g74
(dp5048
sg83
g5033
sg76
(lp5049
g69
(g70
g71
NtRp5050
(dp5051
g74
(dp5052
g82
I5
ssg83
g5046
sg76
(lp5053
S'festival, instalaci\xc3\xb3n, software libre, salta, argentina, flisol'
p5054
asbasbasbag69
(g85
g71
NtRp5055
(dp5056
g74
(dp5057
sg83
g4381
sg76
(lp5058
g69
(g90
g71
NtRp5059
(dp5060
g74
(dp5061
g94
g95
ssg83
g5055
sg76
(lp5062
S'menu'
p5063
asbag69
(g90
g71
NtRp5064
(dp5065
g74
(dp5066
g101
g102
ssg83
g5055
sg76
(lp5067
S':'
asbag69
(g90
g71
NtRp5068
(dp5069
g74
(dp5070
sg83
g5055
sg76
(lp5071
g69
(g70
g71
NtRp5072
(dp5073
g74
(dp5074
g82
I5
ssg83
g5068
sg76
(lp5075
g69
(g78
g71
NtRp5076
(dp5077
g74
(dp5078
g82
I4
ssg83
Nsg76
(lp5079
g69
(g85
g71
NtRp5080
(dp5081
g74
(dp5082
sg83
g5076
sg76
(lp5083
g69
(g90
g71
NtRp5084
(dp5085
g74
(dp5086
sg83
g5080
sg76
(lp5087
g69
(g70
g71
NtRp5088
(dp5089
g74
(dp5090
g82
I4
ssg83
g5084
sg76
(lp5091
g69
(g78
g71
NtRp5092
(dp5093
g74
(dp5094
g82
I3
ssg83
Nsg76
(lp5095
g69
(g85
g71
NtRp5096
(dp5097
g74
(dp5098
sg83
g5092
sg76
(lp5099
g69
(g90
g71
NtRp5100
(dp5101
g74
(dp5102
sg83
g5096
sg76
(lp5103
g69
(g70
g71
NtRp5104
(dp5105
g74
(dp5106
g82
I3
ssg83
g5100
sg76
(lp5107
cgluon.languages
lazyT_unpickle
p5108
(S't\t\x00\x00\x00Principal'
tRp5109
asbasbasbag69
(g85
g71
NtRp5110
(dp5111
g74
(dp5112
sg83
g5092
sg76
(lp5113
g69
(g90
g71
NtRp5114
(dp5115
g74
(dp5116
sg83
g5110
sg76
(lp5117
g69
(g70
g71
NtRp5118
(dp5119
g74
(dp5120
g82
I3
ssg83
g5114
sg76
(lp5121
g112
asbasbasbag69
(g85
g71
NtRp5122
(dp5123
g74
(dp5124
sg83
g5092
sg76
(lp5125
g69
(g90
g71
NtRp5126
(dp5127
g74
(dp5128
sg83
g5122
sg76
(lp5129
g69
(g70
g71
NtRp5130
(dp5131
g74
(dp5132
g82
I3
ssg83
g5126
sg76
(lp5133
S'/flisol2012/default/index'
p5134
asbasbasbasbasbasbasbag69
(g85
g71
NtRp5135
(dp5136
g74
(dp5137
sg83
g5076
sg76
(lp5138
g69
(g90
g71
NtRp5139
(dp5140
g74
(dp5141
sg83
g5135
sg76
(lp5142
g69
(g70
g71
NtRp5143
(dp5144
g74
(dp5145
g82
I4
ssg83
g5139
sg76
(lp5146
g69
(g78
g71
NtRp5147
(dp5148
g74
(dp5149
g82
I3
ssg83
Nsg76
(lp5150
g69
(g85
g71
NtRp5151
(dp5152
g74
(dp5153
sg83
g5147
sg76
(lp5154
g69
(g90
g71
NtRp5155
(dp5156
g74
(dp5157
sg83
g5151
sg76
(lp5158
g69
(g70
g71
NtRp5159
(dp5160
g74
(dp5161
g82
I3
ssg83
g5155
sg76
(lp5162
g5108
(S't\x0b\x00\x00\x00Conferencia'
tRp5163
asbasbasbag69
(g85
g71
NtRp5164
(dp5165
g74
(dp5166
sg83
g5147
sg76
(lp5167
g69
(g90
g71
NtRp5168
(dp5169
g74
(dp5170
sg83
g5164
sg76
(lp5171
g69
(g70
g71
NtRp5172
(dp5173
g74
(dp5174
g82
I3
ssg83
g5168
sg76
(lp5175
g112
asbasbasbag69
(g85
g71
NtRp5176
(dp5177
g74
(dp5178
sg83
g5147
sg76
(lp5179
g69
(g90
g71
NtRp5180
(dp5181
g74
(dp5182
sg83
g5176
sg76
(lp5183
g69
(g70
g71
NtRp5184
(dp5185
g74
(dp5186
g82
I3
ssg83
g5180
sg76
(lp5187
S'#'
asbasbasbag69
(g85
g71
NtRp5188
(dp5189
g74
(dp5190
sg83
g5147
sg76
(lp5191
g69
(g90
g71
NtRp5192
(dp5193
g74
(dp5194
sg83
g5188
sg76
(lp5195
g69
(g70
g71
NtRp5196
(dp5197
g74
(dp5198
g82
I3
ssg83
g5192
sg76
(lp5199
g69
(g78
g71
NtRp5200
(dp5201
g74
(dp5202
g82
I2
ssg83
Nsg76
(lp5203
g69
(g85
g71
NtRp5204
(dp5205
g74
(dp5206
sg83
g5200
sg76
(lp5207
g69
(g90
g71
NtRp5208
(dp5209
g74
(dp5210
sg83
g5204
sg76
(lp5211
g69
(g70
g71
NtRp5212
(dp5213
g74
(dp5214
g82
I2
ssg83
g5208
sg76
(lp5215
g69
(g78
g71
NtRp5216
(dp5217
g74
(dp5218
g82
I1
ssg83
Nsg76
(lp5219
g69
(g85
g71
NtRp5220
(dp5221
g74
(dp5222
sg83
g5216
sg76
(lp5223
g69
(g90
g71
NtRp5224
(dp5225
g74
(dp5226
sg83
g5220
sg76
(lp5227
g69
(g70
g71
NtRp5228
(dp5229
g74
(dp5230
g82
I1
ssg83
g5224
sg76
(lp5231
g5108
(S's\t\x00\x00\x00Acerca de'
tRp5232
asbasbasbag69
(g85
g71
NtRp5233
(dp5234
g74
(dp5235
sg83
g5216
sg76
(lp5236
g69
(g90
g71
NtRp5237
(dp5238
g74
(dp5239
sg83
g5233
sg76
(lp5240
g69
(g70
g71
NtRp5241
(dp5242
g74
(dp5243
g82
I1
ssg83
g5237
sg76
(lp5244
I01
asbasbasbag69
(g85
g71
NtRp5245
(dp5246
g74
(dp5247
sg83
g5216
sg76
(lp5248
g69
(g90
g71
NtRp5249
(dp5250
g74
(dp5251
sg83
g5245
sg76
(lp5252
g69
(g70
g71
NtRp5253
(dp5254
g74
(dp5255
g82
I1
ssg83
g5249
sg76
(lp5256
S'/flisol2012/conference/about'
p5257
asbasbasbasbasbasbasbag69
(g85
g71
NtRp5258
(dp5259
g74
(dp5260
sg83
g5200
sg76
(lp5261
g69
(g90
g71
NtRp5262
(dp5263
g74
(dp5264
sg83
g5258
sg76
(lp5265
g69
(g70
g71
NtRp5266
(dp5267
g74
(dp5268
g82
I2
ssg83
g5262
sg76
(lp5269
g69
(g78
g71
NtRp5270
(dp5271
g74
(dp5272
g82
I1
ssg83
Nsg76
(lp5273
g69
(g85
g71
NtRp5274
(dp5275
g74
(dp5276
sg83
g5270
sg76
(lp5277
g69
(g90
g71
NtRp5278
(dp5279
g74
(dp5280
sg83
g5274
sg76
(lp5281
g69
(g70
g71
NtRp5282
(dp5283
g74
(dp5284
g82
I1
ssg83
g5278
sg76
(lp5285
g5108
(S't\x05\x00\x00\x00Lugar'
tRp5286
asbasbasbag69
(g85
g71
NtRp5287
(dp5288
g74
(dp5289
sg83
g5270
sg76
(lp5290
g69
(g90
g71
NtRp5291
(dp5292
g74
(dp5293
sg83
g5287
sg76
(lp5294
g69
(g70
g71
NtRp5295
(dp5296
g74
(dp5297
g82
I1
ssg83
g5291
sg76
(lp5298
I01
asbasbasbag69
(g85
g71
NtRp5299
(dp5300
g74
(dp5301
sg83
g5270
sg76
(lp5302
g69
(g90
g71
NtRp5303
(dp5304
g74
(dp5305
sg83
g5299
sg76
(lp5306
g69
(g70
g71
NtRp5307
(dp5308
g74
(dp5309
g82
I1
ssg83
g5303
sg76
(lp5310
S'/flisol2012/conference/venue'
p5311
asbasbasbasbasbasbasbag69
(g85
g71
NtRp5312
(dp5313
g74
(dp5314
sg83
g5200
sg76
(lp5315
g69
(g90
g71
NtRp5316
(dp5317
g74
(dp5318
sg83
g5312
sg76
(lp5319
g69
(g70
g71
NtRp5320
(dp5321
g74
(dp5322
g82
I2
ssg83
g5316
sg76
(lp5323
g69
(g78
g71
NtRp5324
(dp5325
g74
(dp5326
g82
I1
ssg83
Nsg76
(lp5327
g69
(g85
g71
NtRp5328
(dp5329
g74
(dp5330
sg83
g5324
sg76
(lp5331
g69
(g90
g71
NtRp5332
(dp5333
g74
(dp5334
sg83
g5328
sg76
(lp5335
g69
(g70
g71
NtRp5336
(dp5337
g74
(dp5338
g82
I1
ssg83
g5332
sg76
(lp5339
g5108
(S't\x08\x00\x00\x00Software'
tRp5340
asbasbasbag69
(g85
g71
NtRp5341
(dp5342
g74
(dp5343
sg83
g5324
sg76
(lp5344
g69
(g90
g71
NtRp5345
(dp5346
g74
(dp5347
sg83
g5341
sg76
(lp5348
g69
(g70
g71
NtRp5349
(dp5350
g74
(dp5351
g82
I1
ssg83
g5345
sg76
(lp5352
I01
asbasbasbag69
(g85
g71
NtRp5353
(dp5354
g74
(dp5355
sg83
g5324
sg76
(lp5356
g69
(g90
g71
NtRp5357
(dp5358
g74
(dp5359
sg83
g5353
sg76
(lp5360
g69
(g70
g71
NtRp5361
(dp5362
g74
(dp5363
g82
I1
ssg83
g5357
sg76
(lp5364
S'/flisol2012/conference/software'
p5365
asbasbasbasbasbasbasbag69
(g85
g71
NtRp5366
(dp5367
g74
(dp5368
sg83
g5200
sg76
(lp5369
g69
(g90
g71
NtRp5370
(dp5371
g74
(dp5372
sg83
g5366
sg76
(lp5373
g69
(g70
g71
NtRp5374
(dp5375
g74
(dp5376
g82
I2
ssg83
g5370
sg76
(lp5377
g69
(g78
g71
NtRp5378
(dp5379
g74
(dp5380
g82
I1
ssg83
Nsg76
(lp5381
g69
(g85
g71
NtRp5382
(dp5383
g74
(dp5384
sg83
g5378
sg76
(lp5385
g69
(g90
g71
NtRp5386
(dp5387
g74
(dp5388
sg83
g5382
sg76
(lp5389
g69
(g70
g71
NtRp5390
(dp5391
g74
(dp5392
g82
I1
ssg83
g5386
sg76
(lp5393
g5108
(S't\x06\x00\x00\x00Agenda'
tRp5394
asbasbasbag69
(g85
g71
NtRp5395
(dp5396
g74
(dp5397
sg83
g5378
sg76
(lp5398
g69
(g90
g71
NtRp5399
(dp5400
g74
(dp5401
sg83
g5395
sg76
(lp5402
g69
(g70
g71
NtRp5403
(dp5404
g74
(dp5405
g82
I1
ssg83
g5399
sg76
(lp5406
I01
asbasbasbag69
(g85
g71
NtRp5407
(dp5408
g74
(dp5409
sg83
g5378
sg76
(lp5410
g69
(g90
g71
NtRp5411
(dp5412
g74
(dp5413
sg83
g5407
sg76
(lp5414
g69
(g70
g71
NtRp5415
(dp5416
g74
(dp5417
g82
I1
ssg83
g5411
sg76
(lp5418
S'/flisol2012/conference/schedule'
p5419
asbasbasbasbasbasbasbag69
(g85
g71
NtRp5420
(dp5421
g74
(dp5422
sg83
g5200
sg76
(lp5423
g69
(g90
g71
NtRp5424
(dp5425
g74
(dp5426
sg83
g5420
sg76
(lp5427
g69
(g70
g71
NtRp5428
(dp5429
g74
(dp5430
g82
I2
ssg83
g5424
sg76
(lp5431
g69
(g78
g71
NtRp5432
(dp5433
g74
(dp5434
g82
I1
ssg83
Nsg76
(lp5435
g69
(g85
g71
NtRp5436
(dp5437
g74
(dp5438
sg83
g5432
sg76
(lp5439
g69
(g90
g71
NtRp5440
(dp5441
g74
(dp5442
sg83
g5436
sg76
(lp5443
g69
(g70
g71
NtRp5444
(dp5445
g74
(dp5446
g82
I1
ssg83
g5440
sg76
(lp5447
g5108
(S't\x0b\x00\x00\x00Comunidades'
tRp5448
asbasbasbag69
(g85
g71
NtRp5449
(dp5450
g74
(dp5451
sg83
g5432
sg76
(lp5452
g69
(g90
g71
NtRp5453
(dp5454
g74
(dp5455
sg83
g5449
sg76
(lp5456
g69
(g70
g71
NtRp5457
(dp5458
g74
(dp5459
g82
I1
ssg83
g5453
sg76
(lp5460
I01
asbasbasbag69
(g85
g71
NtRp5461
(dp5462
g74
(dp5463
sg83
g5432
sg76
(lp5464
g69
(g90
g71
NtRp5465
(dp5466
g74
(dp5467
sg83
g5461
sg76
(lp5468
g69
(g70
g71
NtRp5469
(dp5470
g74
(dp5471
g82
I1
ssg83
g5465
sg76
(lp5472
S'/flisol2012/conference/communities'
p5473
asbasbasbasbasbasbasbag69
(g85
g71
NtRp5474
(dp5475
g74
(dp5476
sg83
g5200
sg76
(lp5477
g69
(g90
g71
NtRp5478
(dp5479
g74
(dp5480
sg83
g5474
sg76
(lp5481
g69
(g70
g71
NtRp5482
(dp5483
g74
(dp5484
g82
I2
ssg83
g5478
sg76
(lp5485
g69
(g78
g71
NtRp5486
(dp5487
g74
(dp5488
g82
I1
ssg83
Nsg76
(lp5489
g69
(g85
g71
NtRp5490
(dp5491
g74
(dp5492
sg83
g5486
sg76
(lp5493
g69
(g90
g71
NtRp5494
(dp5495
g74
(dp5496
sg83
g5490
sg76
(lp5497
g69
(g70
g71
NtRp5498
(dp5499
g74
(dp5500
g82
I1
ssg83
g5494
sg76
(lp5501
g5108
(S's\x15\x00\x00\x00Propuestas de charlas'
tRp5502
asbasbasbag69
(g85
g71
NtRp5503
(dp5504
g74
(dp5505
sg83
g5486
sg76
(lp5506
g69
(g90
g71
NtRp5507
(dp5508
g74
(dp5509
sg83
g5503
sg76
(lp5510
g69
(g70
g71
NtRp5511
(dp5512
g74
(dp5513
g82
I1
ssg83
g5507
sg76
(lp5514
I01
asbasbasbag69
(g85
g71
NtRp5515
(dp5516
g74
(dp5517
sg83
g5486
sg76
(lp5518
g69
(g90
g71
NtRp5519
(dp5520
g74
(dp5521
sg83
g5515
sg76
(lp5522
g69
(g70
g71
NtRp5523
(dp5524
g74
(dp5525
g82
I1
ssg83
g5519
sg76
(lp5526
S'/flisol2012/conference/proposals'
p5527
asbasbasbasbasbasbasbag69
(g85
g71
NtRp5528
(dp5529
g74
(dp5530
sg83
g5200
sg76
(lp5531
g69
(g90
g71
NtRp5532
(dp5533
g74
(dp5534
sg83
g5528
sg76
(lp5535
g69
(g70
g71
NtRp5536
(dp5537
g74
(dp5538
g82
I2
ssg83
g5532
sg76
(lp5539
g69
(g78
g71
NtRp5540
(dp5541
g74
(dp5542
g82
I1
ssg83
Nsg76
(lp5543
g69
(g85
g71
NtRp5544
(dp5545
g74
(dp5546
sg83
g5540
sg76
(lp5547
g69
(g90
g71
NtRp5548
(dp5549
g74
(dp5550
sg83
g5544
sg76
(lp5551
g69
(g70
g71
NtRp5552
(dp5553
g74
(dp5554
g82
I1
ssg83
g5548
sg76
(lp5555
g5108
(S't\r\x00\x00\x00Organizadores'
tRp5556
asbasbasbag69
(g85
g71
NtRp5557
(dp5558
g74
(dp5559
sg83
g5540
sg76
(lp5560
g69
(g90
g71
NtRp5561
(dp5562
g74
(dp5563
sg83
g5557
sg76
(lp5564
g69
(g70
g71
NtRp5565
(dp5566
g74
(dp5567
g82
I1
ssg83
g5561
sg76
(lp5568
I01
asbasbasbag69
(g85
g71
NtRp5569
(dp5570
g74
(dp5571
sg83
g5540
sg76
(lp5572
g69
(g90
g71
NtRp5573
(dp5574
g74
(dp5575
sg83
g5569
sg76
(lp5576
g69
(g70
g71
NtRp5577
(dp5578
g74
(dp5579
g82
I1
ssg83
g5573
sg76
(lp5580
S'/flisol2012/conference/staff'
p5581
asbasbasbasbasbasbasbasbasbasbasbasbasbasbasbag69
(g85
g71
NtRp5582
(dp5583
g74
(dp5584
sg83
g5076
sg76
(lp5585
g69
(g90
g71
NtRp5586
(dp5587
g74
(dp5588
sg83
g5582
sg76
(lp5589
g69
(g70
g71
NtRp5590
(dp5591
g74
(dp5592
g82
I4
ssg83
g5586
sg76
(lp5593
g69
(g78
g71
NtRp5594
(dp5595
g74
(dp5596
g82
I3
ssg83
Nsg76
(lp5597
g69
(g85
g71
NtRp5598
(dp5599
g74
(dp5600
sg83
g5594
sg76
(lp5601
g69
(g90
g71
NtRp5602
(dp5603
g74
(dp5604
sg83
g5598
sg76
(lp5605
g69
(g70
g71
NtRp5606
(dp5607
g74
(dp5608
g82
I3
ssg83
g5602
sg76
(lp5609
g5108
(S's\r\x00\x00\x00Estad\xc3\xadsticas'
tRp5610
asbasbasbag69
(g85
g71
NtRp5611
(dp5612
g74
(dp5613
sg83
g5594
sg76
(lp5614
g69
(g90
g71
NtRp5615
(dp5616
g74
(dp5617
sg83
g5611
sg76
(lp5618
g69
(g70
g71
NtRp5619
(dp5620
g74
(dp5621
g82
I3
ssg83
g5615
sg76
(lp5622
g112
asbasbasbag69
(g85
g71
NtRp5623
(dp5624
g74
(dp5625
sg83
g5594
sg76
(lp5626
g69
(g90
g71
NtRp5627
(dp5628
g74
(dp5629
sg83
g5623
sg76
(lp5630
g69
(g70
g71
NtRp5631
(dp5632
g74
(dp5633
g82
I3
ssg83
g5627
sg76
(lp5634
S'#'
asbasbasbag69
(g85
g71
NtRp5635
(dp5636
g74
(dp5637
sg83
g5594
sg76
(lp5638
g69
(g90
g71
NtRp5639
(dp5640
g74
(dp5641
sg83
g5635
sg76
(lp5642
g69
(g70
g71
NtRp5643
(dp5644
g74
(dp5645
g82
I3
ssg83
g5639
sg76
(lp5646
g69
(g78
g71
NtRp5647
(dp5648
g74
(dp5649
g82
I2
ssg83
Nsg76
(lp5650
g69
(g85
g71
NtRp5651
(dp5652
g74
(dp5653
sg83
g5647
sg76
(lp5654
g69
(g90
g71
NtRp5655
(dp5656
g74
(dp5657
sg83
g5651
sg76
(lp5658
g69
(g70
g71
NtRp5659
(dp5660
g74
(dp5661
g82
I2
ssg83
g5655
sg76
(lp5662
g69
(g78
g71
NtRp5663
(dp5664
g74
(dp5665
g82
I1
ssg83
Nsg76
(lp5666
g69
(g85
g71
NtRp5667
(dp5668
g74
(dp5669
sg83
g5663
sg76
(lp5670
g69
(g90
g71
NtRp5671
(dp5672
g74
(dp5673
sg83
g5667
sg76
(lp5674
g69
(g70
g71
NtRp5675
(dp5676
g74
(dp5677
g82
I1
ssg83
g5671
sg76
(lp5678
g5108
(S't\t\x00\x00\x00Entidades'
tRp5679
asbasbasbag69
(g85
g71
NtRp5680
(dp5681
g74
(dp5682
sg83
g5663
sg76
(lp5683
g69
(g90
g71
NtRp5684
(dp5685
g74
(dp5686
sg83
g5680
sg76
(lp5687
g69
(g70
g71
NtRp5688
(dp5689
g74
(dp5690
g82
I1
ssg83
g5684
sg76
(lp5691
I00
asbasbasbag69
(g85
g71
NtRp5692
(dp5693
g74
(dp5694
sg83
g5663
sg76
(lp5695
g69
(g90
g71
NtRp5696
(dp5697
g74
(dp5698
sg83
g5692
sg76
(lp5699
g69
(g70
g71
NtRp5700
(dp5701
g74
(dp5702
g82
I1
ssg83
g5696
sg76
(lp5703
S'/flisol2012/default/companies'
p5704
asbasbasbasbasbasbasbag69
(g85
g71
NtRp5705
(dp5706
g74
(dp5707
sg83
g5647
sg76
(lp5708
g69
(g90
g71
NtRp5709
(dp5710
g74
(dp5711
sg83
g5705
sg76
(lp5712
g69
(g70
g71
NtRp5713
(dp5714
g74
(dp5715
g82
I2
ssg83
g5709
sg76
(lp5716
g69
(g78
g71
NtRp5717
(dp5718
g74
(dp5719
g82
I1
ssg83
Nsg76
(lp5720
g69
(g85
g71
NtRp5721
(dp5722
g74
(dp5723
sg83
g5717
sg76
(lp5724
g69
(g90
g71
NtRp5725
(dp5726
g74
(dp5727
sg83
g5721
sg76
(lp5728
g69
(g70
g71
NtRp5729
(dp5730
g74
(dp5731
g82
I1
ssg83
g5725
sg76
(lp5732
g5108
(S't\n\x00\x00\x00Asistentes'
tRp5733
asbasbasbag69
(g85
g71
NtRp5734
(dp5735
g74
(dp5736
sg83
g5717
sg76
(lp5737
g69
(g90
g71
NtRp5738
(dp5739
g74
(dp5740
sg83
g5734
sg76
(lp5741
g69
(g70
g71
NtRp5742
(dp5743
g74
(dp5744
g82
I1
ssg83
g5738
sg76
(lp5745
I00
asbasbasbag69
(g85
g71
NtRp5746
(dp5747
g74
(dp5748
sg83
g5717
sg76
(lp5749
g69
(g90
g71
NtRp5750
(dp5751
g74
(dp5752
sg83
g5746
sg76
(lp5753
g69
(g70
g71
NtRp5754
(dp5755
g74
(dp5756
g82
I1
ssg83
g5750
sg76
(lp5757
S'/flisol2012/default/attendees'
p5758
asbasbasbasbasbasbasbag69
(g85
g71
NtRp5759
(dp5760
g74
(dp5761
sg83
g5647
sg76
(lp5762
g69
(g90
g71
NtRp5763
(dp5764
g74
(dp5765
sg83
g5759
sg76
(lp5766
g69
(g70
g71
NtRp5767
(dp5768
g74
(dp5769
g82
I2
ssg83
g5763
sg76
(lp5770
g69
(g78
g71
NtRp5771
(dp5772
g74
(dp5773
g82
I1
ssg83
Nsg76
(lp5774
g69
(g85
g71
NtRp5775
(dp5776
g74
(dp5777
sg83
g5771
sg76
(lp5778
g69
(g90
g71
NtRp5779
(dp5780
g74
(dp5781
sg83
g5775
sg76
(lp5782
g69
(g70
g71
NtRp5783
(dp5784
g74
(dp5785
g82
I1
ssg83
g5779
sg76
(lp5786
g5108
(S't\t\x00\x00\x00Diagramas'
tRp5787
asbasbasbag69
(g85
g71
NtRp5788
(dp5789
g74
(dp5790
sg83
g5771
sg76
(lp5791
g69
(g90
g71
NtRp5792
(dp5793
g74
(dp5794
sg83
g5788
sg76
(lp5795
g69
(g70
g71
NtRp5796
(dp5797
g74
(dp5798
g82
I1
ssg83
g5792
sg76
(lp5799
I00
asbasbasbag69
(g85
g71
NtRp5800
(dp5801
g74
(dp5802
sg83
g5771
sg76
(lp5803
g69
(g90
g71
NtRp5804
(dp5805
g74
(dp5806
sg83
g5800
sg76
(lp5807
g69
(g70
g71
NtRp5808
(dp5809
g74
(dp5810
g82
I1
ssg83
g5804
sg76
(lp5811
S'/flisol2012/default/charts'
p5812
asbasbasbasbasbasbasbag69
(g85
g71
NtRp5813
(dp5814
g74
(dp5815
sg83
g5647
sg76
(lp5816
g69
(g90
g71
NtRp5817
(dp5818
g74
(dp5819
sg83
g5813
sg76
(lp5820
g69
(g70
g71
NtRp5821
(dp5822
g74
(dp5823
g82
I2
ssg83
g5817
sg76
(lp5824
g69
(g78
g71
NtRp5825
(dp5826
g74
(dp5827
g82
I1
ssg83
Nsg76
(lp5828
g69
(g85
g71
NtRp5829
(dp5830
g74
(dp5831
sg83
g5825
sg76
(lp5832
g69
(g90
g71
NtRp5833
(dp5834
g74
(dp5835
sg83
g5829
sg76
(lp5836
g69
(g70
g71
NtRp5837
(dp5838
g74
(dp5839
g82
I1
ssg83
g5833
sg76
(lp5840
g5108
(S't\x05\x00\x00\x00Mapas'
tRp5841
asbasbasbag69
(g85
g71
NtRp5842
(dp5843
g74
(dp5844
sg83
g5825
sg76
(lp5845
g69
(g90
g71
NtRp5846
(dp5847
g74
(dp5848
sg83
g5842
sg76
(lp5849
g69
(g70
g71
NtRp5850
(dp5851
g74
(dp5852
g82
I1
ssg83
g5846
sg76
(lp5853
I00
asbasbasbag69
(g85
g71
NtRp5854
(dp5855
g74
(dp5856
sg83
g5825
sg76
(lp5857
g69
(g90
g71
NtRp5858
(dp5859
g74
(dp5860
sg83
g5854
sg76
(lp5861
g69
(g70
g71
NtRp5862
(dp5863
g74
(dp5864
g82
I1
ssg83
g5858
sg76
(lp5865
S'/flisol2012/default/maps'
p5866
asbasbasbasbasbasbasbag69
(g85
g71
NtRp5867
(dp5868
g74
(dp5869
sg83
g5647
sg76
(lp5870
g69
(g90
g71
NtRp5871
(dp5872
g74
(dp5873
sg83
g5867
sg76
(lp5874
g69
(g70
g71
NtRp5875
(dp5876
g74
(dp5877
g82
I2
ssg83
g5871
sg76
(lp5878
g69
(g78
g71
NtRp5879
(dp5880
g74
(dp5881
g82
I1
ssg83
Nsg76
(lp5882
g69
(g85
g71
NtRp5883
(dp5884
g74
(dp5885
sg83
g5879
sg76
(lp5886
g69
(g90
g71
NtRp5887
(dp5888
g74
(dp5889
sg83
g5883
sg76
(lp5890
g69
(g70
g71
NtRp5891
(dp5892
g74
(dp5893
g82
I1
ssg83
g5887
sg76
(lp5894
g5108
(S's\x11\x00\x00\x00Charlas aceptadas'
tRp5895
asbasbasbag69
(g85
g71
NtRp5896
(dp5897
g74
(dp5898
sg83
g5879
sg76
(lp5899
g69
(g90
g71
NtRp5900
(dp5901
g74
(dp5902
sg83
g5896
sg76
(lp5903
g69
(g70
g71
NtRp5904
(dp5905
g74
(dp5906
g82
I1
ssg83
g5900
sg76
(lp5907
I00
asbasbasbag69
(g85
g71
NtRp5908
(dp5909
g74
(dp5910
sg83
g5879
sg76
(lp5911
g69
(g90
g71
NtRp5912
(dp5913
g74
(dp5914
sg83
g5908
sg76
(lp5915
g69
(g70
g71
NtRp5916
(dp5917
g74
(dp5918
g82
I1
ssg83
g5912
sg76
(lp5919
S'/flisol2012/default/accepted_talks'
p5920
asbasbasbasbasbasbasbag69
(g85
g71
NtRp5921
(dp5922
g74
(dp5923
sg83
g5647
sg76
(lp5924
g69
(g90
g71
NtRp5925
(dp5926
g74
(dp5927
sg83
g5921
sg76
(lp5928
g69
(g70
g71
NtRp5929
(dp5930
g74
(dp5931
g82
I2
ssg83
g5925
sg76
(lp5932
g69
(g78
g71
NtRp5933
(dp5934
g74
(dp5935
g82
I1
ssg83
Nsg76
(lp5936
g69
(g85
g71
NtRp5937
(dp5938
g74
(dp5939
sg83
g5933
sg76
(lp5940
g69
(g90
g71
NtRp5941
(dp5942
g74
(dp5943
sg83
g5937
sg76
(lp5944
g69
(g70
g71
NtRp5945
(dp5946
g74
(dp5947
g82
I1
ssg83
g5941
sg76
(lp5948
g5108
(S's\x12\x00\x00\x00Charlas propuestas'
tRp5949
asbasbasbag69
(g85
g71
NtRp5950
(dp5951
g74
(dp5952
sg83
g5933
sg76
(lp5953
g69
(g90
g71
NtRp5954
(dp5955
g74
(dp5956
sg83
g5950
sg76
(lp5957
g69
(g70
g71
NtRp5958
(dp5959
g74
(dp5960
g82
I1
ssg83
g5954
sg76
(lp5961
I00
asbasbasbag69
(g85
g71
NtRp5962
(dp5963
g74
(dp5964
sg83
g5933
sg76
(lp5965
g69
(g90
g71
NtRp5966
(dp5967
g74
(dp5968
sg83
g5962
sg76
(lp5969
g69
(g70
g71
NtRp5970
(dp5971
g74
(dp5972
g82
I1
ssg83
g5966
sg76
(lp5973
S'/flisol2012/default/proposed_talks'
p5974
asbasbasbasbasbasbasbasbasbasbasbasbasbasbasbag69
(g85
g71
NtRp5975
(dp5976
g74
(dp5977
sg83
g5076
sg76
(lp5978
g69
(g90
g71
NtRp5979
(dp5980
g74
(dp5981
sg83
g5975
sg76
(lp5982
g69
(g70
g71
NtRp5983
(dp5984
g74
(dp5985
g82
I4
ssg83
g5979
sg76
(lp5986
g69
(g78
g71
NtRp5987
(dp5988
g74
(dp5989
g82
I3
ssg83
Nsg76
(lp5990
g69
(g85
g71
NtRp5991
(dp5992
g74
(dp5993
sg83
g5987
sg76
(lp5994
g69
(g90
g71
NtRp5995
(dp5996
g74
(dp5997
sg83
g5991
sg76
(lp5998
g69
(g70
g71
NtRp5999
(dp6000
g74
(dp6001
g82
I3
ssg83
g5995
sg76
(lp6002
g5108
(S's\t\x00\x00\x00Acerca de'
tRp6003
asbasbasbag69
(g85
g71
NtRp6004
(dp6005
g74
(dp6006
sg83
g5987
sg76
(lp6007
g69
(g90
g71
NtRp6008
(dp6009
g74
(dp6010
sg83
g6004
sg76
(lp6011
g69
(g70
g71
NtRp6012
(dp6013
g74
(dp6014
g82
I3
ssg83
g6008
sg76
(lp6015
g112
asbasbasbag69
(g85
g71
NtRp6016
(dp6017
g74
(dp6018
sg83
g5987
sg76
(lp6019
g69
(g90
g71
NtRp6020
(dp6021
g74
(dp6022
sg83
g6016
sg76
(lp6023
g69
(g70
g71
NtRp6024
(dp6025
g74
(dp6026
g82
I3
ssg83
g6020
sg76
(lp6027
S'/flisol2012/default/about'
p6028
asbasbasbasbasbasbasbag69
(g85
g71
NtRp6029
(dp6030
g74
(dp6031
sg83
g5076
sg76
(lp6032
g69
(g90
g71
NtRp6033
(dp6034
g74
(dp6035
sg83
g6029
sg76
(lp6036
g69
(g70
g71
NtRp6037
(dp6038
g74
(dp6039
g82
I4
ssg83
g6033
sg76
(lp6040
g69
(g78
g71
NtRp6041
(dp6042
g74
(dp6043
g82
I3
ssg83
Nsg76
(lp6044
g69
(g85
g71
NtRp6045
(dp6046
g74
(dp6047
sg83
g6041
sg76
(lp6048
g69
(g90
g71
NtRp6049
(dp6050
g74
(dp6051
sg83
g6045
sg76
(lp6052
g69
(g70
g71
NtRp6053
(dp6054
g74
(dp6055
g82
I3
ssg83
g6049
sg76
(lp6056
g5108
(S't\x08\x00\x00\x00Expenses'
tRp6057
asbasbasbag69
(g85
g71
NtRp6058
(dp6059
g74
(dp6060
sg83
g6041
sg76
(lp6061
g69
(g90
g71
NtRp6062
(dp6063
g74
(dp6064
sg83
g6058
sg76
(lp6065
g69
(g70
g71
NtRp6066
(dp6067
g74
(dp6068
g82
I3
ssg83
g6062
sg76
(lp6069
g1853
asbasbasbag69
(g85
g71
NtRp6070
(dp6071
g74
(dp6072
sg83
g6041
sg76
(lp6073
g69
(g90
g71
NtRp6074
(dp6075
g74
(dp6076
sg83
g6070
sg76
(lp6077
g69
(g70
g71
NtRp6078
(dp6079
g74
(dp6080
g82
I3
ssg83
g6074
sg76
(lp6081
S'/flisol2012/expenses/index'
p6082
asbasbasbasbasbasbasbag69
(g85
g71
NtRp6083
(dp6084
g74
(dp6085
sg83
g5076
sg76
(lp6086
g69
(g90
g71
NtRp6087
(dp6088
g74
(dp6089
sg83
g6083
sg76
(lp6090
g69
(g70
g71
NtRp6091
(dp6092
g74
(dp6093
g82
I4
ssg83
g6087
sg76
(lp6094
g69
(g78
g71
NtRp6095
(dp6096
g74
(dp6097
g82
I3
ssg83
Nsg76
(lp6098
g69
(g85
g71
NtRp6099
(dp6100
g74
(dp6101
sg83
g6095
sg76
(lp6102
g69
(g90
g71
NtRp6103
(dp6104
g74
(dp6105
sg83
g6099
sg76
(lp6106
g69
(g70
g71
NtRp6107
(dp6108
g74
(dp6109
g82
I3
ssg83
g6103
sg76
(lp6110
g5108
(S't\x06\x00\x00\x00Perfil'
tRp6111
asbasbasbag69
(g85
g71
NtRp6112
(dp6113
g74
(dp6114
sg83
g6095
sg76
(lp6115
g69
(g90
g71
NtRp6116
(dp6117
g74
(dp6118
sg83
g6112
sg76
(lp6119
g69
(g70
g71
NtRp6120
(dp6121
g74
(dp6122
g82
I3
ssg83
g6116
sg76
(lp6123
g112
asbasbasbag69
(g85
g71
NtRp6124
(dp6125
g74
(dp6126
sg83
g6095
sg76
(lp6127
g69
(g90
g71
NtRp6128
(dp6129
g74
(dp6130
sg83
g6124
sg76
(lp6131
g69
(g70
g71
NtRp6132
(dp6133
g74
(dp6134
g82
I3
ssg83
g6128
sg76
(lp6135
S'/flisol2012/default/profile'
p6136
asbasbasbasbasbasbasbag69
(g85
g71
NtRp6137
(dp6138
g74
(dp6139
sg83
g5076
sg76
(lp6140
g69
(g90
g71
NtRp6141
(dp6142
g74
(dp6143
sg83
g6137
sg76
(lp6144
g69
(g70
g71
NtRp6145
(dp6146
g74
(dp6147
g82
I4
ssg83
g6141
sg76
(lp6148
g69
(g78
g71
NtRp6149
(dp6150
g74
(dp6151
g82
I3
ssg83
Nsg76
(lp6152
g69
(g85
g71
NtRp6153
(dp6154
g74
(dp6155
sg83
g6149
sg76
(lp6156
g69
(g90
g71
NtRp6157
(dp6158
g74
(dp6159
sg83
g6153
sg76
(lp6160
g69
(g70
g71
NtRp6161
(dp6162
g74
(dp6163
g82
I3
ssg83
g6157
sg76
(lp6164
g5108
(S's\x0e\x00\x00\x00Cerrar Sesi\xc3\xb3n'
tRp6165
asbasbasbag69
(g85
g71
NtRp6166
(dp6167
g74
(dp6168
sg83
g6149
sg76
(lp6169
g69
(g90
g71
NtRp6170
(dp6171
g74
(dp6172
sg83
g6166
sg76
(lp6173
g69
(g70
g71
NtRp6174
(dp6175
g74
(dp6176
g82
I3
ssg83
g6170
sg76
(lp6177
g112
asbasbasbag69
(g85
g71
NtRp6178
(dp6179
g74
(dp6180
sg83
g6149
sg76
(lp6181
g69
(g90
g71
NtRp6182
(dp6183
g74
(dp6184
sg83
g6178
sg76
(lp6185
g69
(g70
g71
NtRp6186
(dp6187
g74
(dp6188
g82
I3
ssg83
g6182
sg76
(lp6189
S'/flisol2012/default/logout'
p6190
asbasbasbasbasbasbasbag69
(g85
g71
NtRp6191
(dp6192
g74
(dp6193
sg83
g5076
sg76
(lp6194
g69
(g90
g71
NtRp6195
(dp6196
g74
(dp6197
sg83
g6191
sg76
(lp6198
g69
(g70
g71
NtRp6199
(dp6200
g74
(dp6201
g82
I4
ssg83
g6195
sg76
(lp6202
g69
(g78
g71
NtRp6203
(dp6204
g74
(dp6205
g82
I3
ssg83
Nsg76
(lp6206
g69
(g85
g71
NtRp6207
(dp6208
g74
(dp6209
sg83
g6203
sg76
(lp6210
g69
(g90
g71
NtRp6211
(dp6212
g74
(dp6213
sg83
g6207
sg76
(lp6214
g69
(g70
g71
NtRp6215
(dp6216
g74
(dp6217
g82
I3
ssg83
g6211
sg76
(lp6218
g5108
(S't\n\x00\x00\x00Administre'
tRp6219
asbasbasbag69
(g85
g71
NtRp6220
(dp6221
g74
(dp6222
sg83
g6203
sg76
(lp6223
g69
(g90
g71
NtRp6224
(dp6225
g74
(dp6226
sg83
g6220
sg76
(lp6227
g69
(g70
g71
NtRp6228
(dp6229
g74
(dp6230
g82
I3
ssg83
g6224
sg76
(lp6231
g112
asbasbasbag69
(g85
g71
NtRp6232
(dp6233
g74
(dp6234
sg83
g6203
sg76
(lp6235
g69
(g90
g71
NtRp6236
(dp6237
g74
(dp6238
sg83
g6232
sg76
(lp6239
g69
(g70
g71
NtRp6240
(dp6241
g74
(dp6242
g82
I3
ssg83
g6236
sg76
(lp6243
S'#'
asbasbasbag69
(g85
g71
NtRp6244
(dp6245
g74
(dp6246
sg83
g6203
sg76
(lp6247
g69
(g90
g71
NtRp6248
(dp6249
g74
(dp6250
sg83
g6244
sg76
(lp6251
g69
(g70
g71
NtRp6252
(dp6253
g74
(dp6254
g82
I3
ssg83
g6248
sg76
(lp6255
g69
(g78
g71
NtRp6256
(dp6257
g74
(dp6258
g82
I2
ssg83
Nsg76
(lp6259
g69
(g85
g71
NtRp6260
(dp6261
g74
(dp6262
sg83
g6256
sg76
(lp6263
g69
(g90
g71
NtRp6264
(dp6265
g74
(dp6266
sg83
g6260
sg76
(lp6267
g69
(g70
g71
NtRp6268
(dp6269
g74
(dp6270
g82
I2
ssg83
g6264
sg76
(lp6271
g69
(g78
g71
NtRp6272
(dp6273
g74
(dp6274
g82
I1
ssg83
Nsg76
(lp6275
g69
(g85
g71
NtRp6276
(dp6277
g74
(dp6278
sg83
g6272
sg76
(lp6279
g69
(g90
g71
NtRp6280
(dp6281
g74
(dp6282
sg83
g6276
sg76
(lp6283
g69
(g70
g71
NtRp6284
(dp6285
g74
(dp6286
g82
I1
ssg83
g6280
sg76
(lp6287
g5108
(S't\x08\x00\x00\x00Finanzas'
tRp6288
asbasbasbag69
(g85
g71
NtRp6289
(dp6290
g74
(dp6291
sg83
g6272
sg76
(lp6292
g69
(g90
g71
NtRp6293
(dp6294
g74
(dp6295
sg83
g6289
sg76
(lp6296
g69
(g70
g71
NtRp6297
(dp6298
g74
(dp6299
g82
I1
ssg83
g6293
sg76
(lp6300
I00
asbasbasbag69
(g85
g71
NtRp6301
(dp6302
g74
(dp6303
sg83
g6272
sg76
(lp6304
g69
(g90
g71
NtRp6305
(dp6306
g74
(dp6307
sg83
g6301
sg76
(lp6308
g69
(g70
g71
NtRp6309
(dp6310
g74
(dp6311
g82
I1
ssg83
g6305
sg76
(lp6312
S'/flisol2012/default/financials'
p6313
asbasbasbasbasbasbasbag69
(g85
g71
NtRp6314
(dp6315
g74
(dp6316
sg83
g6256
sg76
(lp6317
g69
(g90
g71
NtRp6318
(dp6319
g74
(dp6320
sg83
g6314
sg76
(lp6321
g69
(g70
g71
NtRp6322
(dp6323
g74
(dp6324
g82
I2
ssg83
g6318
sg76
(lp6325
g69
(g78
g71
NtRp6326
(dp6327
g74
(dp6328
g82
I1
ssg83
Nsg76
(lp6329
g69
(g85
g71
NtRp6330
(dp6331
g74
(dp6332
sg83
g6326
sg76
(lp6333
g69
(g90
g71
NtRp6334
(dp6335
g74
(dp6336
sg83
g6330
sg76
(lp6337
g69
(g70
g71
NtRp6338
(dp6339
g74
(dp6340
g82
I1
ssg83
g6334
sg76
(lp6341
g5108
(S't\x05\x00\x00\x00Pagos'
tRp6342
asbasbasbag69
(g85
g71
NtRp6343
(dp6344
g74
(dp6345
sg83
g6326
sg76
(lp6346
g69
(g90
g71
NtRp6347
(dp6348
g74
(dp6349
sg83
g6343
sg76
(lp6350
g69
(g70
g71
NtRp6351
(dp6352
g74
(dp6353
g82
I1
ssg83
g6347
sg76
(lp6354
I00
asbasbasbag69
(g85
g71
NtRp6355
(dp6356
g74
(dp6357
sg83
g6326
sg76
(lp6358
g69
(g90
g71
NtRp6359
(dp6360
g74
(dp6361
sg83
g6355
sg76
(lp6362
g69
(g70
g71
NtRp6363
(dp6364
g74
(dp6365
g82
I1
ssg83
g6359
sg76
(lp6366
S'/flisol2012/default/payments'
p6367
asbasbasbasbasbasbasbag69
(g85
g71
NtRp6368
(dp6369
g74
(dp6370
sg83
g6256
sg76
(lp6371
g69
(g90
g71
NtRp6372
(dp6373
g74
(dp6374
sg83
g6368
sg76
(lp6375
g69
(g70
g71
NtRp6376
(dp6377
g74
(dp6378
g82
I2
ssg83
g6372
sg76
(lp6379
g69
(g78
g71
NtRp6380
(dp6381
g74
(dp6382
g82
I1
ssg83
Nsg76
(lp6383
g69
(g85
g71
NtRp6384
(dp6385
g74
(dp6386
sg83
g6380
sg76
(lp6387
g69
(g90
g71
NtRp6388
(dp6389
g74
(dp6390
sg83
g6384
sg76
(lp6391
g69
(g70
g71
NtRp6392
(dp6393
g74
(dp6394
g82
I1
ssg83
g6388
sg76
(lp6395
g5108
(S's!\x00\x00\x00Lista de correos de Participantes'
tRp6396
asbasbasbag69
(g85
g71
NtRp6397
(dp6398
g74
(dp6399
sg83
g6380
sg76
(lp6400
g69
(g90
g71
NtRp6401
(dp6402
g74
(dp6403
sg83
g6397
sg76
(lp6404
g69
(g70
g71
NtRp6405
(dp6406
g74
(dp6407
g82
I1
ssg83
g6401
sg76
(lp6408
I00
asbasbasbag69
(g85
g71
NtRp6409
(dp6410
g74
(dp6411
sg83
g6380
sg76
(lp6412
g69
(g90
g71
NtRp6413
(dp6414
g74
(dp6415
sg83
g6409
sg76
(lp6416
g69
(g70
g71
NtRp6417
(dp6418
g74
(dp6419
g82
I1
ssg83
g6413
sg76
(lp6420
S'/flisol2012/default/maillist'
p6421
asbasbasbasbasbasbasbag69
(g85
g71
NtRp6422
(dp6423
g74
(dp6424
sg83
g6256
sg76
(lp6425
g69
(g90
g71
NtRp6426
(dp6427
g74
(dp6428
sg83
g6422
sg76
(lp6429
g69
(g70
g71
NtRp6430
(dp6431
g74
(dp6432
g82
I2
ssg83
g6426
sg76
(lp6433
g69
(g78
g71
NtRp6434
(dp6435
g74
(dp6436
g82
I1
ssg83
Nsg76
(lp6437
g69
(g85
g71
NtRp6438
(dp6439
g74
(dp6440
sg83
g6434
sg76
(lp6441
g69
(g90
g71
NtRp6442
(dp6443
g74
(dp6444
sg83
g6438
sg76
(lp6445
g69
(g70
g71
NtRp6446
(dp6447
g74
(dp6448
g82
I1
ssg83
g6442
sg76
(lp6449
g5108
(S't\x10\x00\x00\x00Identificaciones'
tRp6450
asbasbasbag69
(g85
g71
NtRp6451
(dp6452
g74
(dp6453
sg83
g6434
sg76
(lp6454
g69
(g90
g71
NtRp6455
(dp6456
g74
(dp6457
sg83
g6451
sg76
(lp6458
g69
(g70
g71
NtRp6459
(dp6460
g74
(dp6461
g82
I1
ssg83
g6455
sg76
(lp6462
I00
asbasbasbag69
(g85
g71
NtRp6463
(dp6464
g74
(dp6465
sg83
g6434
sg76
(lp6466
g69
(g90
g71
NtRp6467
(dp6468
g74
(dp6469
sg83
g6463
sg76
(lp6470
g69
(g70
g71
NtRp6471
(dp6472
g74
(dp6473
g82
I1
ssg83
g6467
sg76
(lp6474
S'/flisol2012/default/badge/auth_user'
p6475
asbasbasbasbasbasbasbag69
(g85
g71
NtRp6476
(dp6477
g74
(dp6478
sg83
g6256
sg76
(lp6479
g69
(g90
g71
NtRp6480
(dp6481
g74
(dp6482
sg83
g6476
sg76
(lp6483
g69
(g70
g71
NtRp6484
(dp6485
g74
(dp6486
g82
I2
ssg83
g6480
sg76
(lp6487
g69
(g78
g71
NtRp6488
(dp6489
g74
(dp6490
g82
I1
ssg83
Nsg76
(lp6491
g69
(g85
g71
NtRp6492
(dp6493
g74
(dp6494
sg83
g6488
sg76
(lp6495
g69
(g90
g71
NtRp6496
(dp6497
g74
(dp6498
sg83
g6492
sg76
(lp6499
g69
(g70
g71
NtRp6500
(dp6501
g74
(dp6502
g82
I1
ssg83
g6496
sg76
(lp6503
g5108
(S't\n\x00\x00\x00Tutoriales'
tRp6504
asbasbasbag69
(g85
g71
NtRp6505
(dp6506
g74
(dp6507
sg83
g6488
sg76
(lp6508
g69
(g90
g71
NtRp6509
(dp6510
g74
(dp6511
sg83
g6505
sg76
(lp6512
g69
(g70
g71
NtRp6513
(dp6514
g74
(dp6515
g82
I1
ssg83
g6509
sg76
(lp6516
I00
asbasbasbag69
(g85
g71
NtRp6517
(dp6518
g74
(dp6519
sg83
g6488
sg76
(lp6520
g69
(g90
g71
NtRp6521
(dp6522
g74
(dp6523
sg83
g6517
sg76
(lp6524
g69
(g70
g71
NtRp6525
(dp6526
g74
(dp6527
g82
I1
ssg83
g6521
sg76
(lp6528
S'/flisol2012/default/list_by_tutorial'
p6529
asbasbasbasbasbasbasbag69
(g85
g71
NtRp6530
(dp6531
g74
(dp6532
sg83
g6256
sg76
(lp6533
g69
(g90
g71
NtRp6534
(dp6535
g74
(dp6536
sg83
g6530
sg76
(lp6537
g69
(g70
g71
NtRp6538
(dp6539
g74
(dp6540
g82
I2
ssg83
g6534
sg76
(lp6541
g69
(g78
g71
NtRp6542
(dp6543
g74
(dp6544
g82
I1
ssg83
Nsg76
(lp6545
g69
(g85
g71
NtRp6546
(dp6547
g74
(dp6548
sg83
g6542
sg76
(lp6549
g69
(g90
g71
NtRp6550
(dp6551
g74
(dp6552
sg83
g6546
sg76
(lp6553
g69
(g70
g71
NtRp6554
(dp6555
g74
(dp6556
g82
I1
ssg83
g6550
sg76
(lp6557
g5108
(S's\x0e\x00\x00\x00*** FA-CSV ???'
tRp6558
asbasbasbag69
(g85
g71
NtRp6559
(dp6560
g74
(dp6561
sg83
g6542
sg76
(lp6562
g69
(g90
g71
NtRp6563
(dp6564
g74
(dp6565
sg83
g6559
sg76
(lp6566
g69
(g70
g71
NtRp6567
(dp6568
g74
(dp6569
g82
I1
ssg83
g6563
sg76
(lp6570
I00
asbasbasbag69
(g85
g71
NtRp6571
(dp6572
g74
(dp6573
sg83
g6542
sg76
(lp6574
g69
(g90
g71
NtRp6575
(dp6576
g74
(dp6577
sg83
g6571
sg76
(lp6578
g69
(g70
g71
NtRp6579
(dp6580
g74
(dp6581
g82
I1
ssg83
g6575
sg76
(lp6582
S'/flisol2012/default/fa_csv'
p6583
asbasbasbasbasbasbasbag69
(g85
g71
NtRp6584
(dp6585
g74
(dp6586
sg83
g6256
sg76
(lp6587
g69
(g90
g71
NtRp6588
(dp6589
g74
(dp6590
sg83
g6584
sg76
(lp6591
g69
(g70
g71
NtRp6592
(dp6593
g74
(dp6594
g82
I2
ssg83
g6588
sg76
(lp6595
g69
(g78
g71
NtRp6596
(dp6597
g74
(dp6598
g82
I1
ssg83
Nsg76
(lp6599
g69
(g85
g71
NtRp6600
(dp6601
g74
(dp6602
sg83
g6596
sg76
(lp6603
g69
(g90
g71
NtRp6604
(dp6605
g74
(dp6606
sg83
g6600
sg76
(lp6607
g69
(g70
g71
NtRp6608
(dp6609
g74
(dp6610
g82
I1
ssg83
g6604
sg76
(lp6611
g5108
(S's\x16\x00\x00\x00*** FA-(email all) ???'
tRp6612
asbasbasbag69
(g85
g71
NtRp6613
(dp6614
g74
(dp6615
sg83
g6596
sg76
(lp6616
g69
(g90
g71
NtRp6617
(dp6618
g74
(dp6619
sg83
g6613
sg76
(lp6620
g69
(g70
g71
NtRp6621
(dp6622
g74
(dp6623
g82
I1
ssg83
g6617
sg76
(lp6624
I00
asbasbasbag69
(g85
g71
NtRp6625
(dp6626
g74
(dp6627
sg83
g6596
sg76
(lp6628
g69
(g90
g71
NtRp6629
(dp6630
g74
(dp6631
sg83
g6625
sg76
(lp6632
g69
(g70
g71
NtRp6633
(dp6634
g74
(dp6635
g82
I1
ssg83
g6629
sg76
(lp6636
S'/flisol2012/default/fa_email_all'
p6637
asbasbasbasbasbasbasbag69
(g85
g71
NtRp6638
(dp6639
g74
(dp6640
sg83
g6256
sg76
(lp6641
g69
(g90
g71
NtRp6642
(dp6643
g74
(dp6644
sg83
g6638
sg76
(lp6645
g69
(g70
g71
NtRp6646
(dp6647
g74
(dp6648
g82
I2
ssg83
g6642
sg76
(lp6649
g69
(g78
g71
NtRp6650
(dp6651
g74
(dp6652
g82
I1
ssg83
Nsg76
(lp6653
g69
(g85
g71
NtRp6654
(dp6655
g74
(dp6656
sg83
g6650
sg76
(lp6657
g69
(g90
g71
NtRp6658
(dp6659
g74
(dp6660
sg83
g6654
sg76
(lp6661
g69
(g70
g71
NtRp6662
(dp6663
g74
(dp6664
g82
I1
ssg83
g6658
sg76
(lp6665
S'[auth_user]'
p6666
asbasbasbag69
(g85
g71
NtRp6667
(dp6668
g74
(dp6669
sg83
g6650
sg76
(lp6670
g69
(g90
g71
NtRp6671
(dp6672
g74
(dp6673
sg83
g6667
sg76
(lp6674
g69
(g70
g71
NtRp6675
(dp6676
g74
(dp6677
g82
I1
ssg83
g6671
sg76
(lp6678
I00
asbasbasbag69
(g85
g71
NtRp6679
(dp6680
g74
(dp6681
sg83
g6650
sg76
(lp6682
g69
(g90
g71
NtRp6683
(dp6684
g74
(dp6685
sg83
g6679
sg76
(lp6686
g69
(g70
g71
NtRp6687
(dp6688
g74
(dp6689
g82
I1
ssg83
g6683
sg76
(lp6690
S'/flisol2012/default/create/auth_user'
p6691
asbasbasbasbasbasbasbag69
(g85
g71
NtRp6692
(dp6693
g74
(dp6694
sg83
g6256
sg76
(lp6695
g69
(g90
g71
NtRp6696
(dp6697
g74
(dp6698
sg83
g6692
sg76
(lp6699
g69
(g70
g71
NtRp6700
(dp6701
g74
(dp6702
g82
I2
ssg83
g6696
sg76
(lp6703
g69
(g78
g71
NtRp6704
(dp6705
g74
(dp6706
g82
I1
ssg83
Nsg76
(lp6707
g69
(g85
g71
NtRp6708
(dp6709
g74
(dp6710
sg83
g6704
sg76
(lp6711
g69
(g90
g71
NtRp6712
(dp6713
g74
(dp6714
sg83
g6708
sg76
(lp6715
g69
(g70
g71
NtRp6716
(dp6717
g74
(dp6718
g82
I1
ssg83
g6712
sg76
(lp6719
S'[auth_group]'
p6720
asbasbasbag69
(g85
g71
NtRp6721
(dp6722
g74
(dp6723
sg83
g6704
sg76
(lp6724
g69
(g90
g71
NtRp6725
(dp6726
g74
(dp6727
sg83
g6721
sg76
(lp6728
g69
(g70
g71
NtRp6729
(dp6730
g74
(dp6731
g82
I1
ssg83
g6725
sg76
(lp6732
I00
asbasbasbag69
(g85
g71
NtRp6733
(dp6734
g74
(dp6735
sg83
g6704
sg76
(lp6736
g69
(g90
g71
NtRp6737
(dp6738
g74
(dp6739
sg83
g6733
sg76
(lp6740
g69
(g70
g71
NtRp6741
(dp6742
g74
(dp6743
g82
I1
ssg83
g6737
sg76
(lp6744
S'/flisol2012/default/create/auth_group'
p6745
asbasbasbasbasbasbasbag69
(g85
g71
NtRp6746
(dp6747
g74
(dp6748
sg83
g6256
sg76
(lp6749
g69
(g90
g71
NtRp6750
(dp6751
g74
(dp6752
sg83
g6746
sg76
(lp6753
g69
(g70
g71
NtRp6754
(dp6755
g74
(dp6756
g82
I2
ssg83
g6750
sg76
(lp6757
g69
(g78
g71
NtRp6758
(dp6759
g74
(dp6760
g82
I1
ssg83
Nsg76
(lp6761
g69
(g85
g71
NtRp6762
(dp6763
g74
(dp6764
sg83
g6758
sg76
(lp6765
g69
(g90
g71
NtRp6766
(dp6767
g74
(dp6768
sg83
g6762
sg76
(lp6769
g69
(g70
g71
NtRp6770
(dp6771
g74
(dp6772
g82
I1
ssg83
g6766
sg76
(lp6773
S'[auth_membership]'
p6774
asbasbasbag69
(g85
g71
NtRp6775
(dp6776
g74
(dp6777
sg83
g6758
sg76
(lp6778
g69
(g90
g71
NtRp6779
(dp6780
g74
(dp6781
sg83
g6775
sg76
(lp6782
g69
(g70
g71
NtRp6783
(dp6784
g74
(dp6785
g82
I1
ssg83
g6779
sg76
(lp6786
I00
asbasbasbag69
(g85
g71
NtRp6787
(dp6788
g74
(dp6789
sg83
g6758
sg76
(lp6790
g69
(g90
g71
NtRp6791
(dp6792
g74
(dp6793
sg83
g6787
sg76
(lp6794
g69
(g70
g71
NtRp6795
(dp6796
g74
(dp6797
g82
I1
ssg83
g6791
sg76
(lp6798
S'/flisol2012/default/create/auth_membership'
p6799
asbasbasbasbasbasbasbag69
(g85
g71
NtRp6800
(dp6801
g74
(dp6802
sg83
g6256
sg76
(lp6803
g69
(g90
g71
NtRp6804
(dp6805
g74
(dp6806
sg83
g6800
sg76
(lp6807
g69
(g70
g71
NtRp6808
(dp6809
g74
(dp6810
g82
I2
ssg83
g6804
sg76
(lp6811
g69
(g78
g71
NtRp6812
(dp6813
g74
(dp6814
g82
I1
ssg83
Nsg76
(lp6815
g69
(g85
g71
NtRp6816
(dp6817
g74
(dp6818
sg83
g6812
sg76
(lp6819
g69
(g90
g71
NtRp6820
(dp6821
g74
(dp6822
sg83
g6816
sg76
(lp6823
g69
(g70
g71
NtRp6824
(dp6825
g74
(dp6826
g82
I1
ssg83
g6820
sg76
(lp6827
S'[auth_permission]'
p6828
asbasbasbag69
(g85
g71
NtRp6829
(dp6830
g74
(dp6831
sg83
g6812
sg76
(lp6832
g69
(g90
g71
NtRp6833
(dp6834
g74
(dp6835
sg83
g6829
sg76
(lp6836
g69
(g70
g71
NtRp6837
(dp6838
g74
(dp6839
g82
I1
ssg83
g6833
sg76
(lp6840
I00
asbasbasbag69
(g85
g71
NtRp6841
(dp6842
g74
(dp6843
sg83
g6812
sg76
(lp6844
g69
(g90
g71
NtRp6845
(dp6846
g74
(dp6847
sg83
g6841
sg76
(lp6848
g69
(g70
g71
NtRp6849
(dp6850
g74
(dp6851
g82
I1
ssg83
g6845
sg76
(lp6852
S'/flisol2012/default/create/auth_permission'
p6853
asbasbasbasbasbasbasbag69
(g85
g71
NtRp6854
(dp6855
g74
(dp6856
sg83
g6256
sg76
(lp6857
g69
(g90
g71
NtRp6858
(dp6859
g74
(dp6860
sg83
g6854
sg76
(lp6861
g69
(g70
g71
NtRp6862
(dp6863
g74
(dp6864
g82
I2
ssg83
g6858
sg76
(lp6865
g69
(g78
g71
NtRp6866
(dp6867
g74
(dp6868
g82
I1
ssg83
Nsg76
(lp6869
g69
(g85
g71
NtRp6870
(dp6871
g74
(dp6872
sg83
g6866
sg76
(lp6873
g69
(g90
g71
NtRp6874
(dp6875
g74
(dp6876
sg83
g6870
sg76
(lp6877
g69
(g70
g71
NtRp6878
(dp6879
g74
(dp6880
g82
I1
ssg83
g6874
sg76
(lp6881
S'[auth_event]'
p6882
asbasbasbag69
(g85
g71
NtRp6883
(dp6884
g74
(dp6885
sg83
g6866
sg76
(lp6886
g69
(g90
g71
NtRp6887
(dp6888
g74
(dp6889
sg83
g6883
sg76
(lp6890
g69
(g70
g71
NtRp6891
(dp6892
g74
(dp6893
g82
I1
ssg83
g6887
sg76
(lp6894
I00
asbasbasbag69
(g85
g71
NtRp6895
(dp6896
g74
(dp6897
sg83
g6866
sg76
(lp6898
g69
(g90
g71
NtRp6899
(dp6900
g74
(dp6901
sg83
g6895
sg76
(lp6902
g69
(g70
g71
NtRp6903
(dp6904
g74
(dp6905
g82
I1
ssg83
g6899
sg76
(lp6906
S'/flisol2012/default/create/auth_event'
p6907
asbasbasbasbasbasbasbag69
(g85
g71
NtRp6908
(dp6909
g74
(dp6910
sg83
g6256
sg76
(lp6911
g69
(g90
g71
NtRp6912
(dp6913
g74
(dp6914
sg83
g6908
sg76
(lp6915
g69
(g70
g71
NtRp6916
(dp6917
g74
(dp6918
g82
I2
ssg83
g6912
sg76
(lp6919
g69
(g78
g71
NtRp6920
(dp6921
g74
(dp6922
g82
I1
ssg83
Nsg76
(lp6923
g69
(g85
g71
NtRp6924
(dp6925
g74
(dp6926
sg83
g6920
sg76
(lp6927
g69
(g90
g71
NtRp6928
(dp6929
g74
(dp6930
sg83
g6924
sg76
(lp6931
g69
(g70
g71
NtRp6932
(dp6933
g74
(dp6934
g82
I1
ssg83
g6928
sg76
(lp6935
S'[auth_cas]'
p6936
asbasbasbag69
(g85
g71
NtRp6937
(dp6938
g74
(dp6939
sg83
g6920
sg76
(lp6940
g69
(g90
g71
NtRp6941
(dp6942
g74
(dp6943
sg83
g6937
sg76
(lp6944
g69
(g70
g71
NtRp6945
(dp6946
g74
(dp6947
g82
I1
ssg83
g6941
sg76
(lp6948
I00
asbasbasbag69
(g85
g71
NtRp6949
(dp6950
g74
(dp6951
sg83
g6920
sg76
(lp6952
g69
(g90
g71
NtRp6953
(dp6954
g74
(dp6955
sg83
g6949
sg76
(lp6956
g69
(g70
g71
NtRp6957
(dp6958
g74
(dp6959
g82
I1
ssg83
g6953
sg76
(lp6960
S'/flisol2012/default/create/auth_cas'
p6961
asbasbasbasbasbasbasbag69
(g85
g71
NtRp6962
(dp6963
g74
(dp6964
sg83
g6256
sg76
(lp6965
g69
(g90
g71
NtRp6966
(dp6967
g74
(dp6968
sg83
g6962
sg76
(lp6969
g69
(g70
g71
NtRp6970
(dp6971
g74
(dp6972
g82
I2
ssg83
g6966
sg76
(lp6973
g69
(g78
g71
NtRp6974
(dp6975
g74
(dp6976
g82
I1
ssg83
Nsg76
(lp6977
g69
(g85
g71
NtRp6978
(dp6979
g74
(dp6980
sg83
g6974
sg76
(lp6981
g69
(g90
g71
NtRp6982
(dp6983
g74
(dp6984
sg83
g6978
sg76
(lp6985
g69
(g70
g71
NtRp6986
(dp6987
g74
(dp6988
g82
I1
ssg83
g6982
sg76
(lp6989
S'[payment]'
p6990
asbasbasbag69
(g85
g71
NtRp6991
(dp6992
g74
(dp6993
sg83
g6974
sg76
(lp6994
g69
(g90
g71
NtRp6995
(dp6996
g74
(dp6997
sg83
g6991
sg76
(lp6998
g69
(g70
g71
NtRp6999
(dp7000
g74
(dp7001
g82
I1
ssg83
g6995
sg76
(lp7002
I00
asbasbasbag69
(g85
g71
NtRp7003
(dp7004
g74
(dp7005
sg83
g6974
sg76
(lp7006
g69
(g90
g71
NtRp7007
(dp7008
g74
(dp7009
sg83
g7003
sg76
(lp7010
g69
(g70
g71
NtRp7011
(dp7012
g74
(dp7013
g82
I1
ssg83
g7007
sg76
(lp7014
S'/flisol2012/default/create/payment'
p7015
asbasbasbasbasbasbasbag69
(g85
g71
NtRp7016
(dp7017
g74
(dp7018
sg83
g6256
sg76
(lp7019
g69
(g90
g71
NtRp7020
(dp7021
g74
(dp7022
sg83
g7016
sg76
(lp7023
g69
(g70
g71
NtRp7024
(dp7025
g74
(dp7026
g82
I2
ssg83
g7020
sg76
(lp7027
g69
(g78
g71
NtRp7028
(dp7029
g74
(dp7030
g82
I1
ssg83
Nsg76
(lp7031
g69
(g85
g71
NtRp7032
(dp7033
g74
(dp7034
sg83
g7028
sg76
(lp7035
g69
(g90
g71
NtRp7036
(dp7037
g74
(dp7038
sg83
g7032
sg76
(lp7039
g69
(g70
g71
NtRp7040
(dp7041
g74
(dp7042
g82
I1
ssg83
g7036
sg76
(lp7043
S'[money_transfer]'
p7044
asbasbasbag69
(g85
g71
NtRp7045
(dp7046
g74
(dp7047
sg83
g7028
sg76
(lp7048
g69
(g90
g71
NtRp7049
(dp7050
g74
(dp7051
sg83
g7045
sg76
(lp7052
g69
(g70
g71
NtRp7053
(dp7054
g74
(dp7055
g82
I1
ssg83
g7049
sg76
(lp7056
I00
asbasbasbag69
(g85
g71
NtRp7057
(dp7058
g74
(dp7059
sg83
g7028
sg76
(lp7060
g69
(g90
g71
NtRp7061
(dp7062
g74
(dp7063
sg83
g7057
sg76
(lp7064
g69
(g70
g71
NtRp7065
(dp7066
g74
(dp7067
g82
I1
ssg83
g7061
sg76
(lp7068
S'/flisol2012/default/create/money_transfer'
p7069
asbasbasbasbasbasbasbag69
(g85
g71
NtRp7070
(dp7071
g74
(dp7072
sg83
g6256
sg76
(lp7073
g69
(g90
g71
NtRp7074
(dp7075
g74
(dp7076
sg83
g7070
sg76
(lp7077
g69
(g70
g71
NtRp7078
(dp7079
g74
(dp7080
g82
I2
ssg83
g7074
sg76
(lp7081
g69
(g78
g71
NtRp7082
(dp7083
g74
(dp7084
g82
I1
ssg83
Nsg76
(lp7085
g69
(g85
g71
NtRp7086
(dp7087
g74
(dp7088
sg83
g7082
sg76
(lp7089
g69
(g90
g71
NtRp7090
(dp7091
g74
(dp7092
sg83
g7086
sg76
(lp7093
g69
(g70
g71
NtRp7094
(dp7095
g74
(dp7096
g82
I1
ssg83
g7090
sg76
(lp7097
S'[coupon]'
p7098
asbasbasbag69
(g85
g71
NtRp7099
(dp7100
g74
(dp7101
sg83
g7082
sg76
(lp7102
g69
(g90
g71
NtRp7103
(dp7104
g74
(dp7105
sg83
g7099
sg76
(lp7106
g69
(g70
g71
NtRp7107
(dp7108
g74
(dp7109
g82
I1
ssg83
g7103
sg76
(lp7110
I00
asbasbasbag69
(g85
g71
NtRp7111
(dp7112
g74
(dp7113
sg83
g7082
sg76
(lp7114
g69
(g90
g71
NtRp7115
(dp7116
g74
(dp7117
sg83
g7111
sg76
(lp7118
g69
(g70
g71
NtRp7119
(dp7120
g74
(dp7121
g82
I1
ssg83
g7115
sg76
(lp7122
S'/flisol2012/default/create/coupon'
p7123
asbasbasbasbasbasbasbag69
(g85
g71
NtRp7124
(dp7125
g74
(dp7126
sg83
g6256
sg76
(lp7127
g69
(g90
g71
NtRp7128
(dp7129
g74
(dp7130
sg83
g7124
sg76
(lp7131
g69
(g70
g71
NtRp7132
(dp7133
g74
(dp7134
g82
I2
ssg83
g7128
sg76
(lp7135
g69
(g78
g71
NtRp7136
(dp7137
g74
(dp7138
g82
I1
ssg83
Nsg76
(lp7139
g69
(g85
g71
NtRp7140
(dp7141
g74
(dp7142
sg83
g7136
sg76
(lp7143
g69
(g90
g71
NtRp7144
(dp7145
g74
(dp7146
sg83
g7140
sg76
(lp7147
g69
(g70
g71
NtRp7148
(dp7149
g74
(dp7150
g82
I1
ssg83
g7144
sg76
(lp7151
S'[talk]'
p7152
asbasbasbag69
(g85
g71
NtRp7153
(dp7154
g74
(dp7155
sg83
g7136
sg76
(lp7156
g69
(g90
g71
NtRp7157
(dp7158
g74
(dp7159
sg83
g7153
sg76
(lp7160
g69
(g70
g71
NtRp7161
(dp7162
g74
(dp7163
g82
I1
ssg83
g7157
sg76
(lp7164
I00
asbasbasbag69
(g85
g71
NtRp7165
(dp7166
g74
(dp7167
sg83
g7136
sg76
(lp7168
g69
(g90
g71
NtRp7169
(dp7170
g74
(dp7171
sg83
g7165
sg76
(lp7172
g69
(g70
g71
NtRp7173
(dp7174
g74
(dp7175
g82
I1
ssg83
g7169
sg76
(lp7176
S'/flisol2012/default/create/talk'
p7177
asbasbasbasbasbasbasbag69
(g85
g71
NtRp7178
(dp7179
g74
(dp7180
sg83
g6256
sg76
(lp7181
g69
(g90
g71
NtRp7182
(dp7183
g74
(dp7184
sg83
g7178
sg76
(lp7185
g69
(g70
g71
NtRp7186
(dp7187
g74
(dp7188
g82
I2
ssg83
g7182
sg76
(lp7189
g69
(g78
g71
NtRp7190
(dp7191
g74
(dp7192
g82
I1
ssg83
Nsg76
(lp7193
g69
(g85
g71
NtRp7194
(dp7195
g74
(dp7196
sg83
g7190
sg76
(lp7197
g69
(g90
g71
NtRp7198
(dp7199
g74
(dp7200
sg83
g7194
sg76
(lp7201
g69
(g70
g71
NtRp7202
(dp7203
g74
(dp7204
g82
I1
ssg83
g7198
sg76
(lp7205
S'[talk_archived]'
p7206
asbasbasbag69
(g85
g71
NtRp7207
(dp7208
g74
(dp7209
sg83
g7190
sg76
(lp7210
g69
(g90
g71
NtRp7211
(dp7212
g74
(dp7213
sg83
g7207
sg76
(lp7214
g69
(g70
g71
NtRp7215
(dp7216
g74
(dp7217
g82
I1
ssg83
g7211
sg76
(lp7218
I00
asbasbasbag69
(g85
g71
NtRp7219
(dp7220
g74
(dp7221
sg83
g7190
sg76
(lp7222
g69
(g90
g71
NtRp7223
(dp7224
g74
(dp7225
sg83
g7219
sg76
(lp7226
g69
(g70
g71
NtRp7227
(dp7228
g74
(dp7229
g82
I1
ssg83
g7223
sg76
(lp7230
S'/flisol2012/default/create/talk_archived'
p7231
asbasbasbasbasbasbasbag69
(g85
g71
NtRp7232
(dp7233
g74
(dp7234
sg83
g6256
sg76
(lp7235
g69
(g90
g71
NtRp7236
(dp7237
g74
(dp7238
sg83
g7232
sg76
(lp7239
g69
(g70
g71
NtRp7240
(dp7241
g74
(dp7242
g82
I2
ssg83
g7236
sg76
(lp7243
g69
(g78
g71
NtRp7244
(dp7245
g74
(dp7246
g82
I1
ssg83
Nsg76
(lp7247
g69
(g85
g71
NtRp7248
(dp7249
g74
(dp7250
sg83
g7244
sg76
(lp7251
g69
(g90
g71
NtRp7252
(dp7253
g74
(dp7254
sg83
g7248
sg76
(lp7255
g69
(g70
g71
NtRp7256
(dp7257
g74
(dp7258
g82
I1
ssg83
g7252
sg76
(lp7259
S'[fa]'
p7260
asbasbasbag69
(g85
g71
NtRp7261
(dp7262
g74
(dp7263
sg83
g7244
sg76
(lp7264
g69
(g90
g71
NtRp7265
(dp7266
g74
(dp7267
sg83
g7261
sg76
(lp7268
g69
(g70
g71
NtRp7269
(dp7270
g74
(dp7271
g82
I1
ssg83
g7265
sg76
(lp7272
I00
asbasbasbag69
(g85
g71
NtRp7273
(dp7274
g74
(dp7275
sg83
g7244
sg76
(lp7276
g69
(g90
g71
NtRp7277
(dp7278
g74
(dp7279
sg83
g7273
sg76
(lp7280
g69
(g70
g71
NtRp7281
(dp7282
g74
(dp7283
g82
I1
ssg83
g7277
sg76
(lp7284
S'/flisol2012/default/create/fa'
p7285
asbasbasbasbasbasbasbag69
(g85
g71
NtRp7286
(dp7287
g74
(dp7288
sg83
g6256
sg76
(lp7289
g69
(g90
g71
NtRp7290
(dp7291
g74
(dp7292
sg83
g7286
sg76
(lp7293
g69
(g70
g71
NtRp7294
(dp7295
g74
(dp7296
g82
I2
ssg83
g7290
sg76
(lp7297
g69
(g78
g71
NtRp7298
(dp7299
g74
(dp7300
g82
I1
ssg83
Nsg76
(lp7301
g69
(g85
g71
NtRp7302
(dp7303
g74
(dp7304
sg83
g7298
sg76
(lp7305
g69
(g90
g71
NtRp7306
(dp7307
g74
(dp7308
sg83
g7302
sg76
(lp7309
g69
(g70
g71
NtRp7310
(dp7311
g74
(dp7312
g82
I1
ssg83
g7306
sg76
(lp7313
S'[person]'
p7314
asbasbasbag69
(g85
g71
NtRp7315
(dp7316
g74
(dp7317
sg83
g7298
sg76
(lp7318
g69
(g90
g71
NtRp7319
(dp7320
g74
(dp7321
sg83
g7315
sg76
(lp7322
g69
(g70
g71
NtRp7323
(dp7324
g74
(dp7325
g82
I1
ssg83
g7319
sg76
(lp7326
I00
asbasbasbag69
(g85
g71
NtRp7327
(dp7328
g74
(dp7329
sg83
g7298
sg76
(lp7330
g69
(g90
g71
NtRp7331
(dp7332
g74
(dp7333
sg83
g7327
sg76
(lp7334
g69
(g70
g71
NtRp7335
(dp7336
g74
(dp7337
g82
I1
ssg83
g7331
sg76
(lp7338
S'/flisol2012/default/create/t2_person'
p7339
asbasbasbasbasbasbasbag69
(g85
g71
NtRp7340
(dp7341
g74
(dp7342
sg83
g6256
sg76
(lp7343
g69
(g90
g71
NtRp7344
(dp7345
g74
(dp7346
sg83
g7340
sg76
(lp7347
g69
(g70
g71
NtRp7348
(dp7349
g74
(dp7350
g82
I2
ssg83
g7344
sg76
(lp7351
g69
(g78
g71
NtRp7352
(dp7353
g74
(dp7354
g82
I1
ssg83
Nsg76
(lp7355
g69
(g85
g71
NtRp7356
(dp7357
g74
(dp7358
sg83
g7352
sg76
(lp7359
g69
(g90
g71
NtRp7360
(dp7361
g74
(dp7362
sg83
g7356
sg76
(lp7363
g69
(g70
g71
NtRp7364
(dp7365
g74
(dp7366
g82
I1
ssg83
g7360
sg76
(lp7367
S'[group]'
p7368
asbasbasbag69
(g85
g71
NtRp7369
(dp7370
g74
(dp7371
sg83
g7352
sg76
(lp7372
g69
(g90
g71
NtRp7373
(dp7374
g74
(dp7375
sg83
g7369
sg76
(lp7376
g69
(g70
g71
NtRp7377
(dp7378
g74
(dp7379
g82
I1
ssg83
g7373
sg76
(lp7380
I00
asbasbasbag69
(g85
g71
NtRp7381
(dp7382
g74
(dp7383
sg83
g7352
sg76
(lp7384
g69
(g90
g71
NtRp7385
(dp7386
g74
(dp7387
sg83
g7381
sg76
(lp7388
g69
(g70
g71
NtRp7389
(dp7390
g74
(dp7391
g82
I1
ssg83
g7385
sg76
(lp7392
S'/flisol2012/default/create/t2_group'
p7393
asbasbasbasbasbasbasbag69
(g85
g71
NtRp7394
(dp7395
g74
(dp7396
sg83
g6256
sg76
(lp7397
g69
(g90
g71
NtRp7398
(dp7399
g74
(dp7400
sg83
g7394
sg76
(lp7401
g69
(g70
g71
NtRp7402
(dp7403
g74
(dp7404
g82
I2
ssg83
g7398
sg76
(lp7405
g69
(g78
g71
NtRp7406
(dp7407
g74
(dp7408
g82
I1
ssg83
Nsg76
(lp7409
g69
(g85
g71
NtRp7410
(dp7411
g74
(dp7412
sg83
g7406
sg76
(lp7413
g69
(g90
g71
NtRp7414
(dp7415
g74
(dp7416
sg83
g7410
sg76
(lp7417
g69
(g70
g71
NtRp7418
(dp7419
g74
(dp7420
g82
I1
ssg83
g7414
sg76
(lp7421
S'[membership]'
p7422
asbasbasbag69
(g85
g71
NtRp7423
(dp7424
g74
(dp7425
sg83
g7406
sg76
(lp7426
g69
(g90
g71
NtRp7427
(dp7428
g74
(dp7429
sg83
g7423
sg76
(lp7430
g69
(g70
g71
NtRp7431
(dp7432
g74
(dp7433
g82
I1
ssg83
g7427
sg76
(lp7434
I00
asbasbasbag69
(g85
g71
NtRp7435
(dp7436
g74
(dp7437
sg83
g7406
sg76
(lp7438
g69
(g90
g71
NtRp7439
(dp7440
g74
(dp7441
sg83
g7435
sg76
(lp7442
g69
(g70
g71
NtRp7443
(dp7444
g74
(dp7445
g82
I1
ssg83
g7439
sg76
(lp7446
S'/flisol2012/default/create/t2_membership'
p7447
asbasbasbasbasbasbasbag69
(g85
g71
NtRp7448
(dp7449
g74
(dp7450
sg83
g6256
sg76
(lp7451
g69
(g90
g71
NtRp7452
(dp7453
g74
(dp7454
sg83
g7448
sg76
(lp7455
g69
(g70
g71
NtRp7456
(dp7457
g74
(dp7458
g82
I2
ssg83
g7452
sg76
(lp7459
g69
(g78
g71
NtRp7460
(dp7461
g74
(dp7462
g82
I1
ssg83
Nsg76
(lp7463
g69
(g85
g71
NtRp7464
(dp7465
g74
(dp7466
sg83
g7460
sg76
(lp7467
g69
(g90
g71
NtRp7468
(dp7469
g74
(dp7470
sg83
g7464
sg76
(lp7471
g69
(g70
g71
NtRp7472
(dp7473
g74
(dp7474
g82
I1
ssg83
g7468
sg76
(lp7475
S'[access]'
p7476
asbasbasbag69
(g85
g71
NtRp7477
(dp7478
g74
(dp7479
sg83
g7460
sg76
(lp7480
g69
(g90
g71
NtRp7481
(dp7482
g74
(dp7483
sg83
g7477
sg76
(lp7484
g69
(g70
g71
NtRp7485
(dp7486
g74
(dp7487
g82
I1
ssg83
g7481
sg76
(lp7488
I00
asbasbasbag69
(g85
g71
NtRp7489
(dp7490
g74
(dp7491
sg83
g7460
sg76
(lp7492
g69
(g90
g71
NtRp7493
(dp7494
g74
(dp7495
sg83
g7489
sg76
(lp7496
g69
(g70
g71
NtRp7497
(dp7498
g74
(dp7499
g82
I1
ssg83
g7493
sg76
(lp7500
S'/flisol2012/default/create/t2_access'
p7501
asbasbasbasbasbasbasbag69
(g85
g71
NtRp7502
(dp7503
g74
(dp7504
sg83
g6256
sg76
(lp7505
g69
(g90
g71
NtRp7506
(dp7507
g74
(dp7508
sg83
g7502
sg76
(lp7509
g69
(g70
g71
NtRp7510
(dp7511
g74
(dp7512
g82
I2
ssg83
g7506
sg76
(lp7513
g69
(g78
g71
NtRp7514
(dp7515
g74
(dp7516
g82
I1
ssg83
Nsg76
(lp7517
g69
(g85
g71
NtRp7518
(dp7519
g74
(dp7520
sg83
g7514
sg76
(lp7521
g69
(g90
g71
NtRp7522
(dp7523
g74
(dp7524
sg83
g7518
sg76
(lp7525
g69
(g70
g71
NtRp7526
(dp7527
g74
(dp7528
g82
I1
ssg83
g7522
sg76
(lp7529
S'[attachment]'
p7530
asbasbasbag69
(g85
g71
NtRp7531
(dp7532
g74
(dp7533
sg83
g7514
sg76
(lp7534
g69
(g90
g71
NtRp7535
(dp7536
g74
(dp7537
sg83
g7531
sg76
(lp7538
g69
(g70
g71
NtRp7539
(dp7540
g74
(dp7541
g82
I1
ssg83
g7535
sg76
(lp7542
I00
asbasbasbag69
(g85
g71
NtRp7543
(dp7544
g74
(dp7545
sg83
g7514
sg76
(lp7546
g69
(g90
g71
NtRp7547
(dp7548
g74
(dp7549
sg83
g7543
sg76
(lp7550
g69
(g70
g71
NtRp7551
(dp7552
g74
(dp7553
g82
I1
ssg83
g7547
sg76
(lp7554
S'/flisol2012/default/create/t2_attachment'
p7555
asbasbasbasbasbasbasbag69
(g85
g71
NtRp7556
(dp7557
g74
(dp7558
sg83
g6256
sg76
(lp7559
g69
(g90
g71
NtRp7560
(dp7561
g74
(dp7562
sg83
g7556
sg76
(lp7563
g69
(g70
g71
NtRp7564
(dp7565
g74
(dp7566
g82
I2
ssg83
g7560
sg76
(lp7567
g69
(g78
g71
NtRp7568
(dp7569
g74
(dp7570
g82
I1
ssg83
Nsg76
(lp7571
g69
(g85
g71
NtRp7572
(dp7573
g74
(dp7574
sg83
g7568
sg76
(lp7575
g69
(g90
g71
NtRp7576
(dp7577
g74
(dp7578
sg83
g7572
sg76
(lp7579
g69
(g70
g71
NtRp7580
(dp7581
g74
(dp7582
g82
I1
ssg83
g7576
sg76
(lp7583
S'[comment]'
p7584
asbasbasbag69
(g85
g71
NtRp7585
(dp7586
g74
(dp7587
sg83
g7568
sg76
(lp7588
g69
(g90
g71
NtRp7589
(dp7590
g74
(dp7591
sg83
g7585
sg76
(lp7592
g69
(g70
g71
NtRp7593
(dp7594
g74
(dp7595
g82
I1
ssg83
g7589
sg76
(lp7596
I00
asbasbasbag69
(g85
g71
NtRp7597
(dp7598
g74
(dp7599
sg83
g7568
sg76
(lp7600
g69
(g90
g71
NtRp7601
(dp7602
g74
(dp7603
sg83
g7597
sg76
(lp7604
g69
(g70
g71
NtRp7605
(dp7606
g74
(dp7607
g82
I1
ssg83
g7601
sg76
(lp7608
S'/flisol2012/default/create/t2_comment'
p7609
asbasbasbasbasbasbasbag69
(g85
g71
NtRp7610
(dp7611
g74
(dp7612
sg83
g6256
sg76
(lp7613
g69
(g90
g71
NtRp7614
(dp7615
g74
(dp7616
sg83
g7610
sg76
(lp7617
g69
(g70
g71
NtRp7618
(dp7619
g74
(dp7620
g82
I2
ssg83
g7614
sg76
(lp7621
g69
(g78
g71
NtRp7622
(dp7623
g74
(dp7624
g82
I1
ssg83
Nsg76
(lp7625
g69
(g85
g71
NtRp7626
(dp7627
g74
(dp7628
sg83
g7622
sg76
(lp7629
g69
(g90
g71
NtRp7630
(dp7631
g74
(dp7632
sg83
g7626
sg76
(lp7633
g69
(g70
g71
NtRp7634
(dp7635
g74
(dp7636
g82
I1
ssg83
g7630
sg76
(lp7637
S'[review]'
p7638
asbasbasbag69
(g85
g71
NtRp7639
(dp7640
g74
(dp7641
sg83
g7622
sg76
(lp7642
g69
(g90
g71
NtRp7643
(dp7644
g74
(dp7645
sg83
g7639
sg76
(lp7646
g69
(g70
g71
NtRp7647
(dp7648
g74
(dp7649
g82
I1
ssg83
g7643
sg76
(lp7650
I00
asbasbasbag69
(g85
g71
NtRp7651
(dp7652
g74
(dp7653
sg83
g7622
sg76
(lp7654
g69
(g90
g71
NtRp7655
(dp7656
g74
(dp7657
sg83
g7651
sg76
(lp7658
g69
(g70
g71
NtRp7659
(dp7660
g74
(dp7661
g82
I1
ssg83
g7655
sg76
(lp7662
S'/flisol2012/default/create/t2_review'
p7663
asbasbasbasbasbasbasbag69
(g85
g71
NtRp7664
(dp7665
g74
(dp7666
sg83
g6256
sg76
(lp7667
g69
(g90
g71
NtRp7668
(dp7669
g74
(dp7670
sg83
g7664
sg76
(lp7671
g69
(g70
g71
NtRp7672
(dp7673
g74
(dp7674
g82
I2
ssg83
g7668
sg76
(lp7675
g69
(g78
g71
NtRp7676
(dp7677
g74
(dp7678
g82
I1
ssg83
Nsg76
(lp7679
g69
(g85
g71
NtRp7680
(dp7681
g74
(dp7682
sg83
g7676
sg76
(lp7683
g69
(g90
g71
NtRp7684
(dp7685
g74
(dp7686
sg83
g7680
sg76
(lp7687
g69
(g70
g71
NtRp7688
(dp7689
g74
(dp7690
g82
I1
ssg83
g7684
sg76
(lp7691
S'[wiki]'
p7692
asbasbasbag69
(g85
g71
NtRp7693
(dp7694
g74
(dp7695
sg83
g7676
sg76
(lp7696
g69
(g90
g71
NtRp7697
(dp7698
g74
(dp7699
sg83
g7693
sg76
(lp7700
g69
(g70
g71
NtRp7701
(dp7702
g74
(dp7703
g82
I1
ssg83
g7697
sg76
(lp7704
I00
asbasbasbag69
(g85
g71
NtRp7705
(dp7706
g74
(dp7707
sg83
g7676
sg76
(lp7708
g69
(g90
g71
NtRp7709
(dp7710
g74
(dp7711
sg83
g7705
sg76
(lp7712
g69
(g70
g71
NtRp7713
(dp7714
g74
(dp7715
g82
I1
ssg83
g7709
sg76
(lp7716
S'/flisol2012/default/create/t2_wiki'
p7717
asbasbasbasbasbasbasbag69
(g85
g71
NtRp7718
(dp7719
g74
(dp7720
sg83
g6256
sg76
(lp7721
g69
(g90
g71
NtRp7722
(dp7723
g74
(dp7724
sg83
g7718
sg76
(lp7725
g69
(g70
g71
NtRp7726
(dp7727
g74
(dp7728
g82
I2
ssg83
g7722
sg76
(lp7729
g69
(g78
g71
NtRp7730
(dp7731
g74
(dp7732
g82
I1
ssg83
Nsg76
(lp7733
g69
(g85
g71
NtRp7734
(dp7735
g74
(dp7736
sg83
g7730
sg76
(lp7737
g69
(g90
g71
NtRp7738
(dp7739
g74
(dp7740
sg83
g7734
sg76
(lp7741
g69
(g70
g71
NtRp7742
(dp7743
g74
(dp7744
g82
I1
ssg83
g7738
sg76
(lp7745
S'[expense_form]'
p7746
asbasbasbag69
(g85
g71
NtRp7747
(dp7748
g74
(dp7749
sg83
g7730
sg76
(lp7750
g69
(g90
g71
NtRp7751
(dp7752
g74
(dp7753
sg83
g7747
sg76
(lp7754
g69
(g70
g71
NtRp7755
(dp7756
g74
(dp7757
g82
I1
ssg83
g7751
sg76
(lp7758
I00
asbasbasbag69
(g85
g71
NtRp7759
(dp7760
g74
(dp7761
sg83
g7730
sg76
(lp7762
g69
(g90
g71
NtRp7763
(dp7764
g74
(dp7765
sg83
g7759
sg76
(lp7766
g69
(g70
g71
NtRp7767
(dp7768
g74
(dp7769
g82
I1
ssg83
g7763
sg76
(lp7770
S'/flisol2012/default/create/expense_form'
p7771
asbasbasbasbasbasbasbag69
(g85
g71
NtRp7772
(dp7773
g74
(dp7774
sg83
g6256
sg76
(lp7775
g69
(g90
g71
NtRp7776
(dp7777
g74
(dp7778
sg83
g7772
sg76
(lp7779
g69
(g70
g71
NtRp7780
(dp7781
g74
(dp7782
g82
I2
ssg83
g7776
sg76
(lp7783
g69
(g78
g71
NtRp7784
(dp7785
g74
(dp7786
g82
I1
ssg83
Nsg76
(lp7787
g69
(g85
g71
NtRp7788
(dp7789
g74
(dp7790
sg83
g7784
sg76
(lp7791
g69
(g90
g71
NtRp7792
(dp7793
g74
(dp7794
sg83
g7788
sg76
(lp7795
g69
(g70
g71
NtRp7796
(dp7797
g74
(dp7798
g82
I1
ssg83
g7792
sg76
(lp7799
S'[expense_item]'
p7800
asbasbasbag69
(g85
g71
NtRp7801
(dp7802
g74
(dp7803
sg83
g7784
sg76
(lp7804
g69
(g90
g71
NtRp7805
(dp7806
g74
(dp7807
sg83
g7801
sg76
(lp7808
g69
(g70
g71
NtRp7809
(dp7810
g74
(dp7811
g82
I1
ssg83
g7805
sg76
(lp7812
I00
asbasbasbag69
(g85
g71
NtRp7813
(dp7814
g74
(dp7815
sg83
g7784
sg76
(lp7816
g69
(g90
g71
NtRp7817
(dp7818
g74
(dp7819
sg83
g7813
sg76
(lp7820
g69
(g70
g71
NtRp7821
(dp7822
g74
(dp7823
g82
I1
ssg83
g7817
sg76
(lp7824
S'/flisol2012/default/create/expense_item'
p7825
asbasbasbasbasbasbasbag69
(g85
g71
NtRp7826
(dp7827
g74
(dp7828
sg83
g6256
sg76
(lp7829
g69
(g90
g71
NtRp7830
(dp7831
g74
(dp7832
sg83
g7826
sg76
(lp7833
g69
(g70
g71
NtRp7834
(dp7835
g74
(dp7836
g82
I2
ssg83
g7830
sg76
(lp7837
g69
(g78
g71
NtRp7838
(dp7839
g74
(dp7840
g82
I1
ssg83
Nsg76
(lp7841
g69
(g85
g71
NtRp7842
(dp7843
g74
(dp7844
sg83
g7838
sg76
(lp7845
g69
(g90
g71
NtRp7846
(dp7847
g74
(dp7848
sg83
g7842
sg76
(lp7849
g69
(g70
g71
NtRp7850
(dp7851
g74
(dp7852
g82
I1
ssg83
g7846
sg76
(lp7853
S'[asistente]'
p7854
asbasbasbag69
(g85
g71
NtRp7855
(dp7856
g74
(dp7857
sg83
g7838
sg76
(lp7858
g69
(g90
g71
NtRp7859
(dp7860
g74
(dp7861
sg83
g7855
sg76
(lp7862
g69
(g70
g71
NtRp7863
(dp7864
g74
(dp7865
g82
I1
ssg83
g7859
sg76
(lp7866
I00
asbasbasbag69
(g85
g71
NtRp7867
(dp7868
g74
(dp7869
sg83
g7838
sg76
(lp7870
g69
(g90
g71
NtRp7871
(dp7872
g74
(dp7873
sg83
g7867
sg76
(lp7874
g69
(g70
g71
NtRp7875
(dp7876
g74
(dp7877
g82
I1
ssg83
g7871
sg76
(lp7878
S'/flisol2012/default/create/asistente'
p7879
asbasbasbasbasbasbasbasbasbasbasbasbasbasbasbasbasbasbasbag69
(g85
g71
NtRp7880
(dp7881
g74
(dp7882
sg83
g4381
sg76
(lp7883
g69
(g90
g71
NtRp7884
(dp7885
g74
(dp7886
g94
g95
ssg83
g7880
sg76
(lp7887
S'meta'
p7888
asbag69
(g90
g71
NtRp7889
(dp7890
g74
(dp7891
g101
g102
ssg83
g7880
sg76
(lp7892
S':'
asbag69
(g90
g71
NtRp7893
(dp7894
g74
(dp7895
sg83
g7880
sg76
(lp7896
g69
(g70
g71
NtRp7897
(dp7898
g74
(dp7899
g82
I5
ssg83
g7893
sg76
(lp7900
g69
(g78
g71
NtRp7901
(dp7902
g74
(dp7903
g82
I4
ssg83
Nsg76
(lp7904
sbasbasbasbag69
(g85
g71
NtRp7905
(dp7906
g74
(dp7907
sg83
g4381
sg76
(lp7908
g69
(g90
g71
NtRp7909
(dp7910
g74
(dp7911
g94
g95
ssg83
g7905
sg76
(lp7912
S'postprocessing'
p7913
asbag69
(g90
g71
NtRp7914
(dp7915
g74
(dp7916
g101
g102
ssg83
g7905
sg76
(lp7917
S':'
asbag69
(g90
g71
NtRp7918
(dp7919
g74
(dp7920
sg83
g7905
sg76
(lp7921
g69
(g70
g71
NtRp7922
(dp7923
g74
(dp7924
g82
I5
ssg83
g7918
sg76
(lp7925
g69
(g78
g71
NtRp7926
(dp7927
g74
(dp7928
g82
I4
ssg83
Nsg76
(lp7929
sbasbasbasbag69
(g85
g71
NtRp7930
(dp7931
g74
(dp7932
sg83
g4381
sg76
(lp7933
g69
(g90
g71
NtRp7934
(dp7935
g74
(dp7936
g94
g95
ssg83
g7930
sg76
(lp7937
S'session_file'
p7938
asbag69
(g90
g71
NtRp7939
(dp7940
g74
(dp7941
g101
g102
ssg83
g7930
sg76
(lp7942
S':'
asbag69
(g90
g71
NtRp7943
(dp7944
g74
(dp7945
sg83
g7930
sg76
(lp7946
g69
(g70
g71
NtRp7947
(dp7948
g74
(dp7949
g82
I5
ssg83
g7943
sg76
(lp7950
S"<open file '/home/marco/flisol2012/web2py/applications/flisol2012/sessions/127.0.0.1-2ede3a58-f97e-48e1-8d0e-90e5ecfe16bf', mode 'rb+' at 0x2de8b70>"
p7951
asbasbasbag69
(g85
g71
NtRp7952
(dp7953
g74
(dp7954
sg83
g4381
sg76
(lp7955
g69
(g90
g71
NtRp7956
(dp7957
g74
(dp7958
g94
g95
ssg83
g7952
sg76
(lp7959
S'session_filename'
p7960
asbag69
(g90
g71
NtRp7961
(dp7962
g74
(dp7963
g101
g102
ssg83
g7952
sg76
(lp7964
S':'
asbag69
(g90
g71
NtRp7965
(dp7966
g74
(dp7967
sg83
g7952
sg76
(lp7968
g69
(g70
g71
NtRp7969
(dp7970
g74
(dp7971
g82
I5
ssg83
g7965
sg76
(lp7972
S'/home/marco/flisol2012/web2py/applications/flisol2012/sessions/127.0.0.1-2ede3a58-f97e-48e1-8d0e-90e5ecfe16bf'
p7973
asbasbasbag69
(g85
g71
NtRp7974
(dp7975
g74
(dp7976
sg83
g4381
sg76
(lp7977
g69
(g90
g71
NtRp7978
(dp7979
g74
(dp7980
g94
g95
ssg83
g7974
sg76
(lp7981
S'session_id'
p7982
asbag69
(g90
g71
NtRp7983
(dp7984
g74
(dp7985
g101
g102
ssg83
g7974
sg76
(lp7986
S':'
asbag69
(g90
g71
NtRp7987
(dp7988
g74
(dp7989
sg83
g7974
sg76
(lp7990
g69
(g70
g71
NtRp7991
(dp7992
g74
(dp7993
g82
I5
ssg83
g7987
sg76
(lp7994
S'127.0.0.1-2ede3a58-f97e-48e1-8d0e-90e5ecfe16bf'
p7995
asbasbasbag69
(g85
g71
NtRp7996
(dp7997
g74
(dp7998
sg83
g4381
sg76
(lp7999
g69
(g90
g71
NtRp8000
(dp8001
g74
(dp8002
g94
g95
ssg83
g7996
sg76
(lp8003
S'session_id_name'
p8004
asbag69
(g90
g71
NtRp8005
(dp8006
g74
(dp8007
g101
g102
ssg83
g7996
sg76
(lp8008
S':'
asbag69
(g90
g71
NtRp8009
(dp8010
g74
(dp8011
sg83
g7996
sg76
(lp8012
g69
(g70
g71
NtRp8013
(dp8014
g74
(dp8015
g82
I5
ssg83
g8009
sg76
(lp8016
g4438
asbasbasbag69
(g85
g71
NtRp8017
(dp8018
g74
(dp8019
sg83
g4381
sg76
(lp8020
g69
(g90
g71
NtRp8021
(dp8022
g74
(dp8023
g94
g95
ssg83
g8017
sg76
(lp8024
S'session_locked'
p8025
asbag69
(g90
g71
NtRp8026
(dp8027
g74
(dp8028
g101
g102
ssg83
g8017
sg76
(lp8029
S':'
asbag69
(g90
g71
NtRp8030
(dp8031
g74
(dp8032
sg83
g8017
sg76
(lp8033
g69
(g70
g71
NtRp8034
(dp8035
g74
(dp8036
g82
I5
ssg83
g8030
sg76
(lp8037
g1853
asbasbasbag69
(g85
g71
NtRp8038
(dp8039
g74
(dp8040
sg83
g4381
sg76
(lp8041
g69
(g90
g71
NtRp8042
(dp8043
g74
(dp8044
g94
g95
ssg83
g8038
sg76
(lp8045
S'session_new'
p8046
asbag69
(g90
g71
NtRp8047
(dp8048
g74
(dp8049
g101
g102
ssg83
g8038
sg76
(lp8050
S':'
asbag69
(g90
g71
NtRp8051
(dp8052
g74
(dp8053
sg83
g8038
sg76
(lp8054
g69
(g70
g71
NtRp8055
(dp8056
g74
(dp8057
g82
I5
ssg83
g8051
sg76
(lp8058
g112
asbasbasbag69
(g85
g71
NtRp8059
(dp8060
g74
(dp8061
sg83
g4381
sg76
(lp8062
g69
(g90
g71
NtRp8063
(dp8064
g74
(dp8065
g94
g95
ssg83
g8059
sg76
(lp8066
S'sidebar'
p8067
asbag69
(g90
g71
NtRp8068
(dp8069
g74
(dp8070
g101
g102
ssg83
g8059
sg76
(lp8071
S':'
asbag69
(g90
g71
NtRp8072
(dp8073
g74
(dp8074
sg83
g8059
sg76
(lp8075
g69
(g70
g71
NtRp8076
(dp8077
g74
(dp8078
g82
I5
ssg83
g8072
sg76
(lp8079
g69
(g78
g71
NtRp8080
(dp8081
g74
(dp8082
g82
I4
ssg83
Nsg76
(lp8083
g69
(g85
g71
NtRp8084
(dp8085
g74
(dp8086
sg83
g8080
sg76
(lp8087
g69
(g90
g71
NtRp8088
(dp8089
g74
(dp8090
sg83
g8084
sg76
(lp8091
g69
(g70
g71
NtRp8092
(dp8093
g74
(dp8094
g82
I4
ssg83
g8088
sg76
(lp8095
g69
(g78
g71
NtRp8096
(dp8097
g74
(dp8098
g82
I3
ssg83
Nsg76
(lp8099
g69
(g85
g71
NtRp8100
(dp8101
g74
(dp8102
sg83
g8096
sg76
(lp8103
g69
(g90
g71
NtRp8104
(dp8105
g74
(dp8106
sg83
g8100
sg76
(lp8107
g69
(g70
g71
NtRp8108
(dp8109
g74
(dp8110
g82
I3
ssg83
g8104
sg76
(lp8111
g5108
(S's\x0b\x00\x00\x00Sus Charlas'
tRp8112
asbasbasbag69
(g85
g71
NtRp8113
(dp8114
g74
(dp8115
sg83
g8096
sg76
(lp8116
g69
(g90
g71
NtRp8117
(dp8118
g74
(dp8119
sg83
g8113
sg76
(lp8120
g69
(g70
g71
NtRp8121
(dp8122
g74
(dp8123
g82
I3
ssg83
g8117
sg76
(lp8124
g69
(g78
g71
NtRp8125
(dp8126
g74
(dp8127
g82
I2
ssg83
Nsg76
(lp8128
g69
(g85
g71
NtRp8129
(dp8130
g74
(dp8131
sg83
g8125
sg76
(lp8132
g69
(g90
g71
NtRp8133
(dp8134
g74
(dp8135
sg83
g8129
sg76
(lp8136
g69
(g70
g71
NtRp8137
(dp8138
g74
(dp8139
g82
I2
ssg83
g8133
sg76
(lp8140
g69
(g78
g71
NtRp8141
(dp8142
g74
(dp8143
g82
I1
ssg83
Nsg76
(lp8144
g69
(g85
g71
NtRp8145
(dp8146
g74
(dp8147
sg83
g8141
sg76
(lp8148
g69
(g90
g71
NtRp8149
(dp8150
g74
(dp8151
sg83
g8145
sg76
(lp8152
g69
(g70
g71
NtRp8153
(dp8154
g74
(dp8155
g82
I1
ssg83
g8149
sg76
(lp8156
g5108
(S's\x0f\x00\x00\x00Proponer charla'
tRp8157
asbasbasbag69
(g85
g71
NtRp8158
(dp8159
g74
(dp8160
sg83
g8141
sg76
(lp8161
g69
(g90
g71
NtRp8162
(dp8163
g74
(dp8164
sg83
g8158
sg76
(lp8165
g69
(g70
g71
NtRp8166
(dp8167
g74
(dp8168
g82
I1
ssg83
g8162
sg76
(lp8169
S'/flisol2012/default/propose_talk'
p8170
asbasbasbasbasbasbasbasbasbasbasbasbasbasbasbasbasbasbasbag69
(g85
g71
NtRp8171
(dp8172
g74
(dp8173
sg83
g4381
sg76
(lp8174
g69
(g90
g71
NtRp8175
(dp8176
g74
(dp8177
g94
g95
ssg83
g8171
sg76
(lp8178
S'status'
p8179
asbag69
(g90
g71
NtRp8180
(dp8181
g74
(dp8182
g101
g102
ssg83
g8171
sg76
(lp8183
S':'
asbag69
(g90
g71
NtRp8184
(dp8185
g74
(dp8186
sg83
g8171
sg76
(lp8187
g69
(g70
g71
NtRp8188
(dp8189
g74
(dp8190
g82
I5
ssg83
g8184
sg76
(lp8191
S'200'
p8192
asbasbasbag69
(g85
g71
NtRp8193
(dp8194
g74
(dp8195
sg83
g4381
sg76
(lp8196
g69
(g90
g71
NtRp8197
(dp8198
g74
(dp8199
g94
g95
ssg83
g8193
sg76
(lp8200
S'subtitle'
p8201
asbag69
(g90
g71
NtRp8202
(dp8203
g74
(dp8204
g101
g102
ssg83
g8193
sg76
(lp8205
S':'
asbag69
(g90
g71
NtRp8206
(dp8207
g74
(dp8208
sg83
g8193
sg76
(lp8209
g69
(g70
g71
NtRp8210
(dp8211
g74
(dp8212
g82
I5
ssg83
g8206
sg76
(lp8213
S''
asbasbasbag69
(g85
g71
NtRp8214
(dp8215
g74
(dp8216
sg83
g4381
sg76
(lp8217
g69
(g90
g71
NtRp8218
(dp8219
g74
(dp8220
g94
g95
ssg83
g8214
sg76
(lp8221
S'title'
p8222
asbag69
(g90
g71
NtRp8223
(dp8224
g74
(dp8225
g101
g102
ssg83
g8214
sg76
(lp8226
S':'
asbag69
(g90
g71
NtRp8227
(dp8228
g74
(dp8229
sg83
g8214
sg76
(lp8230
g69
(g70
g71
NtRp8231
(dp8232
g74
(dp8233
g82
I5
ssg83
g8227
sg76
(lp8234
S'FLISOL 2012 - Salta'
p8235
asbasbasbag69
(g85
g71
NtRp8236
(dp8237
g74
(dp8238
sg83
g4381
sg76
(lp8239
g69
(g90
g71
NtRp8240
(dp8241
g74
(dp8242
g94
g95
ssg83
g8236
sg76
(lp8243
g2517
asbag69
(g90
g71
NtRp8244
(dp8245
g74
(dp8246
g101
g102
ssg83
g8236
sg76
(lp8247
S':'
asbag69
(g90
g71
NtRp8248
(dp8249
g74
(dp8250
sg83
g8236
sg76
(lp8251
g69
(g70
g71
NtRp8252
(dp8253
g74
(dp8254
g82
I5
ssg83
g8248
sg76
(lp8255
g2530
asbasbasbag69
(g85
g71
NtRp8256
(dp8257
g74
(dp8258
sg83
g4381
sg76
(lp8259
g69
(g90
g71
NtRp8260
(dp8261
g74
(dp8262
g94
g95
ssg83
g8256
sg76
(lp8263
S'view'
p8264
asbag69
(g90
g71
NtRp8265
(dp8266
g74
(dp8267
g101
g102
ssg83
g8256
sg76
(lp8268
S':'
asbag69
(g90
g71
NtRp8269
(dp8270
g74
(dp8271
sg83
g8256
sg76
(lp8272
g69
(g70
g71
NtRp8273
(dp8274
g74
(dp8275
g82
I5
ssg83
g8269
sg76
(lp8276
S'default/companies.html'
p8277
asbasbasbasbasbsS'locals'
p8278
(dp8279
g4
S"'/home/marco/flisol2012/web2py/applications/flisol2012/views/default/companies.html'"
p8280
sg6
S'\'response.write(\\\'<!DOCTYPE html PUBLIC "-//W3C//D...) {}</script>\\\\n</body>\\\\n</html>\\\\n\\\', escape=False)\''
p8281
sssS'traceback'
p8282
S'Traceback (most recent call last):\n  File "/home/marco/flisol2012/web2py/gluon/restricted.py", line 204, in restricted\n    ccode = compile2(code,layer)\n  File "/home/marco/flisol2012/web2py/gluon/restricted.py", line 189, in compile2\n    return compile(code.rstrip().replace(\'\\r\\n\',\'\\n\')+\'\\n\', layer, \'exec\')\n  File "/home/marco/flisol2012/web2py/applications/flisol2012/views/default/companies.html", line 96\n    response.write(T(\'\n                     ^\nSyntaxError: EOL while scanning string literal\n'
p8283
s.