(dp1
S'output'
p2
S"<type 'exceptions.KeyError'> 'donation_to_PSF'"
p3
sS'layer'
p4
S'/home/marco/flisol2012/web2py/applications/flisol2012/views/default/financials.html'
p5
sS'code'
p6
S'response.write(\'<!DOCTYPE html PUBLIC "-//W3C//DTD XHTML 1.0 Strict//EN" "http://www.w3.org/TR/xhtml1/DTD/xhtml1-strict.dtd">\\n<!--\\nDesign by Free CSS Templates, modified by Massimo Di Pierro\\nhttp://www.freecsstemplates.org\\nReleased for free under a Creative Commons Attribution 2.5 License\\n\\nName       : Flavour\\nDescription: A two-column, fixed-width design with dark color scheme.\\nVersion    : 1.0\\nReleased   : 20080425\\n-->\\n<html xmlns="http://www.w3.org/1999/xhtml">\\n<head>\\n<title>\', escape=False)\nresponse.write(response.title or URL(r=request))\nresponse.write(\'</title>\\n<meta http-equiv="content-type" content="text/html; charset=utf-8" />\\n<meta name="keywords" content="\', escape=False)\nresponse.write(response.keywords)\nresponse.write(\'" />\\n<meta name="description" content="\', escape=False)\nresponse.write(response.description)\nresponse.write(\'" />\\n<link rel="icon" href="\', escape=False)\nresponse.write(URL(r=request,c=\'static\',f=\'favicon.ico\'))\nresponse.write(\'" type="image/x-icon">\\n<link rel="stylesheet" type="text/css" href="\', escape=False)\nresponse.write(URL(r=request,c=\'static\',f=\'style.css\'))\nresponse.write(\'" />\\n\', escape=False)\nimport os\nresponse.write(\'\\n<link href="\', escape=False)\nresponse.write(URL(r=request,c=\'static\',f=\'calendar.css\'))\nresponse.write(\'" rel="stylesheet" type="text/css" media="screen" charset="utf-8" />\\n<script src="\', escape=False)\nresponse.write(URL(r=request,c=\'static\',f=\'jquery.js\'))\nresponse.write(\'" type="text/javascript"></script>\\n<script src="\', escape=False)\nresponse.write(URL(r=request,c=\'static\',f=\'calendar.js\'))\nresponse.write(\'" type="text/javascript" charset="utf-8"></script>\\n<script type="text/javascript"><!--\\nfunction popup(url) {\\n  newwindow=window.open(url,\\\'name\\\',\\\'height=400,width=600\\\');\\n  if (window.focus) newwindow.focus();\\n  return false;\\n}\\nfunction collapse(id) { $(\\\'#\\\'+id).slideToggle(); }\\nfunction fade(id,value) { if(value>0) $(\\\'#\\\'+id).hide().fadeIn(\\\'slow\\\'); else $(\\\'#\\\'+id).show().fadeOut(\\\'slow\\\'); }\\nfunction ajax(u,s,t) {\\n  var query="";\\n  for(i=0; i<s.length; i++) { \\n     if(i>0) query=query+"&";\\n     query=query+encodeURIComponent(s[i])+"="+encodeURIComponent(document.getElementById(s[i]).value);\\n  }\\n  $.ajax({type: "POST", url: u, data: query, success: function(msg) { document.getElementById(t).innerHTML=msg; } });  \\n}\\nString.prototype.reverse = function () { return this.split(\\\'\\\').reverse().join(\\\'\\\');};\\n$(document).ready(function() {\\n$(\\\'.hidden\\\').hide();\\n$(\\\'.error\\\').hide().slideDown(\\\'slow\\\');\\n$(\\\'.flash\\\').hide().slideDown(\\\'slow\\\')\\n$(\\\'.flash\\\').click(function() { $(this).fadeOut(\\\'slow\\\'); return false; });\\n$(\\\'input.string\\\').attr(\\\'size\\\',50);\\n$(\\\'textarea.text\\\').attr(\\\'cols\\\',50).attr(\\\'rows\\\',10);\\n$(\\\'input.integer\\\').keyup(function(){this.value=this.value.reverse().replace(/[^0-9\\\\-]|\\\\-(?=.)/g,\\\'\\\').reverse();});\\n$(\\\'input.double\\\').keyup(function(){this.value=this.value.reverse().replace(/[^0-9\\\\-\\\\.]|[\\\\-](?=.)|[\\\\.](?=[0-9]*[\\\\.])/g,\\\'\\\').reverse();});\\n$(\\\'input.delete\\\').attr(\\\'onclick\\\',\\\'if(this.checked) if(!confirm("\', escape=False)\nresponse.write(T(\'Sure you want to delete this object?\'))\nresponse.write(\'")) this.checked=false;\\\');\\ntry {$("input.date").focus( function() {Calendar.setup({\\n     inputField:this.id, ifFormat:"\', escape=False)\nresponse.write(T(\'%Y-%m-%d\'))\nresponse.write(\'", showsTime:false\\n}); }); } catch(e) {};\\ntry { $("input.datetime").focus( function() {Calendar.setup({\\n     inputField:this.id, ifFormat:"\', escape=False)\nresponse.write(T(\'%Y-%m-%d %H:%M:%S\'))\nresponse.write(\'", showsTime: true,timeFormat: "24"\\n}); }); } catch(e) {};\\ntry { $("input.time").clockpick({\\n     starthour:0, endhour:23, showminutes:true, military:true\\n}); } catch(e) {};\\n});\\n//--></script>\', escape=False)\nresponse.write(\'\\n<script src="\', escape=False)\nresponse.write(URL(r=request,c=\'static\',f=\'scripts/sfmenu.js\'))\nresponse.write(\'"></script>\\n<script src="\', escape=False)\nresponse.write(URL(r=request,c=\'static\',f=\'scripts/jquery.dimensions.js\'))\nresponse.write(\'"></script><script src="\', escape=False)\nresponse.write(URL(r=request,c=\'static\',f=\'scripts/jqueryMultiSelect.js\'))\nresponse.write(\'"></script>\\n<link rel="stylesheet" type="text/css" href="\', escape=False)\nresponse.write(URL(r=request,c=\'static\',f=\'scripts/jqueryMultiSelect.css\'))\nresponse.write(\'" />\\n<script>\\n$(document).ready(function() { $(\\\'.sf-menu\\\').superfish({ animation: {height:\\\'show\\\'}, delay:500 }); \\n$(\\\'#auth_user_tutorials\\\').multiSelect({selectAll: false});\\n});\\n</script>\\n</head>\\n<body>\\n<div id="header">\\n  <div id="logo">\\n    <img alt="logo" src="\', escape=False)\nresponse.write(URL(r=request,c=\'static\',f=\'logo.png\'))\nresponse.write(\'"/>\\n    <h1>\', escape=False)\nresponse.write(response.title)\nresponse.write(\'</h1>\\n    <p>Festival latinoamericano de Instalaci\\xc3\\xb3n de Software Libre</p>\\n  </div>\\n  <div id="search">\\n    <form method="get" action="http://www.google.com/search">\\n      <fieldset>\\n        <input id="search-text" type="text" name="as_q" value="" size="15"/>\\n        <input type="hidden" name="as_sitesearch" value="\', escape=False)\nresponse.write(request.env.http_host)\nresponse.write(\'">\\n        <input type="submit" id="search-submit" value="Search" />\\n      </fieldset>\\n      <span style="color: #ffffff; font-size: smaller;">\', escape=False)\nresponse.write(T("Language"))\nresponse.write(\': <a href="?lang=es" style="color: #ffffff; font-size: smaller;">Espa\\xc3\\xb1ol</a>, <a href="?lang=pt" style="color: #ffffff; font-size: smaller;">Portugu\\xc3\\xaas</a>, <a href="?lang=en" style="color: #ffffff; font-size: smaller">English</a></a>\\n    </form>\\n  </div>\\n</div>\\n<div id="menu">\\n  \', escape=False)\nresponse.write(t2.menu(response.menu))\nresponse.write(\'\\n</div>\\n<div id="page">\\n  <div id="content">\\n    \', escape=False)\ntry:\n    if not response.flash and form.errors:\n        response.flash=T("There are errors in your form below")\n        pass\nexcept: pass\nresponse.write(\'\\n    \', escape=False)\nif response.flash:\n    response.write(\'<div class="flash">\', escape=False)\n    response.write(response.flash)\n    response.write(\'</div>\', escape=False)\n    pass\nresponse.write(\'\\n    \', escape=False)\nif auth.user:\n    response.write(\'<h3>\', escape=False)\n    response.write(T(\'Hello\'))\n    response.write(\' \', escape=False)\n    response.write(auth.user.first_name)\n    response.write(\'\\n    \', escape=False)\n    if session.manager:\n        response.write(\' (manager)\', escape=False)\n        pass\n    response.write(\'\\n    \', escape=False)\n    if session.balance is not None and session.balance>0 and not request.function==\'pay\':\n        response.write(\', \', escape=False)\n        response.write(T(\'You have not paid for your registration; the cost is\'))\n        response.write(\' $\', escape=False)\n        response.write(T(\'%0.2f\' % session.balance))\n        response.write(\' [\', escape=False)\n        response.write(A(T(\'pay now\'),_href=t2.action(\'pay\')))\n        response.write(\']\\n    \', escape=False)\n    elif session.balance is not None and session.balance<0 and not request.function==\'pay\':\n        response.write(\', \', escape=False)\n        response.write(T(\'You have a credit of\'))\n        response.write(\' $\', escape=False)\n        response.write(T(\'%0.2f\' % -session.balance))\n        response.write(\' [\', escape=False)\n        response.write(A(T(\'info\'),_href=t2.action(\'pay\')))\n        response.write(\']\', escape=False)\n        pass\n    response.write(\'</h3>\', escape=False)\n    pass\nresponse.write(\'\\n    \', escape=False)\nresponse.write(\'\\n\\n<div class="frame">\\n<h2>\', escape=False)\nresponse.write(T(\'Financial Analysis\'))\nresponse.write(\'</h2>\\n<ul>\\n<li><b>\', escape=False)\nresponse.write(T(\'Total Amount Billed\'))\nresponse.write(\'</b>: $\', escape=False)\nresponse.write(billed)\nresponse.write(\'</li>\\n<li><b>\', escape=False)\nresponse.write(T(\'Total Amount Received\'))\nresponse.write(\'</b>: $\', escape=False)\nresponse.write(paid)\nresponse.write(\'</li>\\n<li><b>\', escape=False)\nresponse.write(T(\'Total Amount Still Due\'))\nresponse.write(\'</b>: $\', escape=False)\nresponse.write(due)\nresponse.write(\'</li>\\n</ul>\\n<a href="\', escape=False)\nresponse.write(URL(r=request,f="financials_csv/financials.csv"))\nresponse.write(\'">downloasd as CSV</a>\\n</div>\\n<div class="frame">\\n<h2>\', escape=False)\nresponse.write(T(\'Breakdown by person\'))\nresponse.write(\'</h2>\\n<table>\\n<tr>\\n<th>Id</th>\\n<th>Name</th>\\n<th>Donation</th>\\n<th>Total Amount billed</th>\\n<th>Transferred in</th>\\n<th>Transferred out</th>\\n<th>Amount paid</th>\\n<th>Balance due</th>\\n</tr>\\n\', escape=False)\nfor row in rows:\n    response.write(\'\\n<tr>\\n<td>\', escape=False)\n    response.write(row.id)\n    response.write(\'</td>\\n<td>\', escape=False)\n    response.write(A(row.first_name+\' \'+row.last_name,\n    _href=URL(r=request,f=\'impersonate\',args=row.id)))\n    response.write(\'</td>\\n<td style="text-align:right">$\', escape=False)\n    response.write(\'%.2f\' % row.donation_to_PSF)\n    response.write(\'</td>\\n<td style="text-align:right">$\', escape=False)\n    response.write(\'%.2f\' % row.amount_billed)\n    response.write(\'</td>\\n<td style="text-align:right">$\', escape=False)\n    response.write(\'%.2f\' % row.amount_added)\n    response.write(\'</td>\\n<td style="text-align:right">$\', escape=False)\n    response.write(\'%.2f\' % row.amount_subtracted)\n    response.write(\'</td>\\n<td style="text-align:right">$\', escape=False)\n    response.write(\'%.2f\' % row.amount_paid)\n    response.write(\'</td>\\n\', escape=False)\n    due=row.amount_billed+row.amount_added-row.amount_subtracted-row.amount_paid\n    response.write(\'\\n<td style="text-align:right">$\', escape=False)\n    response.write(\'%.2f\' % due)\n    response.write(\'</td>\\n</tr>\\n\', escape=False)\n    pass\nresponse.write(\'\\n</table>\\n</div>\\n\', escape=False)\nresponse.write(\'\\n    <br/><div class="frame"><h2>\', escape=False)\nresponse.write(T("About"))\nresponse.write(\' \', escape=False)\nresponse.write(response.title)\nresponse.write(\'</h2>\', escape=False)\nresponse.write(XML(response.footer))\nresponse.write(\'</div>\\n  </div>\\n  \', escape=False)\nif response.sidebar:\n    response.write(\'\\n  <div id="sidebar">  \\n    <ul>\\n      \', escape=False)\n    for _i in response.sidebar or []:\n        response.write(\'\\n      <li>\\n         <h2>\', escape=False)\n        response.write(_i[0])\n        response.write(\'</h2>\\n         \', escape=False)\n        if isinstance(_i[1],list):\n            response.write(\'\\n         <ul>\\n           \', escape=False)\n            for _j in _i[1]:\n                response.write(\'\\n           <li>\', escape=False)\n                response.write(A(_j[0],_href=_j[1]))\n                response.write(\'</li>\\n           \', escape=False)\n                pass\n            response.write(\'\\n         </ul>\\n         \', escape=False)\n        else:\n            response.write(\'\\n         <p>\', escape=False)\n            response.write(_i[1])\n            response.write(\'</p>\\n         \', escape=False)\n            pass\n        response.write(\'\\n      </li>\\n      \', escape=False)\n        pass\n    response.write(\'\\n    </ul>\\n  </div>\\n  \', escape=False)\n    pass\nresponse.write(\'\\n  <div style="clear: both;">&nbsp;</div>\\n  </div>\\n  <div id="footer">\\n    <p><a href="http://www.web2py.com.ar"><img src="\', escape=False)\nresponse.write(URL(r=request,c=\'static\',f=\'media/poweredby.png\'))\nresponse.write(\'" /></a></p>\\n  </div>\\n  <script type="text/javascript">\\nvar gaJsHost = (("https:" == document.location.protocol) ? "https://ssl." : "http://www.");\\ndocument.write(unescape("%3Cscript src=\\\'" + gaJsHost + "google-analytics.com/ga.js\\\' type=\\\'text/javascript\\\'%3E%3C/script%3E"));\\n</script>\\n<script type="text/javascript">\\ntry {\\nvar pageTracker = _gat._getTracker("UA-15712735-1");\\npageTracker._trackPageview();\\n} catch(err) {}</script>\\n</body>\\n</html>\\n\', escape=False)'
p7
sS'snapshot'
p8
(dp9
S'exception'
p10
(dp11
S'__hash__'
p12
S"<method-wrapper '__hash__' of exceptions.KeyError object>"
p13
sS'__setattr__'
p14
S"<method-wrapper '__setattr__' of exceptions.KeyError object>"
p15
sS'__reduce_ex__'
p16
S'<built-in method __reduce_ex__ of exceptions.KeyError object>'
p17
sS'__getslice__'
p18
S"<method-wrapper '__getslice__' of exceptions.KeyError object>"
p19
sS'__getitem__'
p20
S"<method-wrapper '__getitem__' of exceptions.KeyError object>"
p21
sS'__setstate__'
p22
S'<built-in method __setstate__ of exceptions.KeyError object>'
p23
sS'args'
p24
S"('donation_to_PSF',)"
p25
sS'__reduce__'
p26
S'<built-in method __reduce__ of exceptions.KeyError object>'
p27
sS'__str__'
p28
S"<method-wrapper '__str__' of exceptions.KeyError object>"
p29
sS'__format__'
p30
S'<built-in method __format__ of exceptions.KeyError object>'
p31
sS'__getattribute__'
p32
S"<method-wrapper '__getattribute__' of exceptions.KeyError object>"
p33
sS'__class__'
p34
S"<type 'exceptions.KeyError'>"
p35
sS'__unicode__'
p36
S'<built-in method __unicode__ of exceptions.KeyError object>'
p37
sS'__delattr__'
p38
S"<method-wrapper '__delattr__' of exceptions.KeyError object>"
p39
sS'__subclasshook__'
p40
S'<built-in method __subclasshook__ of type object>'
p41
sS'__repr__'
p42
S"<method-wrapper '__repr__' of exceptions.KeyError object>"
p43
sS'__dict__'
p44
S'{}'
p45
sS'__sizeof__'
p46
S'<built-in method __sizeof__ of exceptions.KeyError object>'
p47
sS'__doc__'
p48
S"'Mapping key not found.'"
p49
sS'__init__'
p50
S"<method-wrapper '__init__' of exceptions.KeyError object>"
p51
sS'__new__'
p52
S'<built-in method __new__ of type object>'
p53
ssS'evalue'
p54
S"'donation_to_PSF'"
p55
sS'request'
p56
ccopy_reg
_reconstructor
p57
(cgluon.html
BEAUTIFY
p58
c__builtin__
object
p59
NtRp60
(dp61
S'attributes'
p62
(dp63
sS'components'
p64
(lp65
g57
(cgluon.html
TABLE
p66
g59
NtRp67
(dp68
g62
(dp69
S'level'
p70
I5
ssS'parent'
p71
Nsg64
(lp72
g57
(cgluon.html
TR
p73
g59
NtRp74
(dp75
g62
(dp76
sg71
g67
sg64
(lp77
g57
(cgluon.html
TD
p78
g59
NtRp79
(dp80
g62
(dp81
S'_style'
p82
S'font-weight:bold;vertical-align:top'
p83
ssg71
g74
sg64
(lp84
S'ajax'
p85
asbag57
(g78
g59
NtRp86
(dp87
g62
(dp88
S'_valign'
p89
S'top'
p90
ssg71
g74
sg64
(lp91
S':'
asbag57
(g78
g59
NtRp92
(dp93
g62
(dp94
sg71
g74
sg64
(lp95
g57
(g58
g59
NtRp96
(dp97
g62
(dp98
g70
I5
ssg71
g92
sg64
(lp99
S'False'
p100
asbasbasbag57
(g73
g59
NtRp101
(dp102
g62
(dp103
sg71
g67
sg64
(lp104
g57
(g78
g59
NtRp105
(dp106
g62
(dp107
g82
g83
ssg71
g101
sg64
(lp108
S'application'
p109
asbag57
(g78
g59
NtRp110
(dp111
g62
(dp112
g89
g90
ssg71
g101
sg64
(lp113
S':'
asbag57
(g78
g59
NtRp114
(dp115
g62
(dp116
sg71
g101
sg64
(lp117
g57
(g58
g59
NtRp118
(dp119
g62
(dp120
g70
I5
ssg71
g114
sg64
(lp121
S'flisol2012'
p122
asbasbasbag57
(g73
g59
NtRp123
(dp124
g62
(dp125
sg71
g67
sg64
(lp126
g57
(g78
g59
NtRp127
(dp128
g62
(dp129
g82
g83
ssg71
g123
sg64
(lp130
g24
asbag57
(g78
g59
NtRp131
(dp132
g62
(dp133
g89
g90
ssg71
g123
sg64
(lp134
S':'
asbag57
(g78
g59
NtRp135
(dp136
g62
(dp137
sg71
g123
sg64
(lp138
g57
(g58
g59
NtRp139
(dp140
g62
(dp141
g70
I5
ssg71
g135
sg64
(lp142
g57
(g66
g59
NtRp143
(dp144
g62
(dp145
g70
I4
ssg71
Nsg64
(lp146
sbasbasbasbag57
(g73
g59
NtRp147
(dp148
g62
(dp149
sg71
g67
sg64
(lp150
g57
(g78
g59
NtRp151
(dp152
g62
(dp153
g82
g83
ssg71
g147
sg64
(lp154
S'body'
p155
asbag57
(g78
g59
NtRp156
(dp157
g62
(dp158
g89
g90
ssg71
g147
sg64
(lp159
S':'
asbag57
(g78
g59
NtRp160
(dp161
g62
(dp162
sg71
g147
sg64
(lp163
g57
(g58
g59
NtRp164
(dp165
g62
(dp166
g70
I5
ssg71
g160
sg64
(lp167
S'<cStringIO.StringO object at 0x22e9148>'
p168
asbasbasbag57
(g73
g59
NtRp169
(dp170
g62
(dp171
sg71
g67
sg64
(lp172
g57
(g78
g59
NtRp173
(dp174
g62
(dp175
g82
g83
ssg71
g169
sg64
(lp176
S'client'
p177
asbag57
(g78
g59
NtRp178
(dp179
g62
(dp180
g89
g90
ssg71
g169
sg64
(lp181
S':'
asbag57
(g78
g59
NtRp182
(dp183
g62
(dp184
sg71
g169
sg64
(lp185
g57
(g58
g59
NtRp186
(dp187
g62
(dp188
g70
I5
ssg71
g182
sg64
(lp189
S'127.0.0.1'
p190
asbasbasbag57
(g73
g59
NtRp191
(dp192
g62
(dp193
sg71
g67
sg64
(lp194
g57
(g78
g59
NtRp195
(dp196
g62
(dp197
g82
g83
ssg71
g191
sg64
(lp198
S'controller'
p199
asbag57
(g78
g59
NtRp200
(dp201
g62
(dp202
g89
g90
ssg71
g191
sg64
(lp203
S':'
asbag57
(g78
g59
NtRp204
(dp205
g62
(dp206
sg71
g191
sg64
(lp207
g57
(g58
g59
NtRp208
(dp209
g62
(dp210
g70
I5
ssg71
g204
sg64
(lp211
S'default'
p212
asbasbasbag57
(g73
g59
NtRp213
(dp214
g62
(dp215
sg71
g67
sg64
(lp216
g57
(g78
g59
NtRp217
(dp218
g62
(dp219
g82
g83
ssg71
g213
sg64
(lp220
S'cookies'
p221
asbag57
(g78
g59
NtRp222
(dp223
g62
(dp224
g89
g90
ssg71
g213
sg64
(lp225
S':'
asbag57
(g78
g59
NtRp226
(dp227
g62
(dp228
sg71
g213
sg64
(lp229
g57
(g58
g59
NtRp230
(dp231
g62
(dp232
g70
I5
ssg71
g226
sg64
(lp233
g57
(g66
g59
NtRp234
(dp235
g62
(dp236
g70
I4
ssg71
Nsg64
(lp237
g57
(g73
g59
NtRp238
(dp239
g62
(dp240
sg71
g234
sg64
(lp241
g57
(g78
g59
NtRp242
(dp243
g62
(dp244
g82
g83
ssg71
g238
sg64
(lp245
S'session_id_admin'
p246
asbag57
(g78
g59
NtRp247
(dp248
g62
(dp249
g89
g90
ssg71
g238
sg64
(lp250
S':'
asbag57
(g78
g59
NtRp251
(dp252
g62
(dp253
sg71
g238
sg64
(lp254
g57
(g58
g59
NtRp255
(dp256
g62
(dp257
g70
I4
ssg71
g251
sg64
(lp258
g57
(g66
g59
NtRp259
(dp260
g62
(dp261
g70
I3
ssg71
Nsg64
(lp262
g57
(g73
g59
NtRp263
(dp264
g62
(dp265
sg71
g259
sg64
(lp266
g57
(g78
g59
NtRp267
(dp268
g62
(dp269
g82
g83
ssg71
g263
sg64
(lp270
S'comment'
p271
asbag57
(g78
g59
NtRp272
(dp273
g62
(dp274
g89
g90
ssg71
g263
sg64
(lp275
S':'
asbag57
(g78
g59
NtRp276
(dp277
g62
(dp278
sg71
g263
sg64
(lp279
g57
(g58
g59
NtRp280
(dp281
g62
(dp282
g70
I3
ssg71
g276
sg64
(lp283
S''
asbasbasbag57
(g73
g59
NtRp284
(dp285
g62
(dp286
sg71
g259
sg64
(lp287
g57
(g78
g59
NtRp288
(dp289
g62
(dp290
g82
g83
ssg71
g284
sg64
(lp291
S'domain'
p292
asbag57
(g78
g59
NtRp293
(dp294
g62
(dp295
g89
g90
ssg71
g284
sg64
(lp296
S':'
asbag57
(g78
g59
NtRp297
(dp298
g62
(dp299
sg71
g284
sg64
(lp300
g57
(g58
g59
NtRp301
(dp302
g62
(dp303
g70
I3
ssg71
g297
sg64
(lp304
S''
asbasbasbag57
(g73
g59
NtRp305
(dp306
g62
(dp307
sg71
g259
sg64
(lp308
g57
(g78
g59
NtRp309
(dp310
g62
(dp311
g82
g83
ssg71
g305
sg64
(lp312
S'expires'
p313
asbag57
(g78
g59
NtRp314
(dp315
g62
(dp316
g89
g90
ssg71
g305
sg64
(lp317
S':'
asbag57
(g78
g59
NtRp318
(dp319
g62
(dp320
sg71
g305
sg64
(lp321
g57
(g58
g59
NtRp322
(dp323
g62
(dp324
g70
I3
ssg71
g318
sg64
(lp325
S''
asbasbasbag57
(g73
g59
NtRp326
(dp327
g62
(dp328
sg71
g259
sg64
(lp329
g57
(g78
g59
NtRp330
(dp331
g62
(dp332
g82
g83
ssg71
g326
sg64
(lp333
S'httponly'
p334
asbag57
(g78
g59
NtRp335
(dp336
g62
(dp337
g89
g90
ssg71
g326
sg64
(lp338
S':'
asbag57
(g78
g59
NtRp339
(dp340
g62
(dp341
sg71
g326
sg64
(lp342
g57
(g58
g59
NtRp343
(dp344
g62
(dp345
g70
I3
ssg71
g339
sg64
(lp346
S''
asbasbasbag57
(g73
g59
NtRp347
(dp348
g62
(dp349
sg71
g259
sg64
(lp350
g57
(g78
g59
NtRp351
(dp352
g62
(dp353
g82
g83
ssg71
g347
sg64
(lp354
S'max-age'
p355
asbag57
(g78
g59
NtRp356
(dp357
g62
(dp358
g89
g90
ssg71
g347
sg64
(lp359
S':'
asbag57
(g78
g59
NtRp360
(dp361
g62
(dp362
sg71
g347
sg64
(lp363
g57
(g58
g59
NtRp364
(dp365
g62
(dp366
g70
I3
ssg71
g360
sg64
(lp367
S''
asbasbasbag57
(g73
g59
NtRp368
(dp369
g62
(dp370
sg71
g259
sg64
(lp371
g57
(g78
g59
NtRp372
(dp373
g62
(dp374
g82
g83
ssg71
g368
sg64
(lp375
S'path'
p376
asbag57
(g78
g59
NtRp377
(dp378
g62
(dp379
g89
g90
ssg71
g368
sg64
(lp380
S':'
asbag57
(g78
g59
NtRp381
(dp382
g62
(dp383
sg71
g368
sg64
(lp384
g57
(g58
g59
NtRp385
(dp386
g62
(dp387
g70
I3
ssg71
g381
sg64
(lp388
S''
asbasbasbag57
(g73
g59
NtRp389
(dp390
g62
(dp391
sg71
g259
sg64
(lp392
g57
(g78
g59
NtRp393
(dp394
g62
(dp395
g82
g83
ssg71
g389
sg64
(lp396
S'secure'
p397
asbag57
(g78
g59
NtRp398
(dp399
g62
(dp400
g89
g90
ssg71
g389
sg64
(lp401
S':'
asbag57
(g78
g59
NtRp402
(dp403
g62
(dp404
sg71
g389
sg64
(lp405
g57
(g58
g59
NtRp406
(dp407
g62
(dp408
g70
I3
ssg71
g402
sg64
(lp409
S''
asbasbasbag57
(g73
g59
NtRp410
(dp411
g62
(dp412
sg71
g259
sg64
(lp413
g57
(g78
g59
NtRp414
(dp415
g62
(dp416
g82
g83
ssg71
g410
sg64
(lp417
S'version'
p418
asbag57
(g78
g59
NtRp419
(dp420
g62
(dp421
g89
g90
ssg71
g410
sg64
(lp422
S':'
asbag57
(g78
g59
NtRp423
(dp424
g62
(dp425
sg71
g410
sg64
(lp426
g57
(g58
g59
NtRp427
(dp428
g62
(dp429
g70
I3
ssg71
g423
sg64
(lp430
S''
asbasbasbasbasbasbasbag57
(g73
g59
NtRp431
(dp432
g62
(dp433
sg71
g234
sg64
(lp434
g57
(g78
g59
NtRp435
(dp436
g62
(dp437
g82
g83
ssg71
g431
sg64
(lp438
S'session_id_flisol2012'
p439
asbag57
(g78
g59
NtRp440
(dp441
g62
(dp442
g89
g90
ssg71
g431
sg64
(lp443
S':'
asbag57
(g78
g59
NtRp444
(dp445
g62
(dp446
sg71
g431
sg64
(lp447
g57
(g58
g59
NtRp448
(dp449
g62
(dp450
g70
I4
ssg71
g444
sg64
(lp451
g57
(g66
g59
NtRp452
(dp453
g62
(dp454
g70
I3
ssg71
Nsg64
(lp455
g57
(g73
g59
NtRp456
(dp457
g62
(dp458
sg71
g452
sg64
(lp459
g57
(g78
g59
NtRp460
(dp461
g62
(dp462
g82
g83
ssg71
g456
sg64
(lp463
g271
asbag57
(g78
g59
NtRp464
(dp465
g62
(dp466
g89
g90
ssg71
g456
sg64
(lp467
S':'
asbag57
(g78
g59
NtRp468
(dp469
g62
(dp470
sg71
g456
sg64
(lp471
g57
(g58
g59
NtRp472
(dp473
g62
(dp474
g70
I3
ssg71
g468
sg64
(lp475
S''
asbasbasbag57
(g73
g59
NtRp476
(dp477
g62
(dp478
sg71
g452
sg64
(lp479
g57
(g78
g59
NtRp480
(dp481
g62
(dp482
g82
g83
ssg71
g476
sg64
(lp483
g292
asbag57
(g78
g59
NtRp484
(dp485
g62
(dp486
g89
g90
ssg71
g476
sg64
(lp487
S':'
asbag57
(g78
g59
NtRp488
(dp489
g62
(dp490
sg71
g476
sg64
(lp491
g57
(g58
g59
NtRp492
(dp493
g62
(dp494
g70
I3
ssg71
g488
sg64
(lp495
S''
asbasbasbag57
(g73
g59
NtRp496
(dp497
g62
(dp498
sg71
g452
sg64
(lp499
g57
(g78
g59
NtRp500
(dp501
g62
(dp502
g82
g83
ssg71
g496
sg64
(lp503
g313
asbag57
(g78
g59
NtRp504
(dp505
g62
(dp506
g89
g90
ssg71
g496
sg64
(lp507
S':'
asbag57
(g78
g59
NtRp508
(dp509
g62
(dp510
sg71
g496
sg64
(lp511
g57
(g58
g59
NtRp512
(dp513
g62
(dp514
g70
I3
ssg71
g508
sg64
(lp515
S''
asbasbasbag57
(g73
g59
NtRp516
(dp517
g62
(dp518
sg71
g452
sg64
(lp519
g57
(g78
g59
NtRp520
(dp521
g62
(dp522
g82
g83
ssg71
g516
sg64
(lp523
g334
asbag57
(g78
g59
NtRp524
(dp525
g62
(dp526
g89
g90
ssg71
g516
sg64
(lp527
S':'
asbag57
(g78
g59
NtRp528
(dp529
g62
(dp530
sg71
g516
sg64
(lp531
g57
(g58
g59
NtRp532
(dp533
g62
(dp534
g70
I3
ssg71
g528
sg64
(lp535
S''
asbasbasbag57
(g73
g59
NtRp536
(dp537
g62
(dp538
sg71
g452
sg64
(lp539
g57
(g78
g59
NtRp540
(dp541
g62
(dp542
g82
g83
ssg71
g536
sg64
(lp543
g355
asbag57
(g78
g59
NtRp544
(dp545
g62
(dp546
g89
g90
ssg71
g536
sg64
(lp547
S':'
asbag57
(g78
g59
NtRp548
(dp549
g62
(dp550
sg71
g536
sg64
(lp551
g57
(g58
g59
NtRp552
(dp553
g62
(dp554
g70
I3
ssg71
g548
sg64
(lp555
S''
asbasbasbag57
(g73
g59
NtRp556
(dp557
g62
(dp558
sg71
g452
sg64
(lp559
g57
(g78
g59
NtRp560
(dp561
g62
(dp562
g82
g83
ssg71
g556
sg64
(lp563
g376
asbag57
(g78
g59
NtRp564
(dp565
g62
(dp566
g89
g90
ssg71
g556
sg64
(lp567
S':'
asbag57
(g78
g59
NtRp568
(dp569
g62
(dp570
sg71
g556
sg64
(lp571
g57
(g58
g59
NtRp572
(dp573
g62
(dp574
g70
I3
ssg71
g568
sg64
(lp575
S''
asbasbasbag57
(g73
g59
NtRp576
(dp577
g62
(dp578
sg71
g452
sg64
(lp579
g57
(g78
g59
NtRp580
(dp581
g62
(dp582
g82
g83
ssg71
g576
sg64
(lp583
g397
asbag57
(g78
g59
NtRp584
(dp585
g62
(dp586
g89
g90
ssg71
g576
sg64
(lp587
S':'
asbag57
(g78
g59
NtRp588
(dp589
g62
(dp590
sg71
g576
sg64
(lp591
g57
(g58
g59
NtRp592
(dp593
g62
(dp594
g70
I3
ssg71
g588
sg64
(lp595
S''
asbasbasbag57
(g73
g59
NtRp596
(dp597
g62
(dp598
sg71
g452
sg64
(lp599
g57
(g78
g59
NtRp600
(dp601
g62
(dp602
g82
g83
ssg71
g596
sg64
(lp603
g418
asbag57
(g78
g59
NtRp604
(dp605
g62
(dp606
g89
g90
ssg71
g596
sg64
(lp607
S':'
asbag57
(g78
g59
NtRp608
(dp609
g62
(dp610
sg71
g596
sg64
(lp611
g57
(g58
g59
NtRp612
(dp613
g62
(dp614
g70
I3
ssg71
g608
sg64
(lp615
S''
asbasbasbasbasbasbasbag57
(g73
g59
NtRp616
(dp617
g62
(dp618
sg71
g234
sg64
(lp619
g57
(g78
g59
NtRp620
(dp621
g62
(dp622
g82
g83
ssg71
g616
sg64
(lp623
S'session_id_reingart'
p624
asbag57
(g78
g59
NtRp625
(dp626
g62
(dp627
g89
g90
ssg71
g616
sg64
(lp628
S':'
asbag57
(g78
g59
NtRp629
(dp630
g62
(dp631
sg71
g616
sg64
(lp632
g57
(g58
g59
NtRp633
(dp634
g62
(dp635
g70
I4
ssg71
g629
sg64
(lp636
g57
(g66
g59
NtRp637
(dp638
g62
(dp639
g70
I3
ssg71
Nsg64
(lp640
g57
(g73
g59
NtRp641
(dp642
g62
(dp643
sg71
g637
sg64
(lp644
g57
(g78
g59
NtRp645
(dp646
g62
(dp647
g82
g83
ssg71
g641
sg64
(lp648
g271
asbag57
(g78
g59
NtRp649
(dp650
g62
(dp651
g89
g90
ssg71
g641
sg64
(lp652
S':'
asbag57
(g78
g59
NtRp653
(dp654
g62
(dp655
sg71
g641
sg64
(lp656
g57
(g58
g59
NtRp657
(dp658
g62
(dp659
g70
I3
ssg71
g653
sg64
(lp660
S''
asbasbasbag57
(g73
g59
NtRp661
(dp662
g62
(dp663
sg71
g637
sg64
(lp664
g57
(g78
g59
NtRp665
(dp666
g62
(dp667
g82
g83
ssg71
g661
sg64
(lp668
g292
asbag57
(g78
g59
NtRp669
(dp670
g62
(dp671
g89
g90
ssg71
g661
sg64
(lp672
S':'
asbag57
(g78
g59
NtRp673
(dp674
g62
(dp675
sg71
g661
sg64
(lp676
g57
(g58
g59
NtRp677
(dp678
g62
(dp679
g70
I3
ssg71
g673
sg64
(lp680
S''
asbasbasbag57
(g73
g59
NtRp681
(dp682
g62
(dp683
sg71
g637
sg64
(lp684
g57
(g78
g59
NtRp685
(dp686
g62
(dp687
g82
g83
ssg71
g681
sg64
(lp688
g313
asbag57
(g78
g59
NtRp689
(dp690
g62
(dp691
g89
g90
ssg71
g681
sg64
(lp692
S':'
asbag57
(g78
g59
NtRp693
(dp694
g62
(dp695
sg71
g681
sg64
(lp696
g57
(g58
g59
NtRp697
(dp698
g62
(dp699
g70
I3
ssg71
g693
sg64
(lp700
S''
asbasbasbag57
(g73
g59
NtRp701
(dp702
g62
(dp703
sg71
g637
sg64
(lp704
g57
(g78
g59
NtRp705
(dp706
g62
(dp707
g82
g83
ssg71
g701
sg64
(lp708
g334
asbag57
(g78
g59
NtRp709
(dp710
g62
(dp711
g89
g90
ssg71
g701
sg64
(lp712
S':'
asbag57
(g78
g59
NtRp713
(dp714
g62
(dp715
sg71
g701
sg64
(lp716
g57
(g58
g59
NtRp717
(dp718
g62
(dp719
g70
I3
ssg71
g713
sg64
(lp720
S''
asbasbasbag57
(g73
g59
NtRp721
(dp722
g62
(dp723
sg71
g637
sg64
(lp724
g57
(g78
g59
NtRp725
(dp726
g62
(dp727
g82
g83
ssg71
g721
sg64
(lp728
g355
asbag57
(g78
g59
NtRp729
(dp730
g62
(dp731
g89
g90
ssg71
g721
sg64
(lp732
S':'
asbag57
(g78
g59
NtRp733
(dp734
g62
(dp735
sg71
g721
sg64
(lp736
g57
(g58
g59
NtRp737
(dp738
g62
(dp739
g70
I3
ssg71
g733
sg64
(lp740
S''
asbasbasbag57
(g73
g59
NtRp741
(dp742
g62
(dp743
sg71
g637
sg64
(lp744
g57
(g78
g59
NtRp745
(dp746
g62
(dp747
g82
g83
ssg71
g741
sg64
(lp748
g376
asbag57
(g78
g59
NtRp749
(dp750
g62
(dp751
g89
g90
ssg71
g741
sg64
(lp752
S':'
asbag57
(g78
g59
NtRp753
(dp754
g62
(dp755
sg71
g741
sg64
(lp756
g57
(g58
g59
NtRp757
(dp758
g62
(dp759
g70
I3
ssg71
g753
sg64
(lp760
S''
asbasbasbag57
(g73
g59
NtRp761
(dp762
g62
(dp763
sg71
g637
sg64
(lp764
g57
(g78
g59
NtRp765
(dp766
g62
(dp767
g82
g83
ssg71
g761
sg64
(lp768
g397
asbag57
(g78
g59
NtRp769
(dp770
g62
(dp771
g89
g90
ssg71
g761
sg64
(lp772
S':'
asbag57
(g78
g59
NtRp773
(dp774
g62
(dp775
sg71
g761
sg64
(lp776
g57
(g58
g59
NtRp777
(dp778
g62
(dp779
g70
I3
ssg71
g773
sg64
(lp780
S''
asbasbasbag57
(g73
g59
NtRp781
(dp782
g62
(dp783
sg71
g637
sg64
(lp784
g57
(g78
g59
NtRp785
(dp786
g62
(dp787
g82
g83
ssg71
g781
sg64
(lp788
g418
asbag57
(g78
g59
NtRp789
(dp790
g62
(dp791
g89
g90
ssg71
g781
sg64
(lp792
S':'
asbag57
(g78
g59
NtRp793
(dp794
g62
(dp795
sg71
g781
sg64
(lp796
g57
(g58
g59
NtRp797
(dp798
g62
(dp799
g70
I3
ssg71
g793
sg64
(lp800
S''
asbasbasbasbasbasbasbag57
(g73
g59
NtRp801
(dp802
g62
(dp803
sg71
g234
sg64
(lp804
g57
(g78
g59
NtRp805
(dp806
g62
(dp807
g82
g83
ssg71
g801
sg64
(lp808
S'session_id_welcome'
p809
asbag57
(g78
g59
NtRp810
(dp811
g62
(dp812
g89
g90
ssg71
g801
sg64
(lp813
S':'
asbag57
(g78
g59
NtRp814
(dp815
g62
(dp816
sg71
g801
sg64
(lp817
g57
(g58
g59
NtRp818
(dp819
g62
(dp820
g70
I4
ssg71
g814
sg64
(lp821
g57
(g66
g59
NtRp822
(dp823
g62
(dp824
g70
I3
ssg71
Nsg64
(lp825
g57
(g73
g59
NtRp826
(dp827
g62
(dp828
sg71
g822
sg64
(lp829
g57
(g78
g59
NtRp830
(dp831
g62
(dp832
g82
g83
ssg71
g826
sg64
(lp833
g271
asbag57
(g78
g59
NtRp834
(dp835
g62
(dp836
g89
g90
ssg71
g826
sg64
(lp837
S':'
asbag57
(g78
g59
NtRp838
(dp839
g62
(dp840
sg71
g826
sg64
(lp841
g57
(g58
g59
NtRp842
(dp843
g62
(dp844
g70
I3
ssg71
g838
sg64
(lp845
S''
asbasbasbag57
(g73
g59
NtRp846
(dp847
g62
(dp848
sg71
g822
sg64
(lp849
g57
(g78
g59
NtRp850
(dp851
g62
(dp852
g82
g83
ssg71
g846
sg64
(lp853
g292
asbag57
(g78
g59
NtRp854
(dp855
g62
(dp856
g89
g90
ssg71
g846
sg64
(lp857
S':'
asbag57
(g78
g59
NtRp858
(dp859
g62
(dp860
sg71
g846
sg64
(lp861
g57
(g58
g59
NtRp862
(dp863
g62
(dp864
g70
I3
ssg71
g858
sg64
(lp865
S''
asbasbasbag57
(g73
g59
NtRp866
(dp867
g62
(dp868
sg71
g822
sg64
(lp869
g57
(g78
g59
NtRp870
(dp871
g62
(dp872
g82
g83
ssg71
g866
sg64
(lp873
g313
asbag57
(g78
g59
NtRp874
(dp875
g62
(dp876
g89
g90
ssg71
g866
sg64
(lp877
S':'
asbag57
(g78
g59
NtRp878
(dp879
g62
(dp880
sg71
g866
sg64
(lp881
g57
(g58
g59
NtRp882
(dp883
g62
(dp884
g70
I3
ssg71
g878
sg64
(lp885
S''
asbasbasbag57
(g73
g59
NtRp886
(dp887
g62
(dp888
sg71
g822
sg64
(lp889
g57
(g78
g59
NtRp890
(dp891
g62
(dp892
g82
g83
ssg71
g886
sg64
(lp893
g334
asbag57
(g78
g59
NtRp894
(dp895
g62
(dp896
g89
g90
ssg71
g886
sg64
(lp897
S':'
asbag57
(g78
g59
NtRp898
(dp899
g62
(dp900
sg71
g886
sg64
(lp901
g57
(g58
g59
NtRp902
(dp903
g62
(dp904
g70
I3
ssg71
g898
sg64
(lp905
S''
asbasbasbag57
(g73
g59
NtRp906
(dp907
g62
(dp908
sg71
g822
sg64
(lp909
g57
(g78
g59
NtRp910
(dp911
g62
(dp912
g82
g83
ssg71
g906
sg64
(lp913
g355
asbag57
(g78
g59
NtRp914
(dp915
g62
(dp916
g89
g90
ssg71
g906
sg64
(lp917
S':'
asbag57
(g78
g59
NtRp918
(dp919
g62
(dp920
sg71
g906
sg64
(lp921
g57
(g58
g59
NtRp922
(dp923
g62
(dp924
g70
I3
ssg71
g918
sg64
(lp925
S''
asbasbasbag57
(g73
g59
NtRp926
(dp927
g62
(dp928
sg71
g822
sg64
(lp929
g57
(g78
g59
NtRp930
(dp931
g62
(dp932
g82
g83
ssg71
g926
sg64
(lp933
g376
asbag57
(g78
g59
NtRp934
(dp935
g62
(dp936
g89
g90
ssg71
g926
sg64
(lp937
S':'
asbag57
(g78
g59
NtRp938
(dp939
g62
(dp940
sg71
g926
sg64
(lp941
g57
(g58
g59
NtRp942
(dp943
g62
(dp944
g70
I3
ssg71
g938
sg64
(lp945
S''
asbasbasbag57
(g73
g59
NtRp946
(dp947
g62
(dp948
sg71
g822
sg64
(lp949
g57
(g78
g59
NtRp950
(dp951
g62
(dp952
g82
g83
ssg71
g946
sg64
(lp953
g397
asbag57
(g78
g59
NtRp954
(dp955
g62
(dp956
g89
g90
ssg71
g946
sg64
(lp957
S':'
asbag57
(g78
g59
NtRp958
(dp959
g62
(dp960
sg71
g946
sg64
(lp961
g57
(g58
g59
NtRp962
(dp963
g62
(dp964
g70
I3
ssg71
g958
sg64
(lp965
S''
asbasbasbag57
(g73
g59
NtRp966
(dp967
g62
(dp968
sg71
g822
sg64
(lp969
g57
(g78
g59
NtRp970
(dp971
g62
(dp972
g82
g83
ssg71
g966
sg64
(lp973
g418
asbag57
(g78
g59
NtRp974
(dp975
g62
(dp976
g89
g90
ssg71
g966
sg64
(lp977
S':'
asbag57
(g78
g59
NtRp978
(dp979
g62
(dp980
sg71
g966
sg64
(lp981
g57
(g58
g59
NtRp982
(dp983
g62
(dp984
g70
I3
ssg71
g978
sg64
(lp985
S''
asbasbasbasbasbasbasbasbasbasbasbag57
(g73
g59
NtRp986
(dp987
g62
(dp988
sg71
g67
sg64
(lp989
g57
(g78
g59
NtRp990
(dp991
g62
(dp992
g82
g83
ssg71
g986
sg64
(lp993
S'env'
p994
asbag57
(g78
g59
NtRp995
(dp996
g62
(dp997
g89
g90
ssg71
g986
sg64
(lp998
S':'
asbag57
(g78
g59
NtRp999
(dp1000
g62
(dp1001
sg71
g986
sg64
(lp1002
g57
(g58
g59
NtRp1003
(dp1004
g62
(dp1005
g70
I5
ssg71
g999
sg64
(lp1006
g57
(g66
g59
NtRp1007
(dp1008
g62
(dp1009
g70
I4
ssg71
Nsg64
(lp1010
g57
(g73
g59
NtRp1011
(dp1012
g62
(dp1013
sg71
g1007
sg64
(lp1014
g57
(g78
g59
NtRp1015
(dp1016
g62
(dp1017
g82
g83
ssg71
g1011
sg64
(lp1018
S'app_folders'
p1019
asbag57
(g78
g59
NtRp1020
(dp1021
g62
(dp1022
g89
g90
ssg71
g1011
sg64
(lp1023
S':'
asbag57
(g78
g59
NtRp1024
(dp1025
g62
(dp1026
sg71
g1011
sg64
(lp1027
g57
(g58
g59
NtRp1028
(dp1029
g62
(dp1030
g70
I4
ssg71
g1024
sg64
(lp1031
S"set(['/home/marco/flisol2012/web2py/applications/welcome/', '/home/marco/flisol2012/web2py/applications/flisol2012/', '/home/marco/flisol2012/web2py/applications/admin/'])"
p1032
asbasbasbag57
(g73
g59
NtRp1033
(dp1034
g62
(dp1035
sg71
g1007
sg64
(lp1036
g57
(g78
g59
NtRp1037
(dp1038
g62
(dp1039
g82
g83
ssg71
g1033
sg64
(lp1040
S'applications_parent'
p1041
asbag57
(g78
g59
NtRp1042
(dp1043
g62
(dp1044
g89
g90
ssg71
g1033
sg64
(lp1045
S':'
asbag57
(g78
g59
NtRp1046
(dp1047
g62
(dp1048
sg71
g1033
sg64
(lp1049
g57
(g58
g59
NtRp1050
(dp1051
g62
(dp1052
g70
I4
ssg71
g1046
sg64
(lp1053
S'/home/marco/flisol2012/web2py'
p1054
asbasbasbag57
(g73
g59
NtRp1055
(dp1056
g62
(dp1057
sg71
g1007
sg64
(lp1058
g57
(g78
g59
NtRp1059
(dp1060
g62
(dp1061
g82
g83
ssg71
g1055
sg64
(lp1062
S'cmd_args'
p1063
asbag57
(g78
g59
NtRp1064
(dp1065
g62
(dp1066
g89
g90
ssg71
g1055
sg64
(lp1067
S':'
asbag57
(g78
g59
NtRp1068
(dp1069
g62
(dp1070
sg71
g1055
sg64
(lp1071
g57
(g58
g59
NtRp1072
(dp1073
g62
(dp1074
g70
I4
ssg71
g1068
sg64
(lp1075
g57
(g66
g59
NtRp1076
(dp1077
g62
(dp1078
g70
I3
ssg71
Nsg64
(lp1079
sbasbasbasbag57
(g73
g59
NtRp1080
(dp1081
g62
(dp1082
sg71
g1007
sg64
(lp1083
g57
(g78
g59
NtRp1084
(dp1085
g62
(dp1086
g82
g83
ssg71
g1080
sg64
(lp1087
S'cmd_options'
p1088
asbag57
(g78
g59
NtRp1089
(dp1090
g62
(dp1091
g89
g90
ssg71
g1080
sg64
(lp1092
S':'
asbag57
(g78
g59
NtRp1093
(dp1094
g62
(dp1095
sg71
g1080
sg64
(lp1096
g57
(g58
g59
NtRp1097
(dp1098
g62
(dp1099
g70
I4
ssg71
g1093
sg64
(lp1100
S"<Values at 0x1bd6908: {'verbose': False, 'ip': '127.0.0.1', 'shutdown_timeout': 5, 'taskbar': False, 'nocron': False, 'pid_filename': 'httpserver.pid', 'maxthreads': None, 'softcron': False, 'server_name': 'malena', 'bpython': False, 'nogui': False, 'port': 8000, 'extcron': False, 'debuglevel': 30, 'test': None, 'folder': '/home/marco/flisol2012/web2py', 'config': '', 'import_models': False, 'winservice': '', 'shell': None, 'run': '', 'log_filename': 'httpserver.log', 'args': [''], 'socket_timeout': 5, 'ssl_ca_certificate': None, 'scheduler': None, 'profiler_filename': None, 'ssl_private_key': '', 'password': 'asd', 'request_queue_size': 5, 'ssl_certificate': '', 'cronjob': False, 'numthreads': None, 'quiet': False, 'interfaces': None, 'minthreads': None, 'timeout': 10, 'plain': False, 'nobanner': False}>"
p1101
asbasbasbag57
(g73
g59
NtRp1102
(dp1103
g62
(dp1104
sg71
g1007
sg64
(lp1105
g57
(g78
g59
NtRp1106
(dp1107
g62
(dp1108
g82
g83
ssg71
g1102
sg64
(lp1109
S'db_sessions'
p1110
asbag57
(g78
g59
NtRp1111
(dp1112
g62
(dp1113
g89
g90
ssg71
g1102
sg64
(lp1114
S':'
asbag57
(g78
g59
NtRp1115
(dp1116
g62
(dp1117
sg71
g1102
sg64
(lp1118
g57
(g58
g59
NtRp1119
(dp1120
g62
(dp1121
g70
I4
ssg71
g1115
sg64
(lp1122
S'set([])'
p1123
asbasbasbag57
(g73
g59
NtRp1124
(dp1125
g62
(dp1126
sg71
g1007
sg64
(lp1127
g57
(g78
g59
NtRp1128
(dp1129
g62
(dp1130
g82
g83
ssg71
g1124
sg64
(lp1131
S'debugging'
p1132
asbag57
(g78
g59
NtRp1133
(dp1134
g62
(dp1135
g89
g90
ssg71
g1124
sg64
(lp1136
S':'
asbag57
(g78
g59
NtRp1137
(dp1138
g62
(dp1139
sg71
g1124
sg64
(lp1140
g57
(g58
g59
NtRp1141
(dp1142
g62
(dp1143
g70
I4
ssg71
g1137
sg64
(lp1144
g100
asbasbasbag57
(g73
g59
NtRp1145
(dp1146
g62
(dp1147
sg71
g1007
sg64
(lp1148
g57
(g78
g59
NtRp1149
(dp1150
g62
(dp1151
g82
g83
ssg71
g1145
sg64
(lp1152
S'gluon_parent'
p1153
asbag57
(g78
g59
NtRp1154
(dp1155
g62
(dp1156
g89
g90
ssg71
g1145
sg64
(lp1157
S':'
asbag57
(g78
g59
NtRp1158
(dp1159
g62
(dp1160
sg71
g1145
sg64
(lp1161
g57
(g58
g59
NtRp1162
(dp1163
g62
(dp1164
g70
I4
ssg71
g1158
sg64
(lp1165
S'/home/marco/flisol2012/web2py'
p1166
asbasbasbag57
(g73
g59
NtRp1167
(dp1168
g62
(dp1169
sg71
g1007
sg64
(lp1170
g57
(g78
g59
NtRp1171
(dp1172
g62
(dp1173
g82
g83
ssg71
g1167
sg64
(lp1174
S'http_accept'
p1175
asbag57
(g78
g59
NtRp1176
(dp1177
g62
(dp1178
g89
g90
ssg71
g1167
sg64
(lp1179
S':'
asbag57
(g78
g59
NtRp1180
(dp1181
g62
(dp1182
sg71
g1167
sg64
(lp1183
g57
(g58
g59
NtRp1184
(dp1185
g62
(dp1186
g70
I4
ssg71
g1180
sg64
(lp1187
S'text/html,application/xhtml+xml,application/xml;q=0.9,*/*;q=0.8'
p1188
asbasbasbag57
(g73
g59
NtRp1189
(dp1190
g62
(dp1191
sg71
g1007
sg64
(lp1192
g57
(g78
g59
NtRp1193
(dp1194
g62
(dp1195
g82
g83
ssg71
g1189
sg64
(lp1196
S'http_accept_encoding'
p1197
asbag57
(g78
g59
NtRp1198
(dp1199
g62
(dp1200
g89
g90
ssg71
g1189
sg64
(lp1201
S':'
asbag57
(g78
g59
NtRp1202
(dp1203
g62
(dp1204
sg71
g1189
sg64
(lp1205
g57
(g58
g59
NtRp1206
(dp1207
g62
(dp1208
g70
I4
ssg71
g1202
sg64
(lp1209
S'gzip, deflate'
p1210
asbasbasbag57
(g73
g59
NtRp1211
(dp1212
g62
(dp1213
sg71
g1007
sg64
(lp1214
g57
(g78
g59
NtRp1215
(dp1216
g62
(dp1217
g82
g83
ssg71
g1211
sg64
(lp1218
S'http_accept_language'
p1219
asbag57
(g78
g59
NtRp1220
(dp1221
g62
(dp1222
g89
g90
ssg71
g1211
sg64
(lp1223
S':'
asbag57
(g78
g59
NtRp1224
(dp1225
g62
(dp1226
sg71
g1211
sg64
(lp1227
g57
(g58
g59
NtRp1228
(dp1229
g62
(dp1230
g70
I4
ssg71
g1224
sg64
(lp1231
S'es-ar,es;q=0.8,en-us;q=0.5,en;q=0.3'
p1232
asbasbasbag57
(g73
g59
NtRp1233
(dp1234
g62
(dp1235
sg71
g1007
sg64
(lp1236
g57
(g78
g59
NtRp1237
(dp1238
g62
(dp1239
g82
g83
ssg71
g1233
sg64
(lp1240
S'http_connection'
p1241
asbag57
(g78
g59
NtRp1242
(dp1243
g62
(dp1244
g89
g90
ssg71
g1233
sg64
(lp1245
S':'
asbag57
(g78
g59
NtRp1246
(dp1247
g62
(dp1248
sg71
g1233
sg64
(lp1249
g57
(g58
g59
NtRp1250
(dp1251
g62
(dp1252
g70
I4
ssg71
g1246
sg64
(lp1253
S'keep-alive'
p1254
asbasbasbag57
(g73
g59
NtRp1255
(dp1256
g62
(dp1257
sg71
g1007
sg64
(lp1258
g57
(g78
g59
NtRp1259
(dp1260
g62
(dp1261
g82
g83
ssg71
g1255
sg64
(lp1262
S'http_cookie'
p1263
asbag57
(g78
g59
NtRp1264
(dp1265
g62
(dp1266
g89
g90
ssg71
g1255
sg64
(lp1267
S':'
asbag57
(g78
g59
NtRp1268
(dp1269
g62
(dp1270
sg71
g1255
sg64
(lp1271
g57
(g58
g59
NtRp1272
(dp1273
g62
(dp1274
g70
I4
ssg71
g1268
sg64
(lp1275
S'__utma=96992031.1881515701.1331265087.1331309329.1331316385.4; __utmc=96992031; __utmz=96992031.1331265087.1.1.utmcsr=(direct)|utmccn=(direct)|utmcmd=(none); session_id_admin=127.0.0.1-9f819232-d34d-431b-a66d-efef7821a17b; session_id_reingart=127.0.0.1-c638efce-62e3-46b3-bb1a-e04405c01702; session_id_flisol2012=127.0.0.1-2ede3a58-f97e-48e1-8d0e-90e5ecfe16bf; __utmb=96992031.126.10.1331316385; session_id_welcome=127.0.0.1-d9714dec-041d-4a2a-a113-75a39351e0db'
p1276
asbasbasbag57
(g73
g59
NtRp1277
(dp1278
g62
(dp1279
sg71
g1007
sg64
(lp1280
g57
(g78
g59
NtRp1281
(dp1282
g62
(dp1283
g82
g83
ssg71
g1277
sg64
(lp1284
S'http_host'
p1285
asbag57
(g78
g59
NtRp1286
(dp1287
g62
(dp1288
g89
g90
ssg71
g1277
sg64
(lp1289
S':'
asbag57
(g78
g59
NtRp1290
(dp1291
g62
(dp1292
sg71
g1277
sg64
(lp1293
g57
(g58
g59
NtRp1294
(dp1295
g62
(dp1296
g70
I4
ssg71
g1290
sg64
(lp1297
S'127.0.0.1:8000'
p1298
asbasbasbag57
(g73
g59
NtRp1299
(dp1300
g62
(dp1301
sg71
g1007
sg64
(lp1302
g57
(g78
g59
NtRp1303
(dp1304
g62
(dp1305
g82
g83
ssg71
g1299
sg64
(lp1306
S'http_referer'
p1307
asbag57
(g78
g59
NtRp1308
(dp1309
g62
(dp1310
g89
g90
ssg71
g1299
sg64
(lp1311
S':'
asbag57
(g78
g59
NtRp1312
(dp1313
g62
(dp1314
sg71
g1299
sg64
(lp1315
g57
(g58
g59
NtRp1316
(dp1317
g62
(dp1318
g70
I4
ssg71
g1312
sg64
(lp1319
S'http://127.0.0.1:8000/flisol2012/default/create/t2_person'
p1320
asbasbasbag57
(g73
g59
NtRp1321
(dp1322
g62
(dp1323
sg71
g1007
sg64
(lp1324
g57
(g78
g59
NtRp1325
(dp1326
g62
(dp1327
g82
g83
ssg71
g1321
sg64
(lp1328
S'http_user_agent'
p1329
asbag57
(g78
g59
NtRp1330
(dp1331
g62
(dp1332
g89
g90
ssg71
g1321
sg64
(lp1333
S':'
asbag57
(g78
g59
NtRp1334
(dp1335
g62
(dp1336
sg71
g1321
sg64
(lp1337
g57
(g58
g59
NtRp1338
(dp1339
g62
(dp1340
g70
I4
ssg71
g1334
sg64
(lp1341
S'Mozilla/5.0 (X11; Linux x86_64; rv:11.0) Gecko/20100101 Firefox/11.0 Iceweasel/11.0'
p1342
asbasbasbag57
(g73
g59
NtRp1343
(dp1344
g62
(dp1345
sg71
g1007
sg64
(lp1346
g57
(g78
g59
NtRp1347
(dp1348
g62
(dp1349
g82
g83
ssg71
g1343
sg64
(lp1350
S'is_jython'
p1351
asbag57
(g78
g59
NtRp1352
(dp1353
g62
(dp1354
g89
g90
ssg71
g1343
sg64
(lp1355
S':'
asbag57
(g78
g59
NtRp1356
(dp1357
g62
(dp1358
sg71
g1343
sg64
(lp1359
g57
(g58
g59
NtRp1360
(dp1361
g62
(dp1362
g70
I4
ssg71
g1356
sg64
(lp1363
g100
asbasbasbag57
(g73
g59
NtRp1364
(dp1365
g62
(dp1366
sg71
g1007
sg64
(lp1367
g57
(g78
g59
NtRp1368
(dp1369
g62
(dp1370
g82
g83
ssg71
g1364
sg64
(lp1371
S'is_pypy'
p1372
asbag57
(g78
g59
NtRp1373
(dp1374
g62
(dp1375
g89
g90
ssg71
g1364
sg64
(lp1376
S':'
asbag57
(g78
g59
NtRp1377
(dp1378
g62
(dp1379
sg71
g1364
sg64
(lp1380
g57
(g58
g59
NtRp1381
(dp1382
g62
(dp1383
g70
I4
ssg71
g1377
sg64
(lp1384
g100
asbasbasbag57
(g73
g59
NtRp1385
(dp1386
g62
(dp1387
sg71
g1007
sg64
(lp1388
g57
(g78
g59
NtRp1389
(dp1390
g62
(dp1391
g82
g83
ssg71
g1385
sg64
(lp1392
S'path_info'
p1393
asbag57
(g78
g59
NtRp1394
(dp1395
g62
(dp1396
g89
g90
ssg71
g1385
sg64
(lp1397
S':'
asbag57
(g78
g59
NtRp1398
(dp1399
g62
(dp1400
sg71
g1385
sg64
(lp1401
g57
(g58
g59
NtRp1402
(dp1403
g62
(dp1404
g70
I4
ssg71
g1398
sg64
(lp1405
S'/flisol2012/default/financials'
p1406
asbasbasbag57
(g73
g59
NtRp1407
(dp1408
g62
(dp1409
sg71
g1007
sg64
(lp1410
g57
(g78
g59
NtRp1411
(dp1412
g62
(dp1413
g82
g83
ssg71
g1407
sg64
(lp1414
S'query_string'
p1415
asbag57
(g78
g59
NtRp1416
(dp1417
g62
(dp1418
g89
g90
ssg71
g1407
sg64
(lp1419
S':'
asbag57
(g78
g59
NtRp1420
(dp1421
g62
(dp1422
sg71
g1407
sg64
(lp1423
g57
(g58
g59
NtRp1424
(dp1425
g62
(dp1426
g70
I4
ssg71
g1420
sg64
(lp1427
S''
asbasbasbag57
(g73
g59
NtRp1428
(dp1429
g62
(dp1430
sg71
g1007
sg64
(lp1431
g57
(g78
g59
NtRp1432
(dp1433
g62
(dp1434
g82
g83
ssg71
g1428
sg64
(lp1435
S'remote_addr'
p1436
asbag57
(g78
g59
NtRp1437
(dp1438
g62
(dp1439
g89
g90
ssg71
g1428
sg64
(lp1440
S':'
asbag57
(g78
g59
NtRp1441
(dp1442
g62
(dp1443
sg71
g1428
sg64
(lp1444
g57
(g58
g59
NtRp1445
(dp1446
g62
(dp1447
g70
I4
ssg71
g1441
sg64
(lp1448
g190
asbasbasbag57
(g73
g59
NtRp1449
(dp1450
g62
(dp1451
sg71
g1007
sg64
(lp1452
g57
(g78
g59
NtRp1453
(dp1454
g62
(dp1455
g82
g83
ssg71
g1449
sg64
(lp1456
S'remote_port'
p1457
asbag57
(g78
g59
NtRp1458
(dp1459
g62
(dp1460
g89
g90
ssg71
g1449
sg64
(lp1461
S':'
asbag57
(g78
g59
NtRp1462
(dp1463
g62
(dp1464
sg71
g1449
sg64
(lp1465
g57
(g58
g59
NtRp1466
(dp1467
g62
(dp1468
g70
I4
ssg71
g1462
sg64
(lp1469
S'40759'
p1470
asbasbasbag57
(g73
g59
NtRp1471
(dp1472
g62
(dp1473
sg71
g1007
sg64
(lp1474
g57
(g78
g59
NtRp1475
(dp1476
g62
(dp1477
g82
g83
ssg71
g1471
sg64
(lp1478
S'request_method'
p1479
asbag57
(g78
g59
NtRp1480
(dp1481
g62
(dp1482
g89
g90
ssg71
g1471
sg64
(lp1483
S':'
asbag57
(g78
g59
NtRp1484
(dp1485
g62
(dp1486
sg71
g1471
sg64
(lp1487
g57
(g58
g59
NtRp1488
(dp1489
g62
(dp1490
g70
I4
ssg71
g1484
sg64
(lp1491
S'GET'
p1492
asbasbasbag57
(g73
g59
NtRp1493
(dp1494
g62
(dp1495
sg71
g1007
sg64
(lp1496
g57
(g78
g59
NtRp1497
(dp1498
g62
(dp1499
g82
g83
ssg71
g1493
sg64
(lp1500
S'script_name'
p1501
asbag57
(g78
g59
NtRp1502
(dp1503
g62
(dp1504
g89
g90
ssg71
g1493
sg64
(lp1505
S':'
asbag57
(g78
g59
NtRp1506
(dp1507
g62
(dp1508
sg71
g1493
sg64
(lp1509
g57
(g58
g59
NtRp1510
(dp1511
g62
(dp1512
g70
I4
ssg71
g1506
sg64
(lp1513
S''
asbasbasbag57
(g73
g59
NtRp1514
(dp1515
g62
(dp1516
sg71
g1007
sg64
(lp1517
g57
(g78
g59
NtRp1518
(dp1519
g62
(dp1520
g82
g83
ssg71
g1514
sg64
(lp1521
S'server_name'
p1522
asbag57
(g78
g59
NtRp1523
(dp1524
g62
(dp1525
g89
g90
ssg71
g1514
sg64
(lp1526
S':'
asbag57
(g78
g59
NtRp1527
(dp1528
g62
(dp1529
sg71
g1514
sg64
(lp1530
g57
(g58
g59
NtRp1531
(dp1532
g62
(dp1533
g70
I4
ssg71
g1527
sg64
(lp1534
S'malena'
p1535
asbasbasbag57
(g73
g59
NtRp1536
(dp1537
g62
(dp1538
sg71
g1007
sg64
(lp1539
g57
(g78
g59
NtRp1540
(dp1541
g62
(dp1542
g82
g83
ssg71
g1536
sg64
(lp1543
S'server_port'
p1544
asbag57
(g78
g59
NtRp1545
(dp1546
g62
(dp1547
g89
g90
ssg71
g1536
sg64
(lp1548
S':'
asbag57
(g78
g59
NtRp1549
(dp1550
g62
(dp1551
sg71
g1536
sg64
(lp1552
g57
(g58
g59
NtRp1553
(dp1554
g62
(dp1555
g70
I4
ssg71
g1549
sg64
(lp1556
S'8000'
p1557
asbasbasbag57
(g73
g59
NtRp1558
(dp1559
g62
(dp1560
sg71
g1007
sg64
(lp1561
g57
(g78
g59
NtRp1562
(dp1563
g62
(dp1564
g82
g83
ssg71
g1558
sg64
(lp1565
S'server_protocol'
p1566
asbag57
(g78
g59
NtRp1567
(dp1568
g62
(dp1569
g89
g90
ssg71
g1558
sg64
(lp1570
S':'
asbag57
(g78
g59
NtRp1571
(dp1572
g62
(dp1573
sg71
g1558
sg64
(lp1574
g57
(g58
g59
NtRp1575
(dp1576
g62
(dp1577
g70
I4
ssg71
g1571
sg64
(lp1578
S'HTTP/1.1'
p1579
asbasbasbag57
(g73
g59
NtRp1580
(dp1581
g62
(dp1582
sg71
g1007
sg64
(lp1583
g57
(g78
g59
NtRp1584
(dp1585
g62
(dp1586
g82
g83
ssg71
g1580
sg64
(lp1587
S'server_software'
p1588
asbag57
(g78
g59
NtRp1589
(dp1590
g62
(dp1591
g89
g90
ssg71
g1580
sg64
(lp1592
S':'
asbag57
(g78
g59
NtRp1593
(dp1594
g62
(dp1595
sg71
g1580
sg64
(lp1596
g57
(g58
g59
NtRp1597
(dp1598
g62
(dp1599
g70
I4
ssg71
g1593
sg64
(lp1600
S'Rocket 1.2.4'
p1601
asbasbasbag57
(g73
g59
NtRp1602
(dp1603
g62
(dp1604
sg71
g1007
sg64
(lp1605
g57
(g78
g59
NtRp1606
(dp1607
g62
(dp1608
g82
g83
ssg71
g1602
sg64
(lp1609
S'web2py_crontype'
p1610
asbag57
(g78
g59
NtRp1611
(dp1612
g62
(dp1613
g89
g90
ssg71
g1602
sg64
(lp1614
S':'
asbag57
(g78
g59
NtRp1615
(dp1616
g62
(dp1617
sg71
g1602
sg64
(lp1618
g57
(g58
g59
NtRp1619
(dp1620
g62
(dp1621
g70
I4
ssg71
g1615
sg64
(lp1622
S'hard'
p1623
asbasbasbag57
(g73
g59
NtRp1624
(dp1625
g62
(dp1626
sg71
g1007
sg64
(lp1627
g57
(g78
g59
NtRp1628
(dp1629
g62
(dp1630
g82
g83
ssg71
g1624
sg64
(lp1631
S'web2py_path'
p1632
asbag57
(g78
g59
NtRp1633
(dp1634
g62
(dp1635
g89
g90
ssg71
g1624
sg64
(lp1636
S':'
asbag57
(g78
g59
NtRp1637
(dp1638
g62
(dp1639
sg71
g1624
sg64
(lp1640
g57
(g58
g59
NtRp1641
(dp1642
g62
(dp1643
g70
I4
ssg71
g1637
sg64
(lp1644
g1054
asbasbasbag57
(g73
g59
NtRp1645
(dp1646
g62
(dp1647
sg71
g1007
sg64
(lp1648
g57
(g78
g59
NtRp1649
(dp1650
g62
(dp1651
g82
g83
ssg71
g1645
sg64
(lp1652
S'web2py_version'
p1653
asbag57
(g78
g59
NtRp1654
(dp1655
g62
(dp1656
g89
g90
ssg71
g1645
sg64
(lp1657
S':'
asbag57
(g78
g59
NtRp1658
(dp1659
g62
(dp1660
sg71
g1645
sg64
(lp1661
g57
(g58
g59
NtRp1662
(dp1663
g62
(dp1664
g70
I4
ssg71
g1658
sg64
(lp1665
g57
(g66
g59
NtRp1666
(dp1667
g62
(dp1668
g70
I3
ssg71
Nsg64
(lp1669
g57
(g73
g59
NtRp1670
(dp1671
g62
(dp1672
sg71
g1666
sg64
(lp1673
g57
(g78
g59
NtRp1674
(dp1675
g62
(dp1676
sg71
g1670
sg64
(lp1677
g57
(g58
g59
NtRp1678
(dp1679
g62
(dp1680
g70
I3
ssg71
g1674
sg64
(lp1681
S'1'
asbasbasbag57
(g73
g59
NtRp1682
(dp1683
g62
(dp1684
sg71
g1666
sg64
(lp1685
g57
(g78
g59
NtRp1686
(dp1687
g62
(dp1688
sg71
g1682
sg64
(lp1689
g57
(g58
g59
NtRp1690
(dp1691
g62
(dp1692
g70
I3
ssg71
g1686
sg64
(lp1693
S'99'
p1694
asbasbasbag57
(g73
g59
NtRp1695
(dp1696
g62
(dp1697
sg71
g1666
sg64
(lp1698
g57
(g78
g59
NtRp1699
(dp1700
g62
(dp1701
sg71
g1695
sg64
(lp1702
g57
(g58
g59
NtRp1703
(dp1704
g62
(dp1705
g70
I3
ssg71
g1699
sg64
(lp1706
S'7'
asbasbasbag57
(g73
g59
NtRp1707
(dp1708
g62
(dp1709
sg71
g1666
sg64
(lp1710
g57
(g78
g59
NtRp1711
(dp1712
g62
(dp1713
sg71
g1707
sg64
(lp1714
g57
(g58
g59
NtRp1715
(dp1716
g62
(dp1717
g70
I3
ssg71
g1711
sg64
(lp1718
S'datetime.datetime(2012, 3, 4, 22, 12, 8)'
p1719
asbasbasbag57
(g73
g59
NtRp1720
(dp1721
g62
(dp1722
sg71
g1666
sg64
(lp1723
g57
(g78
g59
NtRp1724
(dp1725
g62
(dp1726
sg71
g1720
sg64
(lp1727
g57
(g58
g59
NtRp1728
(dp1729
g62
(dp1730
g70
I3
ssg71
g1724
sg64
(lp1731
S'stable'
p1732
asbasbasbasbasbasbasbag57
(g73
g59
NtRp1733
(dp1734
g62
(dp1735
sg71
g1007
sg64
(lp1736
g57
(g78
g59
NtRp1737
(dp1738
g62
(dp1739
g82
g83
ssg71
g1733
sg64
(lp1740
S'wsgi_errors'
p1741
asbag57
(g78
g59
NtRp1742
(dp1743
g62
(dp1744
g89
g90
ssg71
g1733
sg64
(lp1745
S':'
asbag57
(g78
g59
NtRp1746
(dp1747
g62
(dp1748
sg71
g1733
sg64
(lp1749
g57
(g58
g59
NtRp1750
(dp1751
g62
(dp1752
g70
I4
ssg71
g1746
sg64
(lp1753
S"<open file '<stderr>', mode 'w' at 0x7f4f2366f270>"
p1754
asbasbasbag57
(g73
g59
NtRp1755
(dp1756
g62
(dp1757
sg71
g1007
sg64
(lp1758
g57
(g78
g59
NtRp1759
(dp1760
g62
(dp1761
g82
g83
ssg71
g1755
sg64
(lp1762
S'wsgi_file_wrapper'
p1763
asbag57
(g78
g59
NtRp1764
(dp1765
g62
(dp1766
g89
g90
ssg71
g1755
sg64
(lp1767
S':'
asbag57
(g78
g59
NtRp1768
(dp1769
g62
(dp1770
sg71
g1755
sg64
(lp1771
g57
(g58
g59
NtRp1772
(dp1773
g62
(dp1774
g70
I4
ssg71
g1768
sg64
(lp1775
S'<class wsgiref.util.FileWrapper at 0x1abc460>'
p1776
asbasbasbag57
(g73
g59
NtRp1777
(dp1778
g62
(dp1779
sg71
g1007
sg64
(lp1780
g57
(g78
g59
NtRp1781
(dp1782
g62
(dp1783
g82
g83
ssg71
g1777
sg64
(lp1784
S'wsgi_input'
p1785
asbag57
(g78
g59
NtRp1786
(dp1787
g62
(dp1788
g89
g90
ssg71
g1777
sg64
(lp1789
S':'
asbag57
(g78
g59
NtRp1790
(dp1791
g62
(dp1792
sg71
g1777
sg64
(lp1793
g57
(g58
g59
NtRp1794
(dp1795
g62
(dp1796
g70
I4
ssg71
g1790
sg64
(lp1797
S'<socket._fileobject object at 0x2b725d0>'
p1798
asbasbasbag57
(g73
g59
NtRp1799
(dp1800
g62
(dp1801
sg71
g1007
sg64
(lp1802
g57
(g78
g59
NtRp1803
(dp1804
g62
(dp1805
g82
g83
ssg71
g1799
sg64
(lp1806
S'wsgi_multiprocess'
p1807
asbag57
(g78
g59
NtRp1808
(dp1809
g62
(dp1810
g89
g90
ssg71
g1799
sg64
(lp1811
S':'
asbag57
(g78
g59
NtRp1812
(dp1813
g62
(dp1814
sg71
g1799
sg64
(lp1815
g57
(g58
g59
NtRp1816
(dp1817
g62
(dp1818
g70
I4
ssg71
g1812
sg64
(lp1819
g100
asbasbasbag57
(g73
g59
NtRp1820
(dp1821
g62
(dp1822
sg71
g1007
sg64
(lp1823
g57
(g78
g59
NtRp1824
(dp1825
g62
(dp1826
g82
g83
ssg71
g1820
sg64
(lp1827
S'wsgi_multithread'
p1828
asbag57
(g78
g59
NtRp1829
(dp1830
g62
(dp1831
g89
g90
ssg71
g1820
sg64
(lp1832
S':'
asbag57
(g78
g59
NtRp1833
(dp1834
g62
(dp1835
sg71
g1820
sg64
(lp1836
g57
(g58
g59
NtRp1837
(dp1838
g62
(dp1839
g70
I4
ssg71
g1833
sg64
(lp1840
S'True'
p1841
asbasbasbag57
(g73
g59
NtRp1842
(dp1843
g62
(dp1844
sg71
g1007
sg64
(lp1845
g57
(g78
g59
NtRp1846
(dp1847
g62
(dp1848
g82
g83
ssg71
g1842
sg64
(lp1849
S'wsgi_run_once'
p1850
asbag57
(g78
g59
NtRp1851
(dp1852
g62
(dp1853
g89
g90
ssg71
g1842
sg64
(lp1854
S':'
asbag57
(g78
g59
NtRp1855
(dp1856
g62
(dp1857
sg71
g1842
sg64
(lp1858
g57
(g58
g59
NtRp1859
(dp1860
g62
(dp1861
g70
I4
ssg71
g1855
sg64
(lp1862
g100
asbasbasbag57
(g73
g59
NtRp1863
(dp1864
g62
(dp1865
sg71
g1007
sg64
(lp1866
g57
(g78
g59
NtRp1867
(dp1868
g62
(dp1869
g82
g83
ssg71
g1863
sg64
(lp1870
S'wsgi_url_scheme'
p1871
asbag57
(g78
g59
NtRp1872
(dp1873
g62
(dp1874
g89
g90
ssg71
g1863
sg64
(lp1875
S':'
asbag57
(g78
g59
NtRp1876
(dp1877
g62
(dp1878
sg71
g1863
sg64
(lp1879
g57
(g58
g59
NtRp1880
(dp1881
g62
(dp1882
g70
I4
ssg71
g1876
sg64
(lp1883
S'http'
p1884
asbasbasbag57
(g73
g59
NtRp1885
(dp1886
g62
(dp1887
sg71
g1007
sg64
(lp1888
g57
(g78
g59
NtRp1889
(dp1890
g62
(dp1891
g82
g83
ssg71
g1885
sg64
(lp1892
S'wsgi_version'
p1893
asbag57
(g78
g59
NtRp1894
(dp1895
g62
(dp1896
g89
g90
ssg71
g1885
sg64
(lp1897
S':'
asbag57
(g78
g59
NtRp1898
(dp1899
g62
(dp1900
sg71
g1885
sg64
(lp1901
g57
(g58
g59
NtRp1902
(dp1903
g62
(dp1904
g70
I4
ssg71
g1898
sg64
(lp1905
g57
(g66
g59
NtRp1906
(dp1907
g62
(dp1908
g70
I3
ssg71
Nsg64
(lp1909
g57
(g73
g59
NtRp1910
(dp1911
g62
(dp1912
sg71
g1906
sg64
(lp1913
g57
(g78
g59
NtRp1914
(dp1915
g62
(dp1916
sg71
g1910
sg64
(lp1917
g57
(g58
g59
NtRp1918
(dp1919
g62
(dp1920
g70
I3
ssg71
g1914
sg64
(lp1921
S'1'
asbasbasbag57
(g73
g59
NtRp1922
(dp1923
g62
(dp1924
sg71
g1906
sg64
(lp1925
g57
(g78
g59
NtRp1926
(dp1927
g62
(dp1928
sg71
g1922
sg64
(lp1929
g57
(g58
g59
NtRp1930
(dp1931
g62
(dp1932
g70
I3
ssg71
g1926
sg64
(lp1933
S'0'
asbasbasbasbasbasbasbasbasbasbasbag57
(g73
g59
NtRp1934
(dp1935
g62
(dp1936
sg71
g67
sg64
(lp1937
g57
(g78
g59
NtRp1938
(dp1939
g62
(dp1940
g82
g83
ssg71
g1934
sg64
(lp1941
S'extension'
p1942
asbag57
(g78
g59
NtRp1943
(dp1944
g62
(dp1945
g89
g90
ssg71
g1934
sg64
(lp1946
S':'
asbag57
(g78
g59
NtRp1947
(dp1948
g62
(dp1949
sg71
g1934
sg64
(lp1950
g57
(g58
g59
NtRp1951
(dp1952
g62
(dp1953
g70
I5
ssg71
g1947
sg64
(lp1954
S'html'
p1955
asbasbasbag57
(g73
g59
NtRp1956
(dp1957
g62
(dp1958
sg71
g67
sg64
(lp1959
g57
(g78
g59
NtRp1960
(dp1961
g62
(dp1962
g82
g83
ssg71
g1956
sg64
(lp1963
S'folder'
p1964
asbag57
(g78
g59
NtRp1965
(dp1966
g62
(dp1967
g89
g90
ssg71
g1956
sg64
(lp1968
S':'
asbag57
(g78
g59
NtRp1969
(dp1970
g62
(dp1971
sg71
g1956
sg64
(lp1972
g57
(g58
g59
NtRp1973
(dp1974
g62
(dp1975
g70
I5
ssg71
g1969
sg64
(lp1976
S'/home/marco/flisol2012/web2py/applications/flisol2012/'
p1977
asbasbasbag57
(g73
g59
NtRp1978
(dp1979
g62
(dp1980
sg71
g67
sg64
(lp1981
g57
(g78
g59
NtRp1982
(dp1983
g62
(dp1984
g82
g83
ssg71
g1978
sg64
(lp1985
S'function'
p1986
asbag57
(g78
g59
NtRp1987
(dp1988
g62
(dp1989
g89
g90
ssg71
g1978
sg64
(lp1990
S':'
asbag57
(g78
g59
NtRp1991
(dp1992
g62
(dp1993
sg71
g1978
sg64
(lp1994
g57
(g58
g59
NtRp1995
(dp1996
g62
(dp1997
g70
I5
ssg71
g1991
sg64
(lp1998
S'financials'
p1999
asbasbasbag57
(g73
g59
NtRp2000
(dp2001
g62
(dp2002
sg71
g67
sg64
(lp2003
g57
(g78
g59
NtRp2004
(dp2005
g62
(dp2006
g82
g83
ssg71
g2000
sg64
(lp2007
S'get_vars'
p2008
asbag57
(g78
g59
NtRp2009
(dp2010
g62
(dp2011
g89
g90
ssg71
g2000
sg64
(lp2012
S':'
asbag57
(g78
g59
NtRp2013
(dp2014
g62
(dp2015
sg71
g2000
sg64
(lp2016
g57
(g58
g59
NtRp2017
(dp2018
g62
(dp2019
g70
I5
ssg71
g2013
sg64
(lp2020
g57
(g66
g59
NtRp2021
(dp2022
g62
(dp2023
g70
I4
ssg71
Nsg64
(lp2024
sbasbasbasbag57
(g73
g59
NtRp2025
(dp2026
g62
(dp2027
sg71
g67
sg64
(lp2028
g57
(g78
g59
NtRp2029
(dp2030
g62
(dp2031
g82
g83
ssg71
g2025
sg64
(lp2032
S'global_settings'
p2033
asbag57
(g78
g59
NtRp2034
(dp2035
g62
(dp2036
g89
g90
ssg71
g2025
sg64
(lp2037
S':'
asbag57
(g78
g59
NtRp2038
(dp2039
g62
(dp2040
sg71
g2025
sg64
(lp2041
g57
(g58
g59
NtRp2042
(dp2043
g62
(dp2044
g70
I5
ssg71
g2038
sg64
(lp2045
g57
(g66
g59
NtRp2046
(dp2047
g62
(dp2048
g70
I4
ssg71
Nsg64
(lp2049
g57
(g73
g59
NtRp2050
(dp2051
g62
(dp2052
sg71
g2046
sg64
(lp2053
g57
(g78
g59
NtRp2054
(dp2055
g62
(dp2056
g82
g83
ssg71
g2050
sg64
(lp2057
g1019
asbag57
(g78
g59
NtRp2058
(dp2059
g62
(dp2060
g89
g90
ssg71
g2050
sg64
(lp2061
S':'
asbag57
(g78
g59
NtRp2062
(dp2063
g62
(dp2064
sg71
g2050
sg64
(lp2065
g57
(g58
g59
NtRp2066
(dp2067
g62
(dp2068
g70
I4
ssg71
g2062
sg64
(lp2069
S"set(['/home/marco/flisol2012/web2py/applications/welcome/', '/home/marco/flisol2012/web2py/applications/flisol2012/', '/home/marco/flisol2012/web2py/applications/admin/'])"
p2070
asbasbasbag57
(g73
g59
NtRp2071
(dp2072
g62
(dp2073
sg71
g2046
sg64
(lp2074
g57
(g78
g59
NtRp2075
(dp2076
g62
(dp2077
g82
g83
ssg71
g2071
sg64
(lp2078
g1041
asbag57
(g78
g59
NtRp2079
(dp2080
g62
(dp2081
g89
g90
ssg71
g2071
sg64
(lp2082
S':'
asbag57
(g78
g59
NtRp2083
(dp2084
g62
(dp2085
sg71
g2071
sg64
(lp2086
g57
(g58
g59
NtRp2087
(dp2088
g62
(dp2089
g70
I4
ssg71
g2083
sg64
(lp2090
g1054
asbasbasbag57
(g73
g59
NtRp2091
(dp2092
g62
(dp2093
sg71
g2046
sg64
(lp2094
g57
(g78
g59
NtRp2095
(dp2096
g62
(dp2097
g82
g83
ssg71
g2091
sg64
(lp2098
g1063
asbag57
(g78
g59
NtRp2099
(dp2100
g62
(dp2101
g89
g90
ssg71
g2091
sg64
(lp2102
S':'
asbag57
(g78
g59
NtRp2103
(dp2104
g62
(dp2105
sg71
g2091
sg64
(lp2106
g57
(g58
g59
NtRp2107
(dp2108
g62
(dp2109
g70
I4
ssg71
g2103
sg64
(lp2110
g57
(g66
g59
NtRp2111
(dp2112
g62
(dp2113
g70
I3
ssg71
Nsg64
(lp2114
sbasbasbasbag57
(g73
g59
NtRp2115
(dp2116
g62
(dp2117
sg71
g2046
sg64
(lp2118
g57
(g78
g59
NtRp2119
(dp2120
g62
(dp2121
g82
g83
ssg71
g2115
sg64
(lp2122
g1088
asbag57
(g78
g59
NtRp2123
(dp2124
g62
(dp2125
g89
g90
ssg71
g2115
sg64
(lp2126
S':'
asbag57
(g78
g59
NtRp2127
(dp2128
g62
(dp2129
sg71
g2115
sg64
(lp2130
g57
(g58
g59
NtRp2131
(dp2132
g62
(dp2133
g70
I4
ssg71
g2127
sg64
(lp2134
S"<Values at 0x1bd6908: {'verbose': False, 'ip': '127.0.0.1', 'shutdown_timeout': 5, 'taskbar': False, 'nocron': False, 'pid_filename': 'httpserver.pid', 'maxthreads': None, 'softcron': False, 'server_name': 'malena', 'bpython': False, 'nogui': False, 'port': 8000, 'extcron': False, 'debuglevel': 30, 'test': None, 'folder': '/home/marco/flisol2012/web2py', 'config': '', 'import_models': False, 'winservice': '', 'shell': None, 'run': '', 'log_filename': 'httpserver.log', 'args': [''], 'socket_timeout': 5, 'ssl_ca_certificate': None, 'scheduler': None, 'profiler_filename': None, 'ssl_private_key': '', 'password': 'asd', 'request_queue_size': 5, 'ssl_certificate': '', 'cronjob': False, 'numthreads': None, 'quiet': False, 'interfaces': None, 'minthreads': None, 'timeout': 10, 'plain': False, 'nobanner': False}>"
p2135
asbasbasbag57
(g73
g59
NtRp2136
(dp2137
g62
(dp2138
sg71
g2046
sg64
(lp2139
g57
(g78
g59
NtRp2140
(dp2141
g62
(dp2142
g82
g83
ssg71
g2136
sg64
(lp2143
g1110
asbag57
(g78
g59
NtRp2144
(dp2145
g62
(dp2146
g89
g90
ssg71
g2136
sg64
(lp2147
S':'
asbag57
(g78
g59
NtRp2148
(dp2149
g62
(dp2150
sg71
g2136
sg64
(lp2151
g57
(g58
g59
NtRp2152
(dp2153
g62
(dp2154
g70
I4
ssg71
g2148
sg64
(lp2155
S'set([])'
p2156
asbasbasbag57
(g73
g59
NtRp2157
(dp2158
g62
(dp2159
sg71
g2046
sg64
(lp2160
g57
(g78
g59
NtRp2161
(dp2162
g62
(dp2163
g82
g83
ssg71
g2157
sg64
(lp2164
g1132
asbag57
(g78
g59
NtRp2165
(dp2166
g62
(dp2167
g89
g90
ssg71
g2157
sg64
(lp2168
S':'
asbag57
(g78
g59
NtRp2169
(dp2170
g62
(dp2171
sg71
g2157
sg64
(lp2172
g57
(g58
g59
NtRp2173
(dp2174
g62
(dp2175
g70
I4
ssg71
g2169
sg64
(lp2176
g100
asbasbasbag57
(g73
g59
NtRp2177
(dp2178
g62
(dp2179
sg71
g2046
sg64
(lp2180
g57
(g78
g59
NtRp2181
(dp2182
g62
(dp2183
g82
g83
ssg71
g2177
sg64
(lp2184
g1153
asbag57
(g78
g59
NtRp2185
(dp2186
g62
(dp2187
g89
g90
ssg71
g2177
sg64
(lp2188
S':'
asbag57
(g78
g59
NtRp2189
(dp2190
g62
(dp2191
sg71
g2177
sg64
(lp2192
g57
(g58
g59
NtRp2193
(dp2194
g62
(dp2195
g70
I4
ssg71
g2189
sg64
(lp2196
g1166
asbasbasbag57
(g73
g59
NtRp2197
(dp2198
g62
(dp2199
sg71
g2046
sg64
(lp2200
g57
(g78
g59
NtRp2201
(dp2202
g62
(dp2203
g82
g83
ssg71
g2197
sg64
(lp2204
g1351
asbag57
(g78
g59
NtRp2205
(dp2206
g62
(dp2207
g89
g90
ssg71
g2197
sg64
(lp2208
S':'
asbag57
(g78
g59
NtRp2209
(dp2210
g62
(dp2211
sg71
g2197
sg64
(lp2212
g57
(g58
g59
NtRp2213
(dp2214
g62
(dp2215
g70
I4
ssg71
g2209
sg64
(lp2216
g100
asbasbasbag57
(g73
g59
NtRp2217
(dp2218
g62
(dp2219
sg71
g2046
sg64
(lp2220
g57
(g78
g59
NtRp2221
(dp2222
g62
(dp2223
g82
g83
ssg71
g2217
sg64
(lp2224
g1372
asbag57
(g78
g59
NtRp2225
(dp2226
g62
(dp2227
g89
g90
ssg71
g2217
sg64
(lp2228
S':'
asbag57
(g78
g59
NtRp2229
(dp2230
g62
(dp2231
sg71
g2217
sg64
(lp2232
g57
(g58
g59
NtRp2233
(dp2234
g62
(dp2235
g70
I4
ssg71
g2229
sg64
(lp2236
g100
asbasbasbag57
(g73
g59
NtRp2237
(dp2238
g62
(dp2239
sg71
g2046
sg64
(lp2240
g57
(g78
g59
NtRp2241
(dp2242
g62
(dp2243
g82
g83
ssg71
g2237
sg64
(lp2244
g1610
asbag57
(g78
g59
NtRp2245
(dp2246
g62
(dp2247
g89
g90
ssg71
g2237
sg64
(lp2248
S':'
asbag57
(g78
g59
NtRp2249
(dp2250
g62
(dp2251
sg71
g2237
sg64
(lp2252
g57
(g58
g59
NtRp2253
(dp2254
g62
(dp2255
g70
I4
ssg71
g2249
sg64
(lp2256
g1623
asbasbasbag57
(g73
g59
NtRp2257
(dp2258
g62
(dp2259
sg71
g2046
sg64
(lp2260
g57
(g78
g59
NtRp2261
(dp2262
g62
(dp2263
g82
g83
ssg71
g2257
sg64
(lp2264
g1653
asbag57
(g78
g59
NtRp2265
(dp2266
g62
(dp2267
g89
g90
ssg71
g2257
sg64
(lp2268
S':'
asbag57
(g78
g59
NtRp2269
(dp2270
g62
(dp2271
sg71
g2257
sg64
(lp2272
g57
(g58
g59
NtRp2273
(dp2274
g62
(dp2275
g70
I4
ssg71
g2269
sg64
(lp2276
g57
(g66
g59
NtRp2277
(dp2278
g62
(dp2279
g70
I3
ssg71
Nsg64
(lp2280
g57
(g73
g59
NtRp2281
(dp2282
g62
(dp2283
sg71
g2277
sg64
(lp2284
g57
(g78
g59
NtRp2285
(dp2286
g62
(dp2287
sg71
g2281
sg64
(lp2288
g57
(g58
g59
NtRp2289
(dp2290
g62
(dp2291
g70
I3
ssg71
g2285
sg64
(lp2292
S'1'
asbasbasbag57
(g73
g59
NtRp2293
(dp2294
g62
(dp2295
sg71
g2277
sg64
(lp2296
g57
(g78
g59
NtRp2297
(dp2298
g62
(dp2299
sg71
g2293
sg64
(lp2300
g57
(g58
g59
NtRp2301
(dp2302
g62
(dp2303
g70
I3
ssg71
g2297
sg64
(lp2304
S'99'
p2305
asbasbasbag57
(g73
g59
NtRp2306
(dp2307
g62
(dp2308
sg71
g2277
sg64
(lp2309
g57
(g78
g59
NtRp2310
(dp2311
g62
(dp2312
sg71
g2306
sg64
(lp2313
g57
(g58
g59
NtRp2314
(dp2315
g62
(dp2316
g70
I3
ssg71
g2310
sg64
(lp2317
S'7'
asbasbasbag57
(g73
g59
NtRp2318
(dp2319
g62
(dp2320
sg71
g2277
sg64
(lp2321
g57
(g78
g59
NtRp2322
(dp2323
g62
(dp2324
sg71
g2318
sg64
(lp2325
g57
(g58
g59
NtRp2326
(dp2327
g62
(dp2328
g70
I3
ssg71
g2322
sg64
(lp2329
S'datetime.datetime(2012, 3, 4, 22, 12, 8)'
p2330
asbasbasbag57
(g73
g59
NtRp2331
(dp2332
g62
(dp2333
sg71
g2277
sg64
(lp2334
g57
(g78
g59
NtRp2335
(dp2336
g62
(dp2337
sg71
g2331
sg64
(lp2338
g57
(g58
g59
NtRp2339
(dp2340
g62
(dp2341
g70
I3
ssg71
g2335
sg64
(lp2342
g1732
asbasbasbasbasbasbasbasbasbasbasbag57
(g73
g59
NtRp2343
(dp2344
g62
(dp2345
sg71
g67
sg64
(lp2346
g57
(g78
g59
NtRp2347
(dp2348
g62
(dp2349
g82
g83
ssg71
g2343
sg64
(lp2350
S'is_https'
p2351
asbag57
(g78
g59
NtRp2352
(dp2353
g62
(dp2354
g89
g90
ssg71
g2343
sg64
(lp2355
S':'
asbag57
(g78
g59
NtRp2356
(dp2357
g62
(dp2358
sg71
g2343
sg64
(lp2359
g57
(g58
g59
NtRp2360
(dp2361
g62
(dp2362
g70
I5
ssg71
g2356
sg64
(lp2363
g100
asbasbasbag57
(g73
g59
NtRp2364
(dp2365
g62
(dp2366
sg71
g67
sg64
(lp2367
g57
(g78
g59
NtRp2368
(dp2369
g62
(dp2370
g82
g83
ssg71
g2364
sg64
(lp2371
S'is_local'
p2372
asbag57
(g78
g59
NtRp2373
(dp2374
g62
(dp2375
g89
g90
ssg71
g2364
sg64
(lp2376
S':'
asbag57
(g78
g59
NtRp2377
(dp2378
g62
(dp2379
sg71
g2364
sg64
(lp2380
g57
(g58
g59
NtRp2381
(dp2382
g62
(dp2383
g70
I5
ssg71
g2377
sg64
(lp2384
g1841
asbasbasbag57
(g73
g59
NtRp2385
(dp2386
g62
(dp2387
sg71
g67
sg64
(lp2388
g57
(g78
g59
NtRp2389
(dp2390
g62
(dp2391
g82
g83
ssg71
g2385
sg64
(lp2392
S'is_restful'
p2393
asbag57
(g78
g59
NtRp2394
(dp2395
g62
(dp2396
g89
g90
ssg71
g2385
sg64
(lp2397
S':'
asbag57
(g78
g59
NtRp2398
(dp2399
g62
(dp2400
sg71
g2385
sg64
(lp2401
g57
(g58
g59
NtRp2402
(dp2403
g62
(dp2404
g70
I5
ssg71
g2398
sg64
(lp2405
g100
asbasbasbag57
(g73
g59
NtRp2406
(dp2407
g62
(dp2408
sg71
g67
sg64
(lp2409
g57
(g78
g59
NtRp2410
(dp2411
g62
(dp2412
g82
g83
ssg71
g2406
sg64
(lp2413
S'now'
p2414
asbag57
(g78
g59
NtRp2415
(dp2416
g62
(dp2417
g89
g90
ssg71
g2406
sg64
(lp2418
S':'
asbag57
(g78
g59
NtRp2419
(dp2420
g62
(dp2421
sg71
g2406
sg64
(lp2422
g57
(g58
g59
NtRp2423
(dp2424
g62
(dp2425
g70
I5
ssg71
g2419
sg64
(lp2426
S'datetime.datetime(2012, 3, 9, 19, 19, 22, 170280)'
p2427
asbasbasbag57
(g73
g59
NtRp2428
(dp2429
g62
(dp2430
sg71
g67
sg64
(lp2431
g57
(g78
g59
NtRp2432
(dp2433
g62
(dp2434
g82
g83
ssg71
g2428
sg64
(lp2435
S'post_vars'
p2436
asbag57
(g78
g59
NtRp2437
(dp2438
g62
(dp2439
g89
g90
ssg71
g2428
sg64
(lp2440
S':'
asbag57
(g78
g59
NtRp2441
(dp2442
g62
(dp2443
sg71
g2428
sg64
(lp2444
g57
(g58
g59
NtRp2445
(dp2446
g62
(dp2447
g70
I5
ssg71
g2441
sg64
(lp2448
g57
(g66
g59
NtRp2449
(dp2450
g62
(dp2451
g70
I4
ssg71
Nsg64
(lp2452
sbasbasbasbag57
(g73
g59
NtRp2453
(dp2454
g62
(dp2455
sg71
g67
sg64
(lp2456
g57
(g78
g59
NtRp2457
(dp2458
g62
(dp2459
g82
g83
ssg71
g2453
sg64
(lp2460
S'url'
p2461
asbag57
(g78
g59
NtRp2462
(dp2463
g62
(dp2464
g89
g90
ssg71
g2453
sg64
(lp2465
S':'
asbag57
(g78
g59
NtRp2466
(dp2467
g62
(dp2468
sg71
g2453
sg64
(lp2469
g57
(g58
g59
NtRp2470
(dp2471
g62
(dp2472
g70
I5
ssg71
g2466
sg64
(lp2473
S'/flisol2012/default/financials'
p2474
asbasbasbag57
(g73
g59
NtRp2475
(dp2476
g62
(dp2477
sg71
g67
sg64
(lp2478
g57
(g78
g59
NtRp2479
(dp2480
g62
(dp2481
g82
g83
ssg71
g2475
sg64
(lp2482
S'utcnow'
p2483
asbag57
(g78
g59
NtRp2484
(dp2485
g62
(dp2486
g89
g90
ssg71
g2475
sg64
(lp2487
S':'
asbag57
(g78
g59
NtRp2488
(dp2489
g62
(dp2490
sg71
g2475
sg64
(lp2491
g57
(g58
g59
NtRp2492
(dp2493
g62
(dp2494
g70
I5
ssg71
g2488
sg64
(lp2495
S'datetime.datetime(2012, 3, 9, 22, 19, 22, 170321)'
p2496
asbasbasbag57
(g73
g59
NtRp2497
(dp2498
g62
(dp2499
sg71
g67
sg64
(lp2500
g57
(g78
g59
NtRp2501
(dp2502
g62
(dp2503
g82
g83
ssg71
g2497
sg64
(lp2504
S'uuid'
p2505
asbag57
(g78
g59
NtRp2506
(dp2507
g62
(dp2508
g89
g90
ssg71
g2497
sg64
(lp2509
S':'
asbag57
(g78
g59
NtRp2510
(dp2511
g62
(dp2512
sg71
g2497
sg64
(lp2513
g57
(g58
g59
NtRp2514
(dp2515
g62
(dp2516
g70
I5
ssg71
g2510
sg64
(lp2517
S'flisol2012/127.0.0.1.2012-03-09.19-19-22.e4ccd096-4a65-434f-9312-c2946eca334f'
p2518
asbasbasbag57
(g73
g59
NtRp2519
(dp2520
g62
(dp2521
sg71
g67
sg64
(lp2522
g57
(g78
g59
NtRp2523
(dp2524
g62
(dp2525
g82
g83
ssg71
g2519
sg64
(lp2526
S'vars'
p2527
asbag57
(g78
g59
NtRp2528
(dp2529
g62
(dp2530
g89
g90
ssg71
g2519
sg64
(lp2531
S':'
asbag57
(g78
g59
NtRp2532
(dp2533
g62
(dp2534
sg71
g2519
sg64
(lp2535
g57
(g58
g59
NtRp2536
(dp2537
g62
(dp2538
g70
I5
ssg71
g2532
sg64
(lp2539
g57
(g66
g59
NtRp2540
(dp2541
g62
(dp2542
g70
I4
ssg71
Nsg64
(lp2543
sbasbasbasbag57
(g73
g59
NtRp2544
(dp2545
g62
(dp2546
sg71
g67
sg64
(lp2547
g57
(g78
g59
NtRp2548
(dp2549
g62
(dp2550
g82
g83
ssg71
g2544
sg64
(lp2551
S'wsgi'
p2552
asbag57
(g78
g59
NtRp2553
(dp2554
g62
(dp2555
g89
g90
ssg71
g2544
sg64
(lp2556
S':'
asbag57
(g78
g59
NtRp2557
(dp2558
g62
(dp2559
sg71
g2544
sg64
(lp2560
g57
(g58
g59
NtRp2561
(dp2562
g62
(dp2563
g70
I5
ssg71
g2557
sg64
(lp2564
g57
(g66
g59
NtRp2565
(dp2566
g62
(dp2567
g70
I4
ssg71
Nsg64
(lp2568
g57
(g73
g59
NtRp2569
(dp2570
g62
(dp2571
sg71
g2565
sg64
(lp2572
g57
(g78
g59
NtRp2573
(dp2574
g62
(dp2575
g82
g83
ssg71
g2569
sg64
(lp2576
S'environ'
p2577
asbag57
(g78
g59
NtRp2578
(dp2579
g62
(dp2580
g89
g90
ssg71
g2569
sg64
(lp2581
S':'
asbag57
(g78
g59
NtRp2582
(dp2583
g62
(dp2584
sg71
g2569
sg64
(lp2585
g57
(g58
g59
NtRp2586
(dp2587
g62
(dp2588
g70
I4
ssg71
g2582
sg64
(lp2589
g57
(g66
g59
NtRp2590
(dp2591
g62
(dp2592
g70
I3
ssg71
Nsg64
(lp2593
g57
(g73
g59
NtRp2594
(dp2595
g62
(dp2596
sg71
g2590
sg64
(lp2597
g57
(g78
g59
NtRp2598
(dp2599
g62
(dp2600
g82
g83
ssg71
g2594
sg64
(lp2601
S'HTTP_ACCEPT'
p2602
asbag57
(g78
g59
NtRp2603
(dp2604
g62
(dp2605
g89
g90
ssg71
g2594
sg64
(lp2606
S':'
asbag57
(g78
g59
NtRp2607
(dp2608
g62
(dp2609
sg71
g2594
sg64
(lp2610
g57
(g58
g59
NtRp2611
(dp2612
g62
(dp2613
g70
I3
ssg71
g2607
sg64
(lp2614
g1188
asbasbasbag57
(g73
g59
NtRp2615
(dp2616
g62
(dp2617
sg71
g2590
sg64
(lp2618
g57
(g78
g59
NtRp2619
(dp2620
g62
(dp2621
g82
g83
ssg71
g2615
sg64
(lp2622
S'HTTP_ACCEPT_ENCODING'
p2623
asbag57
(g78
g59
NtRp2624
(dp2625
g62
(dp2626
g89
g90
ssg71
g2615
sg64
(lp2627
S':'
asbag57
(g78
g59
NtRp2628
(dp2629
g62
(dp2630
sg71
g2615
sg64
(lp2631
g57
(g58
g59
NtRp2632
(dp2633
g62
(dp2634
g70
I3
ssg71
g2628
sg64
(lp2635
g1210
asbasbasbag57
(g73
g59
NtRp2636
(dp2637
g62
(dp2638
sg71
g2590
sg64
(lp2639
g57
(g78
g59
NtRp2640
(dp2641
g62
(dp2642
g82
g83
ssg71
g2636
sg64
(lp2643
S'HTTP_ACCEPT_LANGUAGE'
p2644
asbag57
(g78
g59
NtRp2645
(dp2646
g62
(dp2647
g89
g90
ssg71
g2636
sg64
(lp2648
S':'
asbag57
(g78
g59
NtRp2649
(dp2650
g62
(dp2651
sg71
g2636
sg64
(lp2652
g57
(g58
g59
NtRp2653
(dp2654
g62
(dp2655
g70
I3
ssg71
g2649
sg64
(lp2656
g1232
asbasbasbag57
(g73
g59
NtRp2657
(dp2658
g62
(dp2659
sg71
g2590
sg64
(lp2660
g57
(g78
g59
NtRp2661
(dp2662
g62
(dp2663
g82
g83
ssg71
g2657
sg64
(lp2664
S'HTTP_CONNECTION'
p2665
asbag57
(g78
g59
NtRp2666
(dp2667
g62
(dp2668
g89
g90
ssg71
g2657
sg64
(lp2669
S':'
asbag57
(g78
g59
NtRp2670
(dp2671
g62
(dp2672
sg71
g2657
sg64
(lp2673
g57
(g58
g59
NtRp2674
(dp2675
g62
(dp2676
g70
I3
ssg71
g2670
sg64
(lp2677
g1254
asbasbasbag57
(g73
g59
NtRp2678
(dp2679
g62
(dp2680
sg71
g2590
sg64
(lp2681
g57
(g78
g59
NtRp2682
(dp2683
g62
(dp2684
g82
g83
ssg71
g2678
sg64
(lp2685
S'HTTP_COOKIE'
p2686
asbag57
(g78
g59
NtRp2687
(dp2688
g62
(dp2689
g89
g90
ssg71
g2678
sg64
(lp2690
S':'
asbag57
(g78
g59
NtRp2691
(dp2692
g62
(dp2693
sg71
g2678
sg64
(lp2694
g57
(g58
g59
NtRp2695
(dp2696
g62
(dp2697
g70
I3
ssg71
g2691
sg64
(lp2698
g1276
asbasbasbag57
(g73
g59
NtRp2699
(dp2700
g62
(dp2701
sg71
g2590
sg64
(lp2702
g57
(g78
g59
NtRp2703
(dp2704
g62
(dp2705
g82
g83
ssg71
g2699
sg64
(lp2706
S'HTTP_HOST'
p2707
asbag57
(g78
g59
NtRp2708
(dp2709
g62
(dp2710
g89
g90
ssg71
g2699
sg64
(lp2711
S':'
asbag57
(g78
g59
NtRp2712
(dp2713
g62
(dp2714
sg71
g2699
sg64
(lp2715
g57
(g58
g59
NtRp2716
(dp2717
g62
(dp2718
g70
I3
ssg71
g2712
sg64
(lp2719
g1298
asbasbasbag57
(g73
g59
NtRp2720
(dp2721
g62
(dp2722
sg71
g2590
sg64
(lp2723
g57
(g78
g59
NtRp2724
(dp2725
g62
(dp2726
g82
g83
ssg71
g2720
sg64
(lp2727
S'HTTP_REFERER'
p2728
asbag57
(g78
g59
NtRp2729
(dp2730
g62
(dp2731
g89
g90
ssg71
g2720
sg64
(lp2732
S':'
asbag57
(g78
g59
NtRp2733
(dp2734
g62
(dp2735
sg71
g2720
sg64
(lp2736
g57
(g58
g59
NtRp2737
(dp2738
g62
(dp2739
g70
I3
ssg71
g2733
sg64
(lp2740
g1320
asbasbasbag57
(g73
g59
NtRp2741
(dp2742
g62
(dp2743
sg71
g2590
sg64
(lp2744
g57
(g78
g59
NtRp2745
(dp2746
g62
(dp2747
g82
g83
ssg71
g2741
sg64
(lp2748
S'HTTP_USER_AGENT'
p2749
asbag57
(g78
g59
NtRp2750
(dp2751
g62
(dp2752
g89
g90
ssg71
g2741
sg64
(lp2753
S':'
asbag57
(g78
g59
NtRp2754
(dp2755
g62
(dp2756
sg71
g2741
sg64
(lp2757
g57
(g58
g59
NtRp2758
(dp2759
g62
(dp2760
g70
I3
ssg71
g2754
sg64
(lp2761
g1342
asbasbasbag57
(g73
g59
NtRp2762
(dp2763
g62
(dp2764
sg71
g2590
sg64
(lp2765
g57
(g78
g59
NtRp2766
(dp2767
g62
(dp2768
g82
g83
ssg71
g2762
sg64
(lp2769
S'PATH_INFO'
p2770
asbag57
(g78
g59
NtRp2771
(dp2772
g62
(dp2773
g89
g90
ssg71
g2762
sg64
(lp2774
S':'
asbag57
(g78
g59
NtRp2775
(dp2776
g62
(dp2777
sg71
g2762
sg64
(lp2778
g57
(g58
g59
NtRp2779
(dp2780
g62
(dp2781
g70
I3
ssg71
g2775
sg64
(lp2782
g1406
asbasbasbag57
(g73
g59
NtRp2783
(dp2784
g62
(dp2785
sg71
g2590
sg64
(lp2786
g57
(g78
g59
NtRp2787
(dp2788
g62
(dp2789
g82
g83
ssg71
g2783
sg64
(lp2790
S'QUERY_STRING'
p2791
asbag57
(g78
g59
NtRp2792
(dp2793
g62
(dp2794
g89
g90
ssg71
g2783
sg64
(lp2795
S':'
asbag57
(g78
g59
NtRp2796
(dp2797
g62
(dp2798
sg71
g2783
sg64
(lp2799
g57
(g58
g59
NtRp2800
(dp2801
g62
(dp2802
g70
I3
ssg71
g2796
sg64
(lp2803
S''
asbasbasbag57
(g73
g59
NtRp2804
(dp2805
g62
(dp2806
sg71
g2590
sg64
(lp2807
g57
(g78
g59
NtRp2808
(dp2809
g62
(dp2810
g82
g83
ssg71
g2804
sg64
(lp2811
S'REMOTE_ADDR'
p2812
asbag57
(g78
g59
NtRp2813
(dp2814
g62
(dp2815
g89
g90
ssg71
g2804
sg64
(lp2816
S':'
asbag57
(g78
g59
NtRp2817
(dp2818
g62
(dp2819
sg71
g2804
sg64
(lp2820
g57
(g58
g59
NtRp2821
(dp2822
g62
(dp2823
g70
I3
ssg71
g2817
sg64
(lp2824
g190
asbasbasbag57
(g73
g59
NtRp2825
(dp2826
g62
(dp2827
sg71
g2590
sg64
(lp2828
g57
(g78
g59
NtRp2829
(dp2830
g62
(dp2831
g82
g83
ssg71
g2825
sg64
(lp2832
S'REMOTE_PORT'
p2833
asbag57
(g78
g59
NtRp2834
(dp2835
g62
(dp2836
g89
g90
ssg71
g2825
sg64
(lp2837
S':'
asbag57
(g78
g59
NtRp2838
(dp2839
g62
(dp2840
sg71
g2825
sg64
(lp2841
g57
(g58
g59
NtRp2842
(dp2843
g62
(dp2844
g70
I3
ssg71
g2838
sg64
(lp2845
g1470
asbasbasbag57
(g73
g59
NtRp2846
(dp2847
g62
(dp2848
sg71
g2590
sg64
(lp2849
g57
(g78
g59
NtRp2850
(dp2851
g62
(dp2852
g82
g83
ssg71
g2846
sg64
(lp2853
S'REQUEST_METHOD'
p2854
asbag57
(g78
g59
NtRp2855
(dp2856
g62
(dp2857
g89
g90
ssg71
g2846
sg64
(lp2858
S':'
asbag57
(g78
g59
NtRp2859
(dp2860
g62
(dp2861
sg71
g2846
sg64
(lp2862
g57
(g58
g59
NtRp2863
(dp2864
g62
(dp2865
g70
I3
ssg71
g2859
sg64
(lp2866
g1492
asbasbasbag57
(g73
g59
NtRp2867
(dp2868
g62
(dp2869
sg71
g2590
sg64
(lp2870
g57
(g78
g59
NtRp2871
(dp2872
g62
(dp2873
g82
g83
ssg71
g2867
sg64
(lp2874
S'SCRIPT_NAME'
p2875
asbag57
(g78
g59
NtRp2876
(dp2877
g62
(dp2878
g89
g90
ssg71
g2867
sg64
(lp2879
S':'
asbag57
(g78
g59
NtRp2880
(dp2881
g62
(dp2882
sg71
g2867
sg64
(lp2883
g57
(g58
g59
NtRp2884
(dp2885
g62
(dp2886
g70
I3
ssg71
g2880
sg64
(lp2887
S''
asbasbasbag57
(g73
g59
NtRp2888
(dp2889
g62
(dp2890
sg71
g2590
sg64
(lp2891
g57
(g78
g59
NtRp2892
(dp2893
g62
(dp2894
g82
g83
ssg71
g2888
sg64
(lp2895
S'SERVER_NAME'
p2896
asbag57
(g78
g59
NtRp2897
(dp2898
g62
(dp2899
g89
g90
ssg71
g2888
sg64
(lp2900
S':'
asbag57
(g78
g59
NtRp2901
(dp2902
g62
(dp2903
sg71
g2888
sg64
(lp2904
g57
(g58
g59
NtRp2905
(dp2906
g62
(dp2907
g70
I3
ssg71
g2901
sg64
(lp2908
g1535
asbasbasbag57
(g73
g59
NtRp2909
(dp2910
g62
(dp2911
sg71
g2590
sg64
(lp2912
g57
(g78
g59
NtRp2913
(dp2914
g62
(dp2915
g82
g83
ssg71
g2909
sg64
(lp2916
S'SERVER_PORT'
p2917
asbag57
(g78
g59
NtRp2918
(dp2919
g62
(dp2920
g89
g90
ssg71
g2909
sg64
(lp2921
S':'
asbag57
(g78
g59
NtRp2922
(dp2923
g62
(dp2924
sg71
g2909
sg64
(lp2925
g57
(g58
g59
NtRp2926
(dp2927
g62
(dp2928
g70
I3
ssg71
g2922
sg64
(lp2929
g1557
asbasbasbag57
(g73
g59
NtRp2930
(dp2931
g62
(dp2932
sg71
g2590
sg64
(lp2933
g57
(g78
g59
NtRp2934
(dp2935
g62
(dp2936
g82
g83
ssg71
g2930
sg64
(lp2937
S'SERVER_PROTOCOL'
p2938
asbag57
(g78
g59
NtRp2939
(dp2940
g62
(dp2941
g89
g90
ssg71
g2930
sg64
(lp2942
S':'
asbag57
(g78
g59
NtRp2943
(dp2944
g62
(dp2945
sg71
g2930
sg64
(lp2946
g57
(g58
g59
NtRp2947
(dp2948
g62
(dp2949
g70
I3
ssg71
g2943
sg64
(lp2950
g1579
asbasbasbag57
(g73
g59
NtRp2951
(dp2952
g62
(dp2953
sg71
g2590
sg64
(lp2954
g57
(g78
g59
NtRp2955
(dp2956
g62
(dp2957
g82
g83
ssg71
g2951
sg64
(lp2958
S'SERVER_SOFTWARE'
p2959
asbag57
(g78
g59
NtRp2960
(dp2961
g62
(dp2962
g89
g90
ssg71
g2951
sg64
(lp2963
S':'
asbag57
(g78
g59
NtRp2964
(dp2965
g62
(dp2966
sg71
g2951
sg64
(lp2967
g57
(g58
g59
NtRp2968
(dp2969
g62
(dp2970
g70
I3
ssg71
g2964
sg64
(lp2971
g1601
asbasbasbag57
(g73
g59
NtRp2972
(dp2973
g62
(dp2974
sg71
g2590
sg64
(lp2975
g57
(g78
g59
NtRp2976
(dp2977
g62
(dp2978
g82
g83
ssg71
g2972
sg64
(lp2979
S'wsgi.errors'
p2980
asbag57
(g78
g59
NtRp2981
(dp2982
g62
(dp2983
g89
g90
ssg71
g2972
sg64
(lp2984
S':'
asbag57
(g78
g59
NtRp2985
(dp2986
g62
(dp2987
sg71
g2972
sg64
(lp2988
g57
(g58
g59
NtRp2989
(dp2990
g62
(dp2991
g70
I3
ssg71
g2985
sg64
(lp2992
S"<open file '<stderr>', mode 'w' at 0x7f4f2366f270>"
p2993
asbasbasbag57
(g73
g59
NtRp2994
(dp2995
g62
(dp2996
sg71
g2590
sg64
(lp2997
g57
(g78
g59
NtRp2998
(dp2999
g62
(dp3000
g82
g83
ssg71
g2994
sg64
(lp3001
S'wsgi.file_wrapper'
p3002
asbag57
(g78
g59
NtRp3003
(dp3004
g62
(dp3005
g89
g90
ssg71
g2994
sg64
(lp3006
S':'
asbag57
(g78
g59
NtRp3007
(dp3008
g62
(dp3009
sg71
g2994
sg64
(lp3010
g57
(g58
g59
NtRp3011
(dp3012
g62
(dp3013
g70
I3
ssg71
g3007
sg64
(lp3014
S'<class wsgiref.util.FileWrapper at 0x1abc460>'
p3015
asbasbasbag57
(g73
g59
NtRp3016
(dp3017
g62
(dp3018
sg71
g2590
sg64
(lp3019
g57
(g78
g59
NtRp3020
(dp3021
g62
(dp3022
g82
g83
ssg71
g3016
sg64
(lp3023
S'wsgi.input'
p3024
asbag57
(g78
g59
NtRp3025
(dp3026
g62
(dp3027
g89
g90
ssg71
g3016
sg64
(lp3028
S':'
asbag57
(g78
g59
NtRp3029
(dp3030
g62
(dp3031
sg71
g3016
sg64
(lp3032
g57
(g58
g59
NtRp3033
(dp3034
g62
(dp3035
g70
I3
ssg71
g3029
sg64
(lp3036
S'<cStringIO.StringO object at 0x22e9148>'
p3037
asbasbasbag57
(g73
g59
NtRp3038
(dp3039
g62
(dp3040
sg71
g2590
sg64
(lp3041
g57
(g78
g59
NtRp3042
(dp3043
g62
(dp3044
g82
g83
ssg71
g3038
sg64
(lp3045
S'wsgi.multiprocess'
p3046
asbag57
(g78
g59
NtRp3047
(dp3048
g62
(dp3049
g89
g90
ssg71
g3038
sg64
(lp3050
S':'
asbag57
(g78
g59
NtRp3051
(dp3052
g62
(dp3053
sg71
g3038
sg64
(lp3054
g57
(g58
g59
NtRp3055
(dp3056
g62
(dp3057
g70
I3
ssg71
g3051
sg64
(lp3058
g100
asbasbasbag57
(g73
g59
NtRp3059
(dp3060
g62
(dp3061
sg71
g2590
sg64
(lp3062
g57
(g78
g59
NtRp3063
(dp3064
g62
(dp3065
g82
g83
ssg71
g3059
sg64
(lp3066
S'wsgi.multithread'
p3067
asbag57
(g78
g59
NtRp3068
(dp3069
g62
(dp3070
g89
g90
ssg71
g3059
sg64
(lp3071
S':'
asbag57
(g78
g59
NtRp3072
(dp3073
g62
(dp3074
sg71
g3059
sg64
(lp3075
g57
(g58
g59
NtRp3076
(dp3077
g62
(dp3078
g70
I3
ssg71
g3072
sg64
(lp3079
g1841
asbasbasbag57
(g73
g59
NtRp3080
(dp3081
g62
(dp3082
sg71
g2590
sg64
(lp3083
g57
(g78
g59
NtRp3084
(dp3085
g62
(dp3086
g82
g83
ssg71
g3080
sg64
(lp3087
S'wsgi.run_once'
p3088
asbag57
(g78
g59
NtRp3089
(dp3090
g62
(dp3091
g89
g90
ssg71
g3080
sg64
(lp3092
S':'
asbag57
(g78
g59
NtRp3093
(dp3094
g62
(dp3095
sg71
g3080
sg64
(lp3096
g57
(g58
g59
NtRp3097
(dp3098
g62
(dp3099
g70
I3
ssg71
g3093
sg64
(lp3100
g100
asbasbasbag57
(g73
g59
NtRp3101
(dp3102
g62
(dp3103
sg71
g2590
sg64
(lp3104
g57
(g78
g59
NtRp3105
(dp3106
g62
(dp3107
g82
g83
ssg71
g3101
sg64
(lp3108
S'wsgi.url_scheme'
p3109
asbag57
(g78
g59
NtRp3110
(dp3111
g62
(dp3112
g89
g90
ssg71
g3101
sg64
(lp3113
S':'
asbag57
(g78
g59
NtRp3114
(dp3115
g62
(dp3116
sg71
g3101
sg64
(lp3117
g57
(g58
g59
NtRp3118
(dp3119
g62
(dp3120
g70
I3
ssg71
g3114
sg64
(lp3121
g1884
asbasbasbag57
(g73
g59
NtRp3122
(dp3123
g62
(dp3124
sg71
g2590
sg64
(lp3125
g57
(g78
g59
NtRp3126
(dp3127
g62
(dp3128
g82
g83
ssg71
g3122
sg64
(lp3129
S'wsgi.version'
p3130
asbag57
(g78
g59
NtRp3131
(dp3132
g62
(dp3133
g89
g90
ssg71
g3122
sg64
(lp3134
S':'
asbag57
(g78
g59
NtRp3135
(dp3136
g62
(dp3137
sg71
g3122
sg64
(lp3138
g57
(g58
g59
NtRp3139
(dp3140
g62
(dp3141
g70
I3
ssg71
g3135
sg64
(lp3142
S'1'
asbasbasbasbasbasbasbasbasbasbasbasbasbsS'frames'
p3143
(lp3144
(dp3145
S'file'
p3146
S'/home/marco/flisol2012/web2py/gluon/restricted.py'
p3147
sS'dump'
p3148
(dp3149
S'environment'
p3150
S"{'A': <class 'gluon.html.A'>, 'ATTENDEE_TYPES': (('gratis', <lazyT 'Gratuito, $0'>),), 'ATTENDEE_TYPE_COST': {None: 0.0, 'gratis': 0.0}, 'Auth': <class 'gluon.tools.Auth'>, 'B': <class 'gluon.html.B'>, 'BEAUTIFY': <class 'gluon.html.BEAUTIFY'>, 'BODY': <class 'gluon.html.BODY'>, 'BR': <class 'gluon.html.BR'>, 'BUTTON': <class 'gluon.html.BUTTON'>, 'CAT': <class 'gluon.html.CAT'>, ...}"
p3151
sS'ccode'
p3152
S'<code object <module> at 0x41a9830, file "/home/...lisol2012/views/default/financials.html", line 1>'
p3153
ssS'lnum'
p3154
I205
sS'lines'
p3155
(dp3156
I200
S'    try:'
p3157
sI201
S'        if type(code) == types.CodeType:'
p3158
sI202
S'            ccode = code'
p3159
sI203
S'        else:'
p3160
sI204
S'            ccode = compile2(code,layer)'
p3161
sI205
S'        exec ccode in environment'
p3162
sI206
S'    except HTTP:'
p3163
sI207
S'        raise'
p3164
sI208
S'    except RestrictedError:'
p3165
sI209
S'        # do not encapsulate (obfuscate) the original RestrictedError'
p3166
ssS'call'
p3167
S'(code=\'response.write(\\\'<!DOCTYPE html PUBLIC "-//W3C//D...) {}</script>\\\\n</body>\\\\n</html>\\\\n\\\', escape=False)\', environment={\'A\': <class \'gluon.html.A\'>, \'ATTENDEE_TYPES\': ((\'gratis\', <lazyT \'Gratuito, $0\'>),), \'ATTENDEE_TYPE_COST\': {None: 0.0, \'gratis\': 0.0}, \'Auth\': <class \'gluon.tools.Auth\'>, \'B\': <class \'gluon.html.B\'>, \'BEAUTIFY\': <class \'gluon.html.BEAUTIFY\'>, \'BODY\': <class \'gluon.html.BODY\'>, \'BR\': <class \'gluon.html.BR\'>, \'BUTTON\': <class \'gluon.html.BUTTON\'>, \'CAT\': <class \'gluon.html.CAT\'>, ...}, layer=\'/home/marco/flisol2012/web2py/applications/flisol2012/views/default/financials.html\')'
p3168
sS'func'
p3169
S'restricted'
p3170
sa(dp3171
g3146
S'/home/marco/flisol2012/web2py/applications/flisol2012/views/default/financials.html'
p3172
sg3148
(dp3173
sg3154
I113
sg3155
(dp3174
I104
S"response.write(T('Breakdown by person'))"
p3175
sI105
S"response.write('</h2>\\n<table>\\n<tr>\\n<th>Id</th>\\n<th>Name</th>\\n<th>Donation</th>\\n<th>Total Amount billed</th>\\n<th>Transferred in</th>\\n<th>Transferred out</th>\\n<th>Amount paid</th>\\n<th>Balance due</th>\\n</tr>\\n', escape=False)"
p3176
sI106
S'for row in rows:'
p3177
sI107
S"    response.write('\\n<tr>\\n<td>', escape=False)"
p3178
sI108
S'    response.write(row.id)'
p3179
sI109
S"    response.write('</td>\\n<td>', escape=False)"
p3180
sI110
S"    response.write(A(row.first_name+' '+row.last_name,"
p3181
sI111
S"    _href=URL(r=request,f='impersonate',args=row.id)))"
p3182
sI112
S'    response.write(\'</td>\\n<td style="text-align:right">$\', escape=False)'
p3183
sI113
S"    response.write('%.2f' % row.donation_to_PSF)"
p3184
sI114
S'    response.write(\'</td>\\n<td style="text-align:right">$\', escape=False)'
p3185
sI115
S"    response.write('%.2f' % row.amount_billed)"
p3186
sI116
S'    response.write(\'</td>\\n<td style="text-align:right">$\', escape=False)'
p3187
sI117
S"    response.write('%.2f' % row.amount_added)"
p3188
sI118
S'    response.write(\'</td>\\n<td style="text-align:right">$\', escape=False)'
p3189
sI119
S"    response.write('%.2f' % row.amount_subtracted)"
p3190
sI120
S'    response.write(\'</td>\\n<td style="text-align:right">$\', escape=False)'
p3191
sI121
S"    response.write('%.2f' % row.amount_paid)"
p3192
sI122
S"    response.write('</td>\\n', escape=False)"
p3193
sI123
S'    due=row.amount_billed+row.amount_added-row.amount_subtracted-row.amount_paid'
p3194
ssg3167
S'()'
p3195
sg3169
S'<module>'
p3196
sa(dp3197
g3146
S'/home/marco/flisol2012/web2py/gluon/dal.py'
p3198
sg3148
(dp3199
S'self'
p3200
S"<Row {'auth_event': <gluon.dal.Set object at 0x3...x35a26d0>, 'amount_due': 0.0, 'tutorials': None}>"
p3201
sS'key'
p3202
S"'donation_to_PSF'"
p3203
ssg3154
I5657
sg3155
(dp3204
I5652
S''
sI5653
S'    def __setitem__(self, key, value):'
p3205
sI5654
S'        dict.__setitem__(self, str(key), value)'
p3206
sI5655
S''
sI5656
S'    def __getattr__(self, key):'
p3207
sI5657
S'        return self[key]'
p3208
sI5658
S''
sI5659
S'    def __setattr__(self, key, value):'
p3209
sI5660
S'        self[key] = value'
p3210
sI5661
S''
ssg3167
S"(self=<Row {'auth_event': <gluon.dal.Set object at 0x3...x35a26d0>, 'amount_due': 0.0, 'tutorials': None}>, key='donation_to_PSF')"
p3211
sg3169
S'__getattr__'
p3212
sa(dp3213
g3146
S'/home/marco/flisol2012/web2py/gluon/dal.py'
p3214
sg3148
(dp3215
S'self'
p3216
S"<Row {'auth_event': <gluon.dal.Set object at 0x3...x35a26d0>, 'amount_due': 0.0, 'tutorials': None}>"
p3217
sS'dict.__getitem__'
p3218
S"<method '__getitem__' of 'dict' objects>"
p3219
sS'key'
p3220
S"'donation_to_PSF'"
p3221
sS'builtindict'
p3222
S"<type 'dict'>"
p3223
ssg3154
I5648
sg3155
(dp3224
I5643
S'        elif m:'
p3225
sI5644
S'            try:'
p3226
sI5645
S'                return dict.__getitem__(self, m.group(1))[m.group(2)]'
p3227
sI5646
S'            except (KeyError,TypeError):'
p3228
sI5647
S'                key = m.group(2)'
p3229
sI5648
S'        return dict.__getitem__(self, key)'
p3230
sI5649
S''
sI5650
S'    def __call__(self,key):'
p3231
sI5651
S'        return self.__getitem__(key)'
p3232
sI5652
S''
ssg3167
S"(self=<Row {'auth_event': <gluon.dal.Set object at 0x3...x35a26d0>, 'amount_due': 0.0, 'tutorials': None}>, key='donation_to_PSF')"
p3233
sg3169
g20
sasS'pyver'
p3234
S'Python 2.7.2+: /usr/bin/python'
p3235
sS'session'
p3236
g57
(g58
g59
NtRp3237
(dp3238
g62
(dp3239
sg64
(lp3240
g57
(g66
g59
NtRp3241
(dp3242
g62
(dp3243
g70
I5
ssg71
Nsg64
(lp3244
g57
(g73
g59
NtRp3245
(dp3246
g62
(dp3247
sg71
g3241
sg64
(lp3248
g57
(g78
g59
NtRp3249
(dp3250
g62
(dp3251
g82
g83
ssg71
g3245
sg64
(lp3252
S'amount_added'
p3253
asbag57
(g78
g59
NtRp3254
(dp3255
g62
(dp3256
g89
g90
ssg71
g3245
sg64
(lp3257
S':'
asbag57
(g78
g59
NtRp3258
(dp3259
g62
(dp3260
sg71
g3245
sg64
(lp3261
g57
(g58
g59
NtRp3262
(dp3263
g62
(dp3264
g70
I5
ssg71
g3258
sg64
(lp3265
S'0.0'
p3266
asbasbasbag57
(g73
g59
NtRp3267
(dp3268
g62
(dp3269
sg71
g3241
sg64
(lp3270
g57
(g78
g59
NtRp3271
(dp3272
g62
(dp3273
g82
g83
ssg71
g3267
sg64
(lp3274
S'amount_billed'
p3275
asbag57
(g78
g59
NtRp3276
(dp3277
g62
(dp3278
g89
g90
ssg71
g3267
sg64
(lp3279
S':'
asbag57
(g78
g59
NtRp3280
(dp3281
g62
(dp3282
sg71
g3267
sg64
(lp3283
g57
(g58
g59
NtRp3284
(dp3285
g62
(dp3286
g70
I5
ssg71
g3280
sg64
(lp3287
S'0.0'
p3288
asbasbasbag57
(g73
g59
NtRp3289
(dp3290
g62
(dp3291
sg71
g3241
sg64
(lp3292
g57
(g78
g59
NtRp3293
(dp3294
g62
(dp3295
g82
g83
ssg71
g3289
sg64
(lp3296
S'amount_paid'
p3297
asbag57
(g78
g59
NtRp3298
(dp3299
g62
(dp3300
g89
g90
ssg71
g3289
sg64
(lp3301
S':'
asbag57
(g78
g59
NtRp3302
(dp3303
g62
(dp3304
sg71
g3289
sg64
(lp3305
g57
(g58
g59
NtRp3306
(dp3307
g62
(dp3308
g70
I5
ssg71
g3302
sg64
(lp3309
S'0.0'
p3310
asbasbasbag57
(g73
g59
NtRp3311
(dp3312
g62
(dp3313
sg71
g3241
sg64
(lp3314
g57
(g78
g59
NtRp3315
(dp3316
g62
(dp3317
g82
g83
ssg71
g3311
sg64
(lp3318
S'amount_subtracted'
p3319
asbag57
(g78
g59
NtRp3320
(dp3321
g62
(dp3322
g89
g90
ssg71
g3311
sg64
(lp3323
S':'
asbag57
(g78
g59
NtRp3324
(dp3325
g62
(dp3326
sg71
g3311
sg64
(lp3327
g57
(g58
g59
NtRp3328
(dp3329
g62
(dp3330
g70
I5
ssg71
g3324
sg64
(lp3331
S'0.0'
p3332
asbasbasbag57
(g73
g59
NtRp3333
(dp3334
g62
(dp3335
sg71
g3241
sg64
(lp3336
g57
(g78
g59
NtRp3337
(dp3338
g62
(dp3339
g82
g83
ssg71
g3333
sg64
(lp3340
S'auth'
p3341
asbag57
(g78
g59
NtRp3342
(dp3343
g62
(dp3344
g89
g90
ssg71
g3333
sg64
(lp3345
S':'
asbag57
(g78
g59
NtRp3346
(dp3347
g62
(dp3348
sg71
g3333
sg64
(lp3349
g57
(g58
g59
NtRp3350
(dp3351
g62
(dp3352
g70
I5
ssg71
g3346
sg64
(lp3353
g57
(g66
g59
NtRp3354
(dp3355
g62
(dp3356
g70
I4
ssg71
Nsg64
(lp3357
g57
(g73
g59
NtRp3358
(dp3359
g62
(dp3360
sg71
g3354
sg64
(lp3361
g57
(g78
g59
NtRp3362
(dp3363
g62
(dp3364
g82
g83
ssg71
g3358
sg64
(lp3365
S'expiration'
p3366
asbag57
(g78
g59
NtRp3367
(dp3368
g62
(dp3369
g89
g90
ssg71
g3358
sg64
(lp3370
S':'
asbag57
(g78
g59
NtRp3371
(dp3372
g62
(dp3373
sg71
g3358
sg64
(lp3374
g57
(g58
g59
NtRp3375
(dp3376
g62
(dp3377
g70
I4
ssg71
g3371
sg64
(lp3378
S'3600'
p3379
asbasbasbag57
(g73
g59
NtRp3380
(dp3381
g62
(dp3382
sg71
g3354
sg64
(lp3383
g57
(g78
g59
NtRp3384
(dp3385
g62
(dp3386
g82
g83
ssg71
g3380
sg64
(lp3387
S'hmac_key'
p3388
asbag57
(g78
g59
NtRp3389
(dp3390
g62
(dp3391
g89
g90
ssg71
g3380
sg64
(lp3392
S':'
asbag57
(g78
g59
NtRp3393
(dp3394
g62
(dp3395
sg71
g3380
sg64
(lp3396
g57
(g58
g59
NtRp3397
(dp3398
g62
(dp3399
g70
I4
ssg71
g3393
sg64
(lp3400
S'44c6d752-de8b-48d9-afcc-44f40944cf09'
p3401
asbasbasbag57
(g73
g59
NtRp3402
(dp3403
g62
(dp3404
sg71
g3354
sg64
(lp3405
g57
(g78
g59
NtRp3406
(dp3407
g62
(dp3408
g82
g83
ssg71
g3402
sg64
(lp3409
S'last_visit'
p3410
asbag57
(g78
g59
NtRp3411
(dp3412
g62
(dp3413
g89
g90
ssg71
g3402
sg64
(lp3414
S':'
asbag57
(g78
g59
NtRp3415
(dp3416
g62
(dp3417
sg71
g3402
sg64
(lp3418
g57
(g58
g59
NtRp3419
(dp3420
g62
(dp3421
g70
I4
ssg71
g3415
sg64
(lp3422
S'datetime.datetime(2012, 3, 9, 19, 16, 42, 212239)'
p3423
asbasbasbag57
(g73
g59
NtRp3424
(dp3425
g62
(dp3426
sg71
g3354
sg64
(lp3427
g57
(g78
g59
NtRp3428
(dp3429
g62
(dp3430
g82
g83
ssg71
g3424
sg64
(lp3431
S'remember'
p3432
asbag57
(g78
g59
NtRp3433
(dp3434
g62
(dp3435
g89
g90
ssg71
g3424
sg64
(lp3436
S':'
asbag57
(g78
g59
NtRp3437
(dp3438
g62
(dp3439
sg71
g3424
sg64
(lp3440
g57
(g58
g59
NtRp3441
(dp3442
g62
(dp3443
g70
I4
ssg71
g3437
sg64
(lp3444
g100
asbasbasbag57
(g73
g59
NtRp3445
(dp3446
g62
(dp3447
sg71
g3354
sg64
(lp3448
g57
(g78
g59
NtRp3449
(dp3450
g62
(dp3451
g82
g83
ssg71
g3445
sg64
(lp3452
S'user'
p3453
asbag57
(g78
g59
NtRp3454
(dp3455
g62
(dp3456
g89
g90
ssg71
g3445
sg64
(lp3457
S':'
asbag57
(g78
g59
NtRp3458
(dp3459
g62
(dp3460
sg71
g3445
sg64
(lp3461
g57
(g58
g59
NtRp3462
(dp3463
g62
(dp3464
g70
I4
ssg71
g3458
sg64
(lp3465
g57
(g66
g59
NtRp3466
(dp3467
g62
(dp3468
g70
I3
ssg71
Nsg64
(lp3469
g57
(g73
g59
NtRp3470
(dp3471
g62
(dp3472
sg71
g3466
sg64
(lp3473
g57
(g78
g59
NtRp3474
(dp3475
g62
(dp3476
g82
g83
ssg71
g3470
sg64
(lp3477
S'address'
p3478
asbag57
(g78
g59
NtRp3479
(dp3480
g62
(dp3481
g89
g90
ssg71
g3470
sg64
(lp3482
S':'
asbag57
(g78
g59
NtRp3483
(dp3484
g62
(dp3485
sg71
g3470
sg64
(lp3486
g57
(g58
g59
NtRp3487
(dp3488
g62
(dp3489
g70
I3
ssg71
g3483
sg64
(lp3490
S'Santa Lucia S/N'
p3491
asbasbasbag57
(g73
g59
NtRp3492
(dp3493
g62
(dp3494
sg71
g3466
sg64
(lp3495
g57
(g78
g59
NtRp3496
(dp3497
g62
(dp3498
g82
g83
ssg71
g3492
sg64
(lp3499
S'amount_added'
p3500
asbag57
(g78
g59
NtRp3501
(dp3502
g62
(dp3503
g89
g90
ssg71
g3492
sg64
(lp3504
S':'
asbag57
(g78
g59
NtRp3505
(dp3506
g62
(dp3507
sg71
g3492
sg64
(lp3508
g57
(g58
g59
NtRp3509
(dp3510
g62
(dp3511
g70
I3
ssg71
g3505
sg64
(lp3512
S'0.0'
p3513
asbasbasbag57
(g73
g59
NtRp3514
(dp3515
g62
(dp3516
sg71
g3466
sg64
(lp3517
g57
(g78
g59
NtRp3518
(dp3519
g62
(dp3520
g82
g83
ssg71
g3514
sg64
(lp3521
S'amount_billed'
p3522
asbag57
(g78
g59
NtRp3523
(dp3524
g62
(dp3525
g89
g90
ssg71
g3514
sg64
(lp3526
S':'
asbag57
(g78
g59
NtRp3527
(dp3528
g62
(dp3529
sg71
g3514
sg64
(lp3530
g57
(g58
g59
NtRp3531
(dp3532
g62
(dp3533
g70
I3
ssg71
g3527
sg64
(lp3534
S'0.0'
p3535
asbasbasbag57
(g73
g59
NtRp3536
(dp3537
g62
(dp3538
sg71
g3466
sg64
(lp3539
g57
(g78
g59
NtRp3540
(dp3541
g62
(dp3542
g82
g83
ssg71
g3536
sg64
(lp3543
S'amount_due'
p3544
asbag57
(g78
g59
NtRp3545
(dp3546
g62
(dp3547
g89
g90
ssg71
g3536
sg64
(lp3548
S':'
asbag57
(g78
g59
NtRp3549
(dp3550
g62
(dp3551
sg71
g3536
sg64
(lp3552
g57
(g58
g59
NtRp3553
(dp3554
g62
(dp3555
g70
I3
ssg71
g3549
sg64
(lp3556
S'0.0'
p3557
asbasbasbag57
(g73
g59
NtRp3558
(dp3559
g62
(dp3560
sg71
g3466
sg64
(lp3561
g57
(g78
g59
NtRp3562
(dp3563
g62
(dp3564
g82
g83
ssg71
g3558
sg64
(lp3565
S'amount_paid'
p3566
asbag57
(g78
g59
NtRp3567
(dp3568
g62
(dp3569
g89
g90
ssg71
g3558
sg64
(lp3570
S':'
asbag57
(g78
g59
NtRp3571
(dp3572
g62
(dp3573
sg71
g3558
sg64
(lp3574
g57
(g58
g59
NtRp3575
(dp3576
g62
(dp3577
g70
I3
ssg71
g3571
sg64
(lp3578
S'0.0'
p3579
asbasbasbag57
(g73
g59
NtRp3580
(dp3581
g62
(dp3582
sg71
g3466
sg64
(lp3583
g57
(g78
g59
NtRp3584
(dp3585
g62
(dp3586
g82
g83
ssg71
g3580
sg64
(lp3587
S'amount_subtracted'
p3588
asbag57
(g78
g59
NtRp3589
(dp3590
g62
(dp3591
g89
g90
ssg71
g3580
sg64
(lp3592
S':'
asbag57
(g78
g59
NtRp3593
(dp3594
g62
(dp3595
sg71
g3580
sg64
(lp3596
g57
(g58
g59
NtRp3597
(dp3598
g62
(dp3599
g70
I3
ssg71
g3593
sg64
(lp3600
S'0.0'
p3601
asbasbasbag57
(g73
g59
NtRp3602
(dp3603
g62
(dp3604
sg71
g3466
sg64
(lp3605
g57
(g78
g59
NtRp3606
(dp3607
g62
(dp3608
g82
g83
ssg71
g3602
sg64
(lp3609
S'attendee_type'
p3610
asbag57
(g78
g59
NtRp3611
(dp3612
g62
(dp3613
g89
g90
ssg71
g3602
sg64
(lp3614
S':'
asbag57
(g78
g59
NtRp3615
(dp3616
g62
(dp3617
sg71
g3602
sg64
(lp3618
g57
(g58
g59
NtRp3619
(dp3620
g62
(dp3621
g70
I3
ssg71
g3615
sg64
(lp3622
S'gratis'
p3623
asbasbasbag57
(g73
g59
NtRp3624
(dp3625
g62
(dp3626
sg71
g3466
sg64
(lp3627
g57
(g78
g59
NtRp3628
(dp3629
g62
(dp3630
g82
g83
ssg71
g3624
sg64
(lp3631
S'city'
p3632
asbag57
(g78
g59
NtRp3633
(dp3634
g62
(dp3635
g89
g90
ssg71
g3624
sg64
(lp3636
S':'
asbag57
(g78
g59
NtRp3637
(dp3638
g62
(dp3639
sg71
g3624
sg64
(lp3640
g57
(g58
g59
NtRp3641
(dp3642
g62
(dp3643
g70
I3
ssg71
g3637
sg64
(lp3644
S'Salta'
p3645
asbasbasbag57
(g73
g59
NtRp3646
(dp3647
g62
(dp3648
sg71
g3466
sg64
(lp3649
g57
(g78
g59
NtRp3650
(dp3651
g62
(dp3652
g82
g83
ssg71
g3646
sg64
(lp3653
S'company_home_page'
p3654
asbag57
(g78
g59
NtRp3655
(dp3656
g62
(dp3657
g89
g90
ssg71
g3646
sg64
(lp3658
S':'
asbag57
(g78
g59
NtRp3659
(dp3660
g62
(dp3661
sg71
g3646
sg64
(lp3662
g57
(g58
g59
NtRp3663
(dp3664
g62
(dp3665
g70
I3
ssg71
g3659
sg64
(lp3666
S'http://www.esdebian.org'
p3667
asbasbasbag57
(g73
g59
NtRp3668
(dp3669
g62
(dp3670
sg71
g3466
sg64
(lp3671
g57
(g78
g59
NtRp3672
(dp3673
g62
(dp3674
g82
g83
ssg71
g3668
sg64
(lp3675
S'company_name'
p3676
asbag57
(g78
g59
NtRp3677
(dp3678
g62
(dp3679
g89
g90
ssg71
g3668
sg64
(lp3680
S':'
asbag57
(g78
g59
NtRp3681
(dp3682
g62
(dp3683
sg71
g3668
sg64
(lp3684
g57
(g58
g59
NtRp3685
(dp3686
g62
(dp3687
g70
I3
ssg71
g3681
sg64
(lp3688
S'Debian OS'
p3689
asbasbasbag57
(g73
g59
NtRp3690
(dp3691
g62
(dp3692
sg71
g3466
sg64
(lp3693
g57
(g78
g59
NtRp3694
(dp3695
g62
(dp3696
g82
g83
ssg71
g3690
sg64
(lp3697
S'country'
p3698
asbag57
(g78
g59
NtRp3699
(dp3700
g62
(dp3701
g89
g90
ssg71
g3690
sg64
(lp3702
S':'
asbag57
(g78
g59
NtRp3703
(dp3704
g62
(dp3705
sg71
g3690
sg64
(lp3706
g57
(g58
g59
NtRp3707
(dp3708
g62
(dp3709
g70
I3
ssg71
g3703
sg64
(lp3710
S'Argentina'
p3711
asbasbasbag57
(g73
g59
NtRp3712
(dp3713
g62
(dp3714
sg71
g3466
sg64
(lp3715
g57
(g78
g59
NtRp3716
(dp3717
g62
(dp3718
g82
g83
ssg71
g3712
sg64
(lp3719
S'created_by_ip'
p3720
asbag57
(g78
g59
NtRp3721
(dp3722
g62
(dp3723
g89
g90
ssg71
g3712
sg64
(lp3724
S':'
asbag57
(g78
g59
NtRp3725
(dp3726
g62
(dp3727
sg71
g3712
sg64
(lp3728
g57
(g58
g59
NtRp3729
(dp3730
g62
(dp3731
g70
I3
ssg71
g3725
sg64
(lp3732
S'127.0.0.1'
p3733
asbasbasbag57
(g73
g59
NtRp3734
(dp3735
g62
(dp3736
sg71
g3466
sg64
(lp3737
g57
(g78
g59
NtRp3738
(dp3739
g62
(dp3740
g82
g83
ssg71
g3734
sg64
(lp3741
S'created_on'
p3742
asbag57
(g78
g59
NtRp3743
(dp3744
g62
(dp3745
g89
g90
ssg71
g3734
sg64
(lp3746
S':'
asbag57
(g78
g59
NtRp3747
(dp3748
g62
(dp3749
sg71
g3734
sg64
(lp3750
g57
(g58
g59
NtRp3751
(dp3752
g62
(dp3753
g70
I3
ssg71
g3747
sg64
(lp3754
S'datetime.datetime(2012, 3, 9, 2, 56, 49)'
p3755
asbasbasbag57
(g73
g59
NtRp3756
(dp3757
g62
(dp3758
sg71
g3466
sg64
(lp3759
g57
(g78
g59
NtRp3760
(dp3761
g62
(dp3762
g82
g83
ssg71
g3756
sg64
(lp3763
S'discount_coupon'
p3764
asbag57
(g78
g59
NtRp3765
(dp3766
g62
(dp3767
g89
g90
ssg71
g3756
sg64
(lp3768
S':'
asbag57
(g78
g59
NtRp3769
(dp3770
g62
(dp3771
sg71
g3756
sg64
(lp3772
g57
(g58
g59
NtRp3773
(dp3774
g62
(dp3775
g70
I3
ssg71
g3769
sg64
(lp3776
S'None'
p3777
asbasbasbag57
(g73
g59
NtRp3778
(dp3779
g62
(dp3780
sg71
g3466
sg64
(lp3781
g57
(g78
g59
NtRp3782
(dp3783
g62
(dp3784
g82
g83
ssg71
g3778
sg64
(lp3785
S'donation'
p3786
asbag57
(g78
g59
NtRp3787
(dp3788
g62
(dp3789
g89
g90
ssg71
g3778
sg64
(lp3790
S':'
asbag57
(g78
g59
NtRp3791
(dp3792
g62
(dp3793
sg71
g3778
sg64
(lp3794
g57
(g58
g59
NtRp3795
(dp3796
g62
(dp3797
g70
I3
ssg71
g3791
sg64
(lp3798
S'0.0'
p3799
asbasbasbag57
(g73
g59
NtRp3800
(dp3801
g62
(dp3802
sg71
g3466
sg64
(lp3803
g57
(g78
g59
NtRp3804
(dp3805
g62
(dp3806
g82
g83
ssg71
g3800
sg64
(lp3807
S'email'
p3808
asbag57
(g78
g59
NtRp3809
(dp3810
g62
(dp3811
g89
g90
ssg71
g3800
sg64
(lp3812
S':'
asbag57
(g78
g59
NtRp3813
(dp3814
g62
(dp3815
sg71
g3800
sg64
(lp3816
g57
(g58
g59
NtRp3817
(dp3818
g62
(dp3819
g70
I3
ssg71
g3813
sg64
(lp3820
S'marco@saltalug.org.ar'
p3821
asbasbasbag57
(g73
g59
NtRp3822
(dp3823
g62
(dp3824
sg71
g3466
sg64
(lp3825
g57
(g78
g59
NtRp3826
(dp3827
g62
(dp3828
g82
g83
ssg71
g3822
sg64
(lp3829
S'first_name'
p3830
asbag57
(g78
g59
NtRp3831
(dp3832
g62
(dp3833
g89
g90
ssg71
g3822
sg64
(lp3834
S':'
asbag57
(g78
g59
NtRp3835
(dp3836
g62
(dp3837
sg71
g3822
sg64
(lp3838
g57
(g58
g59
NtRp3839
(dp3840
g62
(dp3841
g70
I3
ssg71
g3835
sg64
(lp3842
S'Marco'
p3843
asbasbasbag57
(g73
g59
NtRp3844
(dp3845
g62
(dp3846
sg71
g3466
sg64
(lp3847
g57
(g78
g59
NtRp3848
(dp3849
g62
(dp3850
g82
g83
ssg71
g3844
sg64
(lp3851
S'id'
p3852
asbag57
(g78
g59
NtRp3853
(dp3854
g62
(dp3855
g89
g90
ssg71
g3844
sg64
(lp3856
S':'
asbag57
(g78
g59
NtRp3857
(dp3858
g62
(dp3859
sg71
g3844
sg64
(lp3860
g57
(g58
g59
NtRp3861
(dp3862
g62
(dp3863
g70
I3
ssg71
g3857
sg64
(lp3864
S'55'
p3865
asbasbasbag57
(g73
g59
NtRp3866
(dp3867
g62
(dp3868
sg71
g3466
sg64
(lp3869
g57
(g78
g59
NtRp3870
(dp3871
g62
(dp3872
g82
g83
ssg71
g3866
sg64
(lp3873
S'include_in_delegate_listing'
p3874
asbag57
(g78
g59
NtRp3875
(dp3876
g62
(dp3877
g89
g90
ssg71
g3866
sg64
(lp3878
S':'
asbag57
(g78
g59
NtRp3879
(dp3880
g62
(dp3881
sg71
g3866
sg64
(lp3882
g57
(g58
g59
NtRp3883
(dp3884
g62
(dp3885
g70
I3
ssg71
g3879
sg64
(lp3886
g1841
asbasbasbag57
(g73
g59
NtRp3887
(dp3888
g62
(dp3889
sg71
g3466
sg64
(lp3890
g57
(g78
g59
NtRp3891
(dp3892
g62
(dp3893
g82
g83
ssg71
g3887
sg64
(lp3894
S'installfest_hardware'
p3895
asbag57
(g78
g59
NtRp3896
(dp3897
g62
(dp3898
g89
g90
ssg71
g3887
sg64
(lp3899
S':'
asbag57
(g78
g59
NtRp3900
(dp3901
g62
(dp3902
sg71
g3887
sg64
(lp3903
g57
(g58
g59
NtRp3904
(dp3905
g62
(dp3906
g70
I3
ssg71
g3900
sg64
(lp3907
S'kakafono'
p3908
asbasbasbag57
(g73
g59
NtRp3909
(dp3910
g62
(dp3911
sg71
g3466
sg64
(lp3912
g57
(g78
g59
NtRp3913
(dp3914
g62
(dp3915
g82
g83
ssg71
g3909
sg64
(lp3916
S'installfest_os'
p3917
asbag57
(g78
g59
NtRp3918
(dp3919
g62
(dp3920
g89
g90
ssg71
g3909
sg64
(lp3921
S':'
asbag57
(g78
g59
NtRp3922
(dp3923
g62
(dp3924
sg71
g3909
sg64
(lp3925
g57
(g58
g59
NtRp3926
(dp3927
g62
(dp3928
g70
I3
ssg71
g3922
sg64
(lp3929
S'Debian'
p3930
asbasbasbag57
(g73
g59
NtRp3931
(dp3932
g62
(dp3933
sg71
g3466
sg64
(lp3934
g57
(g78
g59
NtRp3935
(dp3936
g62
(dp3937
g82
g83
ssg71
g3931
sg64
(lp3938
S'last_name'
p3939
asbag57
(g78
g59
NtRp3940
(dp3941
g62
(dp3942
g89
g90
ssg71
g3931
sg64
(lp3943
S':'
asbag57
(g78
g59
NtRp3944
(dp3945
g62
(dp3946
sg71
g3931
sg64
(lp3947
g57
(g58
g59
NtRp3948
(dp3949
g62
(dp3950
g70
I3
ssg71
g3944
sg64
(lp3951
S'Mansilla'
p3952
asbasbasbag57
(g73
g59
NtRp3953
(dp3954
g62
(dp3955
sg71
g3466
sg64
(lp3956
g57
(g78
g59
NtRp3957
(dp3958
g62
(dp3959
g82
g83
ssg71
g3953
sg64
(lp3960
S'latitude'
p3961
asbag57
(g78
g59
NtRp3962
(dp3963
g62
(dp3964
g89
g90
ssg71
g3953
sg64
(lp3965
S':'
asbag57
(g78
g59
NtRp3966
(dp3967
g62
(dp3968
sg71
g3953
sg64
(lp3969
g57
(g58
g59
NtRp3970
(dp3971
g62
(dp3972
g70
I3
ssg71
g3966
sg64
(lp3973
S'-24.8442777'
p3974
asbasbasbag57
(g73
g59
NtRp3975
(dp3976
g62
(dp3977
sg71
g3466
sg64
(lp3978
g57
(g78
g59
NtRp3979
(dp3980
g62
(dp3981
g82
g83
ssg71
g3975
sg64
(lp3982
S'longitude'
p3983
asbag57
(g78
g59
NtRp3984
(dp3985
g62
(dp3986
g89
g90
ssg71
g3975
sg64
(lp3987
S':'
asbag57
(g78
g59
NtRp3988
(dp3989
g62
(dp3990
sg71
g3975
sg64
(lp3991
g57
(g58
g59
NtRp3992
(dp3993
g62
(dp3994
g70
I3
ssg71
g3988
sg64
(lp3995
S'-65.4787676'
p3996
asbasbasbag57
(g73
g59
NtRp3997
(dp3998
g62
(dp3999
sg71
g3466
sg64
(lp4000
g57
(g78
g59
NtRp4001
(dp4002
g62
(dp4003
g82
g83
ssg71
g3997
sg64
(lp4004
S'manager'
p4005
asbag57
(g78
g59
NtRp4006
(dp4007
g62
(dp4008
g89
g90
ssg71
g3997
sg64
(lp4009
S':'
asbag57
(g78
g59
NtRp4010
(dp4011
g62
(dp4012
sg71
g3997
sg64
(lp4013
g57
(g58
g59
NtRp4014
(dp4015
g62
(dp4016
g70
I3
ssg71
g4010
sg64
(lp4017
g1841
asbasbasbag57
(g73
g59
NtRp4018
(dp4019
g62
(dp4020
sg71
g3466
sg64
(lp4021
g57
(g78
g59
NtRp4022
(dp4023
g62
(dp4024
g82
g83
ssg71
g4018
sg64
(lp4025
S'password'
p4026
asbag57
(g78
g59
NtRp4027
(dp4028
g62
(dp4029
g89
g90
ssg71
g4018
sg64
(lp4030
S':'
asbag57
(g78
g59
NtRp4031
(dp4032
g62
(dp4033
sg71
g4018
sg64
(lp4034
g57
(g58
g59
NtRp4035
(dp4036
g62
(dp4037
g70
I3
ssg71
g4031
sg64
(lp4038
S'121c120f6831e94b12b41d853c3f672b'
p4039
asbasbasbag57
(g73
g59
NtRp4040
(dp4041
g62
(dp4042
sg71
g3466
sg64
(lp4043
g57
(g78
g59
NtRp4044
(dp4045
g62
(dp4046
g82
g83
ssg71
g4040
sg64
(lp4047
S'personal_home_page'
p4048
asbag57
(g78
g59
NtRp4049
(dp4050
g62
(dp4051
g89
g90
ssg71
g4040
sg64
(lp4052
S':'
asbag57
(g78
g59
NtRp4053
(dp4054
g62
(dp4055
sg71
g4040
sg64
(lp4056
g57
(g58
g59
NtRp4057
(dp4058
g62
(dp4059
g70
I3
ssg71
g4053
sg64
(lp4060
S'http://www.esdebian.org'
p4061
asbasbasbag57
(g73
g59
NtRp4062
(dp4063
g62
(dp4064
sg71
g3466
sg64
(lp4065
g57
(g78
g59
NtRp4066
(dp4067
g62
(dp4068
g82
g83
ssg71
g4062
sg64
(lp4069
S'phone_number'
p4070
asbag57
(g78
g59
NtRp4071
(dp4072
g62
(dp4073
g89
g90
ssg71
g4062
sg64
(lp4074
S':'
asbag57
(g78
g59
NtRp4075
(dp4076
g62
(dp4077
sg71
g4062
sg64
(lp4078
g57
(g58
g59
NtRp4079
(dp4080
g62
(dp4081
g70
I3
ssg71
g4075
sg64
(lp4082
S'76543456789'
p4083
asbasbasbag57
(g73
g59
NtRp4084
(dp4085
g62
(dp4086
sg71
g3466
sg64
(lp4087
g57
(g78
g59
NtRp4088
(dp4089
g62
(dp4090
g82
g83
ssg71
g4084
sg64
(lp4091
S'registration_key'
p4092
asbag57
(g78
g59
NtRp4093
(dp4094
g62
(dp4095
g89
g90
ssg71
g4084
sg64
(lp4096
S':'
asbag57
(g78
g59
NtRp4097
(dp4098
g62
(dp4099
sg71
g4084
sg64
(lp4100
g57
(g58
g59
NtRp4101
(dp4102
g62
(dp4103
g70
I3
ssg71
g4097
sg64
(lp4104
S''
asbasbasbag57
(g73
g59
NtRp4105
(dp4106
g62
(dp4107
sg71
g3466
sg64
(lp4108
g57
(g78
g59
NtRp4109
(dp4110
g62
(dp4111
g82
g83
ssg71
g4105
sg64
(lp4112
S'resume'
p4113
asbag57
(g78
g59
NtRp4114
(dp4115
g62
(dp4116
g89
g90
ssg71
g4105
sg64
(lp4117
S':'
asbag57
(g78
g59
NtRp4118
(dp4119
g62
(dp4120
sg71
g4105
sg64
(lp4121
g57
(g58
g59
NtRp4122
(dp4123
g62
(dp4124
g70
I3
ssg71
g4118
sg64
(lp4125
S'None'
p4126
asbasbasbag57
(g73
g59
NtRp4127
(dp4128
g62
(dp4129
sg71
g3466
sg64
(lp4130
g57
(g78
g59
NtRp4131
(dp4132
g62
(dp4133
g82
g83
ssg71
g4127
sg64
(lp4134
S'reviewer'
p4135
asbag57
(g78
g59
NtRp4136
(dp4137
g62
(dp4138
g89
g90
ssg71
g4127
sg64
(lp4139
S':'
asbag57
(g78
g59
NtRp4140
(dp4141
g62
(dp4142
sg71
g4127
sg64
(lp4143
g57
(g58
g59
NtRp4144
(dp4145
g62
(dp4146
g70
I3
ssg71
g4140
sg64
(lp4147
g1841
asbasbasbag57
(g73
g59
NtRp4148
(dp4149
g62
(dp4150
sg71
g3466
sg64
(lp4151
g57
(g78
g59
NtRp4152
(dp4153
g62
(dp4154
g82
g83
ssg71
g4148
sg64
(lp4155
S'session_chair'
p4156
asbag57
(g78
g59
NtRp4157
(dp4158
g62
(dp4159
g89
g90
ssg71
g4148
sg64
(lp4160
S':'
asbag57
(g78
g59
NtRp4161
(dp4162
g62
(dp4163
sg71
g4148
sg64
(lp4164
g57
(g58
g59
NtRp4165
(dp4166
g62
(dp4167
g70
I3
ssg71
g4161
sg64
(lp4168
g100
asbasbasbag57
(g73
g59
NtRp4169
(dp4170
g62
(dp4171
sg71
g3466
sg64
(lp4172
g57
(g78
g59
NtRp4173
(dp4174
g62
(dp4175
g82
g83
ssg71
g4169
sg64
(lp4176
S'speaker'
p4177
asbag57
(g78
g59
NtRp4178
(dp4179
g62
(dp4180
g89
g90
ssg71
g4169
sg64
(lp4181
S':'
asbag57
(g78
g59
NtRp4182
(dp4183
g62
(dp4184
sg71
g4169
sg64
(lp4185
g57
(g58
g59
NtRp4186
(dp4187
g62
(dp4188
g70
I3
ssg71
g4182
sg64
(lp4189
g100
asbasbasbag57
(g73
g59
NtRp4190
(dp4191
g62
(dp4192
sg71
g3466
sg64
(lp4193
g57
(g78
g59
NtRp4194
(dp4195
g62
(dp4196
g82
g83
ssg71
g4190
sg64
(lp4197
S'state'
p4198
asbag57
(g78
g59
NtRp4199
(dp4200
g62
(dp4201
g89
g90
ssg71
g4190
sg64
(lp4202
S':'
asbag57
(g78
g59
NtRp4203
(dp4204
g62
(dp4205
sg71
g4190
sg64
(lp4206
g57
(g58
g59
NtRp4207
(dp4208
g62
(dp4209
g70
I3
ssg71
g4203
sg64
(lp4210
S'Salta'
p4211
asbasbasbag57
(g73
g59
NtRp4212
(dp4213
g62
(dp4214
sg71
g3466
sg64
(lp4215
g57
(g78
g59
NtRp4216
(dp4217
g62
(dp4218
g82
g83
ssg71
g4212
sg64
(lp4219
S'tutorials'
p4220
asbag57
(g78
g59
NtRp4221
(dp4222
g62
(dp4223
g89
g90
ssg71
g4212
sg64
(lp4224
S':'
asbag57
(g78
g59
NtRp4225
(dp4226
g62
(dp4227
sg71
g4212
sg64
(lp4228
g57
(g58
g59
NtRp4229
(dp4230
g62
(dp4231
g70
I3
ssg71
g4225
sg64
(lp4232
S'None'
p4233
asbasbasbag57
(g73
g59
NtRp4234
(dp4235
g62
(dp4236
sg71
g3466
sg64
(lp4237
g57
(g78
g59
NtRp4238
(dp4239
g62
(dp4240
g82
g83
ssg71
g4234
sg64
(lp4241
S'zip_code'
p4242
asbag57
(g78
g59
NtRp4243
(dp4244
g62
(dp4245
g89
g90
ssg71
g4234
sg64
(lp4246
S':'
asbag57
(g78
g59
NtRp4247
(dp4248
g62
(dp4249
sg71
g4234
sg64
(lp4250
g57
(g58
g59
NtRp4251
(dp4252
g62
(dp4253
g70
I3
ssg71
g4247
sg64
(lp4254
S'4400'
p4255
asbasbasbasbasbasbasbag57
(g73
g59
NtRp4256
(dp4257
g62
(dp4258
sg71
g3354
sg64
(lp4259
g57
(g78
g59
NtRp4260
(dp4261
g62
(dp4262
g82
g83
ssg71
g4256
sg64
(lp4263
S'user_groups'
p4264
asbag57
(g78
g59
NtRp4265
(dp4266
g62
(dp4267
g89
g90
ssg71
g4256
sg64
(lp4268
S':'
asbag57
(g78
g59
NtRp4269
(dp4270
g62
(dp4271
sg71
g4256
sg64
(lp4272
g57
(g58
g59
NtRp4273
(dp4274
g62
(dp4275
g70
I4
ssg71
g4269
sg64
(lp4276
g57
(g66
g59
NtRp4277
(dp4278
g62
(dp4279
g70
I3
ssg71
Nsg64
(lp4280
g57
(g73
g59
NtRp4281
(dp4282
g62
(dp4283
sg71
g4277
sg64
(lp4284
g57
(g78
g59
NtRp4285
(dp4286
g62
(dp4287
g82
g83
ssg71
g4281
sg64
(lp4288
S'15'
p4289
asbag57
(g78
g59
NtRp4290
(dp4291
g62
(dp4292
g89
g90
ssg71
g4281
sg64
(lp4293
S':'
asbag57
(g78
g59
NtRp4294
(dp4295
g62
(dp4296
sg71
g4281
sg64
(lp4297
g57
(g58
g59
NtRp4298
(dp4299
g62
(dp4300
g70
I3
ssg71
g4294
sg64
(lp4301
S'plugin_flatpages'
p4302
asbasbasbasbasbasbasbasbasbasbasbag57
(g73
g59
NtRp4303
(dp4304
g62
(dp4305
sg71
g3241
sg64
(lp4306
g57
(g78
g59
NtRp4307
(dp4308
g62
(dp4309
g82
g83
ssg71
g4303
sg64
(lp4310
S'balance'
p4311
asbag57
(g78
g59
NtRp4312
(dp4313
g62
(dp4314
g89
g90
ssg71
g4303
sg64
(lp4315
S':'
asbag57
(g78
g59
NtRp4316
(dp4317
g62
(dp4318
sg71
g4303
sg64
(lp4319
g57
(g58
g59
NtRp4320
(dp4321
g62
(dp4322
g70
I5
ssg71
g4316
sg64
(lp4323
S'0.0'
p4324
asbasbasbag57
(g73
g59
NtRp4325
(dp4326
g62
(dp4327
sg71
g3241
sg64
(lp4328
g57
(g78
g59
NtRp4329
(dp4330
g62
(dp4331
g82
g83
ssg71
g4325
sg64
(lp4332
S'manager'
p4333
asbag57
(g78
g59
NtRp4334
(dp4335
g62
(dp4336
g89
g90
ssg71
g4325
sg64
(lp4337
S':'
asbag57
(g78
g59
NtRp4338
(dp4339
g62
(dp4340
sg71
g4325
sg64
(lp4341
g57
(g58
g59
NtRp4342
(dp4343
g62
(dp4344
g70
I5
ssg71
g4338
sg64
(lp4345
g1841
asbasbasbag57
(g73
g59
NtRp4346
(dp4347
g62
(dp4348
sg71
g3241
sg64
(lp4349
g57
(g78
g59
NtRp4350
(dp4351
g62
(dp4352
g82
g83
ssg71
g4346
sg64
(lp4353
S't2'
p4354
asbag57
(g78
g59
NtRp4355
(dp4356
g62
(dp4357
g89
g90
ssg71
g4346
sg64
(lp4358
S':'
asbag57
(g78
g59
NtRp4359
(dp4360
g62
(dp4361
sg71
g4346
sg64
(lp4362
g57
(g58
g59
NtRp4363
(dp4364
g62
(dp4365
g70
I5
ssg71
g4359
sg64
(lp4366
g57
(g66
g59
NtRp4367
(dp4368
g62
(dp4369
g70
I4
ssg71
Nsg64
(lp4370
g57
(g73
g59
NtRp4371
(dp4372
g62
(dp4373
sg71
g4367
sg64
(lp4374
g57
(g78
g59
NtRp4375
(dp4376
g62
(dp4377
g82
g83
ssg71
g4371
sg64
(lp4378
S'my_groups_id'
p4379
asbag57
(g78
g59
NtRp4380
(dp4381
g62
(dp4382
g89
g90
ssg71
g4371
sg64
(lp4383
S':'
asbag57
(g78
g59
NtRp4384
(dp4385
g62
(dp4386
sg71
g4371
sg64
(lp4387
g57
(g58
g59
NtRp4388
(dp4389
g62
(dp4390
g70
I4
ssg71
g4384
sg64
(lp4391
g57
(g66
g59
NtRp4392
(dp4393
g62
(dp4394
g70
I3
ssg71
Nsg64
(lp4395
sbasbasbasbag57
(g73
g59
NtRp4396
(dp4397
g62
(dp4398
sg71
g4367
sg64
(lp4399
g57
(g78
g59
NtRp4400
(dp4401
g62
(dp4402
g82
g83
ssg71
g4396
sg64
(lp4403
S'query'
p4404
asbag57
(g78
g59
NtRp4405
(dp4406
g62
(dp4407
g89
g90
ssg71
g4396
sg64
(lp4408
S':'
asbag57
(g78
g59
NtRp4409
(dp4410
g62
(dp4411
sg71
g4396
sg64
(lp4412
g57
(g58
g59
NtRp4413
(dp4414
g62
(dp4415
g70
I4
ssg71
g4409
sg64
(lp4416
g57
(g66
g59
NtRp4417
(dp4418
g62
(dp4419
g70
I3
ssg71
Nsg64
(lp4420
sbasbasbasbasbasbasbasbasbasbsS'etype'
p4421
S"<type 'exceptions.KeyError'>"
p4422
sS'date'
p4423
S'Fri Mar  9 19:19:22 2012'
p4424
sS'response'
p4425
g57
(g58
g59
NtRp4426
(dp4427
g62
(dp4428
sg64
(lp4429
g57
(g66
g59
NtRp4430
(dp4431
g62
(dp4432
g70
I5
ssg71
Nsg64
(lp4433
g57
(g73
g59
NtRp4434
(dp4435
g62
(dp4436
sg71
g4430
sg64
(lp4437
g57
(g78
g59
NtRp4438
(dp4439
g62
(dp4440
g82
g83
ssg71
g4434
sg64
(lp4441
g155
asbag57
(g78
g59
NtRp4442
(dp4443
g62
(dp4444
g89
g90
ssg71
g4434
sg64
(lp4445
S':'
asbag57
(g78
g59
NtRp4446
(dp4447
g62
(dp4448
sg71
g4434
sg64
(lp4449
g57
(g58
g59
NtRp4450
(dp4451
g62
(dp4452
g70
I5
ssg71
g4446
sg64
(lp4453
S'<cStringIO.StringO object at 0x25ef068>'
p4454
asbasbasbag57
(g73
g59
NtRp4455
(dp4456
g62
(dp4457
sg71
g4430
sg64
(lp4458
g57
(g78
g59
NtRp4459
(dp4460
g62
(dp4461
g82
g83
ssg71
g4455
sg64
(lp4462
g221
asbag57
(g78
g59
NtRp4463
(dp4464
g62
(dp4465
g89
g90
ssg71
g4455
sg64
(lp4466
S':'
asbag57
(g78
g59
NtRp4467
(dp4468
g62
(dp4469
sg71
g4455
sg64
(lp4470
g57
(g58
g59
NtRp4471
(dp4472
g62
(dp4473
g70
I5
ssg71
g4467
sg64
(lp4474
g57
(g66
g59
NtRp4475
(dp4476
g62
(dp4477
g70
I4
ssg71
Nsg64
(lp4478
g57
(g73
g59
NtRp4479
(dp4480
g62
(dp4481
sg71
g4475
sg64
(lp4482
g57
(g78
g59
NtRp4483
(dp4484
g62
(dp4485
g82
g83
ssg71
g4479
sg64
(lp4486
S'session_id_flisol2012'
p4487
asbag57
(g78
g59
NtRp4488
(dp4489
g62
(dp4490
g89
g90
ssg71
g4479
sg64
(lp4491
S':'
asbag57
(g78
g59
NtRp4492
(dp4493
g62
(dp4494
sg71
g4479
sg64
(lp4495
g57
(g58
g59
NtRp4496
(dp4497
g62
(dp4498
g70
I4
ssg71
g4492
sg64
(lp4499
g57
(g66
g59
NtRp4500
(dp4501
g62
(dp4502
g70
I3
ssg71
Nsg64
(lp4503
g57
(g73
g59
NtRp4504
(dp4505
g62
(dp4506
sg71
g4500
sg64
(lp4507
g57
(g78
g59
NtRp4508
(dp4509
g62
(dp4510
g82
g83
ssg71
g4504
sg64
(lp4511
g271
asbag57
(g78
g59
NtRp4512
(dp4513
g62
(dp4514
g89
g90
ssg71
g4504
sg64
(lp4515
S':'
asbag57
(g78
g59
NtRp4516
(dp4517
g62
(dp4518
sg71
g4504
sg64
(lp4519
g57
(g58
g59
NtRp4520
(dp4521
g62
(dp4522
g70
I3
ssg71
g4516
sg64
(lp4523
S''
asbasbasbag57
(g73
g59
NtRp4524
(dp4525
g62
(dp4526
sg71
g4500
sg64
(lp4527
g57
(g78
g59
NtRp4528
(dp4529
g62
(dp4530
g82
g83
ssg71
g4524
sg64
(lp4531
g292
asbag57
(g78
g59
NtRp4532
(dp4533
g62
(dp4534
g89
g90
ssg71
g4524
sg64
(lp4535
S':'
asbag57
(g78
g59
NtRp4536
(dp4537
g62
(dp4538
sg71
g4524
sg64
(lp4539
g57
(g58
g59
NtRp4540
(dp4541
g62
(dp4542
g70
I3
ssg71
g4536
sg64
(lp4543
S''
asbasbasbag57
(g73
g59
NtRp4544
(dp4545
g62
(dp4546
sg71
g4500
sg64
(lp4547
g57
(g78
g59
NtRp4548
(dp4549
g62
(dp4550
g82
g83
ssg71
g4544
sg64
(lp4551
g313
asbag57
(g78
g59
NtRp4552
(dp4553
g62
(dp4554
g89
g90
ssg71
g4544
sg64
(lp4555
S':'
asbag57
(g78
g59
NtRp4556
(dp4557
g62
(dp4558
sg71
g4544
sg64
(lp4559
g57
(g58
g59
NtRp4560
(dp4561
g62
(dp4562
g70
I3
ssg71
g4556
sg64
(lp4563
S''
asbasbasbag57
(g73
g59
NtRp4564
(dp4565
g62
(dp4566
sg71
g4500
sg64
(lp4567
g57
(g78
g59
NtRp4568
(dp4569
g62
(dp4570
g82
g83
ssg71
g4564
sg64
(lp4571
g334
asbag57
(g78
g59
NtRp4572
(dp4573
g62
(dp4574
g89
g90
ssg71
g4564
sg64
(lp4575
S':'
asbag57
(g78
g59
NtRp4576
(dp4577
g62
(dp4578
sg71
g4564
sg64
(lp4579
g57
(g58
g59
NtRp4580
(dp4581
g62
(dp4582
g70
I3
ssg71
g4576
sg64
(lp4583
S''
asbasbasbag57
(g73
g59
NtRp4584
(dp4585
g62
(dp4586
sg71
g4500
sg64
(lp4587
g57
(g78
g59
NtRp4588
(dp4589
g62
(dp4590
g82
g83
ssg71
g4584
sg64
(lp4591
g355
asbag57
(g78
g59
NtRp4592
(dp4593
g62
(dp4594
g89
g90
ssg71
g4584
sg64
(lp4595
S':'
asbag57
(g78
g59
NtRp4596
(dp4597
g62
(dp4598
sg71
g4584
sg64
(lp4599
g57
(g58
g59
NtRp4600
(dp4601
g62
(dp4602
g70
I3
ssg71
g4596
sg64
(lp4603
S''
asbasbasbag57
(g73
g59
NtRp4604
(dp4605
g62
(dp4606
sg71
g4500
sg64
(lp4607
g57
(g78
g59
NtRp4608
(dp4609
g62
(dp4610
g82
g83
ssg71
g4604
sg64
(lp4611
g376
asbag57
(g78
g59
NtRp4612
(dp4613
g62
(dp4614
g89
g90
ssg71
g4604
sg64
(lp4615
S':'
asbag57
(g78
g59
NtRp4616
(dp4617
g62
(dp4618
sg71
g4604
sg64
(lp4619
g57
(g58
g59
NtRp4620
(dp4621
g62
(dp4622
g70
I3
ssg71
g4616
sg64
(lp4623
S'/'
asbasbasbag57
(g73
g59
NtRp4624
(dp4625
g62
(dp4626
sg71
g4500
sg64
(lp4627
g57
(g78
g59
NtRp4628
(dp4629
g62
(dp4630
g82
g83
ssg71
g4624
sg64
(lp4631
g397
asbag57
(g78
g59
NtRp4632
(dp4633
g62
(dp4634
g89
g90
ssg71
g4624
sg64
(lp4635
S':'
asbag57
(g78
g59
NtRp4636
(dp4637
g62
(dp4638
sg71
g4624
sg64
(lp4639
g57
(g58
g59
NtRp4640
(dp4641
g62
(dp4642
g70
I3
ssg71
g4636
sg64
(lp4643
S''
asbasbasbag57
(g73
g59
NtRp4644
(dp4645
g62
(dp4646
sg71
g4500
sg64
(lp4647
g57
(g78
g59
NtRp4648
(dp4649
g62
(dp4650
g82
g83
ssg71
g4644
sg64
(lp4651
g418
asbag57
(g78
g59
NtRp4652
(dp4653
g62
(dp4654
g89
g90
ssg71
g4644
sg64
(lp4655
S':'
asbag57
(g78
g59
NtRp4656
(dp4657
g62
(dp4658
sg71
g4644
sg64
(lp4659
g57
(g58
g59
NtRp4660
(dp4661
g62
(dp4662
g70
I3
ssg71
g4656
sg64
(lp4663
S''
asbasbasbasbasbasbasbasbasbasbasbag57
(g73
g59
NtRp4664
(dp4665
g62
(dp4666
sg71
g4430
sg64
(lp4667
g57
(g78
g59
NtRp4668
(dp4669
g62
(dp4670
g82
g83
ssg71
g4664
sg64
(lp4671
S'delimiters'
p4672
asbag57
(g78
g59
NtRp4673
(dp4674
g62
(dp4675
g89
g90
ssg71
g4664
sg64
(lp4676
S':'
asbag57
(g78
g59
NtRp4677
(dp4678
g62
(dp4679
sg71
g4664
sg64
(lp4680
g57
(g58
g59
NtRp4681
(dp4682
g62
(dp4683
g70
I5
ssg71
g4677
sg64
(lp4684
g57
(g66
g59
NtRp4685
(dp4686
g62
(dp4687
g70
I4
ssg71
Nsg64
(lp4688
g57
(g73
g59
NtRp4689
(dp4690
g62
(dp4691
sg71
g4685
sg64
(lp4692
g57
(g78
g59
NtRp4693
(dp4694
g62
(dp4695
sg71
g4689
sg64
(lp4696
g57
(g58
g59
NtRp4697
(dp4698
g62
(dp4699
g70
I4
ssg71
g4693
sg64
(lp4700
S'{{'
p4701
asbasbasbag57
(g73
g59
NtRp4702
(dp4703
g62
(dp4704
sg71
g4685
sg64
(lp4705
g57
(g78
g59
NtRp4706
(dp4707
g62
(dp4708
sg71
g4702
sg64
(lp4709
g57
(g58
g59
NtRp4710
(dp4711
g62
(dp4712
g70
I4
ssg71
g4706
sg64
(lp4713
S'}}'
p4714
asbasbasbasbasbasbasbag57
(g73
g59
NtRp4715
(dp4716
g62
(dp4717
sg71
g4430
sg64
(lp4718
g57
(g78
g59
NtRp4719
(dp4720
g62
(dp4721
g82
g83
ssg71
g4715
sg64
(lp4722
S'description'
p4723
asbag57
(g78
g59
NtRp4724
(dp4725
g62
(dp4726
g89
g90
ssg71
g4715
sg64
(lp4727
S':'
asbag57
(g78
g59
NtRp4728
(dp4729
g62
(dp4730
sg71
g4715
sg64
(lp4731
g57
(g58
g59
NtRp4732
(dp4733
g62
(dp4734
g70
I5
ssg71
g4728
sg64
(lp4735
S'Hecho con web2py'
p4736
asbasbasbag57
(g73
g59
NtRp4737
(dp4738
g62
(dp4739
sg71
g4430
sg64
(lp4740
g57
(g78
g59
NtRp4741
(dp4742
g62
(dp4743
g82
g83
ssg71
g4737
sg64
(lp4744
S'files'
p4745
asbag57
(g78
g59
NtRp4746
(dp4747
g62
(dp4748
g89
g90
ssg71
g4737
sg64
(lp4749
S':'
asbag57
(g78
g59
NtRp4750
(dp4751
g62
(dp4752
sg71
g4737
sg64
(lp4753
g57
(g58
g59
NtRp4754
(dp4755
g62
(dp4756
g70
I5
ssg71
g4750
sg64
(lp4757
g57
(g66
g59
NtRp4758
(dp4759
g62
(dp4760
g70
I4
ssg71
Nsg64
(lp4761
g57
(g73
g59
NtRp4762
(dp4763
g62
(dp4764
sg71
g4758
sg64
(lp4765
g57
(g78
g59
NtRp4766
(dp4767
g62
(dp4768
sg71
g4762
sg64
(lp4769
g57
(g58
g59
NtRp4770
(dp4771
g62
(dp4772
g70
I4
ssg71
g4766
sg64
(lp4773
S'/plugin_t2/static/t2/scripts/jquery.js'
p4774
asbasbasbag57
(g73
g59
NtRp4775
(dp4776
g62
(dp4777
sg71
g4758
sg64
(lp4778
g57
(g78
g59
NtRp4779
(dp4780
g62
(dp4781
sg71
g4775
sg64
(lp4782
g57
(g58
g59
NtRp4783
(dp4784
g62
(dp4785
g70
I4
ssg71
g4779
sg64
(lp4786
S'/plugin_t2/static/t2/styles/calendar.css'
p4787
asbasbasbag57
(g73
g59
NtRp4788
(dp4789
g62
(dp4790
sg71
g4758
sg64
(lp4791
g57
(g78
g59
NtRp4792
(dp4793
g62
(dp4794
sg71
g4788
sg64
(lp4795
g57
(g58
g59
NtRp4796
(dp4797
g62
(dp4798
g70
I4
ssg71
g4792
sg64
(lp4799
S'/plugin_t2/static/t2/scripts/calendar.js'
p4800
asbasbasbag57
(g73
g59
NtRp4801
(dp4802
g62
(dp4803
sg71
g4758
sg64
(lp4804
g57
(g78
g59
NtRp4805
(dp4806
g62
(dp4807
sg71
g4801
sg64
(lp4808
g57
(g58
g59
NtRp4809
(dp4810
g62
(dp4811
g70
I4
ssg71
g4805
sg64
(lp4812
S'/plugin_t2/static/t2/styles/sfmenu.css'
p4813
asbasbasbag57
(g73
g59
NtRp4814
(dp4815
g62
(dp4816
sg71
g4758
sg64
(lp4817
g57
(g78
g59
NtRp4818
(dp4819
g62
(dp4820
sg71
g4814
sg64
(lp4821
g57
(g58
g59
NtRp4822
(dp4823
g62
(dp4824
g70
I4
ssg71
g4818
sg64
(lp4825
S'/plugin_t2/static/t2/scripts/sfmenu.js'
p4826
asbasbasbag57
(g73
g59
NtRp4827
(dp4828
g62
(dp4829
sg71
g4758
sg64
(lp4830
g57
(g78
g59
NtRp4831
(dp4832
g62
(dp4833
sg71
g4827
sg64
(lp4834
g57
(g58
g59
NtRp4835
(dp4836
g62
(dp4837
g70
I4
ssg71
g4831
sg64
(lp4838
S'/plugin_t2/static/t2/scripts/fancyzoom.min.js'
p4839
asbasbasbag57
(g73
g59
NtRp4840
(dp4841
g62
(dp4842
sg71
g4758
sg64
(lp4843
g57
(g78
g59
NtRp4844
(dp4845
g62
(dp4846
sg71
g4840
sg64
(lp4847
g57
(g58
g59
NtRp4848
(dp4849
g62
(dp4850
g70
I4
ssg71
g4844
sg64
(lp4851
S'/plugin_t2/static/t2/styles/rating.css'
p4852
asbasbasbag57
(g73
g59
NtRp4853
(dp4854
g62
(dp4855
sg71
g4758
sg64
(lp4856
g57
(g78
g59
NtRp4857
(dp4858
g62
(dp4859
sg71
g4853
sg64
(lp4860
g57
(g58
g59
NtRp4861
(dp4862
g62
(dp4863
g70
I4
ssg71
g4857
sg64
(lp4864
S'/plugin_t2/static/t2/scripts/rating.js'
p4865
asbasbasbag57
(g73
g59
NtRp4866
(dp4867
g62
(dp4868
sg71
g4758
sg64
(lp4869
g57
(g78
g59
NtRp4870
(dp4871
g62
(dp4872
sg71
g4866
sg64
(lp4873
g57
(g58
g59
NtRp4874
(dp4875
g62
(dp4876
g70
I4
ssg71
g4870
sg64
(lp4877
S'/plugin_t2/static/t2/scripts/web2py.js'
p4878
asbasbasbasbasbasbasbag57
(g73
g59
NtRp4879
(dp4880
g62
(dp4881
sg71
g4430
sg64
(lp4882
g57
(g78
g59
NtRp4883
(dp4884
g62
(dp4885
g82
g83
ssg71
g4879
sg64
(lp4886
S'flash'
p4887
asbag57
(g78
g59
NtRp4888
(dp4889
g62
(dp4890
g89
g90
ssg71
g4879
sg64
(lp4891
S':'
asbag57
(g78
g59
NtRp4892
(dp4893
g62
(dp4894
sg71
g4879
sg64
(lp4895
g57
(g58
g59
NtRp4896
(dp4897
g62
(dp4898
g70
I5
ssg71
g4892
sg64
(lp4899
S''
asbasbasbag57
(g73
g59
NtRp4900
(dp4901
g62
(dp4902
sg71
g4430
sg64
(lp4903
g57
(g78
g59
NtRp4904
(dp4905
g62
(dp4906
g82
g83
ssg71
g4900
sg64
(lp4907
S'footer'
p4908
asbag57
(g78
g59
NtRp4909
(dp4910
g62
(dp4911
g89
g90
ssg71
g4900
sg64
(lp4912
S':'
asbag57
(g78
g59
NtRp4913
(dp4914
g62
(dp4915
sg71
g4900
sg64
(lp4916
g57
(g58
g59
NtRp4917
(dp4918
g62
(dp4919
g70
I5
ssg71
g4913
sg64
(lp4920
S'<p>InstallFest <a href="http://www.flisol.info/">FLISOL</a> <b>28 de abril de 2012</b> - <a href="http://www.unsa.edu.ar/">Universidad Nacional de Salta</a><br/>\n<a href="http://www.flisol.info/FLISOL2012/Argentina/Salta">http://www.flisol.info/FLISOL2012/Argentina/Salta</a> - organizacion@saltalug.org.ar</p>'
p4921
asbasbasbag57
(g73
g59
NtRp4922
(dp4923
g62
(dp4924
sg71
g4430
sg64
(lp4925
g57
(g78
g59
NtRp4926
(dp4927
g62
(dp4928
g82
g83
ssg71
g4922
sg64
(lp4929
S'generic_patterns'
p4930
asbag57
(g78
g59
NtRp4931
(dp4932
g62
(dp4933
g89
g90
ssg71
g4922
sg64
(lp4934
S':'
asbag57
(g78
g59
NtRp4935
(dp4936
g62
(dp4937
sg71
g4922
sg64
(lp4938
g57
(g58
g59
NtRp4939
(dp4940
g62
(dp4941
g70
I5
ssg71
g4935
sg64
(lp4942
g57
(g66
g59
NtRp4943
(dp4944
g62
(dp4945
g70
I4
ssg71
Nsg64
(lp4946
sbasbasbasbag57
(g73
g59
NtRp4947
(dp4948
g62
(dp4949
sg71
g4430
sg64
(lp4950
g57
(g78
g59
NtRp4951
(dp4952
g62
(dp4953
g82
g83
ssg71
g4947
sg64
(lp4954
S'headers'
p4955
asbag57
(g78
g59
NtRp4956
(dp4957
g62
(dp4958
g89
g90
ssg71
g4947
sg64
(lp4959
S':'
asbag57
(g78
g59
NtRp4960
(dp4961
g62
(dp4962
sg71
g4947
sg64
(lp4963
g57
(g58
g59
NtRp4964
(dp4965
g62
(dp4966
g70
I5
ssg71
g4960
sg64
(lp4967
g57
(g66
g59
NtRp4968
(dp4969
g62
(dp4970
g70
I4
ssg71
Nsg64
(lp4971
g57
(g73
g59
NtRp4972
(dp4973
g62
(dp4974
sg71
g4968
sg64
(lp4975
g57
(g78
g59
NtRp4976
(dp4977
g62
(dp4978
g82
g83
ssg71
g4972
sg64
(lp4979
S'Cache-Control'
p4980
asbag57
(g78
g59
NtRp4981
(dp4982
g62
(dp4983
g89
g90
ssg71
g4972
sg64
(lp4984
S':'
asbag57
(g78
g59
NtRp4985
(dp4986
g62
(dp4987
sg71
g4972
sg64
(lp4988
g57
(g58
g59
NtRp4989
(dp4990
g62
(dp4991
g70
I4
ssg71
g4985
sg64
(lp4992
S'no-store, no-cache, must-revalidate, post-check=0, pre-check=0'
p4993
asbasbasbag57
(g73
g59
NtRp4994
(dp4995
g62
(dp4996
sg71
g4968
sg64
(lp4997
g57
(g78
g59
NtRp4998
(dp4999
g62
(dp5000
g82
g83
ssg71
g4994
sg64
(lp5001
S'Content-Type'
p5002
asbag57
(g78
g59
NtRp5003
(dp5004
g62
(dp5005
g89
g90
ssg71
g4994
sg64
(lp5006
S':'
asbag57
(g78
g59
NtRp5007
(dp5008
g62
(dp5009
sg71
g4994
sg64
(lp5010
g57
(g58
g59
NtRp5011
(dp5012
g62
(dp5013
g70
I4
ssg71
g5007
sg64
(lp5014
S'text/html; charset=utf-8'
p5015
asbasbasbag57
(g73
g59
NtRp5016
(dp5017
g62
(dp5018
sg71
g4968
sg64
(lp5019
g57
(g78
g59
NtRp5020
(dp5021
g62
(dp5022
g82
g83
ssg71
g5016
sg64
(lp5023
S'Expires'
p5024
asbag57
(g78
g59
NtRp5025
(dp5026
g62
(dp5027
g89
g90
ssg71
g5016
sg64
(lp5028
S':'
asbag57
(g78
g59
NtRp5029
(dp5030
g62
(dp5031
sg71
g5016
sg64
(lp5032
g57
(g58
g59
NtRp5033
(dp5034
g62
(dp5035
g70
I4
ssg71
g5029
sg64
(lp5036
S'Fri, 09 Mar 2012 22:19:22 GMT'
p5037
asbasbasbag57
(g73
g59
NtRp5038
(dp5039
g62
(dp5040
sg71
g4968
sg64
(lp5041
g57
(g78
g59
NtRp5042
(dp5043
g62
(dp5044
g82
g83
ssg71
g5038
sg64
(lp5045
S'Pragma'
p5046
asbag57
(g78
g59
NtRp5047
(dp5048
g62
(dp5049
g89
g90
ssg71
g5038
sg64
(lp5050
S':'
asbag57
(g78
g59
NtRp5051
(dp5052
g62
(dp5053
sg71
g5038
sg64
(lp5054
g57
(g58
g59
NtRp5055
(dp5056
g62
(dp5057
g70
I4
ssg71
g5051
sg64
(lp5058
S'no-cache'
p5059
asbasbasbag57
(g73
g59
NtRp5060
(dp5061
g62
(dp5062
sg71
g4968
sg64
(lp5063
g57
(g78
g59
NtRp5064
(dp5065
g62
(dp5066
g82
g83
ssg71
g5060
sg64
(lp5067
S'X-Powered-By'
p5068
asbag57
(g78
g59
NtRp5069
(dp5070
g62
(dp5071
g89
g90
ssg71
g5060
sg64
(lp5072
S':'
asbag57
(g78
g59
NtRp5073
(dp5074
g62
(dp5075
sg71
g5060
sg64
(lp5076
g57
(g58
g59
NtRp5077
(dp5078
g62
(dp5079
g70
I4
ssg71
g5073
sg64
(lp5080
S'web2py'
p5081
asbasbasbasbasbasbasbag57
(g73
g59
NtRp5082
(dp5083
g62
(dp5084
sg71
g4430
sg64
(lp5085
g57
(g78
g59
NtRp5086
(dp5087
g62
(dp5088
g82
g83
ssg71
g5082
sg64
(lp5089
S'keywords'
p5090
asbag57
(g78
g59
NtRp5091
(dp5092
g62
(dp5093
g89
g90
ssg71
g5082
sg64
(lp5094
S':'
asbag57
(g78
g59
NtRp5095
(dp5096
g62
(dp5097
sg71
g5082
sg64
(lp5098
g57
(g58
g59
NtRp5099
(dp5100
g62
(dp5101
g70
I5
ssg71
g5095
sg64
(lp5102
S'festival, instalaci\xc3\xb3n, software libre, salta, argentina, flisol'
p5103
asbasbasbag57
(g73
g59
NtRp5104
(dp5105
g62
(dp5106
sg71
g4430
sg64
(lp5107
g57
(g78
g59
NtRp5108
(dp5109
g62
(dp5110
g82
g83
ssg71
g5104
sg64
(lp5111
S'menu'
p5112
asbag57
(g78
g59
NtRp5113
(dp5114
g62
(dp5115
g89
g90
ssg71
g5104
sg64
(lp5116
S':'
asbag57
(g78
g59
NtRp5117
(dp5118
g62
(dp5119
sg71
g5104
sg64
(lp5120
g57
(g58
g59
NtRp5121
(dp5122
g62
(dp5123
g70
I5
ssg71
g5117
sg64
(lp5124
g57
(g66
g59
NtRp5125
(dp5126
g62
(dp5127
g70
I4
ssg71
Nsg64
(lp5128
g57
(g73
g59
NtRp5129
(dp5130
g62
(dp5131
sg71
g5125
sg64
(lp5132
g57
(g78
g59
NtRp5133
(dp5134
g62
(dp5135
sg71
g5129
sg64
(lp5136
g57
(g58
g59
NtRp5137
(dp5138
g62
(dp5139
g70
I4
ssg71
g5133
sg64
(lp5140
g57
(g66
g59
NtRp5141
(dp5142
g62
(dp5143
g70
I3
ssg71
Nsg64
(lp5144
g57
(g73
g59
NtRp5145
(dp5146
g62
(dp5147
sg71
g5141
sg64
(lp5148
g57
(g78
g59
NtRp5149
(dp5150
g62
(dp5151
sg71
g5145
sg64
(lp5152
g57
(g58
g59
NtRp5153
(dp5154
g62
(dp5155
g70
I3
ssg71
g5149
sg64
(lp5156
cgluon.languages
lazyT_unpickle
p5157
(S't\t\x00\x00\x00Principal'
tRp5158
asbasbasbag57
(g73
g59
NtRp5159
(dp5160
g62
(dp5161
sg71
g5141
sg64
(lp5162
g57
(g78
g59
NtRp5163
(dp5164
g62
(dp5165
sg71
g5159
sg64
(lp5166
g57
(g58
g59
NtRp5167
(dp5168
g62
(dp5169
g70
I3
ssg71
g5163
sg64
(lp5170
g100
asbasbasbag57
(g73
g59
NtRp5171
(dp5172
g62
(dp5173
sg71
g5141
sg64
(lp5174
g57
(g78
g59
NtRp5175
(dp5176
g62
(dp5177
sg71
g5171
sg64
(lp5178
g57
(g58
g59
NtRp5179
(dp5180
g62
(dp5181
g70
I3
ssg71
g5175
sg64
(lp5182
S'/flisol2012/default/index'
p5183
asbasbasbasbasbasbasbag57
(g73
g59
NtRp5184
(dp5185
g62
(dp5186
sg71
g5125
sg64
(lp5187
g57
(g78
g59
NtRp5188
(dp5189
g62
(dp5190
sg71
g5184
sg64
(lp5191
g57
(g58
g59
NtRp5192
(dp5193
g62
(dp5194
g70
I4
ssg71
g5188
sg64
(lp5195
g57
(g66
g59
NtRp5196
(dp5197
g62
(dp5198
g70
I3
ssg71
Nsg64
(lp5199
g57
(g73
g59
NtRp5200
(dp5201
g62
(dp5202
sg71
g5196
sg64
(lp5203
g57
(g78
g59
NtRp5204
(dp5205
g62
(dp5206
sg71
g5200
sg64
(lp5207
g57
(g58
g59
NtRp5208
(dp5209
g62
(dp5210
g70
I3
ssg71
g5204
sg64
(lp5211
g5157
(S't\x0b\x00\x00\x00Conferencia'
tRp5212
asbasbasbag57
(g73
g59
NtRp5213
(dp5214
g62
(dp5215
sg71
g5196
sg64
(lp5216
g57
(g78
g59
NtRp5217
(dp5218
g62
(dp5219
sg71
g5213
sg64
(lp5220
g57
(g58
g59
NtRp5221
(dp5222
g62
(dp5223
g70
I3
ssg71
g5217
sg64
(lp5224
g100
asbasbasbag57
(g73
g59
NtRp5225
(dp5226
g62
(dp5227
sg71
g5196
sg64
(lp5228
g57
(g78
g59
NtRp5229
(dp5230
g62
(dp5231
sg71
g5225
sg64
(lp5232
g57
(g58
g59
NtRp5233
(dp5234
g62
(dp5235
g70
I3
ssg71
g5229
sg64
(lp5236
S'#'
asbasbasbag57
(g73
g59
NtRp5237
(dp5238
g62
(dp5239
sg71
g5196
sg64
(lp5240
g57
(g78
g59
NtRp5241
(dp5242
g62
(dp5243
sg71
g5237
sg64
(lp5244
g57
(g58
g59
NtRp5245
(dp5246
g62
(dp5247
g70
I3
ssg71
g5241
sg64
(lp5248
g57
(g66
g59
NtRp5249
(dp5250
g62
(dp5251
g70
I2
ssg71
Nsg64
(lp5252
g57
(g73
g59
NtRp5253
(dp5254
g62
(dp5255
sg71
g5249
sg64
(lp5256
g57
(g78
g59
NtRp5257
(dp5258
g62
(dp5259
sg71
g5253
sg64
(lp5260
g57
(g58
g59
NtRp5261
(dp5262
g62
(dp5263
g70
I2
ssg71
g5257
sg64
(lp5264
g57
(g66
g59
NtRp5265
(dp5266
g62
(dp5267
g70
I1
ssg71
Nsg64
(lp5268
g57
(g73
g59
NtRp5269
(dp5270
g62
(dp5271
sg71
g5265
sg64
(lp5272
g57
(g78
g59
NtRp5273
(dp5274
g62
(dp5275
sg71
g5269
sg64
(lp5276
g57
(g58
g59
NtRp5277
(dp5278
g62
(dp5279
g70
I1
ssg71
g5273
sg64
(lp5280
g5157
(S's\t\x00\x00\x00Acerca de'
tRp5281
asbasbasbag57
(g73
g59
NtRp5282
(dp5283
g62
(dp5284
sg71
g5265
sg64
(lp5285
g57
(g78
g59
NtRp5286
(dp5287
g62
(dp5288
sg71
g5282
sg64
(lp5289
g57
(g58
g59
NtRp5290
(dp5291
g62
(dp5292
g70
I1
ssg71
g5286
sg64
(lp5293
I01
asbasbasbag57
(g73
g59
NtRp5294
(dp5295
g62
(dp5296
sg71
g5265
sg64
(lp5297
g57
(g78
g59
NtRp5298
(dp5299
g62
(dp5300
sg71
g5294
sg64
(lp5301
g57
(g58
g59
NtRp5302
(dp5303
g62
(dp5304
g70
I1
ssg71
g5298
sg64
(lp5305
S'/flisol2012/conference/about'
p5306
asbasbasbasbasbasbasbag57
(g73
g59
NtRp5307
(dp5308
g62
(dp5309
sg71
g5249
sg64
(lp5310
g57
(g78
g59
NtRp5311
(dp5312
g62
(dp5313
sg71
g5307
sg64
(lp5314
g57
(g58
g59
NtRp5315
(dp5316
g62
(dp5317
g70
I2
ssg71
g5311
sg64
(lp5318
g57
(g66
g59
NtRp5319
(dp5320
g62
(dp5321
g70
I1
ssg71
Nsg64
(lp5322
g57
(g73
g59
NtRp5323
(dp5324
g62
(dp5325
sg71
g5319
sg64
(lp5326
g57
(g78
g59
NtRp5327
(dp5328
g62
(dp5329
sg71
g5323
sg64
(lp5330
g57
(g58
g59
NtRp5331
(dp5332
g62
(dp5333
g70
I1
ssg71
g5327
sg64
(lp5334
g5157
(S't\x05\x00\x00\x00Lugar'
tRp5335
asbasbasbag57
(g73
g59
NtRp5336
(dp5337
g62
(dp5338
sg71
g5319
sg64
(lp5339
g57
(g78
g59
NtRp5340
(dp5341
g62
(dp5342
sg71
g5336
sg64
(lp5343
g57
(g58
g59
NtRp5344
(dp5345
g62
(dp5346
g70
I1
ssg71
g5340
sg64
(lp5347
I01
asbasbasbag57
(g73
g59
NtRp5348
(dp5349
g62
(dp5350
sg71
g5319
sg64
(lp5351
g57
(g78
g59
NtRp5352
(dp5353
g62
(dp5354
sg71
g5348
sg64
(lp5355
g57
(g58
g59
NtRp5356
(dp5357
g62
(dp5358
g70
I1
ssg71
g5352
sg64
(lp5359
S'/flisol2012/conference/venue'
p5360
asbasbasbasbasbasbasbag57
(g73
g59
NtRp5361
(dp5362
g62
(dp5363
sg71
g5249
sg64
(lp5364
g57
(g78
g59
NtRp5365
(dp5366
g62
(dp5367
sg71
g5361
sg64
(lp5368
g57
(g58
g59
NtRp5369
(dp5370
g62
(dp5371
g70
I2
ssg71
g5365
sg64
(lp5372
g57
(g66
g59
NtRp5373
(dp5374
g62
(dp5375
g70
I1
ssg71
Nsg64
(lp5376
g57
(g73
g59
NtRp5377
(dp5378
g62
(dp5379
sg71
g5373
sg64
(lp5380
g57
(g78
g59
NtRp5381
(dp5382
g62
(dp5383
sg71
g5377
sg64
(lp5384
g57
(g58
g59
NtRp5385
(dp5386
g62
(dp5387
g70
I1
ssg71
g5381
sg64
(lp5388
g5157
(S't\x08\x00\x00\x00Software'
tRp5389
asbasbasbag57
(g73
g59
NtRp5390
(dp5391
g62
(dp5392
sg71
g5373
sg64
(lp5393
g57
(g78
g59
NtRp5394
(dp5395
g62
(dp5396
sg71
g5390
sg64
(lp5397
g57
(g58
g59
NtRp5398
(dp5399
g62
(dp5400
g70
I1
ssg71
g5394
sg64
(lp5401
I01
asbasbasbag57
(g73
g59
NtRp5402
(dp5403
g62
(dp5404
sg71
g5373
sg64
(lp5405
g57
(g78
g59
NtRp5406
(dp5407
g62
(dp5408
sg71
g5402
sg64
(lp5409
g57
(g58
g59
NtRp5410
(dp5411
g62
(dp5412
g70
I1
ssg71
g5406
sg64
(lp5413
S'/flisol2012/conference/software'
p5414
asbasbasbasbasbasbasbag57
(g73
g59
NtRp5415
(dp5416
g62
(dp5417
sg71
g5249
sg64
(lp5418
g57
(g78
g59
NtRp5419
(dp5420
g62
(dp5421
sg71
g5415
sg64
(lp5422
g57
(g58
g59
NtRp5423
(dp5424
g62
(dp5425
g70
I2
ssg71
g5419
sg64
(lp5426
g57
(g66
g59
NtRp5427
(dp5428
g62
(dp5429
g70
I1
ssg71
Nsg64
(lp5430
g57
(g73
g59
NtRp5431
(dp5432
g62
(dp5433
sg71
g5427
sg64
(lp5434
g57
(g78
g59
NtRp5435
(dp5436
g62
(dp5437
sg71
g5431
sg64
(lp5438
g57
(g58
g59
NtRp5439
(dp5440
g62
(dp5441
g70
I1
ssg71
g5435
sg64
(lp5442
g5157
(S't\x06\x00\x00\x00Agenda'
tRp5443
asbasbasbag57
(g73
g59
NtRp5444
(dp5445
g62
(dp5446
sg71
g5427
sg64
(lp5447
g57
(g78
g59
NtRp5448
(dp5449
g62
(dp5450
sg71
g5444
sg64
(lp5451
g57
(g58
g59
NtRp5452
(dp5453
g62
(dp5454
g70
I1
ssg71
g5448
sg64
(lp5455
I01
asbasbasbag57
(g73
g59
NtRp5456
(dp5457
g62
(dp5458
sg71
g5427
sg64
(lp5459
g57
(g78
g59
NtRp5460
(dp5461
g62
(dp5462
sg71
g5456
sg64
(lp5463
g57
(g58
g59
NtRp5464
(dp5465
g62
(dp5466
g70
I1
ssg71
g5460
sg64
(lp5467
S'/flisol2012/conference/schedule'
p5468
asbasbasbasbasbasbasbag57
(g73
g59
NtRp5469
(dp5470
g62
(dp5471
sg71
g5249
sg64
(lp5472
g57
(g78
g59
NtRp5473
(dp5474
g62
(dp5475
sg71
g5469
sg64
(lp5476
g57
(g58
g59
NtRp5477
(dp5478
g62
(dp5479
g70
I2
ssg71
g5473
sg64
(lp5480
g57
(g66
g59
NtRp5481
(dp5482
g62
(dp5483
g70
I1
ssg71
Nsg64
(lp5484
g57
(g73
g59
NtRp5485
(dp5486
g62
(dp5487
sg71
g5481
sg64
(lp5488
g57
(g78
g59
NtRp5489
(dp5490
g62
(dp5491
sg71
g5485
sg64
(lp5492
g57
(g58
g59
NtRp5493
(dp5494
g62
(dp5495
g70
I1
ssg71
g5489
sg64
(lp5496
g5157
(S's\x15\x00\x00\x00Propuestas de charlas'
tRp5497
asbasbasbag57
(g73
g59
NtRp5498
(dp5499
g62
(dp5500
sg71
g5481
sg64
(lp5501
g57
(g78
g59
NtRp5502
(dp5503
g62
(dp5504
sg71
g5498
sg64
(lp5505
g57
(g58
g59
NtRp5506
(dp5507
g62
(dp5508
g70
I1
ssg71
g5502
sg64
(lp5509
I01
asbasbasbag57
(g73
g59
NtRp5510
(dp5511
g62
(dp5512
sg71
g5481
sg64
(lp5513
g57
(g78
g59
NtRp5514
(dp5515
g62
(dp5516
sg71
g5510
sg64
(lp5517
g57
(g58
g59
NtRp5518
(dp5519
g62
(dp5520
g70
I1
ssg71
g5514
sg64
(lp5521
S'/flisol2012/conference/proposals'
p5522
asbasbasbasbasbasbasbag57
(g73
g59
NtRp5523
(dp5524
g62
(dp5525
sg71
g5249
sg64
(lp5526
g57
(g78
g59
NtRp5527
(dp5528
g62
(dp5529
sg71
g5523
sg64
(lp5530
g57
(g58
g59
NtRp5531
(dp5532
g62
(dp5533
g70
I2
ssg71
g5527
sg64
(lp5534
g57
(g66
g59
NtRp5535
(dp5536
g62
(dp5537
g70
I1
ssg71
Nsg64
(lp5538
g57
(g73
g59
NtRp5539
(dp5540
g62
(dp5541
sg71
g5535
sg64
(lp5542
g57
(g78
g59
NtRp5543
(dp5544
g62
(dp5545
sg71
g5539
sg64
(lp5546
g57
(g58
g59
NtRp5547
(dp5548
g62
(dp5549
g70
I1
ssg71
g5543
sg64
(lp5550
g5157
(S't\r\x00\x00\x00Organizadores'
tRp5551
asbasbasbag57
(g73
g59
NtRp5552
(dp5553
g62
(dp5554
sg71
g5535
sg64
(lp5555
g57
(g78
g59
NtRp5556
(dp5557
g62
(dp5558
sg71
g5552
sg64
(lp5559
g57
(g58
g59
NtRp5560
(dp5561
g62
(dp5562
g70
I1
ssg71
g5556
sg64
(lp5563
I01
asbasbasbag57
(g73
g59
NtRp5564
(dp5565
g62
(dp5566
sg71
g5535
sg64
(lp5567
g57
(g78
g59
NtRp5568
(dp5569
g62
(dp5570
sg71
g5564
sg64
(lp5571
g57
(g58
g59
NtRp5572
(dp5573
g62
(dp5574
g70
I1
ssg71
g5568
sg64
(lp5575
S'/flisol2012/conference/staff'
p5576
asbasbasbasbasbasbasbasbasbasbasbasbasbasbasbag57
(g73
g59
NtRp5577
(dp5578
g62
(dp5579
sg71
g5125
sg64
(lp5580
g57
(g78
g59
NtRp5581
(dp5582
g62
(dp5583
sg71
g5577
sg64
(lp5584
g57
(g58
g59
NtRp5585
(dp5586
g62
(dp5587
g70
I4
ssg71
g5581
sg64
(lp5588
g57
(g66
g59
NtRp5589
(dp5590
g62
(dp5591
g70
I3
ssg71
Nsg64
(lp5592
g57
(g73
g59
NtRp5593
(dp5594
g62
(dp5595
sg71
g5589
sg64
(lp5596
g57
(g78
g59
NtRp5597
(dp5598
g62
(dp5599
sg71
g5593
sg64
(lp5600
g57
(g58
g59
NtRp5601
(dp5602
g62
(dp5603
g70
I3
ssg71
g5597
sg64
(lp5604
g5157
(S's\t\x00\x00\x00Acerca de'
tRp5605
asbasbasbag57
(g73
g59
NtRp5606
(dp5607
g62
(dp5608
sg71
g5589
sg64
(lp5609
g57
(g78
g59
NtRp5610
(dp5611
g62
(dp5612
sg71
g5606
sg64
(lp5613
g57
(g58
g59
NtRp5614
(dp5615
g62
(dp5616
g70
I3
ssg71
g5610
sg64
(lp5617
g100
asbasbasbag57
(g73
g59
NtRp5618
(dp5619
g62
(dp5620
sg71
g5589
sg64
(lp5621
g57
(g78
g59
NtRp5622
(dp5623
g62
(dp5624
sg71
g5618
sg64
(lp5625
g57
(g58
g59
NtRp5626
(dp5627
g62
(dp5628
g70
I3
ssg71
g5622
sg64
(lp5629
S'/flisol2012/default/about'
p5630
asbasbasbasbasbasbasbag57
(g73
g59
NtRp5631
(dp5632
g62
(dp5633
sg71
g5125
sg64
(lp5634
g57
(g78
g59
NtRp5635
(dp5636
g62
(dp5637
sg71
g5631
sg64
(lp5638
g57
(g58
g59
NtRp5639
(dp5640
g62
(dp5641
g70
I4
ssg71
g5635
sg64
(lp5642
g57
(g66
g59
NtRp5643
(dp5644
g62
(dp5645
g70
I3
ssg71
Nsg64
(lp5646
g57
(g73
g59
NtRp5647
(dp5648
g62
(dp5649
sg71
g5643
sg64
(lp5650
g57
(g78
g59
NtRp5651
(dp5652
g62
(dp5653
sg71
g5647
sg64
(lp5654
g57
(g58
g59
NtRp5655
(dp5656
g62
(dp5657
g70
I3
ssg71
g5651
sg64
(lp5658
g5157
(S't\x08\x00\x00\x00Expenses'
tRp5659
asbasbasbag57
(g73
g59
NtRp5660
(dp5661
g62
(dp5662
sg71
g5643
sg64
(lp5663
g57
(g78
g59
NtRp5664
(dp5665
g62
(dp5666
sg71
g5660
sg64
(lp5667
g57
(g58
g59
NtRp5668
(dp5669
g62
(dp5670
g70
I3
ssg71
g5664
sg64
(lp5671
g1841
asbasbasbag57
(g73
g59
NtRp5672
(dp5673
g62
(dp5674
sg71
g5643
sg64
(lp5675
g57
(g78
g59
NtRp5676
(dp5677
g62
(dp5678
sg71
g5672
sg64
(lp5679
g57
(g58
g59
NtRp5680
(dp5681
g62
(dp5682
g70
I3
ssg71
g5676
sg64
(lp5683
S'/flisol2012/expenses/index'
p5684
asbasbasbasbasbasbasbag57
(g73
g59
NtRp5685
(dp5686
g62
(dp5687
sg71
g5125
sg64
(lp5688
g57
(g78
g59
NtRp5689
(dp5690
g62
(dp5691
sg71
g5685
sg64
(lp5692
g57
(g58
g59
NtRp5693
(dp5694
g62
(dp5695
g70
I4
ssg71
g5689
sg64
(lp5696
g57
(g66
g59
NtRp5697
(dp5698
g62
(dp5699
g70
I3
ssg71
Nsg64
(lp5700
g57
(g73
g59
NtRp5701
(dp5702
g62
(dp5703
sg71
g5697
sg64
(lp5704
g57
(g78
g59
NtRp5705
(dp5706
g62
(dp5707
sg71
g5701
sg64
(lp5708
g57
(g58
g59
NtRp5709
(dp5710
g62
(dp5711
g70
I3
ssg71
g5705
sg64
(lp5712
g5157
(S't\x06\x00\x00\x00Perfil'
tRp5713
asbasbasbag57
(g73
g59
NtRp5714
(dp5715
g62
(dp5716
sg71
g5697
sg64
(lp5717
g57
(g78
g59
NtRp5718
(dp5719
g62
(dp5720
sg71
g5714
sg64
(lp5721
g57
(g58
g59
NtRp5722
(dp5723
g62
(dp5724
g70
I3
ssg71
g5718
sg64
(lp5725
g100
asbasbasbag57
(g73
g59
NtRp5726
(dp5727
g62
(dp5728
sg71
g5697
sg64
(lp5729
g57
(g78
g59
NtRp5730
(dp5731
g62
(dp5732
sg71
g5726
sg64
(lp5733
g57
(g58
g59
NtRp5734
(dp5735
g62
(dp5736
g70
I3
ssg71
g5730
sg64
(lp5737
S'/flisol2012/default/profile'
p5738
asbasbasbasbasbasbasbag57
(g73
g59
NtRp5739
(dp5740
g62
(dp5741
sg71
g5125
sg64
(lp5742
g57
(g78
g59
NtRp5743
(dp5744
g62
(dp5745
sg71
g5739
sg64
(lp5746
g57
(g58
g59
NtRp5747
(dp5748
g62
(dp5749
g70
I4
ssg71
g5743
sg64
(lp5750
g57
(g66
g59
NtRp5751
(dp5752
g62
(dp5753
g70
I3
ssg71
Nsg64
(lp5754
g57
(g73
g59
NtRp5755
(dp5756
g62
(dp5757
sg71
g5751
sg64
(lp5758
g57
(g78
g59
NtRp5759
(dp5760
g62
(dp5761
sg71
g5755
sg64
(lp5762
g57
(g58
g59
NtRp5763
(dp5764
g62
(dp5765
g70
I3
ssg71
g5759
sg64
(lp5766
g5157
(S's\x0e\x00\x00\x00Cerrar Sesi\xc3\xb3n'
tRp5767
asbasbasbag57
(g73
g59
NtRp5768
(dp5769
g62
(dp5770
sg71
g5751
sg64
(lp5771
g57
(g78
g59
NtRp5772
(dp5773
g62
(dp5774
sg71
g5768
sg64
(lp5775
g57
(g58
g59
NtRp5776
(dp5777
g62
(dp5778
g70
I3
ssg71
g5772
sg64
(lp5779
g100
asbasbasbag57
(g73
g59
NtRp5780
(dp5781
g62
(dp5782
sg71
g5751
sg64
(lp5783
g57
(g78
g59
NtRp5784
(dp5785
g62
(dp5786
sg71
g5780
sg64
(lp5787
g57
(g58
g59
NtRp5788
(dp5789
g62
(dp5790
g70
I3
ssg71
g5784
sg64
(lp5791
S'/flisol2012/default/logout'
p5792
asbasbasbasbasbasbasbag57
(g73
g59
NtRp5793
(dp5794
g62
(dp5795
sg71
g5125
sg64
(lp5796
g57
(g78
g59
NtRp5797
(dp5798
g62
(dp5799
sg71
g5793
sg64
(lp5800
g57
(g58
g59
NtRp5801
(dp5802
g62
(dp5803
g70
I4
ssg71
g5797
sg64
(lp5804
g57
(g66
g59
NtRp5805
(dp5806
g62
(dp5807
g70
I3
ssg71
Nsg64
(lp5808
g57
(g73
g59
NtRp5809
(dp5810
g62
(dp5811
sg71
g5805
sg64
(lp5812
g57
(g78
g59
NtRp5813
(dp5814
g62
(dp5815
sg71
g5809
sg64
(lp5816
g57
(g58
g59
NtRp5817
(dp5818
g62
(dp5819
g70
I3
ssg71
g5813
sg64
(lp5820
g5157
(S't\n\x00\x00\x00Administre'
tRp5821
asbasbasbag57
(g73
g59
NtRp5822
(dp5823
g62
(dp5824
sg71
g5805
sg64
(lp5825
g57
(g78
g59
NtRp5826
(dp5827
g62
(dp5828
sg71
g5822
sg64
(lp5829
g57
(g58
g59
NtRp5830
(dp5831
g62
(dp5832
g70
I3
ssg71
g5826
sg64
(lp5833
g100
asbasbasbag57
(g73
g59
NtRp5834
(dp5835
g62
(dp5836
sg71
g5805
sg64
(lp5837
g57
(g78
g59
NtRp5838
(dp5839
g62
(dp5840
sg71
g5834
sg64
(lp5841
g57
(g58
g59
NtRp5842
(dp5843
g62
(dp5844
g70
I3
ssg71
g5838
sg64
(lp5845
S'#'
asbasbasbag57
(g73
g59
NtRp5846
(dp5847
g62
(dp5848
sg71
g5805
sg64
(lp5849
g57
(g78
g59
NtRp5850
(dp5851
g62
(dp5852
sg71
g5846
sg64
(lp5853
g57
(g58
g59
NtRp5854
(dp5855
g62
(dp5856
g70
I3
ssg71
g5850
sg64
(lp5857
g57
(g66
g59
NtRp5858
(dp5859
g62
(dp5860
g70
I2
ssg71
Nsg64
(lp5861
g57
(g73
g59
NtRp5862
(dp5863
g62
(dp5864
sg71
g5858
sg64
(lp5865
g57
(g78
g59
NtRp5866
(dp5867
g62
(dp5868
sg71
g5862
sg64
(lp5869
g57
(g58
g59
NtRp5870
(dp5871
g62
(dp5872
g70
I2
ssg71
g5866
sg64
(lp5873
g57
(g66
g59
NtRp5874
(dp5875
g62
(dp5876
g70
I1
ssg71
Nsg64
(lp5877
g57
(g73
g59
NtRp5878
(dp5879
g62
(dp5880
sg71
g5874
sg64
(lp5881
g57
(g78
g59
NtRp5882
(dp5883
g62
(dp5884
sg71
g5878
sg64
(lp5885
g57
(g58
g59
NtRp5886
(dp5887
g62
(dp5888
g70
I1
ssg71
g5882
sg64
(lp5889
g5157
(S't\x08\x00\x00\x00Finanzas'
tRp5890
asbasbasbag57
(g73
g59
NtRp5891
(dp5892
g62
(dp5893
sg71
g5874
sg64
(lp5894
g57
(g78
g59
NtRp5895
(dp5896
g62
(dp5897
sg71
g5891
sg64
(lp5898
g57
(g58
g59
NtRp5899
(dp5900
g62
(dp5901
g70
I1
ssg71
g5895
sg64
(lp5902
I00
asbasbasbag57
(g73
g59
NtRp5903
(dp5904
g62
(dp5905
sg71
g5874
sg64
(lp5906
g57
(g78
g59
NtRp5907
(dp5908
g62
(dp5909
sg71
g5903
sg64
(lp5910
g57
(g58
g59
NtRp5911
(dp5912
g62
(dp5913
g70
I1
ssg71
g5907
sg64
(lp5914
S'/flisol2012/default/financials'
p5915
asbasbasbasbasbasbasbag57
(g73
g59
NtRp5916
(dp5917
g62
(dp5918
sg71
g5858
sg64
(lp5919
g57
(g78
g59
NtRp5920
(dp5921
g62
(dp5922
sg71
g5916
sg64
(lp5923
g57
(g58
g59
NtRp5924
(dp5925
g62
(dp5926
g70
I2
ssg71
g5920
sg64
(lp5927
g57
(g66
g59
NtRp5928
(dp5929
g62
(dp5930
g70
I1
ssg71
Nsg64
(lp5931
g57
(g73
g59
NtRp5932
(dp5933
g62
(dp5934
sg71
g5928
sg64
(lp5935
g57
(g78
g59
NtRp5936
(dp5937
g62
(dp5938
sg71
g5932
sg64
(lp5939
g57
(g58
g59
NtRp5940
(dp5941
g62
(dp5942
g70
I1
ssg71
g5936
sg64
(lp5943
g5157
(S't\x05\x00\x00\x00Pagos'
tRp5944
asbasbasbag57
(g73
g59
NtRp5945
(dp5946
g62
(dp5947
sg71
g5928
sg64
(lp5948
g57
(g78
g59
NtRp5949
(dp5950
g62
(dp5951
sg71
g5945
sg64
(lp5952
g57
(g58
g59
NtRp5953
(dp5954
g62
(dp5955
g70
I1
ssg71
g5949
sg64
(lp5956
I00
asbasbasbag57
(g73
g59
NtRp5957
(dp5958
g62
(dp5959
sg71
g5928
sg64
(lp5960
g57
(g78
g59
NtRp5961
(dp5962
g62
(dp5963
sg71
g5957
sg64
(lp5964
g57
(g58
g59
NtRp5965
(dp5966
g62
(dp5967
g70
I1
ssg71
g5961
sg64
(lp5968
S'/flisol2012/default/payments'
p5969
asbasbasbasbasbasbasbag57
(g73
g59
NtRp5970
(dp5971
g62
(dp5972
sg71
g5858
sg64
(lp5973
g57
(g78
g59
NtRp5974
(dp5975
g62
(dp5976
sg71
g5970
sg64
(lp5977
g57
(g58
g59
NtRp5978
(dp5979
g62
(dp5980
g70
I2
ssg71
g5974
sg64
(lp5981
g57
(g66
g59
NtRp5982
(dp5983
g62
(dp5984
g70
I1
ssg71
Nsg64
(lp5985
g57
(g73
g59
NtRp5986
(dp5987
g62
(dp5988
sg71
g5982
sg64
(lp5989
g57
(g78
g59
NtRp5990
(dp5991
g62
(dp5992
sg71
g5986
sg64
(lp5993
g57
(g58
g59
NtRp5994
(dp5995
g62
(dp5996
g70
I1
ssg71
g5990
sg64
(lp5997
g5157
(S's!\x00\x00\x00Lista de correos de Participantes'
tRp5998
asbasbasbag57
(g73
g59
NtRp5999
(dp6000
g62
(dp6001
sg71
g5982
sg64
(lp6002
g57
(g78
g59
NtRp6003
(dp6004
g62
(dp6005
sg71
g5999
sg64
(lp6006
g57
(g58
g59
NtRp6007
(dp6008
g62
(dp6009
g70
I1
ssg71
g6003
sg64
(lp6010
I00
asbasbasbag57
(g73
g59
NtRp6011
(dp6012
g62
(dp6013
sg71
g5982
sg64
(lp6014
g57
(g78
g59
NtRp6015
(dp6016
g62
(dp6017
sg71
g6011
sg64
(lp6018
g57
(g58
g59
NtRp6019
(dp6020
g62
(dp6021
g70
I1
ssg71
g6015
sg64
(lp6022
S'/flisol2012/default/maillist'
p6023
asbasbasbasbasbasbasbag57
(g73
g59
NtRp6024
(dp6025
g62
(dp6026
sg71
g5858
sg64
(lp6027
g57
(g78
g59
NtRp6028
(dp6029
g62
(dp6030
sg71
g6024
sg64
(lp6031
g57
(g58
g59
NtRp6032
(dp6033
g62
(dp6034
g70
I2
ssg71
g6028
sg64
(lp6035
g57
(g66
g59
NtRp6036
(dp6037
g62
(dp6038
g70
I1
ssg71
Nsg64
(lp6039
g57
(g73
g59
NtRp6040
(dp6041
g62
(dp6042
sg71
g6036
sg64
(lp6043
g57
(g78
g59
NtRp6044
(dp6045
g62
(dp6046
sg71
g6040
sg64
(lp6047
g57
(g58
g59
NtRp6048
(dp6049
g62
(dp6050
g70
I1
ssg71
g6044
sg64
(lp6051
g5157
(S't\x10\x00\x00\x00Identificaciones'
tRp6052
asbasbasbag57
(g73
g59
NtRp6053
(dp6054
g62
(dp6055
sg71
g6036
sg64
(lp6056
g57
(g78
g59
NtRp6057
(dp6058
g62
(dp6059
sg71
g6053
sg64
(lp6060
g57
(g58
g59
NtRp6061
(dp6062
g62
(dp6063
g70
I1
ssg71
g6057
sg64
(lp6064
I00
asbasbasbag57
(g73
g59
NtRp6065
(dp6066
g62
(dp6067
sg71
g6036
sg64
(lp6068
g57
(g78
g59
NtRp6069
(dp6070
g62
(dp6071
sg71
g6065
sg64
(lp6072
g57
(g58
g59
NtRp6073
(dp6074
g62
(dp6075
g70
I1
ssg71
g6069
sg64
(lp6076
S'/flisol2012/default/badge/auth_user'
p6077
asbasbasbasbasbasbasbag57
(g73
g59
NtRp6078
(dp6079
g62
(dp6080
sg71
g5858
sg64
(lp6081
g57
(g78
g59
NtRp6082
(dp6083
g62
(dp6084
sg71
g6078
sg64
(lp6085
g57
(g58
g59
NtRp6086
(dp6087
g62
(dp6088
g70
I2
ssg71
g6082
sg64
(lp6089
g57
(g66
g59
NtRp6090
(dp6091
g62
(dp6092
g70
I1
ssg71
Nsg64
(lp6093
g57
(g73
g59
NtRp6094
(dp6095
g62
(dp6096
sg71
g6090
sg64
(lp6097
g57
(g78
g59
NtRp6098
(dp6099
g62
(dp6100
sg71
g6094
sg64
(lp6101
g57
(g58
g59
NtRp6102
(dp6103
g62
(dp6104
g70
I1
ssg71
g6098
sg64
(lp6105
g5157
(S't\n\x00\x00\x00Tutoriales'
tRp6106
asbasbasbag57
(g73
g59
NtRp6107
(dp6108
g62
(dp6109
sg71
g6090
sg64
(lp6110
g57
(g78
g59
NtRp6111
(dp6112
g62
(dp6113
sg71
g6107
sg64
(lp6114
g57
(g58
g59
NtRp6115
(dp6116
g62
(dp6117
g70
I1
ssg71
g6111
sg64
(lp6118
I00
asbasbasbag57
(g73
g59
NtRp6119
(dp6120
g62
(dp6121
sg71
g6090
sg64
(lp6122
g57
(g78
g59
NtRp6123
(dp6124
g62
(dp6125
sg71
g6119
sg64
(lp6126
g57
(g58
g59
NtRp6127
(dp6128
g62
(dp6129
g70
I1
ssg71
g6123
sg64
(lp6130
S'/flisol2012/default/list_by_tutorial'
p6131
asbasbasbasbasbasbasbag57
(g73
g59
NtRp6132
(dp6133
g62
(dp6134
sg71
g5858
sg64
(lp6135
g57
(g78
g59
NtRp6136
(dp6137
g62
(dp6138
sg71
g6132
sg64
(lp6139
g57
(g58
g59
NtRp6140
(dp6141
g62
(dp6142
g70
I2
ssg71
g6136
sg64
(lp6143
g57
(g66
g59
NtRp6144
(dp6145
g62
(dp6146
g70
I1
ssg71
Nsg64
(lp6147
g57
(g73
g59
NtRp6148
(dp6149
g62
(dp6150
sg71
g6144
sg64
(lp6151
g57
(g78
g59
NtRp6152
(dp6153
g62
(dp6154
sg71
g6148
sg64
(lp6155
g57
(g58
g59
NtRp6156
(dp6157
g62
(dp6158
g70
I1
ssg71
g6152
sg64
(lp6159
g5157
(S's\x0e\x00\x00\x00*** FA-CSV ???'
tRp6160
asbasbasbag57
(g73
g59
NtRp6161
(dp6162
g62
(dp6163
sg71
g6144
sg64
(lp6164
g57
(g78
g59
NtRp6165
(dp6166
g62
(dp6167
sg71
g6161
sg64
(lp6168
g57
(g58
g59
NtRp6169
(dp6170
g62
(dp6171
g70
I1
ssg71
g6165
sg64
(lp6172
I00
asbasbasbag57
(g73
g59
NtRp6173
(dp6174
g62
(dp6175
sg71
g6144
sg64
(lp6176
g57
(g78
g59
NtRp6177
(dp6178
g62
(dp6179
sg71
g6173
sg64
(lp6180
g57
(g58
g59
NtRp6181
(dp6182
g62
(dp6183
g70
I1
ssg71
g6177
sg64
(lp6184
S'/flisol2012/default/fa_csv'
p6185
asbasbasbasbasbasbasbag57
(g73
g59
NtRp6186
(dp6187
g62
(dp6188
sg71
g5858
sg64
(lp6189
g57
(g78
g59
NtRp6190
(dp6191
g62
(dp6192
sg71
g6186
sg64
(lp6193
g57
(g58
g59
NtRp6194
(dp6195
g62
(dp6196
g70
I2
ssg71
g6190
sg64
(lp6197
g57
(g66
g59
NtRp6198
(dp6199
g62
(dp6200
g70
I1
ssg71
Nsg64
(lp6201
g57
(g73
g59
NtRp6202
(dp6203
g62
(dp6204
sg71
g6198
sg64
(lp6205
g57
(g78
g59
NtRp6206
(dp6207
g62
(dp6208
sg71
g6202
sg64
(lp6209
g57
(g58
g59
NtRp6210
(dp6211
g62
(dp6212
g70
I1
ssg71
g6206
sg64
(lp6213
g5157
(S's\x16\x00\x00\x00*** FA-(email all) ???'
tRp6214
asbasbasbag57
(g73
g59
NtRp6215
(dp6216
g62
(dp6217
sg71
g6198
sg64
(lp6218
g57
(g78
g59
NtRp6219
(dp6220
g62
(dp6221
sg71
g6215
sg64
(lp6222
g57
(g58
g59
NtRp6223
(dp6224
g62
(dp6225
g70
I1
ssg71
g6219
sg64
(lp6226
I00
asbasbasbag57
(g73
g59
NtRp6227
(dp6228
g62
(dp6229
sg71
g6198
sg64
(lp6230
g57
(g78
g59
NtRp6231
(dp6232
g62
(dp6233
sg71
g6227
sg64
(lp6234
g57
(g58
g59
NtRp6235
(dp6236
g62
(dp6237
g70
I1
ssg71
g6231
sg64
(lp6238
S'/flisol2012/default/fa_email_all'
p6239
asbasbasbasbasbasbasbag57
(g73
g59
NtRp6240
(dp6241
g62
(dp6242
sg71
g5858
sg64
(lp6243
g57
(g78
g59
NtRp6244
(dp6245
g62
(dp6246
sg71
g6240
sg64
(lp6247
g57
(g58
g59
NtRp6248
(dp6249
g62
(dp6250
g70
I2
ssg71
g6244
sg64
(lp6251
g57
(g66
g59
NtRp6252
(dp6253
g62
(dp6254
g70
I1
ssg71
Nsg64
(lp6255
g57
(g73
g59
NtRp6256
(dp6257
g62
(dp6258
sg71
g6252
sg64
(lp6259
g57
(g78
g59
NtRp6260
(dp6261
g62
(dp6262
sg71
g6256
sg64
(lp6263
g57
(g58
g59
NtRp6264
(dp6265
g62
(dp6266
g70
I1
ssg71
g6260
sg64
(lp6267
S'[auth_user]'
p6268
asbasbasbag57
(g73
g59
NtRp6269
(dp6270
g62
(dp6271
sg71
g6252
sg64
(lp6272
g57
(g78
g59
NtRp6273
(dp6274
g62
(dp6275
sg71
g6269
sg64
(lp6276
g57
(g58
g59
NtRp6277
(dp6278
g62
(dp6279
g70
I1
ssg71
g6273
sg64
(lp6280
I00
asbasbasbag57
(g73
g59
NtRp6281
(dp6282
g62
(dp6283
sg71
g6252
sg64
(lp6284
g57
(g78
g59
NtRp6285
(dp6286
g62
(dp6287
sg71
g6281
sg64
(lp6288
g57
(g58
g59
NtRp6289
(dp6290
g62
(dp6291
g70
I1
ssg71
g6285
sg64
(lp6292
S'/flisol2012/default/create/auth_user'
p6293
asbasbasbasbasbasbasbag57
(g73
g59
NtRp6294
(dp6295
g62
(dp6296
sg71
g5858
sg64
(lp6297
g57
(g78
g59
NtRp6298
(dp6299
g62
(dp6300
sg71
g6294
sg64
(lp6301
g57
(g58
g59
NtRp6302
(dp6303
g62
(dp6304
g70
I2
ssg71
g6298
sg64
(lp6305
g57
(g66
g59
NtRp6306
(dp6307
g62
(dp6308
g70
I1
ssg71
Nsg64
(lp6309
g57
(g73
g59
NtRp6310
(dp6311
g62
(dp6312
sg71
g6306
sg64
(lp6313
g57
(g78
g59
NtRp6314
(dp6315
g62
(dp6316
sg71
g6310
sg64
(lp6317
g57
(g58
g59
NtRp6318
(dp6319
g62
(dp6320
g70
I1
ssg71
g6314
sg64
(lp6321
S'[auth_group]'
p6322
asbasbasbag57
(g73
g59
NtRp6323
(dp6324
g62
(dp6325
sg71
g6306
sg64
(lp6326
g57
(g78
g59
NtRp6327
(dp6328
g62
(dp6329
sg71
g6323
sg64
(lp6330
g57
(g58
g59
NtRp6331
(dp6332
g62
(dp6333
g70
I1
ssg71
g6327
sg64
(lp6334
I00
asbasbasbag57
(g73
g59
NtRp6335
(dp6336
g62
(dp6337
sg71
g6306
sg64
(lp6338
g57
(g78
g59
NtRp6339
(dp6340
g62
(dp6341
sg71
g6335
sg64
(lp6342
g57
(g58
g59
NtRp6343
(dp6344
g62
(dp6345
g70
I1
ssg71
g6339
sg64
(lp6346
S'/flisol2012/default/create/auth_group'
p6347
asbasbasbasbasbasbasbag57
(g73
g59
NtRp6348
(dp6349
g62
(dp6350
sg71
g5858
sg64
(lp6351
g57
(g78
g59
NtRp6352
(dp6353
g62
(dp6354
sg71
g6348
sg64
(lp6355
g57
(g58
g59
NtRp6356
(dp6357
g62
(dp6358
g70
I2
ssg71
g6352
sg64
(lp6359
g57
(g66
g59
NtRp6360
(dp6361
g62
(dp6362
g70
I1
ssg71
Nsg64
(lp6363
g57
(g73
g59
NtRp6364
(dp6365
g62
(dp6366
sg71
g6360
sg64
(lp6367
g57
(g78
g59
NtRp6368
(dp6369
g62
(dp6370
sg71
g6364
sg64
(lp6371
g57
(g58
g59
NtRp6372
(dp6373
g62
(dp6374
g70
I1
ssg71
g6368
sg64
(lp6375
S'[auth_membership]'
p6376
asbasbasbag57
(g73
g59
NtRp6377
(dp6378
g62
(dp6379
sg71
g6360
sg64
(lp6380
g57
(g78
g59
NtRp6381
(dp6382
g62
(dp6383
sg71
g6377
sg64
(lp6384
g57
(g58
g59
NtRp6385
(dp6386
g62
(dp6387
g70
I1
ssg71
g6381
sg64
(lp6388
I00
asbasbasbag57
(g73
g59
NtRp6389
(dp6390
g62
(dp6391
sg71
g6360
sg64
(lp6392
g57
(g78
g59
NtRp6393
(dp6394
g62
(dp6395
sg71
g6389
sg64
(lp6396
g57
(g58
g59
NtRp6397
(dp6398
g62
(dp6399
g70
I1
ssg71
g6393
sg64
(lp6400
S'/flisol2012/default/create/auth_membership'
p6401
asbasbasbasbasbasbasbag57
(g73
g59
NtRp6402
(dp6403
g62
(dp6404
sg71
g5858
sg64
(lp6405
g57
(g78
g59
NtRp6406
(dp6407
g62
(dp6408
sg71
g6402
sg64
(lp6409
g57
(g58
g59
NtRp6410
(dp6411
g62
(dp6412
g70
I2
ssg71
g6406
sg64
(lp6413
g57
(g66
g59
NtRp6414
(dp6415
g62
(dp6416
g70
I1
ssg71
Nsg64
(lp6417
g57
(g73
g59
NtRp6418
(dp6419
g62
(dp6420
sg71
g6414
sg64
(lp6421
g57
(g78
g59
NtRp6422
(dp6423
g62
(dp6424
sg71
g6418
sg64
(lp6425
g57
(g58
g59
NtRp6426
(dp6427
g62
(dp6428
g70
I1
ssg71
g6422
sg64
(lp6429
S'[auth_permission]'
p6430
asbasbasbag57
(g73
g59
NtRp6431
(dp6432
g62
(dp6433
sg71
g6414
sg64
(lp6434
g57
(g78
g59
NtRp6435
(dp6436
g62
(dp6437
sg71
g6431
sg64
(lp6438
g57
(g58
g59
NtRp6439
(dp6440
g62
(dp6441
g70
I1
ssg71
g6435
sg64
(lp6442
I00
asbasbasbag57
(g73
g59
NtRp6443
(dp6444
g62
(dp6445
sg71
g6414
sg64
(lp6446
g57
(g78
g59
NtRp6447
(dp6448
g62
(dp6449
sg71
g6443
sg64
(lp6450
g57
(g58
g59
NtRp6451
(dp6452
g62
(dp6453
g70
I1
ssg71
g6447
sg64
(lp6454
S'/flisol2012/default/create/auth_permission'
p6455
asbasbasbasbasbasbasbag57
(g73
g59
NtRp6456
(dp6457
g62
(dp6458
sg71
g5858
sg64
(lp6459
g57
(g78
g59
NtRp6460
(dp6461
g62
(dp6462
sg71
g6456
sg64
(lp6463
g57
(g58
g59
NtRp6464
(dp6465
g62
(dp6466
g70
I2
ssg71
g6460
sg64
(lp6467
g57
(g66
g59
NtRp6468
(dp6469
g62
(dp6470
g70
I1
ssg71
Nsg64
(lp6471
g57
(g73
g59
NtRp6472
(dp6473
g62
(dp6474
sg71
g6468
sg64
(lp6475
g57
(g78
g59
NtRp6476
(dp6477
g62
(dp6478
sg71
g6472
sg64
(lp6479
g57
(g58
g59
NtRp6480
(dp6481
g62
(dp6482
g70
I1
ssg71
g6476
sg64
(lp6483
S'[auth_event]'
p6484
asbasbasbag57
(g73
g59
NtRp6485
(dp6486
g62
(dp6487
sg71
g6468
sg64
(lp6488
g57
(g78
g59
NtRp6489
(dp6490
g62
(dp6491
sg71
g6485
sg64
(lp6492
g57
(g58
g59
NtRp6493
(dp6494
g62
(dp6495
g70
I1
ssg71
g6489
sg64
(lp6496
I00
asbasbasbag57
(g73
g59
NtRp6497
(dp6498
g62
(dp6499
sg71
g6468
sg64
(lp6500
g57
(g78
g59
NtRp6501
(dp6502
g62
(dp6503
sg71
g6497
sg64
(lp6504
g57
(g58
g59
NtRp6505
(dp6506
g62
(dp6507
g70
I1
ssg71
g6501
sg64
(lp6508
S'/flisol2012/default/create/auth_event'
p6509
asbasbasbasbasbasbasbag57
(g73
g59
NtRp6510
(dp6511
g62
(dp6512
sg71
g5858
sg64
(lp6513
g57
(g78
g59
NtRp6514
(dp6515
g62
(dp6516
sg71
g6510
sg64
(lp6517
g57
(g58
g59
NtRp6518
(dp6519
g62
(dp6520
g70
I2
ssg71
g6514
sg64
(lp6521
g57
(g66
g59
NtRp6522
(dp6523
g62
(dp6524
g70
I1
ssg71
Nsg64
(lp6525
g57
(g73
g59
NtRp6526
(dp6527
g62
(dp6528
sg71
g6522
sg64
(lp6529
g57
(g78
g59
NtRp6530
(dp6531
g62
(dp6532
sg71
g6526
sg64
(lp6533
g57
(g58
g59
NtRp6534
(dp6535
g62
(dp6536
g70
I1
ssg71
g6530
sg64
(lp6537
S'[auth_cas]'
p6538
asbasbasbag57
(g73
g59
NtRp6539
(dp6540
g62
(dp6541
sg71
g6522
sg64
(lp6542
g57
(g78
g59
NtRp6543
(dp6544
g62
(dp6545
sg71
g6539
sg64
(lp6546
g57
(g58
g59
NtRp6547
(dp6548
g62
(dp6549
g70
I1
ssg71
g6543
sg64
(lp6550
I00
asbasbasbag57
(g73
g59
NtRp6551
(dp6552
g62
(dp6553
sg71
g6522
sg64
(lp6554
g57
(g78
g59
NtRp6555
(dp6556
g62
(dp6557
sg71
g6551
sg64
(lp6558
g57
(g58
g59
NtRp6559
(dp6560
g62
(dp6561
g70
I1
ssg71
g6555
sg64
(lp6562
S'/flisol2012/default/create/auth_cas'
p6563
asbasbasbasbasbasbasbag57
(g73
g59
NtRp6564
(dp6565
g62
(dp6566
sg71
g5858
sg64
(lp6567
g57
(g78
g59
NtRp6568
(dp6569
g62
(dp6570
sg71
g6564
sg64
(lp6571
g57
(g58
g59
NtRp6572
(dp6573
g62
(dp6574
g70
I2
ssg71
g6568
sg64
(lp6575
g57
(g66
g59
NtRp6576
(dp6577
g62
(dp6578
g70
I1
ssg71
Nsg64
(lp6579
g57
(g73
g59
NtRp6580
(dp6581
g62
(dp6582
sg71
g6576
sg64
(lp6583
g57
(g78
g59
NtRp6584
(dp6585
g62
(dp6586
sg71
g6580
sg64
(lp6587
g57
(g58
g59
NtRp6588
(dp6589
g62
(dp6590
g70
I1
ssg71
g6584
sg64
(lp6591
S'[payment]'
p6592
asbasbasbag57
(g73
g59
NtRp6593
(dp6594
g62
(dp6595
sg71
g6576
sg64
(lp6596
g57
(g78
g59
NtRp6597
(dp6598
g62
(dp6599
sg71
g6593
sg64
(lp6600
g57
(g58
g59
NtRp6601
(dp6602
g62
(dp6603
g70
I1
ssg71
g6597
sg64
(lp6604
I00
asbasbasbag57
(g73
g59
NtRp6605
(dp6606
g62
(dp6607
sg71
g6576
sg64
(lp6608
g57
(g78
g59
NtRp6609
(dp6610
g62
(dp6611
sg71
g6605
sg64
(lp6612
g57
(g58
g59
NtRp6613
(dp6614
g62
(dp6615
g70
I1
ssg71
g6609
sg64
(lp6616
S'/flisol2012/default/create/payment'
p6617
asbasbasbasbasbasbasbag57
(g73
g59
NtRp6618
(dp6619
g62
(dp6620
sg71
g5858
sg64
(lp6621
g57
(g78
g59
NtRp6622
(dp6623
g62
(dp6624
sg71
g6618
sg64
(lp6625
g57
(g58
g59
NtRp6626
(dp6627
g62
(dp6628
g70
I2
ssg71
g6622
sg64
(lp6629
g57
(g66
g59
NtRp6630
(dp6631
g62
(dp6632
g70
I1
ssg71
Nsg64
(lp6633
g57
(g73
g59
NtRp6634
(dp6635
g62
(dp6636
sg71
g6630
sg64
(lp6637
g57
(g78
g59
NtRp6638
(dp6639
g62
(dp6640
sg71
g6634
sg64
(lp6641
g57
(g58
g59
NtRp6642
(dp6643
g62
(dp6644
g70
I1
ssg71
g6638
sg64
(lp6645
S'[money_transfer]'
p6646
asbasbasbag57
(g73
g59
NtRp6647
(dp6648
g62
(dp6649
sg71
g6630
sg64
(lp6650
g57
(g78
g59
NtRp6651
(dp6652
g62
(dp6653
sg71
g6647
sg64
(lp6654
g57
(g58
g59
NtRp6655
(dp6656
g62
(dp6657
g70
I1
ssg71
g6651
sg64
(lp6658
I00
asbasbasbag57
(g73
g59
NtRp6659
(dp6660
g62
(dp6661
sg71
g6630
sg64
(lp6662
g57
(g78
g59
NtRp6663
(dp6664
g62
(dp6665
sg71
g6659
sg64
(lp6666
g57
(g58
g59
NtRp6667
(dp6668
g62
(dp6669
g70
I1
ssg71
g6663
sg64
(lp6670
S'/flisol2012/default/create/money_transfer'
p6671
asbasbasbasbasbasbasbag57
(g73
g59
NtRp6672
(dp6673
g62
(dp6674
sg71
g5858
sg64
(lp6675
g57
(g78
g59
NtRp6676
(dp6677
g62
(dp6678
sg71
g6672
sg64
(lp6679
g57
(g58
g59
NtRp6680
(dp6681
g62
(dp6682
g70
I2
ssg71
g6676
sg64
(lp6683
g57
(g66
g59
NtRp6684
(dp6685
g62
(dp6686
g70
I1
ssg71
Nsg64
(lp6687
g57
(g73
g59
NtRp6688
(dp6689
g62
(dp6690
sg71
g6684
sg64
(lp6691
g57
(g78
g59
NtRp6692
(dp6693
g62
(dp6694
sg71
g6688
sg64
(lp6695
g57
(g58
g59
NtRp6696
(dp6697
g62
(dp6698
g70
I1
ssg71
g6692
sg64
(lp6699
S'[coupon]'
p6700
asbasbasbag57
(g73
g59
NtRp6701
(dp6702
g62
(dp6703
sg71
g6684
sg64
(lp6704
g57
(g78
g59
NtRp6705
(dp6706
g62
(dp6707
sg71
g6701
sg64
(lp6708
g57
(g58
g59
NtRp6709
(dp6710
g62
(dp6711
g70
I1
ssg71
g6705
sg64
(lp6712
I00
asbasbasbag57
(g73
g59
NtRp6713
(dp6714
g62
(dp6715
sg71
g6684
sg64
(lp6716
g57
(g78
g59
NtRp6717
(dp6718
g62
(dp6719
sg71
g6713
sg64
(lp6720
g57
(g58
g59
NtRp6721
(dp6722
g62
(dp6723
g70
I1
ssg71
g6717
sg64
(lp6724
S'/flisol2012/default/create/coupon'
p6725
asbasbasbasbasbasbasbag57
(g73
g59
NtRp6726
(dp6727
g62
(dp6728
sg71
g5858
sg64
(lp6729
g57
(g78
g59
NtRp6730
(dp6731
g62
(dp6732
sg71
g6726
sg64
(lp6733
g57
(g58
g59
NtRp6734
(dp6735
g62
(dp6736
g70
I2
ssg71
g6730
sg64
(lp6737
g57
(g66
g59
NtRp6738
(dp6739
g62
(dp6740
g70
I1
ssg71
Nsg64
(lp6741
g57
(g73
g59
NtRp6742
(dp6743
g62
(dp6744
sg71
g6738
sg64
(lp6745
g57
(g78
g59
NtRp6746
(dp6747
g62
(dp6748
sg71
g6742
sg64
(lp6749
g57
(g58
g59
NtRp6750
(dp6751
g62
(dp6752
g70
I1
ssg71
g6746
sg64
(lp6753
S'[talk]'
p6754
asbasbasbag57
(g73
g59
NtRp6755
(dp6756
g62
(dp6757
sg71
g6738
sg64
(lp6758
g57
(g78
g59
NtRp6759
(dp6760
g62
(dp6761
sg71
g6755
sg64
(lp6762
g57
(g58
g59
NtRp6763
(dp6764
g62
(dp6765
g70
I1
ssg71
g6759
sg64
(lp6766
I00
asbasbasbag57
(g73
g59
NtRp6767
(dp6768
g62
(dp6769
sg71
g6738
sg64
(lp6770
g57
(g78
g59
NtRp6771
(dp6772
g62
(dp6773
sg71
g6767
sg64
(lp6774
g57
(g58
g59
NtRp6775
(dp6776
g62
(dp6777
g70
I1
ssg71
g6771
sg64
(lp6778
S'/flisol2012/default/create/talk'
p6779
asbasbasbasbasbasbasbag57
(g73
g59
NtRp6780
(dp6781
g62
(dp6782
sg71
g5858
sg64
(lp6783
g57
(g78
g59
NtRp6784
(dp6785
g62
(dp6786
sg71
g6780
sg64
(lp6787
g57
(g58
g59
NtRp6788
(dp6789
g62
(dp6790
g70
I2
ssg71
g6784
sg64
(lp6791
g57
(g66
g59
NtRp6792
(dp6793
g62
(dp6794
g70
I1
ssg71
Nsg64
(lp6795
g57
(g73
g59
NtRp6796
(dp6797
g62
(dp6798
sg71
g6792
sg64
(lp6799
g57
(g78
g59
NtRp6800
(dp6801
g62
(dp6802
sg71
g6796
sg64
(lp6803
g57
(g58
g59
NtRp6804
(dp6805
g62
(dp6806
g70
I1
ssg71
g6800
sg64
(lp6807
S'[talk_archived]'
p6808
asbasbasbag57
(g73
g59
NtRp6809
(dp6810
g62
(dp6811
sg71
g6792
sg64
(lp6812
g57
(g78
g59
NtRp6813
(dp6814
g62
(dp6815
sg71
g6809
sg64
(lp6816
g57
(g58
g59
NtRp6817
(dp6818
g62
(dp6819
g70
I1
ssg71
g6813
sg64
(lp6820
I00
asbasbasbag57
(g73
g59
NtRp6821
(dp6822
g62
(dp6823
sg71
g6792
sg64
(lp6824
g57
(g78
g59
NtRp6825
(dp6826
g62
(dp6827
sg71
g6821
sg64
(lp6828
g57
(g58
g59
NtRp6829
(dp6830
g62
(dp6831
g70
I1
ssg71
g6825
sg64
(lp6832
S'/flisol2012/default/create/talk_archived'
p6833
asbasbasbasbasbasbasbag57
(g73
g59
NtRp6834
(dp6835
g62
(dp6836
sg71
g5858
sg64
(lp6837
g57
(g78
g59
NtRp6838
(dp6839
g62
(dp6840
sg71
g6834
sg64
(lp6841
g57
(g58
g59
NtRp6842
(dp6843
g62
(dp6844
g70
I2
ssg71
g6838
sg64
(lp6845
g57
(g66
g59
NtRp6846
(dp6847
g62
(dp6848
g70
I1
ssg71
Nsg64
(lp6849
g57
(g73
g59
NtRp6850
(dp6851
g62
(dp6852
sg71
g6846
sg64
(lp6853
g57
(g78
g59
NtRp6854
(dp6855
g62
(dp6856
sg71
g6850
sg64
(lp6857
g57
(g58
g59
NtRp6858
(dp6859
g62
(dp6860
g70
I1
ssg71
g6854
sg64
(lp6861
S'[fa]'
p6862
asbasbasbag57
(g73
g59
NtRp6863
(dp6864
g62
(dp6865
sg71
g6846
sg64
(lp6866
g57
(g78
g59
NtRp6867
(dp6868
g62
(dp6869
sg71
g6863
sg64
(lp6870
g57
(g58
g59
NtRp6871
(dp6872
g62
(dp6873
g70
I1
ssg71
g6867
sg64
(lp6874
I00
asbasbasbag57
(g73
g59
NtRp6875
(dp6876
g62
(dp6877
sg71
g6846
sg64
(lp6878
g57
(g78
g59
NtRp6879
(dp6880
g62
(dp6881
sg71
g6875
sg64
(lp6882
g57
(g58
g59
NtRp6883
(dp6884
g62
(dp6885
g70
I1
ssg71
g6879
sg64
(lp6886
S'/flisol2012/default/create/fa'
p6887
asbasbasbasbasbasbasbag57
(g73
g59
NtRp6888
(dp6889
g62
(dp6890
sg71
g5858
sg64
(lp6891
g57
(g78
g59
NtRp6892
(dp6893
g62
(dp6894
sg71
g6888
sg64
(lp6895
g57
(g58
g59
NtRp6896
(dp6897
g62
(dp6898
g70
I2
ssg71
g6892
sg64
(lp6899
g57
(g66
g59
NtRp6900
(dp6901
g62
(dp6902
g70
I1
ssg71
Nsg64
(lp6903
g57
(g73
g59
NtRp6904
(dp6905
g62
(dp6906
sg71
g6900
sg64
(lp6907
g57
(g78
g59
NtRp6908
(dp6909
g62
(dp6910
sg71
g6904
sg64
(lp6911
g57
(g58
g59
NtRp6912
(dp6913
g62
(dp6914
g70
I1
ssg71
g6908
sg64
(lp6915
S'[person]'
p6916
asbasbasbag57
(g73
g59
NtRp6917
(dp6918
g62
(dp6919
sg71
g6900
sg64
(lp6920
g57
(g78
g59
NtRp6921
(dp6922
g62
(dp6923
sg71
g6917
sg64
(lp6924
g57
(g58
g59
NtRp6925
(dp6926
g62
(dp6927
g70
I1
ssg71
g6921
sg64
(lp6928
I00
asbasbasbag57
(g73
g59
NtRp6929
(dp6930
g62
(dp6931
sg71
g6900
sg64
(lp6932
g57
(g78
g59
NtRp6933
(dp6934
g62
(dp6935
sg71
g6929
sg64
(lp6936
g57
(g58
g59
NtRp6937
(dp6938
g62
(dp6939
g70
I1
ssg71
g6933
sg64
(lp6940
S'/flisol2012/default/create/t2_person'
p6941
asbasbasbasbasbasbasbag57
(g73
g59
NtRp6942
(dp6943
g62
(dp6944
sg71
g5858
sg64
(lp6945
g57
(g78
g59
NtRp6946
(dp6947
g62
(dp6948
sg71
g6942
sg64
(lp6949
g57
(g58
g59
NtRp6950
(dp6951
g62
(dp6952
g70
I2
ssg71
g6946
sg64
(lp6953
g57
(g66
g59
NtRp6954
(dp6955
g62
(dp6956
g70
I1
ssg71
Nsg64
(lp6957
g57
(g73
g59
NtRp6958
(dp6959
g62
(dp6960
sg71
g6954
sg64
(lp6961
g57
(g78
g59
NtRp6962
(dp6963
g62
(dp6964
sg71
g6958
sg64
(lp6965
g57
(g58
g59
NtRp6966
(dp6967
g62
(dp6968
g70
I1
ssg71
g6962
sg64
(lp6969
S'[group]'
p6970
asbasbasbag57
(g73
g59
NtRp6971
(dp6972
g62
(dp6973
sg71
g6954
sg64
(lp6974
g57
(g78
g59
NtRp6975
(dp6976
g62
(dp6977
sg71
g6971
sg64
(lp6978
g57
(g58
g59
NtRp6979
(dp6980
g62
(dp6981
g70
I1
ssg71
g6975
sg64
(lp6982
I00
asbasbasbag57
(g73
g59
NtRp6983
(dp6984
g62
(dp6985
sg71
g6954
sg64
(lp6986
g57
(g78
g59
NtRp6987
(dp6988
g62
(dp6989
sg71
g6983
sg64
(lp6990
g57
(g58
g59
NtRp6991
(dp6992
g62
(dp6993
g70
I1
ssg71
g6987
sg64
(lp6994
S'/flisol2012/default/create/t2_group'
p6995
asbasbasbasbasbasbasbag57
(g73
g59
NtRp6996
(dp6997
g62
(dp6998
sg71
g5858
sg64
(lp6999
g57
(g78
g59
NtRp7000
(dp7001
g62
(dp7002
sg71
g6996
sg64
(lp7003
g57
(g58
g59
NtRp7004
(dp7005
g62
(dp7006
g70
I2
ssg71
g7000
sg64
(lp7007
g57
(g66
g59
NtRp7008
(dp7009
g62
(dp7010
g70
I1
ssg71
Nsg64
(lp7011
g57
(g73
g59
NtRp7012
(dp7013
g62
(dp7014
sg71
g7008
sg64
(lp7015
g57
(g78
g59
NtRp7016
(dp7017
g62
(dp7018
sg71
g7012
sg64
(lp7019
g57
(g58
g59
NtRp7020
(dp7021
g62
(dp7022
g70
I1
ssg71
g7016
sg64
(lp7023
S'[membership]'
p7024
asbasbasbag57
(g73
g59
NtRp7025
(dp7026
g62
(dp7027
sg71
g7008
sg64
(lp7028
g57
(g78
g59
NtRp7029
(dp7030
g62
(dp7031
sg71
g7025
sg64
(lp7032
g57
(g58
g59
NtRp7033
(dp7034
g62
(dp7035
g70
I1
ssg71
g7029
sg64
(lp7036
I00
asbasbasbag57
(g73
g59
NtRp7037
(dp7038
g62
(dp7039
sg71
g7008
sg64
(lp7040
g57
(g78
g59
NtRp7041
(dp7042
g62
(dp7043
sg71
g7037
sg64
(lp7044
g57
(g58
g59
NtRp7045
(dp7046
g62
(dp7047
g70
I1
ssg71
g7041
sg64
(lp7048
S'/flisol2012/default/create/t2_membership'
p7049
asbasbasbasbasbasbasbag57
(g73
g59
NtRp7050
(dp7051
g62
(dp7052
sg71
g5858
sg64
(lp7053
g57
(g78
g59
NtRp7054
(dp7055
g62
(dp7056
sg71
g7050
sg64
(lp7057
g57
(g58
g59
NtRp7058
(dp7059
g62
(dp7060
g70
I2
ssg71
g7054
sg64
(lp7061
g57
(g66
g59
NtRp7062
(dp7063
g62
(dp7064
g70
I1
ssg71
Nsg64
(lp7065
g57
(g73
g59
NtRp7066
(dp7067
g62
(dp7068
sg71
g7062
sg64
(lp7069
g57
(g78
g59
NtRp7070
(dp7071
g62
(dp7072
sg71
g7066
sg64
(lp7073
g57
(g58
g59
NtRp7074
(dp7075
g62
(dp7076
g70
I1
ssg71
g7070
sg64
(lp7077
S'[access]'
p7078
asbasbasbag57
(g73
g59
NtRp7079
(dp7080
g62
(dp7081
sg71
g7062
sg64
(lp7082
g57
(g78
g59
NtRp7083
(dp7084
g62
(dp7085
sg71
g7079
sg64
(lp7086
g57
(g58
g59
NtRp7087
(dp7088
g62
(dp7089
g70
I1
ssg71
g7083
sg64
(lp7090
I00
asbasbasbag57
(g73
g59
NtRp7091
(dp7092
g62
(dp7093
sg71
g7062
sg64
(lp7094
g57
(g78
g59
NtRp7095
(dp7096
g62
(dp7097
sg71
g7091
sg64
(lp7098
g57
(g58
g59
NtRp7099
(dp7100
g62
(dp7101
g70
I1
ssg71
g7095
sg64
(lp7102
S'/flisol2012/default/create/t2_access'
p7103
asbasbasbasbasbasbasbag57
(g73
g59
NtRp7104
(dp7105
g62
(dp7106
sg71
g5858
sg64
(lp7107
g57
(g78
g59
NtRp7108
(dp7109
g62
(dp7110
sg71
g7104
sg64
(lp7111
g57
(g58
g59
NtRp7112
(dp7113
g62
(dp7114
g70
I2
ssg71
g7108
sg64
(lp7115
g57
(g66
g59
NtRp7116
(dp7117
g62
(dp7118
g70
I1
ssg71
Nsg64
(lp7119
g57
(g73
g59
NtRp7120
(dp7121
g62
(dp7122
sg71
g7116
sg64
(lp7123
g57
(g78
g59
NtRp7124
(dp7125
g62
(dp7126
sg71
g7120
sg64
(lp7127
g57
(g58
g59
NtRp7128
(dp7129
g62
(dp7130
g70
I1
ssg71
g7124
sg64
(lp7131
S'[attachment]'
p7132
asbasbasbag57
(g73
g59
NtRp7133
(dp7134
g62
(dp7135
sg71
g7116
sg64
(lp7136
g57
(g78
g59
NtRp7137
(dp7138
g62
(dp7139
sg71
g7133
sg64
(lp7140
g57
(g58
g59
NtRp7141
(dp7142
g62
(dp7143
g70
I1
ssg71
g7137
sg64
(lp7144
I00
asbasbasbag57
(g73
g59
NtRp7145
(dp7146
g62
(dp7147
sg71
g7116
sg64
(lp7148
g57
(g78
g59
NtRp7149
(dp7150
g62
(dp7151
sg71
g7145
sg64
(lp7152
g57
(g58
g59
NtRp7153
(dp7154
g62
(dp7155
g70
I1
ssg71
g7149
sg64
(lp7156
S'/flisol2012/default/create/t2_attachment'
p7157
asbasbasbasbasbasbasbag57
(g73
g59
NtRp7158
(dp7159
g62
(dp7160
sg71
g5858
sg64
(lp7161
g57
(g78
g59
NtRp7162
(dp7163
g62
(dp7164
sg71
g7158
sg64
(lp7165
g57
(g58
g59
NtRp7166
(dp7167
g62
(dp7168
g70
I2
ssg71
g7162
sg64
(lp7169
g57
(g66
g59
NtRp7170
(dp7171
g62
(dp7172
g70
I1
ssg71
Nsg64
(lp7173
g57
(g73
g59
NtRp7174
(dp7175
g62
(dp7176
sg71
g7170
sg64
(lp7177
g57
(g78
g59
NtRp7178
(dp7179
g62
(dp7180
sg71
g7174
sg64
(lp7181
g57
(g58
g59
NtRp7182
(dp7183
g62
(dp7184
g70
I1
ssg71
g7178
sg64
(lp7185
S'[comment]'
p7186
asbasbasbag57
(g73
g59
NtRp7187
(dp7188
g62
(dp7189
sg71
g7170
sg64
(lp7190
g57
(g78
g59
NtRp7191
(dp7192
g62
(dp7193
sg71
g7187
sg64
(lp7194
g57
(g58
g59
NtRp7195
(dp7196
g62
(dp7197
g70
I1
ssg71
g7191
sg64
(lp7198
I00
asbasbasbag57
(g73
g59
NtRp7199
(dp7200
g62
(dp7201
sg71
g7170
sg64
(lp7202
g57
(g78
g59
NtRp7203
(dp7204
g62
(dp7205
sg71
g7199
sg64
(lp7206
g57
(g58
g59
NtRp7207
(dp7208
g62
(dp7209
g70
I1
ssg71
g7203
sg64
(lp7210
S'/flisol2012/default/create/t2_comment'
p7211
asbasbasbasbasbasbasbag57
(g73
g59
NtRp7212
(dp7213
g62
(dp7214
sg71
g5858
sg64
(lp7215
g57
(g78
g59
NtRp7216
(dp7217
g62
(dp7218
sg71
g7212
sg64
(lp7219
g57
(g58
g59
NtRp7220
(dp7221
g62
(dp7222
g70
I2
ssg71
g7216
sg64
(lp7223
g57
(g66
g59
NtRp7224
(dp7225
g62
(dp7226
g70
I1
ssg71
Nsg64
(lp7227
g57
(g73
g59
NtRp7228
(dp7229
g62
(dp7230
sg71
g7224
sg64
(lp7231
g57
(g78
g59
NtRp7232
(dp7233
g62
(dp7234
sg71
g7228
sg64
(lp7235
g57
(g58
g59
NtRp7236
(dp7237
g62
(dp7238
g70
I1
ssg71
g7232
sg64
(lp7239
S'[review]'
p7240
asbasbasbag57
(g73
g59
NtRp7241
(dp7242
g62
(dp7243
sg71
g7224
sg64
(lp7244
g57
(g78
g59
NtRp7245
(dp7246
g62
(dp7247
sg71
g7241
sg64
(lp7248
g57
(g58
g59
NtRp7249
(dp7250
g62
(dp7251
g70
I1
ssg71
g7245
sg64
(lp7252
I00
asbasbasbag57
(g73
g59
NtRp7253
(dp7254
g62
(dp7255
sg71
g7224
sg64
(lp7256
g57
(g78
g59
NtRp7257
(dp7258
g62
(dp7259
sg71
g7253
sg64
(lp7260
g57
(g58
g59
NtRp7261
(dp7262
g62
(dp7263
g70
I1
ssg71
g7257
sg64
(lp7264
S'/flisol2012/default/create/t2_review'
p7265
asbasbasbasbasbasbasbag57
(g73
g59
NtRp7266
(dp7267
g62
(dp7268
sg71
g5858
sg64
(lp7269
g57
(g78
g59
NtRp7270
(dp7271
g62
(dp7272
sg71
g7266
sg64
(lp7273
g57
(g58
g59
NtRp7274
(dp7275
g62
(dp7276
g70
I2
ssg71
g7270
sg64
(lp7277
g57
(g66
g59
NtRp7278
(dp7279
g62
(dp7280
g70
I1
ssg71
Nsg64
(lp7281
g57
(g73
g59
NtRp7282
(dp7283
g62
(dp7284
sg71
g7278
sg64
(lp7285
g57
(g78
g59
NtRp7286
(dp7287
g62
(dp7288
sg71
g7282
sg64
(lp7289
g57
(g58
g59
NtRp7290
(dp7291
g62
(dp7292
g70
I1
ssg71
g7286
sg64
(lp7293
S'[wiki]'
p7294
asbasbasbag57
(g73
g59
NtRp7295
(dp7296
g62
(dp7297
sg71
g7278
sg64
(lp7298
g57
(g78
g59
NtRp7299
(dp7300
g62
(dp7301
sg71
g7295
sg64
(lp7302
g57
(g58
g59
NtRp7303
(dp7304
g62
(dp7305
g70
I1
ssg71
g7299
sg64
(lp7306
I00
asbasbasbag57
(g73
g59
NtRp7307
(dp7308
g62
(dp7309
sg71
g7278
sg64
(lp7310
g57
(g78
g59
NtRp7311
(dp7312
g62
(dp7313
sg71
g7307
sg64
(lp7314
g57
(g58
g59
NtRp7315
(dp7316
g62
(dp7317
g70
I1
ssg71
g7311
sg64
(lp7318
S'/flisol2012/default/create/t2_wiki'
p7319
asbasbasbasbasbasbasbag57
(g73
g59
NtRp7320
(dp7321
g62
(dp7322
sg71
g5858
sg64
(lp7323
g57
(g78
g59
NtRp7324
(dp7325
g62
(dp7326
sg71
g7320
sg64
(lp7327
g57
(g58
g59
NtRp7328
(dp7329
g62
(dp7330
g70
I2
ssg71
g7324
sg64
(lp7331
g57
(g66
g59
NtRp7332
(dp7333
g62
(dp7334
g70
I1
ssg71
Nsg64
(lp7335
g57
(g73
g59
NtRp7336
(dp7337
g62
(dp7338
sg71
g7332
sg64
(lp7339
g57
(g78
g59
NtRp7340
(dp7341
g62
(dp7342
sg71
g7336
sg64
(lp7343
g57
(g58
g59
NtRp7344
(dp7345
g62
(dp7346
g70
I1
ssg71
g7340
sg64
(lp7347
S'[expense_form]'
p7348
asbasbasbag57
(g73
g59
NtRp7349
(dp7350
g62
(dp7351
sg71
g7332
sg64
(lp7352
g57
(g78
g59
NtRp7353
(dp7354
g62
(dp7355
sg71
g7349
sg64
(lp7356
g57
(g58
g59
NtRp7357
(dp7358
g62
(dp7359
g70
I1
ssg71
g7353
sg64
(lp7360
I00
asbasbasbag57
(g73
g59
NtRp7361
(dp7362
g62
(dp7363
sg71
g7332
sg64
(lp7364
g57
(g78
g59
NtRp7365
(dp7366
g62
(dp7367
sg71
g7361
sg64
(lp7368
g57
(g58
g59
NtRp7369
(dp7370
g62
(dp7371
g70
I1
ssg71
g7365
sg64
(lp7372
S'/flisol2012/default/create/expense_form'
p7373
asbasbasbasbasbasbasbag57
(g73
g59
NtRp7374
(dp7375
g62
(dp7376
sg71
g5858
sg64
(lp7377
g57
(g78
g59
NtRp7378
(dp7379
g62
(dp7380
sg71
g7374
sg64
(lp7381
g57
(g58
g59
NtRp7382
(dp7383
g62
(dp7384
g70
I2
ssg71
g7378
sg64
(lp7385
g57
(g66
g59
NtRp7386
(dp7387
g62
(dp7388
g70
I1
ssg71
Nsg64
(lp7389
g57
(g73
g59
NtRp7390
(dp7391
g62
(dp7392
sg71
g7386
sg64
(lp7393
g57
(g78
g59
NtRp7394
(dp7395
g62
(dp7396
sg71
g7390
sg64
(lp7397
g57
(g58
g59
NtRp7398
(dp7399
g62
(dp7400
g70
I1
ssg71
g7394
sg64
(lp7401
S'[expense_item]'
p7402
asbasbasbag57
(g73
g59
NtRp7403
(dp7404
g62
(dp7405
sg71
g7386
sg64
(lp7406
g57
(g78
g59
NtRp7407
(dp7408
g62
(dp7409
sg71
g7403
sg64
(lp7410
g57
(g58
g59
NtRp7411
(dp7412
g62
(dp7413
g70
I1
ssg71
g7407
sg64
(lp7414
I00
asbasbasbag57
(g73
g59
NtRp7415
(dp7416
g62
(dp7417
sg71
g7386
sg64
(lp7418
g57
(g78
g59
NtRp7419
(dp7420
g62
(dp7421
sg71
g7415
sg64
(lp7422
g57
(g58
g59
NtRp7423
(dp7424
g62
(dp7425
g70
I1
ssg71
g7419
sg64
(lp7426
S'/flisol2012/default/create/expense_item'
p7427
asbasbasbasbasbasbasbag57
(g73
g59
NtRp7428
(dp7429
g62
(dp7430
sg71
g5858
sg64
(lp7431
g57
(g78
g59
NtRp7432
(dp7433
g62
(dp7434
sg71
g7428
sg64
(lp7435
g57
(g58
g59
NtRp7436
(dp7437
g62
(dp7438
g70
I2
ssg71
g7432
sg64
(lp7439
g57
(g66
g59
NtRp7440
(dp7441
g62
(dp7442
g70
I1
ssg71
Nsg64
(lp7443
g57
(g73
g59
NtRp7444
(dp7445
g62
(dp7446
sg71
g7440
sg64
(lp7447
g57
(g78
g59
NtRp7448
(dp7449
g62
(dp7450
sg71
g7444
sg64
(lp7451
g57
(g58
g59
NtRp7452
(dp7453
g62
(dp7454
g70
I1
ssg71
g7448
sg64
(lp7455
S'[asistente]'
p7456
asbasbasbag57
(g73
g59
NtRp7457
(dp7458
g62
(dp7459
sg71
g7440
sg64
(lp7460
g57
(g78
g59
NtRp7461
(dp7462
g62
(dp7463
sg71
g7457
sg64
(lp7464
g57
(g58
g59
NtRp7465
(dp7466
g62
(dp7467
g70
I1
ssg71
g7461
sg64
(lp7468
I00
asbasbasbag57
(g73
g59
NtRp7469
(dp7470
g62
(dp7471
sg71
g7440
sg64
(lp7472
g57
(g78
g59
NtRp7473
(dp7474
g62
(dp7475
sg71
g7469
sg64
(lp7476
g57
(g58
g59
NtRp7477
(dp7478
g62
(dp7479
g70
I1
ssg71
g7473
sg64
(lp7480
S'/flisol2012/default/create/asistente'
p7481
asbasbasbasbasbasbasbasbasbasbasbasbasbasbasbasbasbasbasbag57
(g73
g59
NtRp7482
(dp7483
g62
(dp7484
sg71
g4430
sg64
(lp7485
g57
(g78
g59
NtRp7486
(dp7487
g62
(dp7488
g82
g83
ssg71
g7482
sg64
(lp7489
S'meta'
p7490
asbag57
(g78
g59
NtRp7491
(dp7492
g62
(dp7493
g89
g90
ssg71
g7482
sg64
(lp7494
S':'
asbag57
(g78
g59
NtRp7495
(dp7496
g62
(dp7497
sg71
g7482
sg64
(lp7498
g57
(g58
g59
NtRp7499
(dp7500
g62
(dp7501
g70
I5
ssg71
g7495
sg64
(lp7502
g57
(g66
g59
NtRp7503
(dp7504
g62
(dp7505
g70
I4
ssg71
Nsg64
(lp7506
sbasbasbasbag57
(g73
g59
NtRp7507
(dp7508
g62
(dp7509
sg71
g4430
sg64
(lp7510
g57
(g78
g59
NtRp7511
(dp7512
g62
(dp7513
g82
g83
ssg71
g7507
sg64
(lp7514
S'postprocessing'
p7515
asbag57
(g78
g59
NtRp7516
(dp7517
g62
(dp7518
g89
g90
ssg71
g7507
sg64
(lp7519
S':'
asbag57
(g78
g59
NtRp7520
(dp7521
g62
(dp7522
sg71
g7507
sg64
(lp7523
g57
(g58
g59
NtRp7524
(dp7525
g62
(dp7526
g70
I5
ssg71
g7520
sg64
(lp7527
g57
(g66
g59
NtRp7528
(dp7529
g62
(dp7530
g70
I4
ssg71
Nsg64
(lp7531
sbasbasbasbag57
(g73
g59
NtRp7532
(dp7533
g62
(dp7534
sg71
g4430
sg64
(lp7535
g57
(g78
g59
NtRp7536
(dp7537
g62
(dp7538
g82
g83
ssg71
g7532
sg64
(lp7539
S'session_file'
p7540
asbag57
(g78
g59
NtRp7541
(dp7542
g62
(dp7543
g89
g90
ssg71
g7532
sg64
(lp7544
S':'
asbag57
(g78
g59
NtRp7545
(dp7546
g62
(dp7547
sg71
g7532
sg64
(lp7548
g57
(g58
g59
NtRp7549
(dp7550
g62
(dp7551
g70
I5
ssg71
g7545
sg64
(lp7552
S"<open file '/home/marco/flisol2012/web2py/applications/flisol2012/sessions/127.0.0.1-2ede3a58-f97e-48e1-8d0e-90e5ecfe16bf', mode 'rb+' at 0x419bae0>"
p7553
asbasbasbag57
(g73
g59
NtRp7554
(dp7555
g62
(dp7556
sg71
g4430
sg64
(lp7557
g57
(g78
g59
NtRp7558
(dp7559
g62
(dp7560
g82
g83
ssg71
g7554
sg64
(lp7561
S'session_filename'
p7562
asbag57
(g78
g59
NtRp7563
(dp7564
g62
(dp7565
g89
g90
ssg71
g7554
sg64
(lp7566
S':'
asbag57
(g78
g59
NtRp7567
(dp7568
g62
(dp7569
sg71
g7554
sg64
(lp7570
g57
(g58
g59
NtRp7571
(dp7572
g62
(dp7573
g70
I5
ssg71
g7567
sg64
(lp7574
S'/home/marco/flisol2012/web2py/applications/flisol2012/sessions/127.0.0.1-2ede3a58-f97e-48e1-8d0e-90e5ecfe16bf'
p7575
asbasbasbag57
(g73
g59
NtRp7576
(dp7577
g62
(dp7578
sg71
g4430
sg64
(lp7579
g57
(g78
g59
NtRp7580
(dp7581
g62
(dp7582
g82
g83
ssg71
g7576
sg64
(lp7583
S'session_id'
p7584
asbag57
(g78
g59
NtRp7585
(dp7586
g62
(dp7587
g89
g90
ssg71
g7576
sg64
(lp7588
S':'
asbag57
(g78
g59
NtRp7589
(dp7590
g62
(dp7591
sg71
g7576
sg64
(lp7592
g57
(g58
g59
NtRp7593
(dp7594
g62
(dp7595
g70
I5
ssg71
g7589
sg64
(lp7596
S'127.0.0.1-2ede3a58-f97e-48e1-8d0e-90e5ecfe16bf'
p7597
asbasbasbag57
(g73
g59
NtRp7598
(dp7599
g62
(dp7600
sg71
g4430
sg64
(lp7601
g57
(g78
g59
NtRp7602
(dp7603
g62
(dp7604
g82
g83
ssg71
g7598
sg64
(lp7605
S'session_id_name'
p7606
asbag57
(g78
g59
NtRp7607
(dp7608
g62
(dp7609
g89
g90
ssg71
g7598
sg64
(lp7610
S':'
asbag57
(g78
g59
NtRp7611
(dp7612
g62
(dp7613
sg71
g7598
sg64
(lp7614
g57
(g58
g59
NtRp7615
(dp7616
g62
(dp7617
g70
I5
ssg71
g7611
sg64
(lp7618
g4487
asbasbasbag57
(g73
g59
NtRp7619
(dp7620
g62
(dp7621
sg71
g4430
sg64
(lp7622
g57
(g78
g59
NtRp7623
(dp7624
g62
(dp7625
g82
g83
ssg71
g7619
sg64
(lp7626
S'session_locked'
p7627
asbag57
(g78
g59
NtRp7628
(dp7629
g62
(dp7630
g89
g90
ssg71
g7619
sg64
(lp7631
S':'
asbag57
(g78
g59
NtRp7632
(dp7633
g62
(dp7634
sg71
g7619
sg64
(lp7635
g57
(g58
g59
NtRp7636
(dp7637
g62
(dp7638
g70
I5
ssg71
g7632
sg64
(lp7639
g1841
asbasbasbag57
(g73
g59
NtRp7640
(dp7641
g62
(dp7642
sg71
g4430
sg64
(lp7643
g57
(g78
g59
NtRp7644
(dp7645
g62
(dp7646
g82
g83
ssg71
g7640
sg64
(lp7647
S'session_new'
p7648
asbag57
(g78
g59
NtRp7649
(dp7650
g62
(dp7651
g89
g90
ssg71
g7640
sg64
(lp7652
S':'
asbag57
(g78
g59
NtRp7653
(dp7654
g62
(dp7655
sg71
g7640
sg64
(lp7656
g57
(g58
g59
NtRp7657
(dp7658
g62
(dp7659
g70
I5
ssg71
g7653
sg64
(lp7660
g100
asbasbasbag57
(g73
g59
NtRp7661
(dp7662
g62
(dp7663
sg71
g4430
sg64
(lp7664
g57
(g78
g59
NtRp7665
(dp7666
g62
(dp7667
g82
g83
ssg71
g7661
sg64
(lp7668
S'sidebar'
p7669
asbag57
(g78
g59
NtRp7670
(dp7671
g62
(dp7672
g89
g90
ssg71
g7661
sg64
(lp7673
S':'
asbag57
(g78
g59
NtRp7674
(dp7675
g62
(dp7676
sg71
g7661
sg64
(lp7677
g57
(g58
g59
NtRp7678
(dp7679
g62
(dp7680
g70
I5
ssg71
g7674
sg64
(lp7681
g57
(g66
g59
NtRp7682
(dp7683
g62
(dp7684
g70
I4
ssg71
Nsg64
(lp7685
g57
(g73
g59
NtRp7686
(dp7687
g62
(dp7688
sg71
g7682
sg64
(lp7689
g57
(g78
g59
NtRp7690
(dp7691
g62
(dp7692
sg71
g7686
sg64
(lp7693
g57
(g58
g59
NtRp7694
(dp7695
g62
(dp7696
g70
I4
ssg71
g7690
sg64
(lp7697
g57
(g66
g59
NtRp7698
(dp7699
g62
(dp7700
g70
I3
ssg71
Nsg64
(lp7701
g57
(g73
g59
NtRp7702
(dp7703
g62
(dp7704
sg71
g7698
sg64
(lp7705
g57
(g78
g59
NtRp7706
(dp7707
g62
(dp7708
sg71
g7702
sg64
(lp7709
g57
(g58
g59
NtRp7710
(dp7711
g62
(dp7712
g70
I3
ssg71
g7706
sg64
(lp7713
g5157
(S's\x0b\x00\x00\x00Sus Charlas'
tRp7714
asbasbasbag57
(g73
g59
NtRp7715
(dp7716
g62
(dp7717
sg71
g7698
sg64
(lp7718
g57
(g78
g59
NtRp7719
(dp7720
g62
(dp7721
sg71
g7715
sg64
(lp7722
g57
(g58
g59
NtRp7723
(dp7724
g62
(dp7725
g70
I3
ssg71
g7719
sg64
(lp7726
g57
(g66
g59
NtRp7727
(dp7728
g62
(dp7729
g70
I2
ssg71
Nsg64
(lp7730
g57
(g73
g59
NtRp7731
(dp7732
g62
(dp7733
sg71
g7727
sg64
(lp7734
g57
(g78
g59
NtRp7735
(dp7736
g62
(dp7737
sg71
g7731
sg64
(lp7738
g57
(g58
g59
NtRp7739
(dp7740
g62
(dp7741
g70
I2
ssg71
g7735
sg64
(lp7742
g57
(g66
g59
NtRp7743
(dp7744
g62
(dp7745
g70
I1
ssg71
Nsg64
(lp7746
g57
(g73
g59
NtRp7747
(dp7748
g62
(dp7749
sg71
g7743
sg64
(lp7750
g57
(g78
g59
NtRp7751
(dp7752
g62
(dp7753
sg71
g7747
sg64
(lp7754
g57
(g58
g59
NtRp7755
(dp7756
g62
(dp7757
g70
I1
ssg71
g7751
sg64
(lp7758
g5157
(S's\x0f\x00\x00\x00Proponer charla'
tRp7759
asbasbasbag57
(g73
g59
NtRp7760
(dp7761
g62
(dp7762
sg71
g7743
sg64
(lp7763
g57
(g78
g59
NtRp7764
(dp7765
g62
(dp7766
sg71
g7760
sg64
(lp7767
g57
(g58
g59
NtRp7768
(dp7769
g62
(dp7770
g70
I1
ssg71
g7764
sg64
(lp7771
S'/flisol2012/default/propose_talk'
p7772
asbasbasbasbasbasbasbasbasbasbasbasbasbasbasbasbasbasbasbag57
(g73
g59
NtRp7773
(dp7774
g62
(dp7775
sg71
g4430
sg64
(lp7776
g57
(g78
g59
NtRp7777
(dp7778
g62
(dp7779
g82
g83
ssg71
g7773
sg64
(lp7780
S'status'
p7781
asbag57
(g78
g59
NtRp7782
(dp7783
g62
(dp7784
g89
g90
ssg71
g7773
sg64
(lp7785
S':'
asbag57
(g78
g59
NtRp7786
(dp7787
g62
(dp7788
sg71
g7773
sg64
(lp7789
g57
(g58
g59
NtRp7790
(dp7791
g62
(dp7792
g70
I5
ssg71
g7786
sg64
(lp7793
S'200'
p7794
asbasbasbag57
(g73
g59
NtRp7795
(dp7796
g62
(dp7797
sg71
g4430
sg64
(lp7798
g57
(g78
g59
NtRp7799
(dp7800
g62
(dp7801
g82
g83
ssg71
g7795
sg64
(lp7802
S'subtitle'
p7803
asbag57
(g78
g59
NtRp7804
(dp7805
g62
(dp7806
g89
g90
ssg71
g7795
sg64
(lp7807
S':'
asbag57
(g78
g59
NtRp7808
(dp7809
g62
(dp7810
sg71
g7795
sg64
(lp7811
g57
(g58
g59
NtRp7812
(dp7813
g62
(dp7814
g70
I5
ssg71
g7808
sg64
(lp7815
S''
asbasbasbag57
(g73
g59
NtRp7816
(dp7817
g62
(dp7818
sg71
g4430
sg64
(lp7819
g57
(g78
g59
NtRp7820
(dp7821
g62
(dp7822
g82
g83
ssg71
g7816
sg64
(lp7823
S'title'
p7824
asbag57
(g78
g59
NtRp7825
(dp7826
g62
(dp7827
g89
g90
ssg71
g7816
sg64
(lp7828
S':'
asbag57
(g78
g59
NtRp7829
(dp7830
g62
(dp7831
sg71
g7816
sg64
(lp7832
g57
(g58
g59
NtRp7833
(dp7834
g62
(dp7835
g70
I5
ssg71
g7829
sg64
(lp7836
S'FLISOL 2012 - Salta'
p7837
asbasbasbag57
(g73
g59
NtRp7838
(dp7839
g62
(dp7840
sg71
g4430
sg64
(lp7841
g57
(g78
g59
NtRp7842
(dp7843
g62
(dp7844
g82
g83
ssg71
g7838
sg64
(lp7845
g2505
asbag57
(g78
g59
NtRp7846
(dp7847
g62
(dp7848
g89
g90
ssg71
g7838
sg64
(lp7849
S':'
asbag57
(g78
g59
NtRp7850
(dp7851
g62
(dp7852
sg71
g7838
sg64
(lp7853
g57
(g58
g59
NtRp7854
(dp7855
g62
(dp7856
g70
I5
ssg71
g7850
sg64
(lp7857
g2518
asbasbasbag57
(g73
g59
NtRp7858
(dp7859
g62
(dp7860
sg71
g4430
sg64
(lp7861
g57
(g78
g59
NtRp7862
(dp7863
g62
(dp7864
g82
g83
ssg71
g7858
sg64
(lp7865
S'view'
p7866
asbag57
(g78
g59
NtRp7867
(dp7868
g62
(dp7869
g89
g90
ssg71
g7858
sg64
(lp7870
S':'
asbag57
(g78
g59
NtRp7871
(dp7872
g62
(dp7873
sg71
g7858
sg64
(lp7874
g57
(g58
g59
NtRp7875
(dp7876
g62
(dp7877
g70
I5
ssg71
g7871
sg64
(lp7878
S'default/financials.html'
p7879
asbasbasbasbasbsS'locals'
p7880
(dp7881
S'self'
p7882
S"<Row {'auth_event': <gluon.dal.Set object at 0x3...x35a26d0>, 'amount_due': 0.0, 'tutorials': None}>"
p7883
sS'm'
S'None'
p7884
sS'key'
p7885
S"'donation_to_PSF'"
p7886
sssS'traceback'
p7887
S'Traceback (most recent call last):\n  File "/home/marco/flisol2012/web2py/gluon/restricted.py", line 205, in restricted\n    exec ccode in environment\n  File "/home/marco/flisol2012/web2py/applications/flisol2012/views/default/financials.html", line 113, in <module>\n  File "/home/marco/flisol2012/web2py/gluon/dal.py", line 5657, in __getattr__\n    return self[key]\n  File "/home/marco/flisol2012/web2py/gluon/dal.py", line 5648, in __getitem__\n    return dict.__getitem__(self, key)\nKeyError: \'donation_to_PSF\'\n'
p7888
s.